   1              		.syntax unified
   2              		.cpu cortex-m4
   3              		.eabi_attribute 27, 3
   4              		.fpu fpv4-sp-d16
   5              		.eabi_attribute 20, 1
   6              		.eabi_attribute 21, 1
   7              		.eabi_attribute 23, 3
   8              		.eabi_attribute 24, 1
   9              		.eabi_attribute 25, 1
  10              		.eabi_attribute 26, 1
  11              		.eabi_attribute 30, 6
  12              		.eabi_attribute 34, 1
  13              		.eabi_attribute 18, 4
  14              		.thumb
  15              		.file	"cli.c"
  16              		.text
  17              	.Ltext0:
  18              		.cfi_sections	.debug_frame
  19              		.comm	mtk19ProcessDataState,1,1
  20              		.comm	nmeaProcessDataState,1,1
  21              		.comm	ubloxProcessDataState,1,1
  22              		.global	cliBusy
  23              		.bss
  26              	cliBusy:
  27 0000 00       		.space	1
  28              	queryType:
  29 0001 00       		.space	1
  30              	validCommand:
  31 0002 00       		.space	1
  32              		.global	highSpeedTelem1Enabled
  35              	highSpeedTelem1Enabled:
  36 0003 00       		.space	1
  37              		.global	highSpeedTelem2Enabled
  40              	highSpeedTelem2Enabled:
  41 0004 00       		.space	1
  42              		.global	highSpeedTelem3Enabled
  45              	highSpeedTelem3Enabled:
  46 0005 00       		.space	1
  47              		.global	highSpeedTelem4Enabled
  50              	highSpeedTelem4Enabled:
  51 0006 00       		.space	1
  52              		.global	highSpeedTelem5Enabled
  55              	highSpeedTelem5Enabled:
  56 0007 00       		.space	1
  57              		.global	highSpeedTelem6Enabled
  60              	highSpeedTelem6Enabled:
  61 0008 00       		.space	1
  62              		.global	highSpeedTelem7Enabled
  65              	highSpeedTelem7Enabled:
  66 0009 00       		.space	1
  67              		.global	highSpeedTelem8Enabled
  70              	highSpeedTelem8Enabled:
  71 000a 00       		.space	1
  72              		.global	highSpeedTelem9Enabled
  75              	highSpeedTelem9Enabled:
  76 000b 00       		.space	1
  77              		.text
  78              		.align	2
  79              		.global	highSpeedTelemDisable
  80              		.thumb
  81              		.thumb_func
  83              	highSpeedTelemDisable:
  84              	.LFB111:
  85              		.file 1 "../src/cli.c"
   1:../src/cli.c  **** /*
   2:../src/cli.c  ****   December 2012
   3:../src/cli.c  **** 
   4:../src/cli.c  ****   aq32Plus_F3 Rev -
   5:../src/cli.c  **** 
   6:../src/cli.c  ****   Copyright (c) 2012 John Ihlein.  All rights reserved.
   7:../src/cli.c  **** 
   8:../src/cli.c  ****   Open Source STM32 Based Multicopter Controller Software
   9:../src/cli.c  **** 
  10:../src/cli.c  ****   Includes code and/or ideas from:
  11:../src/cli.c  **** 
  12:../src/cli.c  ****   1)AeroQuad
  13:../src/cli.c  ****   2)BaseFlight
  14:../src/cli.c  ****   3)CH Robotics
  15:../src/cli.c  ****   4)MultiWii
  16:../src/cli.c  ****   5)S.O.H. Madgwick
  17:../src/cli.c  ****   6)UAVX
  18:../src/cli.c  ****   7)STM DiscoveryF3 demonstration software
  19:../src/cli.c  **** 
  20:../src/cli.c  ****   Designed to run on the DiscoveryF3 board
  21:../src/cli.c  **** 
  22:../src/cli.c  ****   This program is free software: you can redistribute it and/or modify
  23:../src/cli.c  ****   it under the terms of the GNU General Public License as published by
  24:../src/cli.c  ****   the Free Software Foundation, either version 3 of the License, or
  25:../src/cli.c  ****   (at your option) any later version.
  26:../src/cli.c  **** 
  27:../src/cli.c  ****   This program is distributed in the hope that it will be useful,
  28:../src/cli.c  ****   but WITHOUT ANY WARRANTY; without even the implied warranty of
  29:../src/cli.c  ****   MERCHANTABILITY or FITNESS FOR A PARTICULAR PURPOSE. See the
  30:../src/cli.c  ****   GNU General Public License for more details.
  31:../src/cli.c  **** 
  32:../src/cli.c  ****   You should have received a copy of the GNU General Public License
  33:../src/cli.c  ****   along with this program. If not, see <http://www.gnu.org/licenses/>.
  34:../src/cli.c  **** */
  35:../src/cli.c  **** 
  36:../src/cli.c  **** ///////////////////////////////////////////////////////////////////////////////
  37:../src/cli.c  **** 
  38:../src/cli.c  **** #include "board.h"
  39:../src/cli.c  **** 
  40:../src/cli.c  **** ///////////////////////////////////////////////////////////////////////////////
  41:../src/cli.c  **** 
  42:../src/cli.c  **** uint8_t cliBusy = false;
  43:../src/cli.c  **** 
  44:../src/cli.c  **** static volatile uint8_t queryType;
  45:../src/cli.c  **** static volatile uint8_t validCommand = false;
  46:../src/cli.c  **** 
  47:../src/cli.c  **** uint8_t highSpeedTelem1Enabled = false;
  48:../src/cli.c  **** uint8_t highSpeedTelem2Enabled = false;
  49:../src/cli.c  **** uint8_t highSpeedTelem3Enabled = false;
  50:../src/cli.c  **** uint8_t highSpeedTelem4Enabled = false;
  51:../src/cli.c  **** uint8_t highSpeedTelem5Enabled = false;
  52:../src/cli.c  **** uint8_t highSpeedTelem6Enabled = false;
  53:../src/cli.c  **** uint8_t highSpeedTelem7Enabled = false;
  54:../src/cli.c  **** uint8_t highSpeedTelem8Enabled = false;
  55:../src/cli.c  **** uint8_t highSpeedTelem9Enabled = false;
  56:../src/cli.c  **** 
  57:../src/cli.c  **** ///////////////////////////////////////////////////////////////////////////////
  58:../src/cli.c  **** // High Speed Telem Disable
  59:../src/cli.c  **** ///////////////////////////////////////////////////////////////////////////////
  60:../src/cli.c  **** 
  61:../src/cli.c  **** void highSpeedTelemDisable(void)
  62:../src/cli.c  **** {
  86              		.loc 1 62 0
  87              		.cfi_startproc
  88              		@ args = 0, pretend = 0, frame = 0
  89              		@ frame_needed = 0, uses_anonymous_args = 0
  90              		@ link register save eliminated.
  63:../src/cli.c  **** 	highSpeedTelem1Enabled = false;
  91              		.loc 1 63 0
  92 0000 40F20003 		movw	r3, #:lower16:highSpeedTelem1Enabled
  93 0004 C0F20003 		movt	r3, #:upper16:highSpeedTelem1Enabled
  94 0008 4FF00002 		mov	r2, #0
  95 000c 1A70     		strb	r2, [r3, #0]
  64:../src/cli.c  **** 	highSpeedTelem2Enabled = false;
  96              		.loc 1 64 0
  97 000e 40F20003 		movw	r3, #:lower16:highSpeedTelem2Enabled
  98 0012 C0F20003 		movt	r3, #:upper16:highSpeedTelem2Enabled
  99 0016 4FF00002 		mov	r2, #0
 100 001a 1A70     		strb	r2, [r3, #0]
  65:../src/cli.c  **** 	highSpeedTelem3Enabled = false;
 101              		.loc 1 65 0
 102 001c 40F20003 		movw	r3, #:lower16:highSpeedTelem3Enabled
 103 0020 C0F20003 		movt	r3, #:upper16:highSpeedTelem3Enabled
 104 0024 4FF00002 		mov	r2, #0
 105 0028 1A70     		strb	r2, [r3, #0]
  66:../src/cli.c  **** 	highSpeedTelem4Enabled = false;
 106              		.loc 1 66 0
 107 002a 40F20003 		movw	r3, #:lower16:highSpeedTelem4Enabled
 108 002e C0F20003 		movt	r3, #:upper16:highSpeedTelem4Enabled
 109 0032 4FF00002 		mov	r2, #0
 110 0036 1A70     		strb	r2, [r3, #0]
  67:../src/cli.c  **** 	highSpeedTelem5Enabled = false;
 111              		.loc 1 67 0
 112 0038 40F20003 		movw	r3, #:lower16:highSpeedTelem5Enabled
 113 003c C0F20003 		movt	r3, #:upper16:highSpeedTelem5Enabled
 114 0040 4FF00002 		mov	r2, #0
 115 0044 1A70     		strb	r2, [r3, #0]
  68:../src/cli.c  **** 	highSpeedTelem6Enabled = false;
 116              		.loc 1 68 0
 117 0046 40F20003 		movw	r3, #:lower16:highSpeedTelem6Enabled
 118 004a C0F20003 		movt	r3, #:upper16:highSpeedTelem6Enabled
 119 004e 4FF00002 		mov	r2, #0
 120 0052 1A70     		strb	r2, [r3, #0]
  69:../src/cli.c  **** 	highSpeedTelem7Enabled = false;
 121              		.loc 1 69 0
 122 0054 40F20003 		movw	r3, #:lower16:highSpeedTelem7Enabled
 123 0058 C0F20003 		movt	r3, #:upper16:highSpeedTelem7Enabled
 124 005c 4FF00002 		mov	r2, #0
 125 0060 1A70     		strb	r2, [r3, #0]
  70:../src/cli.c  **** 	highSpeedTelem8Enabled = false;
 126              		.loc 1 70 0
 127 0062 40F20003 		movw	r3, #:lower16:highSpeedTelem8Enabled
 128 0066 C0F20003 		movt	r3, #:upper16:highSpeedTelem8Enabled
 129 006a 4FF00002 		mov	r2, #0
 130 006e 1A70     		strb	r2, [r3, #0]
  71:../src/cli.c  **** 	highSpeedTelem9Enabled = false;
 131              		.loc 1 71 0
 132 0070 40F20003 		movw	r3, #:lower16:highSpeedTelem9Enabled
 133 0074 C0F20003 		movt	r3, #:upper16:highSpeedTelem9Enabled
 134 0078 4FF00002 		mov	r2, #0
 135 007c 1A70     		strb	r2, [r3, #0]
  72:../src/cli.c  **** }
 136              		.loc 1 72 0
 137 007e 7047     		bx	lr
 138              		.cfi_endproc
 139              	.LFE111:
 141              		.align	2
 142              		.global	readStringUart1
 143              		.thumb
 144              		.thumb_func
 146              	readStringUart1:
 147              	.LFB112:
  73:../src/cli.c  **** 
  74:../src/cli.c  **** ///////////////////////////////////////////////////////////////////////////////
  75:../src/cli.c  **** // Read Character String from Uart1 Comm
  76:../src/cli.c  **** ///////////////////////////////////////////////////////////////////////////////
  77:../src/cli.c  **** 
  78:../src/cli.c  **** char *readStringUart1(char *data, uint8_t length)
  79:../src/cli.c  **** {
 148              		.loc 1 79 0
 149              		.cfi_startproc
 150              		@ args = 0, pretend = 0, frame = 16
 151              		@ frame_needed = 0, uses_anonymous_args = 0
 152 0080 10B5     		push	{r4, lr}
 153              	.LCFI0:
 154              		.cfi_def_cfa_offset 8
 155              		.cfi_offset 14, -4
 156              		.cfi_offset 4, -8
 157 0082 84B0     		sub	sp, sp, #16
 158              	.LCFI1:
 159              		.cfi_def_cfa_offset 24
 160 0084 0190     		str	r0, [sp, #4]
 161 0086 0B46     		mov	r3, r1
 162 0088 8DF80330 		strb	r3, [sp, #3]
  80:../src/cli.c  ****     uint8_t index    = 0;
 163              		.loc 1 80 0
 164 008c 4FF00003 		mov	r3, #0
 165 0090 8DF80F30 		strb	r3, [sp, #15]
  81:../src/cli.c  ****     uint8_t timeout  = 0;
 166              		.loc 1 81 0
 167 0094 4FF00003 		mov	r3, #0
 168 0098 8DF80E30 		strb	r3, [sp, #14]
 169              	.L7:
  82:../src/cli.c  **** 
  83:../src/cli.c  ****     do
  84:../src/cli.c  ****     {
  85:../src/cli.c  ****         if (uart1Available() == false)
 170              		.loc 1 85 0
 171 009c FFF7FEFF 		bl	uart1Available
 172 00a0 0346     		mov	r3, r0
 173 00a2 002B     		cmp	r3, #0
 174 00a4 0AD1     		bne	.L3
  86:../src/cli.c  ****         {
  87:../src/cli.c  ****             delay(10);
 175              		.loc 1 87 0
 176 00a6 4FF00A00 		mov	r0, #10
 177 00aa FFF7FEFF 		bl	delay
  88:../src/cli.c  ****             timeout++;
 178              		.loc 1 88 0
 179 00ae 9DF80E30 		ldrb	r3, [sp, #14]
 180 00b2 03F10103 		add	r3, r3, #1
 181 00b6 8DF80E30 		strb	r3, [sp, #14]
 182 00ba 11E0     		b	.L4
 183              	.L3:
  89:../src/cli.c  ****         }
  90:../src/cli.c  ****         else
  91:../src/cli.c  ****         {
  92:../src/cli.c  ****             data[index] = uart1Read();
 184              		.loc 1 92 0
 185 00bc 9DF80F30 		ldrb	r3, [sp, #15]	@ zero_extendqisi2
 186 00c0 019A     		ldr	r2, [sp, #4]
 187 00c2 D418     		adds	r4, r2, r3
 188 00c4 FFF7FEFF 		bl	uart1Read
 189 00c8 0346     		mov	r3, r0
 190 00ca 2370     		strb	r3, [r4, #0]
  93:../src/cli.c  ****             timeout = 0;
 191              		.loc 1 93 0
 192 00cc 4FF00003 		mov	r3, #0
 193 00d0 8DF80E30 		strb	r3, [sp, #14]
  94:../src/cli.c  ****             index++;
 194              		.loc 1 94 0
 195 00d4 9DF80F30 		ldrb	r3, [sp, #15]
 196 00d8 03F10103 		add	r3, r3, #1
 197 00dc 8DF80F30 		strb	r3, [sp, #15]
 198              	.L4:
  95:../src/cli.c  ****         }
  96:../src/cli.c  ****     }
  97:../src/cli.c  ****     while ((index == 0 || data[index-1] != ';') && (timeout < 5) && (index < length));
 199              		.loc 1 97 0
 200 00e0 9DF80F30 		ldrb	r3, [sp, #15]	@ zero_extendqisi2
 201 00e4 002B     		cmp	r3, #0
 202 00e6 08D0     		beq	.L5
 203              		.loc 1 97 0 is_stmt 0 discriminator 2
 204 00e8 9DF80F30 		ldrb	r3, [sp, #15]	@ zero_extendqisi2
 205 00ec 03F1FF33 		add	r3, r3, #-1
 206 00f0 019A     		ldr	r2, [sp, #4]
 207 00f2 D318     		adds	r3, r2, r3
 208 00f4 1B78     		ldrb	r3, [r3, #0]	@ zero_extendqisi2
 209 00f6 3B2B     		cmp	r3, #59
 210 00f8 09D0     		beq	.L6
 211              	.L5:
 212              		.loc 1 97 0 discriminator 1
 213 00fa 9DF80E30 		ldrb	r3, [sp, #14]	@ zero_extendqisi2
 214 00fe 042B     		cmp	r3, #4
 215 0100 05D8     		bhi	.L6
 216 0102 9DF80F20 		ldrb	r2, [sp, #15]	@ zero_extendqisi2
 217 0106 9DF80330 		ldrb	r3, [sp, #3]	@ zero_extendqisi2
 218 010a 9A42     		cmp	r2, r3
 219 010c C6D3     		bcc	.L7
 220              	.L6:
  98:../src/cli.c  **** 
  99:../src/cli.c  ****     data[index] = '\0';
 221              		.loc 1 99 0 is_stmt 1
 222 010e 9DF80F30 		ldrb	r3, [sp, #15]	@ zero_extendqisi2
 223 0112 019A     		ldr	r2, [sp, #4]
 224 0114 D318     		adds	r3, r2, r3
 225 0116 4FF00002 		mov	r2, #0
 226 011a 1A70     		strb	r2, [r3, #0]
 100:../src/cli.c  **** 
 101:../src/cli.c  ****     return data;
 227              		.loc 1 101 0
 228 011c 019B     		ldr	r3, [sp, #4]
 102:../src/cli.c  **** }
 229              		.loc 1 102 0
 230 011e 1846     		mov	r0, r3
 231 0120 04B0     		add	sp, sp, #16
 232 0122 10BD     		pop	{r4, pc}
 233              		.cfi_endproc
 234              	.LFE112:
 236              		.align	2
 237              		.global	readFloatUart1
 238              		.thumb
 239              		.thumb_func
 241              	readFloatUart1:
 242              	.LFB113:
 103:../src/cli.c  **** 
 104:../src/cli.c  **** ///////////////////////////////////////////////////////////////////////////////
 105:../src/cli.c  **** // Read Float from Uart1 Comm
 106:../src/cli.c  **** ///////////////////////////////////////////////////////////////////////////////
 107:../src/cli.c  **** 
 108:../src/cli.c  **** float readFloatUart1(void)
 109:../src/cli.c  **** {
 243              		.loc 1 109 0
 244              		.cfi_startproc
 245              		@ args = 0, pretend = 0, frame = 16
 246              		@ frame_needed = 0, uses_anonymous_args = 0
 247 0124 10B5     		push	{r4, lr}
 248              	.LCFI2:
 249              		.cfi_def_cfa_offset 8
 250              		.cfi_offset 14, -4
 251              		.cfi_offset 4, -8
 252 0126 84B0     		sub	sp, sp, #16
 253              	.LCFI3:
 254              		.cfi_def_cfa_offset 24
 110:../src/cli.c  ****     uint8_t index    = 0;
 255              		.loc 1 110 0
 256 0128 4FF00003 		mov	r3, #0
 257 012c 8DF80F30 		strb	r3, [sp, #15]
 111:../src/cli.c  ****     uint8_t timeout  = 0;
 258              		.loc 1 111 0
 259 0130 4FF00003 		mov	r3, #0
 260 0134 8DF80E30 		strb	r3, [sp, #14]
 112:../src/cli.c  ****     char    data[13] = "";
 261              		.loc 1 112 0
 262 0138 4FF00003 		mov	r3, #0
 263 013c 0093     		str	r3, [sp, #0]
 264 013e 01AB     		add	r3, sp, #4
 265 0140 4FF00002 		mov	r2, #0
 266 0144 1A60     		str	r2, [r3, #0]
 267 0146 03F10403 		add	r3, r3, #4
 268 014a 4FF00002 		mov	r2, #0
 269 014e 1A60     		str	r2, [r3, #0]
 270 0150 03F10403 		add	r3, r3, #4
 271 0154 4FF00002 		mov	r2, #0
 272 0158 1A70     		strb	r2, [r3, #0]
 273 015a 03F10103 		add	r3, r3, #1
 274              	.L13:
 113:../src/cli.c  **** 
 114:../src/cli.c  ****     do
 115:../src/cli.c  ****     {
 116:../src/cli.c  ****         if (uart1Available() == false)
 275              		.loc 1 116 0
 276 015e FFF7FEFF 		bl	uart1Available
 277 0162 0346     		mov	r3, r0
 278 0164 002B     		cmp	r3, #0
 279 0166 0AD1     		bne	.L9
 117:../src/cli.c  ****         {
 118:../src/cli.c  ****             delay(10);
 280              		.loc 1 118 0
 281 0168 4FF00A00 		mov	r0, #10
 282 016c FFF7FEFF 		bl	delay
 119:../src/cli.c  ****             timeout++;
 283              		.loc 1 119 0
 284 0170 9DF80E30 		ldrb	r3, [sp, #14]
 285 0174 03F10103 		add	r3, r3, #1
 286 0178 8DF80E30 		strb	r3, [sp, #14]
 287 017c 13E0     		b	.L10
 288              	.L9:
 120:../src/cli.c  ****         }
 121:../src/cli.c  ****         else
 122:../src/cli.c  ****         {
 123:../src/cli.c  ****             data[index] = uart1Read();
 289              		.loc 1 123 0
 290 017e 9DF80F40 		ldrb	r4, [sp, #15]	@ zero_extendqisi2
 291 0182 FFF7FEFF 		bl	uart1Read
 292 0186 0346     		mov	r3, r0
 293 0188 1A46     		mov	r2, r3
 294 018a 04A9     		add	r1, sp, #16
 295 018c 0B19     		adds	r3, r1, r4
 296 018e 03F8102C 		strb	r2, [r3, #-16]
 124:../src/cli.c  ****             timeout = 0;
 297              		.loc 1 124 0
 298 0192 4FF00003 		mov	r3, #0
 299 0196 8DF80E30 		strb	r3, [sp, #14]
 125:../src/cli.c  ****             index++;
 300              		.loc 1 125 0
 301 019a 9DF80F30 		ldrb	r3, [sp, #15]
 302 019e 03F10103 		add	r3, r3, #1
 303 01a2 8DF80F30 		strb	r3, [sp, #15]
 304              	.L10:
 126:../src/cli.c  ****         }
 127:../src/cli.c  ****     }
 128:../src/cli.c  ****     while ((index == 0 || data[index-1] != ';') && (timeout < 5) && (index < sizeof(data)-1));
 305              		.loc 1 128 0
 306 01a6 9DF80F30 		ldrb	r3, [sp, #15]	@ zero_extendqisi2
 307 01aa 002B     		cmp	r3, #0
 308 01ac 09D0     		beq	.L11
 309              		.loc 1 128 0 is_stmt 0 discriminator 2
 310 01ae 9DF80F30 		ldrb	r3, [sp, #15]	@ zero_extendqisi2
 311 01b2 03F1FF33 		add	r3, r3, #-1
 312 01b6 04AA     		add	r2, sp, #16
 313 01b8 D318     		adds	r3, r2, r3
 314 01ba 13F8103C 		ldrb	r3, [r3, #-16]	@ zero_extendqisi2
 315 01be 3B2B     		cmp	r3, #59
 316 01c0 07D0     		beq	.L12
 317              	.L11:
 318              		.loc 1 128 0 discriminator 1
 319 01c2 9DF80E30 		ldrb	r3, [sp, #14]	@ zero_extendqisi2
 320 01c6 042B     		cmp	r3, #4
 321 01c8 03D8     		bhi	.L12
 322 01ca 9DF80F30 		ldrb	r3, [sp, #15]	@ zero_extendqisi2
 323 01ce 0B2B     		cmp	r3, #11
 324 01d0 C5D9     		bls	.L13
 325              	.L12:
 129:../src/cli.c  **** 
 130:../src/cli.c  ****     data[index] = '\0';
 326              		.loc 1 130 0 is_stmt 1
 327 01d2 9DF80F30 		ldrb	r3, [sp, #15]	@ zero_extendqisi2
 328 01d6 04A9     		add	r1, sp, #16
 329 01d8 CB18     		adds	r3, r1, r3
 330 01da 4FF00002 		mov	r2, #0
 331 01de 03F8102C 		strb	r2, [r3, #-16]
 131:../src/cli.c  **** 
 132:../src/cli.c  ****     return stringToFloat(data);
 332              		.loc 1 132 0
 333 01e2 6B46     		mov	r3, sp
 334 01e4 1846     		mov	r0, r3
 335 01e6 FFF7FEFF 		bl	stringToFloat
 336 01ea 0346     		mov	r3, r0	@ float
 133:../src/cli.c  **** }
 337              		.loc 1 133 0
 338 01ec 1846     		mov	r0, r3	@ float
 339 01ee 04B0     		add	sp, sp, #16
 340 01f0 10BD     		pop	{r4, pc}
 341              		.cfi_endproc
 342              	.LFE113:
 344 01f2 00BF     		.align	2
 345              		.global	readUsbPID
 346              		.thumb
 347              		.thumb_func
 349              	readUsbPID:
 350              	.LFB114:
 134:../src/cli.c  **** 
 135:../src/cli.c  **** ///////////////////////////////////////////////////////////////////////////////
 136:../src/cli.c  **** // Read PID Values from Uart1 Comm
 137:../src/cli.c  **** ///////////////////////////////////////////////////////////////////////////////
 138:../src/cli.c  **** 
 139:../src/cli.c  **** void readUsbPID(unsigned char PIDid)
 140:../src/cli.c  **** {
 351              		.loc 1 140 0
 352              		.cfi_startproc
 353              		@ args = 0, pretend = 0, frame = 16
 354              		@ frame_needed = 0, uses_anonymous_args = 0
 355 01f4 00B5     		push	{lr}
 356              	.LCFI4:
 357              		.cfi_def_cfa_offset 4
 358              		.cfi_offset 14, -4
 359 01f6 85B0     		sub	sp, sp, #20
 360              	.LCFI5:
 361              		.cfi_def_cfa_offset 24
 362 01f8 0346     		mov	r3, r0
 363 01fa 8DF80730 		strb	r3, [sp, #7]
 141:../src/cli.c  ****   struct PIDdata* pid = &eepromConfig.PID[PIDid];
 364              		.loc 1 141 0
 365 01fe 9DF80720 		ldrb	r2, [sp, #7]	@ zero_extendqisi2
 366 0202 1346     		mov	r3, r2
 367 0204 4FEA8303 		lsl	r3, r3, #2
 368 0208 9B18     		adds	r3, r3, r2
 369 020a 4FEAC303 		lsl	r3, r3, #3
 370 020e 1A46     		mov	r2, r3
 371 0210 1A4B     		ldr	r3, .L15
 372 0212 D318     		adds	r3, r2, r3
 373 0214 0393     		str	r3, [sp, #12]
 142:../src/cli.c  **** 
 143:../src/cli.c  ****   pid->B             = readFloatUart1();
 374              		.loc 1 143 0
 375 0216 FFF7FEFF 		bl	readFloatUart1
 376 021a 0246     		mov	r2, r0	@ float
 377 021c 039B     		ldr	r3, [sp, #12]
 378 021e 1A60     		str	r2, [r3, #0]	@ float
 144:../src/cli.c  ****   pid->P             = readFloatUart1();
 379              		.loc 1 144 0
 380 0220 FFF7FEFF 		bl	readFloatUart1
 381 0224 0246     		mov	r2, r0	@ float
 382 0226 039B     		ldr	r3, [sp, #12]
 383 0228 5A60     		str	r2, [r3, #4]	@ float
 145:../src/cli.c  ****   pid->I             = readFloatUart1();
 384              		.loc 1 145 0
 385 022a FFF7FEFF 		bl	readFloatUart1
 386 022e 0246     		mov	r2, r0	@ float
 387 0230 039B     		ldr	r3, [sp, #12]
 388 0232 9A60     		str	r2, [r3, #8]	@ float
 146:../src/cli.c  ****   pid->D             = readFloatUart1();
 389              		.loc 1 146 0
 390 0234 FFF7FEFF 		bl	readFloatUart1
 391 0238 0246     		mov	r2, r0	@ float
 392 023a 039B     		ldr	r3, [sp, #12]
 393 023c DA60     		str	r2, [r3, #12]	@ float
 147:../src/cli.c  ****   pid->windupGuard   = readFloatUart1();
 394              		.loc 1 147 0
 395 023e FFF7FEFF 		bl	readFloatUart1
 396 0242 0246     		mov	r2, r0	@ float
 397 0244 039B     		ldr	r3, [sp, #12]
 398 0246 5A61     		str	r2, [r3, #20]	@ float
 148:../src/cli.c  ****   pid->iTerm          = 0.0f;
 399              		.loc 1 148 0
 400 0248 039B     		ldr	r3, [sp, #12]
 401 024a 0D4A     		ldr	r2, .L15+4	@ float
 402 024c 1A61     		str	r2, [r3, #16]	@ float
 149:../src/cli.c  ****   pid->lastDcalcValue = 0.0f;
 403              		.loc 1 149 0
 404 024e 039B     		ldr	r3, [sp, #12]
 405 0250 0B4A     		ldr	r2, .L15+4	@ float
 406 0252 9A61     		str	r2, [r3, #24]	@ float
 150:../src/cli.c  ****   pid->lastDterm      = 0.0f;
 407              		.loc 1 150 0
 408 0254 039B     		ldr	r3, [sp, #12]
 409 0256 0A4A     		ldr	r2, .L15+4	@ float
 410 0258 DA61     		str	r2, [r3, #28]	@ float
 151:../src/cli.c  ****   pid->lastLastDterm  = 0.0f;
 411              		.loc 1 151 0
 412 025a 039B     		ldr	r3, [sp, #12]
 413 025c 084A     		ldr	r2, .L15+4	@ float
 414 025e 1A62     		str	r2, [r3, #32]	@ float
 152:../src/cli.c  ****   pid->dErrorCalc     =(uint8_t)readFloatUart1();
 415              		.loc 1 152 0
 416 0260 FFF7FEFF 		bl	readFloatUart1
 417 0264 07EE900A 		fmsr	s15, r0
 418 0268 FCEEE77A 		ftouizs	s15, s15
 419 026c 17EE903A 		fmrs	r3, s15	@ int
 420 0270 DAB2     		uxtb	r2, r3
 421 0272 039B     		ldr	r3, [sp, #12]
 422 0274 83F82420 		strb	r2, [r3, #36]
 153:../src/cli.c  **** }
 423              		.loc 1 153 0
 424 0278 05B0     		add	sp, sp, #20
 425 027a 00BD     		pop	{pc}
 426              	.L16:
 427              		.align	2
 428              	.L15:
 429 027c 98000000 		.word	eepromConfig+152
 430 0280 00000000 		.word	0
 431              		.cfi_endproc
 432              	.LFE114:
 434              		.section	.rodata
 435              		.align	2
 436              	.LC0:
 437 0000 0A00     		.ascii	"\012\000"
 438 0002 0000     		.align	2
 439              	.LC1:
 440 0004 526F6C6C 		.ascii	"Roll Rate PID:  \000"
 440      20526174 
 440      65205049 
 440      443A2020 
 440      00
 441              		.global	__aeabi_f2d
 442 0015 000000   		.align	2
 443              	.LC2:
 444 0018 25382E34 		.ascii	"%8.4f, \000"
 444      662C2000 
 445              		.align	2
 446              	.LC3:
 447 0020 4572726F 		.ascii	"Error\012\000"
 447      720A00
 448 0027 00       		.align	2
 449              	.LC4:
 450 0028 53746174 		.ascii	"State\012\000"
 450      650A00
 451 002f 00       		.align	2
 452              	.LC5:
 453 0030 50697463 		.ascii	"Pitch Rate PID: \000"
 453      68205261 
 453      74652050 
 453      49443A20 
 453      00
 454 0041 000000   		.align	2
 455              	.LC6:
 456 0044 59617720 		.ascii	"Yaw Rate PID:   \000"
 456      52617465 
 456      20504944 
 456      3A202020 
 456      00
 457 0055 000000   		.align	2
 458              	.LC7:
 459 0058 526F6C6C 		.ascii	"Roll Attitude PID:  \000"
 459      20417474 
 459      69747564 
 459      65205049 
 459      443A2020 
 460 006d 000000   		.align	2
 461              	.LC8:
 462 0070 50697463 		.ascii	"Pitch Attitude PID: \000"
 462      68204174 
 462      74697475 
 462      64652050 
 462      49443A20 
 463 0085 000000   		.align	2
 464              	.LC9:
 465 0088 48656164 		.ascii	"Heading PID:        \000"
 465      696E6720 
 465      5049443A 
 465      20202020 
 465      20202020 
 466 009d 000000   		.align	2
 467              	.LC10:
 468 00a0 6E446F74 		.ascii	"nDot PID:  \000"
 468      20504944 
 468      3A202000 
 469              		.align	2
 470              	.LC11:
 471 00ac 65446F74 		.ascii	"eDot PID:  \000"
 471      20504944 
 471      3A202000 
 472              		.align	2
 473              	.LC12:
 474 00b8 68446F74 		.ascii	"hDot PID:  \000"
 474      20504944 
 474      3A202000 
 475              		.align	2
 476              	.LC13:
 477 00c4 6E205049 		.ascii	"n PID:  \000"
 477      443A2020 
 477      00
 478 00cd 000000   		.align	2
 479              	.LC14:
 480 00d0 65205049 		.ascii	"e PID:  \000"
 480      443A2020 
 480      00
 481 00d9 000000   		.align	2
 482              	.LC15:
 483 00dc 68205049 		.ascii	"h PID:  \000"
 483      443A2020 
 483      00
 484 00e5 000000   		.align	2
 485              	.LC16:
 486 00e8 25376C64 		.ascii	"%7ld, \000"
 486      2C2000
 487 00ef 00       		.align	2
 488              	.LC17:
 489 00f0 25376C64 		.ascii	"%7ld\012\000"
 489      0A00
 490 00f6 0000     		.align	2
 491              	.LC18:
 492 00f8 2C2000   		.ascii	", \000"
 493 00fb 00       		.align	2
 494              	.LC19:
 495 00fc 25392E34 		.ascii	"%9.4f, \000"
 495      662C2000 
 496              		.align	2
 497              	.LC20:
 498 0104 25392E34 		.ascii	"%9.4f\012\000"
 498      660A00
 499 010b 00       		.align	2
 500              	.LC21:
 501 010c 2531322E 		.ascii	"%12.7f, \000"
 501      37662C20 
 501      00
 502 0115 000000   		.align	2
 503              	.LC22:
 504 0118 32442046 		.ascii	"2D Fix,  \000"
 504      69782C20 
 504      2000
 505 0122 0000     		.align	2
 506              	.LC23:
 507 0124 33442046 		.ascii	"3D Fix,  \000"
 507      69782C20 
 507      2000
 508 012e 0000     		.align	2
 509              	.LC24:
 510 0130 32442053 		.ascii	"2D SBAS, \000"
 510      4241532C 
 510      2000
 511 013a 0000     		.align	2
 512              	.LC25:
 513 013c 33442053 		.ascii	"3D SBAS, \000"
 513      4241532C 
 513      2000
 514 0146 0000     		.align	2
 515              	.LC26:
 516 0148 4E6F2046 		.ascii	"No Fix, \000"
 516      69782C20 
 516      00
 517 0151 000000   		.align	2
 518              	.LC27:
 519 0154 2000     		.ascii	" \000"
 520 0156 0000     		.align	2
 521              	.LC28:
 522 0158 466C6967 		.ascii	"Flight Mode = RATE      \000"
 522      6874204D 
 522      6F646520 
 522      3D205241 
 522      54452020 
 523 0171 000000   		.align	2
 524              	.LC29:
 525 0174 466C6967 		.ascii	"Flight Mode = ATTITUDE  \000"
 525      6874204D 
 525      6F646520 
 525      3D204154 
 525      54495455 
 526 018d 000000   		.align	2
 527              	.LC30:
 528 0190 466C6967 		.ascii	"Flight Mode = GPS       \000"
 528      6874204D 
 528      6F646520 
 528      3D204750 
 528      53202020 
 529 01a9 000000   		.align	2
 530              	.LC31:
 531 01ac 48656164 		.ascii	"Heading Hold = ENGAGED     \000"
 531      696E6720 
 531      486F6C64 
 531      203D2045 
 531      4E474147 
 532              		.align	2
 533              	.LC32:
 534 01c8 48656164 		.ascii	"Heading Hold = DISENGAGED  \000"
 534      696E6720 
 534      486F6C64 
 534      203D2044 
 534      4953454E 
 535              		.align	2
 536              	.LC33:
 537 01e4 416C7469 		.ascii	"Altitude Hold = DISENAGED\012\000"
 537      74756465 
 537      20486F6C 
 537      64203D20 
 537      44495345 
 538 01ff 00       		.align	2
 539              	.LC34:
 540 0200 416C7469 		.ascii	"Altitude Hold = ENGAGED\012\000"
 540      74756465 
 540      20486F6C 
 540      64203D20 
 540      454E4741 
 541 0219 000000   		.align	2
 542              	.LC35:
 543 021c 416C7469 		.ascii	"Altitude Hold = PANIC\012\000"
 543      74756465 
 543      20486F6C 
 543      64203D20 
 543      50414E49 
 544 0233 00       		.align	2
 545              	.LC36:
 546 0234 74727565 		.ascii	"true\000"
 546      00
 547 0239 000000   		.align	2
 548              	.LC37:
 549 023c 66616C73 		.ascii	"false\000"
 549      6500
 550 0242 0000     		.align	2
 551              	.LC38:
 552 0244 0A526F6C 		.ascii	"\012Roll Rate PID Received....\012\000"
 552      6C205261 
 552      74652050 
 552      49442052 
 552      65636569 
 553 0261 000000   		.align	2
 554              	.LC39:
 555 0264 0A506974 		.ascii	"\012Pitch Rate PID Received....\012\000"
 555      63682052 
 555      61746520 
 555      50494420 
 555      52656365 
 556 0282 0000     		.align	2
 557              	.LC40:
 558 0284 0A596177 		.ascii	"\012Yaw Rate PID Received....\012\000"
 558      20526174 
 558      65205049 
 558      44205265 
 558      63656976 
 559              		.align	2
 560              	.LC41:
 561 02a0 0A526F6C 		.ascii	"\012Roll Attitude PID Received....\012\000"
 561      6C204174 
 561      74697475 
 561      64652050 
 561      49442052 
 562 02c1 000000   		.align	2
 563              	.LC42:
 564 02c4 0A506974 		.ascii	"\012Pitch Attitude PID Received....\012\000"
 564      63682041 
 564      74746974 
 564      75646520 
 564      50494420 
 565 02e6 0000     		.align	2
 566              	.LC43:
 567 02e8 0A486561 		.ascii	"\012Heading PID Received....\012\000"
 567      64696E67 
 567      20504944 
 567      20526563 
 567      65697665 
 568 0303 00       		.align	2
 569              	.LC44:
 570 0304 0A6E446F 		.ascii	"\012nDot PID Received....\012\000"
 570      74205049 
 570      44205265 
 570      63656976 
 570      65642E2E 
 571              		.align	2
 572              	.LC45:
 573 031c 0A65446F 		.ascii	"\012eDot PID Received....\012\000"
 573      74205049 
 573      44205265 
 573      63656976 
 573      65642E2E 
 574              		.align	2
 575              	.LC46:
 576 0334 0A68446F 		.ascii	"\012hDot PID Received....\012\000"
 576      74205049 
 576      44205265 
 576      63656976 
 576      65642E2E 
 577              		.align	2
 578              	.LC47:
 579 034c 0A6E2050 		.ascii	"\012n PID Received....\012\000"
 579      49442052 
 579      65636569 
 579      7665642E 
 579      2E2E2E0A 
 580 0361 000000   		.align	2
 581              	.LC48:
 582 0364 0A652050 		.ascii	"\012e PID Received....\012\000"
 582      49442052 
 582      65636569 
 582      7665642E 
 582      2E2E2E0A 
 583 0379 000000   		.align	2
 584              	.LC49:
 585 037c 0A682050 		.ascii	"\012h PID Received....\012\000"
 585      49442052 
 585      65636569 
 585      7665642E 
 585      2E2E2E0A 
 586 0391 000000   		.align	2
 587              	.LC50:
 588 0394 456E7465 		.ascii	"Entering Bootloader....\012\012\000"
 588      72696E67 
 588      20426F6F 
 588      746C6F61 
 588      6465722E 
 589 03ae 0000     		.align	2
 590              	.LC51:
 591 03b0 0A537973 		.ascii	"\012System Reseting....\012\012\000"
 591      74656D20 
 591      52657365 
 591      74696E67 
 591      2E2E2E2E 
 592 03c7 00       		.align	2
 593              	.LC52:
 594 03c8 0A454550 		.ascii	"\012EEPROM Parameters Reset....\012\000"
 594      524F4D20 
 594      50617261 
 594      6D657465 
 594      72732052 
 595 03e6 0000     		.align	2
 596              	.LC53:
 597 03e8 0A537973 		.ascii	"\012System Resetting....\012\012\000"
 597      74656D20 
 597      52657365 
 597      7474696E 
 597      672E2E2E 
 598              		.align	2
 599              	.LC54:
 600 0400 0A577269 		.ascii	"\012Writing EEPROM Parameters....\012\000"
 600      74696E67 
 600      20454550 
 600      524F4D20 
 600      50617261 
 601              		.align	2
 602              	.LC55:
 603 0420 27612720 		.ascii	"'a' Rate PIDs                              'A' Set "
 603      52617465 
 603      20504944 
 603      73202020 
 603      20202020 
 604 0453 526F6C6C 		.ascii	"Roll Rate PID Data   AB;P;I;D;windupGuard;dErrorCal"
 604      20526174 
 604      65205049 
 604      44204461 
 604      74612020 
 605 0486 630A00   		.ascii	"c\012\000"
 606 0489 000000   		.align	2
 607              	.LC56:
 608 048c 27622720 		.ascii	"'b' Attitude PIDs                          'B' Set "
 608      41747469 
 608      74756465 
 608      20504944 
 608      73202020 
 609 04bf 50697463 		.ascii	"Pitch Rate PID Data  BB;P;I;D;windupGuard;dErrorCal"
 609      68205261 
 609      74652050 
 609      49442044 
 609      61746120 
 610 04f2 630A00   		.ascii	"c\012\000"
 611 04f5 000000   		.align	2
 612              	.LC57:
 613 04f8 27632720 		.ascii	"'c' Velocity PIDs                          'C' Set "
 613      56656C6F 
 613      63697479 
 613      20504944 
 613      73202020 
 614 052b 59617720 		.ascii	"Yaw Rate PID Data    CB;P;I;D;windupGuard;dErrorCal"
 614      52617465 
 614      20504944 
 614      20446174 
 614      61202020 
 615 055e 630A00   		.ascii	"c\012\000"
 616 0561 000000   		.align	2
 617              	.LC58:
 618 0564 27642720 		.ascii	"'d' Position PIDs                          'D' Set "
 618      506F7369 
 618      74696F6E 
 618      20504944 
 618      73202020 
 619 0597 526F6C6C 		.ascii	"Roll Att PID Data    DB;P;I;D;windupGuard;dErrorCal"
 619      20417474 
 619      20504944 
 619      20446174 
 619      61202020 
 620 05ca 630A00   		.ascii	"c\012\000"
 621 05cd 000000   		.align	2
 622              	.LC59:
 623 05d0 27652720 		.ascii	"'e' Loop Delta Times                       'E' Set "
 623      4C6F6F70 
 623      2044656C 
 623      74612054 
 623      696D6573 
 624 0603 50697463 		.ascii	"Pitch Att PID Data   EB;P;I;D;windupGuard;dErrorCal"
 624      68204174 
 624      74205049 
 624      44204461 
 624      74612020 
 625 0636 630A00   		.ascii	"c\012\000"
 626 0639 000000   		.align	2
 627              	.LC60:
 628 063c 27662720 		.ascii	"'f' Loop Execution Times                   'F' Set "
 628      4C6F6F70 
 628      20457865 
 628      63757469 
 628      6F6E2054 
 629 066f 48646720 		.ascii	"Hdg Hold PID Data    FB;P;I;D;windupGuard;dErrorCal"
 629      486F6C64 
 629      20504944 
 629      20446174 
 629      61202020 
 630 06a2 630A00   		.ascii	"c\012\000"
 631 06a5 000000   		.align	2
 632              	.LC61:
 633 06a8 27672720 		.ascii	"'g' 500 Hz Accels                          'G' Set "
 633      35303020 
 633      487A2041 
 633      6363656C 
 633      73202020 
 634 06db 6E446F74 		.ascii	"nDot PID Data        GB;P;I;D;windupGuard;dErrorCal"
 634      20504944 
 634      20446174 
 634      61202020 
 634      20202020 
 635 070e 630A00   		.ascii	"c\012\000"
 636 0711 000000   		.align	2
 637              	.LC62:
 638 0714 27682720 		.ascii	"'h' 100 Hz Earth Axis Accels               'H' Set "
 638      31303020 
 638      487A2045 
 638      61727468 
 638      20417869 
 639 0747 65446F74 		.ascii	"eDot PID Data        HB;P;I;D;windupGuard;dErrorCal"
 639      20504944 
 639      20446174 
 639      61202020 
 639      20202020 
 640 077a 630A00   		.ascii	"c\012\000"
 641 077d 000000   		.align	2
 642              	.LC63:
 643 0780 27692720 		.ascii	"'i' 500 Hz Gyros                           'I' Set "
 643      35303020 
 643      487A2047 
 643      79726F73 
 643      20202020 
 644 07b3 68446F74 		.ascii	"hDot PID Data        IB;P;I;D;windupGuard;dErrorCal"
 644      20504944 
 644      20446174 
 644      61202020 
 644      20202020 
 645 07e6 630A00   		.ascii	"c\012\000"
 646 07e9 000000   		.align	2
 647              	.LC64:
 648 07ec 276A2720 		.ascii	"'j' 10 hz Mag Data                         'J' Set "
 648      31302068 
 648      7A204D61 
 648      67204461 
 648      74612020 
 649 081f 6E205049 		.ascii	"n PID Data           JB;P;I;D;windupGuard;dErrorCal"
 649      44204461 
 649      74612020 
 649      20202020 
 649      20202020 
 650 0852 630A00   		.ascii	"c\012\000"
 651 0855 000000   		.align	2
 652              	.LC65:
 653 0858 276B2720 		.ascii	"'k' Vertical Axis Variable                 'K' Set "
 653      56657274 
 653      6963616C 
 653      20417869 
 653      73205661 
 654 088b 65205049 		.ascii	"e PID Data           KB;P;I;D;windupGuard;dErrorCal"
 654      44204461 
 654      74612020 
 654      20202020 
 654      20202020 
 655 08be 630A00   		.ascii	"c\012\000"
 656 08c1 000000   		.align	2
 657              	.LC66:
 658 08c4 276C2720 		.ascii	"'l' Attitudes                              'L' Set "
 658      41747469 
 658      74756465 
 658      73202020 
 658      20202020 
 659 08f7 68205049 		.ascii	"h PID Data           LB;P;I;D;windupGuard;dErrorCal"
 659      44204461 
 659      74612020 
 659      20202020 
 659      20202020 
 660 092a 630A00   		.ascii	"c\012\000"
 661 092d 000000   		.align	2
 662              	.LC67:
 663 0930 50726573 		.ascii	"Press space bar for more, or enter a command....\012"
 663      73207370 
 663      61636520 
 663      62617220 
 663      666F7220 
 664 0961 00       		.ascii	"\000"
 665 0962 0000     		.align	2
 666              	.LC68:
 667 0964 276D2720 		.ascii	"'m' GPS Data                               'M' MAX7"
 667      47505320 
 667      44617461 
 667      20202020 
 667      20202020 
 668 0997 34353620 		.ascii	"456 CLI\012\000"
 668      434C490A 
 668      00
 669              		.align	2
 670              	.LC69:
 671 09a0 276E2720 		.ascii	"'n' GPS Stats                              'N' Mixe"
 671      47505320 
 671      53746174 
 671      73202020 
 671      20202020 
 672 09d3 7220434C 		.ascii	"r CLI\012\000"
 672      490A00
 673 09da 0000     		.align	2
 674              	.LC70:
 675 09dc 276F2720 		.ascii	"'o' Not Used                               'O' Rece"
 675      4E6F7420 
 675      55736564 
 675      20202020 
 675      20202020 
 676 0a0f 69766572 		.ascii	"iver CLI\012\000"
 676      20434C49 
 676      0A00
 677 0a19 000000   		.align	2
 678              	.LC71:
 679 0a1c 27702720 		.ascii	"'p' Not Used                               'P' Sens"
 679      4E6F7420 
 679      55736564 
 679      20202020 
 679      20202020 
 680 0a4f 6F722043 		.ascii	"or CLI\012\000"
 680      4C490A00 
 681 0a57 00       		.align	2
 682              	.LC72:
 683 0a58 27712720 		.ascii	"'q' Not Used                               'Q' GPS "
 683      4E6F7420 
 683      55736564 
 683      20202020 
 683      20202020 
 684 0a8b 434C490A 		.ascii	"CLI\012\000"
 684      00
 685              		.align	2
 686              	.LC73:
 687 0a90 27722720 		.ascii	"'r' Mode States                            'R' Rese"
 687      4D6F6465 
 687      20537461 
 687      74657320 
 687      20202020 
 688 0ac3 7420616E 		.ascii	"t and Enter Bootloader\012\000"
 688      6420456E 
 688      74657220 
 688      426F6F74 
 688      6C6F6164 
 689 0adb 00       		.align	2
 690              	.LC74:
 691 0adc 27732720 		.ascii	"'s' Raw Receiver Commands                  'S' Rese"
 691      52617720 
 691      52656365 
 691      69766572 
 691      20436F6D 
 692 0b0f 740A00   		.ascii	"t\012\000"
 693 0b12 0000     		.align	2
 694              	.LC75:
 695 0b14 27742720 		.ascii	"'t' Processed Receiver Commands            'T' Not "
 695      50726F63 
 695      65737365 
 695      64205265 
 695      63656976 
 696 0b47 55736564 		.ascii	"Used\012\000"
 696      0A00
 697 0b4d 000000   		.align	2
 698              	.LC76:
 699 0b50 27752720 		.ascii	"'u' Command In Detent Discretes            'U' Not "
 699      436F6D6D 
 699      616E6420 
 699      496E2044 
 699      6574656E 
 700 0b83 55736564 		.ascii	"Used\012\000"
 700      0A00
 701 0b89 000000   		.align	2
 702              	.LC77:
 703 0b8c 27762720 		.ascii	"'v' Motor PWM Outputs                      'V' Rese"
 703      4D6F746F 
 703      72205057 
 703      4D204F75 
 703      74707574 
 704 0bbf 74204545 		.ascii	"t EEPROM Parameters\012\000"
 704      50524F4D 
 704      20506172 
 704      616D6574 
 704      6572730A 
 705              		.align	2
 706              	.LC78:
 707 0bd4 27772720 		.ascii	"'w' Servo PWM Outputs                      'W' Writ"
 707      53657276 
 707      6F205057 
 707      4D204F75 
 707      74707574 
 708 0c07 65204545 		.ascii	"e EEPROM Parameters\012\000"
 708      50524F4D 
 708      20506172 
 708      616D6574 
 708      6572730A 
 709              		.align	2
 710              	.LC79:
 711 0c1c 27782720 		.ascii	"'x' Terminate Serial Communication         'X' Not "
 711      5465726D 
 711      696E6174 
 711      65205365 
 711      7269616C 
 712 0c4f 55736564 		.ascii	"Used\012\000"
 712      0A00
 713 0c55 000000   		.align	2
 714              	.LC80:
 715 0c58 27792720 		.ascii	"'y' ESC Calibration                        'Y' Not "
 715      45534320 
 715      43616C69 
 715      62726174 
 715      696F6E20 
 716 0c8b 55736564 		.ascii	"Used\012\000"
 716      0A00
 717 0c91 000000   		.align	2
 718              	.LC81:
 719 0c94 277A2720 		.ascii	"'z' Not Used                               'Z' Not "
 719      4E6F7420 
 719      55736564 
 719      20202020 
 719      20202020 
 720 0cc7 55736564 		.ascii	"Used\012\000"
 720      0A00
 721 0ccd 000000   		.align	2
 722              	.LC82:
 723 0cd0 27312720 		.ascii	"'1' High Speed Telemetry 1 Enable\012\000"
 723      48696768 
 723      20537065 
 723      65642054 
 723      656C656D 
 724 0cf3 00       		.align	2
 725              	.LC83:
 726 0cf4 27322720 		.ascii	"'2' High Speed Telemetry 2 Enable\012\000"
 726      48696768 
 726      20537065 
 726      65642054 
 726      656C656D 
 727 0d17 00       		.align	2
 728              	.LC84:
 729 0d18 27332720 		.ascii	"'3' High Speed Telemetry 3 Enable\012\000"
 729      48696768 
 729      20537065 
 729      65642054 
 729      656C656D 
 730 0d3b 00       		.align	2
 731              	.LC85:
 732 0d3c 27342720 		.ascii	"'4' High Speed Telemetry 4 Enable\012\000"
 732      48696768 
 732      20537065 
 732      65642054 
 732      656C656D 
 733 0d5f 00       		.align	2
 734              	.LC86:
 735 0d60 27352720 		.ascii	"'5' High Speed Telemetry 5 Enable\012\000"
 735      48696768 
 735      20537065 
 735      65642054 
 735      656C656D 
 736 0d83 00       		.align	2
 737              	.LC87:
 738 0d84 27362720 		.ascii	"'6' High Speed Telemetry 6 Enable\012\000"
 738      48696768 
 738      20537065 
 738      65642054 
 738      656C656D 
 739 0da7 00       		.align	2
 740              	.LC88:
 741 0da8 27372720 		.ascii	"'7' High Speed Telemetry 7 Enable\012\000"
 741      48696768 
 741      20537065 
 741      65642054 
 741      656C656D 
 742 0dcb 00       		.align	2
 743              	.LC89:
 744 0dcc 27382720 		.ascii	"'8' High Speed Telemetry 8 Enable\012\000"
 744      48696768 
 744      20537065 
 744      65642054 
 744      656C656D 
 745 0def 00       		.align	2
 746              	.LC90:
 747 0df0 27392720 		.ascii	"'9' High Speed Telemetry 9 Enable\012\000"
 747      48696768 
 747      20537065 
 747      65642054 
 747      656C656D 
 748 0e13 00       		.align	2
 749              	.LC91:
 750 0e14 27302720 		.ascii	"'0' High Speed Telemetry Disable           '?' Comm"
 750      48696768 
 750      20537065 
 750      65642054 
 750      656C656D 
 751 0e47 616E6420 		.ascii	"and Summary\012\000"
 751      53756D6D 
 751      6172790A 
 751      00
 752              		.text
 753              		.align	2
 754              		.global	cliCom
 755              		.thumb
 756              		.thumb_func
 758              	cliCom:
 759              	.LFB115:
 154:../src/cli.c  **** 
 155:../src/cli.c  **** ///////////////////////////////////////////////////////////////////////////////
 156:../src/cli.c  **** // CLI Communication
 157:../src/cli.c  **** ///////////////////////////////////////////////////////////////////////////////
 158:../src/cli.c  **** 
 159:../src/cli.c  **** void cliCom(void)
 160:../src/cli.c  **** {
 760              		.loc 1 160 0
 761              		.cfi_startproc
 762              		@ args = 0, pretend = 0, frame = 8
 763              		@ frame_needed = 0, uses_anonymous_args = 0
 764 0284 00B5     		push	{lr}
 765              	.LCFI6:
 766              		.cfi_def_cfa_offset 4
 767              		.cfi_offset 14, -4
 768 0286 85B0     		sub	sp, sp, #20
 769              	.LCFI7:
 770              		.cfi_def_cfa_offset 24
 161:../src/cli.c  **** 	uint8_t  index;
 162:../src/cli.c  **** 
 163:../src/cli.c  ****     if ((uart1Available() && !validCommand))
 771              		.loc 1 163 0
 772 0288 FFF7FEFF 		bl	uart1Available
 773 028c 0346     		mov	r3, r0
 774 028e 002B     		cmp	r3, #0
 775 0290 10D0     		beq	.L18
 776              		.loc 1 163 0 is_stmt 0 discriminator 1
 777 0292 40F20003 		movw	r3, #:lower16:validCommand
 778 0296 C0F20003 		movt	r3, #:upper16:validCommand
 779 029a 1B78     		ldrb	r3, [r3, #0]
 780 029c DBB2     		uxtb	r3, r3
 781 029e 002B     		cmp	r3, #0
 782 02a0 08D1     		bne	.L18
 164:../src/cli.c  ****     	queryType = uart1Read();
 783              		.loc 1 164 0 is_stmt 1
 784 02a2 FFF7FEFF 		bl	uart1Read
 785 02a6 0346     		mov	r3, r0
 786 02a8 1A46     		mov	r2, r3
 787 02aa 40F20003 		movw	r3, #:lower16:queryType
 788 02ae C0F20003 		movt	r3, #:upper16:queryType
 789 02b2 1A70     		strb	r2, [r3, #0]
 790              	.L18:
 165:../src/cli.c  **** 
 166:../src/cli.c  ****     switch (queryType)
 791              		.loc 1 166 0
 792 02b4 40F20003 		movw	r3, #:lower16:queryType
 793 02b8 C0F20003 		movt	r3, #:upper16:queryType
 794 02bc 1B78     		ldrb	r3, [r3, #0]
 795 02be DBB2     		uxtb	r3, r3
 796 02c0 A3F13003 		sub	r3, r3, #48
 797 02c4 4A2B     		cmp	r3, #74
 798 02c6 02F2B585 		bhi	.L17
 799 02ca 01A2     		adr	r2, .L83
 800 02cc 52F823F0 		ldr	pc, [r2, r3, lsl #2]
 801              		.align	2
 802              	.L83:
 803 02d0 35270000 		.word	.L20+1
 804 02d4 01260000 		.word	.L21+1
 805 02d8 25260000 		.word	.L22+1
 806 02dc 47260000 		.word	.L23+1
 807 02e0 69260000 		.word	.L24+1
 808 02e4 8B260000 		.word	.L25+1
 809 02e8 AD260000 		.word	.L26+1
 810 02ec CF260000 		.word	.L27+1
 811 02f0 F1260000 		.word	.L28+1
 812 02f4 13270000 		.word	.L29+1
 813 02f8 352E0000 		.word	.L17+1
 814 02fc 352E0000 		.word	.L17+1
 815 0300 352E0000 		.word	.L17+1
 816 0304 352E0000 		.word	.L17+1
 817 0308 352E0000 		.word	.L17+1
 818 030c 612B0000 		.word	.L30+1
 819 0310 352E0000 		.word	.L17+1
 820 0314 49270000 		.word	.L31+1
 821 0318 7B270000 		.word	.L32+1
 822 031c AD270000 		.word	.L33+1
 823 0320 DF270000 		.word	.L34+1
 824 0324 11280000 		.word	.L35+1
 825 0328 43280000 		.word	.L36+1
 826 032c 75280000 		.word	.L37+1
 827 0330 A7280000 		.word	.L38+1
 828 0334 D9280000 		.word	.L39+1
 829 0338 0B290000 		.word	.L40+1
 830 033c 3D290000 		.word	.L41+1
 831 0340 6F290000 		.word	.L42+1
 832 0344 A1290000 		.word	.L43+1
 833 0348 C3290000 		.word	.L44+1
 834 034c E5290000 		.word	.L45+1
 835 0350 072A0000 		.word	.L46+1
 836 0354 292A0000 		.word	.L47+1
 837 0358 4B2A0000 		.word	.L48+1
 838 035c 692A0000 		.word	.L49+1
 839 0360 872A0000 		.word	.L50+1
 840 0364 A52A0000 		.word	.L51+1
 841 0368 C32A0000 		.word	.L52+1
 842 036c F52A0000 		.word	.L53+1
 843 0370 232B0000 		.word	.L54+1
 844 0374 412B0000 		.word	.L55+1
 845 0378 512B0000 		.word	.L56+1
 846 037c 352E0000 		.word	.L17+1
 847 0380 352E0000 		.word	.L17+1
 848 0384 352E0000 		.word	.L17+1
 849 0388 352E0000 		.word	.L17+1
 850 038c 352E0000 		.word	.L17+1
 851 0390 352E0000 		.word	.L17+1
 852 0394 FD030000 		.word	.L57+1
 853 0398 6D080000 		.word	.L58+1
 854 039c DD0C0000 		.word	.L59+1
 855 03a0 4D110000 		.word	.L60+1
 856 03a4 BD150000 		.word	.L61+1
 857 03a8 11170000 		.word	.L62+1
 858 03ac 65180000 		.word	.L63+1
 859 03b0 07190000 		.word	.L64+1
 860 03b4 A9190000 		.word	.L65+1
 861 03b8 871A0000 		.word	.L66+1
 862 03bc 291B0000 		.word	.L67+1
 863 03c0 FB1B0000 		.word	.L68+1
 864 03c4 051D0000 		.word	.L69+1
 865 03c8 5B1E0000 		.word	.L70+1
 866 03cc BB1F0000 		.word	.L71+1
 867 03d0 DB1F0000 		.word	.L72+1
 868 03d4 FB1F0000 		.word	.L73+1
 869 03d8 1B200000 		.word	.L74+1
 870 03dc F9200000 		.word	.L75+1
 871 03e0 53220000 		.word	.L76+1
 872 03e4 ED220000 		.word	.L77+1
 873 03e8 9B230000 		.word	.L78+1
 874 03ec 4D250000 		.word	.L79+1
 875 03f0 C7250000 		.word	.L80+1
 876 03f4 D9250000 		.word	.L81+1
 877 03f8 EF250000 		.word	.L82+1
 878              	.L57:
 167:../src/cli.c  ****     {
 168:../src/cli.c  ****         ///////////////////////////////
 169:../src/cli.c  **** 
 170:../src/cli.c  ****         case 'a': // Rate PIDs
 171:../src/cli.c  ****             uart1Print("\n");
 879              		.loc 1 171 0
 880 03fc 40F20000 		movw	r0, #:lower16:.LC0
 881 0400 C0F20000 		movt	r0, #:upper16:.LC0
 882 0404 FFF7FEFF 		bl	uart1Print
 172:../src/cli.c  **** 
 173:../src/cli.c  ****             uart1Print("Roll Rate PID:  ");
 883              		.loc 1 173 0
 884 0408 40F20000 		movw	r0, #:lower16:.LC1
 885 040c C0F20000 		movt	r0, #:upper16:.LC1
 886 0410 FFF7FEFF 		bl	uart1Print
 174:../src/cli.c  ****             snprintf(numberString, 16, "%8.4f, ", eepromConfig.PID[ROLL_RATE_PID].B);           uar
 887              		.loc 1 174 0
 888 0414 40F20003 		movw	r3, #:lower16:eepromConfig
 889 0418 C0F20003 		movt	r3, #:upper16:eepromConfig
 890 041c D3F89830 		ldr	r3, [r3, #152]	@ float
 891 0420 1846     		mov	r0, r3	@ float
 892 0422 FFF7FEFF 		bl	__aeabi_f2d
 893 0426 0246     		mov	r2, r0
 894 0428 0B46     		mov	r3, r1
 895 042a CDE90023 		strd	r2, [sp]
 896 042e 40F20000 		movw	r0, #:lower16:numberString
 897 0432 C0F20000 		movt	r0, #:upper16:numberString
 898 0436 4FF01001 		mov	r1, #16
 899 043a 40F20002 		movw	r2, #:lower16:.LC2
 900 043e C0F20002 		movt	r2, #:upper16:.LC2
 901 0442 FFF7FEFF 		bl	snprintf
 902 0446 40F20000 		movw	r0, #:lower16:numberString
 903 044a C0F20000 		movt	r0, #:upper16:numberString
 904 044e FFF7FEFF 		bl	uart1Print
 175:../src/cli.c  ****             snprintf(numberString, 16, "%8.4f, ", eepromConfig.PID[ROLL_RATE_PID].P);           uar
 905              		.loc 1 175 0
 906 0452 40F20003 		movw	r3, #:lower16:eepromConfig
 907 0456 C0F20003 		movt	r3, #:upper16:eepromConfig
 908 045a D3F89C30 		ldr	r3, [r3, #156]	@ float
 909 045e 1846     		mov	r0, r3	@ float
 910 0460 FFF7FEFF 		bl	__aeabi_f2d
 911 0464 0246     		mov	r2, r0
 912 0466 0B46     		mov	r3, r1
 913 0468 CDE90023 		strd	r2, [sp]
 914 046c 40F20000 		movw	r0, #:lower16:numberString
 915 0470 C0F20000 		movt	r0, #:upper16:numberString
 916 0474 4FF01001 		mov	r1, #16
 917 0478 40F20002 		movw	r2, #:lower16:.LC2
 918 047c C0F20002 		movt	r2, #:upper16:.LC2
 919 0480 FFF7FEFF 		bl	snprintf
 920 0484 40F20000 		movw	r0, #:lower16:numberString
 921 0488 C0F20000 		movt	r0, #:upper16:numberString
 922 048c FFF7FEFF 		bl	uart1Print
 176:../src/cli.c  ****             snprintf(numberString, 16, "%8.4f, ", eepromConfig.PID[ROLL_RATE_PID].I);           uar
 923              		.loc 1 176 0
 924 0490 40F20003 		movw	r3, #:lower16:eepromConfig
 925 0494 C0F20003 		movt	r3, #:upper16:eepromConfig
 926 0498 D3F8A030 		ldr	r3, [r3, #160]	@ float
 927 049c 1846     		mov	r0, r3	@ float
 928 049e FFF7FEFF 		bl	__aeabi_f2d
 929 04a2 0246     		mov	r2, r0
 930 04a4 0B46     		mov	r3, r1
 931 04a6 CDE90023 		strd	r2, [sp]
 932 04aa 40F20000 		movw	r0, #:lower16:numberString
 933 04ae C0F20000 		movt	r0, #:upper16:numberString
 934 04b2 4FF01001 		mov	r1, #16
 935 04b6 40F20002 		movw	r2, #:lower16:.LC2
 936 04ba C0F20002 		movt	r2, #:upper16:.LC2
 937 04be FFF7FEFF 		bl	snprintf
 938 04c2 40F20000 		movw	r0, #:lower16:numberString
 939 04c6 C0F20000 		movt	r0, #:upper16:numberString
 940 04ca FFF7FEFF 		bl	uart1Print
 177:../src/cli.c  ****             snprintf(numberString, 16, "%8.4f, ", eepromConfig.PID[ROLL_RATE_PID].D);           uar
 941              		.loc 1 177 0
 942 04ce 40F20003 		movw	r3, #:lower16:eepromConfig
 943 04d2 C0F20003 		movt	r3, #:upper16:eepromConfig
 944 04d6 D3F8A430 		ldr	r3, [r3, #164]	@ float
 945 04da 1846     		mov	r0, r3	@ float
 946 04dc FFF7FEFF 		bl	__aeabi_f2d
 947 04e0 0246     		mov	r2, r0
 948 04e2 0B46     		mov	r3, r1
 949 04e4 CDE90023 		strd	r2, [sp]
 950 04e8 40F20000 		movw	r0, #:lower16:numberString
 951 04ec C0F20000 		movt	r0, #:upper16:numberString
 952 04f0 4FF01001 		mov	r1, #16
 953 04f4 40F20002 		movw	r2, #:lower16:.LC2
 954 04f8 C0F20002 		movt	r2, #:upper16:.LC2
 955 04fc FFF7FEFF 		bl	snprintf
 956 0500 40F20000 		movw	r0, #:lower16:numberString
 957 0504 C0F20000 		movt	r0, #:upper16:numberString
 958 0508 FFF7FEFF 		bl	uart1Print
 178:../src/cli.c  ****             snprintf(numberString, 16, "%8.4f, ", eepromConfig.PID[ROLL_RATE_PID].windupGuard); uar
 959              		.loc 1 178 0
 960 050c 40F20003 		movw	r3, #:lower16:eepromConfig
 961 0510 C0F20003 		movt	r3, #:upper16:eepromConfig
 962 0514 D3F8AC30 		ldr	r3, [r3, #172]	@ float
 963 0518 1846     		mov	r0, r3	@ float
 964 051a FFF7FEFF 		bl	__aeabi_f2d
 965 051e 0246     		mov	r2, r0
 966 0520 0B46     		mov	r3, r1
 967 0522 CDE90023 		strd	r2, [sp]
 968 0526 40F20000 		movw	r0, #:lower16:numberString
 969 052a C0F20000 		movt	r0, #:upper16:numberString
 970 052e 4FF01001 		mov	r1, #16
 971 0532 40F20002 		movw	r2, #:lower16:.LC2
 972 0536 C0F20002 		movt	r2, #:upper16:.LC2
 973 053a FFF7FEFF 		bl	snprintf
 974 053e 40F20000 		movw	r0, #:lower16:numberString
 975 0542 C0F20000 		movt	r0, #:upper16:numberString
 976 0546 FFF7FEFF 		bl	uart1Print
 179:../src/cli.c  ****             if  (eepromConfig.PID[ROLL_RATE_PID].dErrorCalc)
 977              		.loc 1 179 0
 978 054a 40F20003 		movw	r3, #:lower16:eepromConfig
 979 054e C0F20003 		movt	r3, #:upper16:eepromConfig
 980 0552 93F8BC30 		ldrb	r3, [r3, #188]	@ zero_extendqisi2
 981 0556 002B     		cmp	r3, #0
 982 0558 06D0     		beq	.L84
 180:../src/cli.c  ****                 uart1Print("Error\n");
 983              		.loc 1 180 0
 984 055a 40F20000 		movw	r0, #:lower16:.LC3
 985 055e C0F20000 		movt	r0, #:upper16:.LC3
 986 0562 FFF7FEFF 		bl	uart1Print
 987 0566 05E0     		b	.L85
 988              	.L84:
 181:../src/cli.c  ****             else
 182:../src/cli.c  ****                 uart1Print("State\n");
 989              		.loc 1 182 0
 990 0568 40F20000 		movw	r0, #:lower16:.LC4
 991 056c C0F20000 		movt	r0, #:upper16:.LC4
 992 0570 FFF7FEFF 		bl	uart1Print
 993              	.L85:
 183:../src/cli.c  **** 
 184:../src/cli.c  ****             uart1Print("Pitch Rate PID: ");
 994              		.loc 1 184 0
 995 0574 40F20000 		movw	r0, #:lower16:.LC5
 996 0578 C0F20000 		movt	r0, #:upper16:.LC5
 997 057c FFF7FEFF 		bl	uart1Print
 185:../src/cli.c  ****             snprintf(numberString, 16, "%8.4f, ", eepromConfig.PID[PITCH_RATE_PID].B);           ua
 998              		.loc 1 185 0
 999 0580 40F20003 		movw	r3, #:lower16:eepromConfig
 1000 0584 C0F20003 		movt	r3, #:upper16:eepromConfig
 1001 0588 D3F8C030 		ldr	r3, [r3, #192]	@ float
 1002 058c 1846     		mov	r0, r3	@ float
 1003 058e FFF7FEFF 		bl	__aeabi_f2d
 1004 0592 0246     		mov	r2, r0
 1005 0594 0B46     		mov	r3, r1
 1006 0596 CDE90023 		strd	r2, [sp]
 1007 059a 40F20000 		movw	r0, #:lower16:numberString
 1008 059e C0F20000 		movt	r0, #:upper16:numberString
 1009 05a2 4FF01001 		mov	r1, #16
 1010 05a6 40F20002 		movw	r2, #:lower16:.LC2
 1011 05aa C0F20002 		movt	r2, #:upper16:.LC2
 1012 05ae FFF7FEFF 		bl	snprintf
 1013 05b2 40F20000 		movw	r0, #:lower16:numberString
 1014 05b6 C0F20000 		movt	r0, #:upper16:numberString
 1015 05ba FFF7FEFF 		bl	uart1Print
 186:../src/cli.c  ****             snprintf(numberString, 16, "%8.4f, ", eepromConfig.PID[PITCH_RATE_PID].P);           ua
 1016              		.loc 1 186 0
 1017 05be 40F20003 		movw	r3, #:lower16:eepromConfig
 1018 05c2 C0F20003 		movt	r3, #:upper16:eepromConfig
 1019 05c6 D3F8C430 		ldr	r3, [r3, #196]	@ float
 1020 05ca 1846     		mov	r0, r3	@ float
 1021 05cc FFF7FEFF 		bl	__aeabi_f2d
 1022 05d0 0246     		mov	r2, r0
 1023 05d2 0B46     		mov	r3, r1
 1024 05d4 CDE90023 		strd	r2, [sp]
 1025 05d8 40F20000 		movw	r0, #:lower16:numberString
 1026 05dc C0F20000 		movt	r0, #:upper16:numberString
 1027 05e0 4FF01001 		mov	r1, #16
 1028 05e4 40F20002 		movw	r2, #:lower16:.LC2
 1029 05e8 C0F20002 		movt	r2, #:upper16:.LC2
 1030 05ec FFF7FEFF 		bl	snprintf
 1031 05f0 40F20000 		movw	r0, #:lower16:numberString
 1032 05f4 C0F20000 		movt	r0, #:upper16:numberString
 1033 05f8 FFF7FEFF 		bl	uart1Print
 187:../src/cli.c  ****             snprintf(numberString, 16, "%8.4f, ", eepromConfig.PID[PITCH_RATE_PID].I);           ua
 1034              		.loc 1 187 0
 1035 05fc 40F20003 		movw	r3, #:lower16:eepromConfig
 1036 0600 C0F20003 		movt	r3, #:upper16:eepromConfig
 1037 0604 D3F8C830 		ldr	r3, [r3, #200]	@ float
 1038 0608 1846     		mov	r0, r3	@ float
 1039 060a FFF7FEFF 		bl	__aeabi_f2d
 1040 060e 0246     		mov	r2, r0
 1041 0610 0B46     		mov	r3, r1
 1042 0612 CDE90023 		strd	r2, [sp]
 1043 0616 40F20000 		movw	r0, #:lower16:numberString
 1044 061a C0F20000 		movt	r0, #:upper16:numberString
 1045 061e 4FF01001 		mov	r1, #16
 1046 0622 40F20002 		movw	r2, #:lower16:.LC2
 1047 0626 C0F20002 		movt	r2, #:upper16:.LC2
 1048 062a FFF7FEFF 		bl	snprintf
 1049 062e 40F20000 		movw	r0, #:lower16:numberString
 1050 0632 C0F20000 		movt	r0, #:upper16:numberString
 1051 0636 FFF7FEFF 		bl	uart1Print
 188:../src/cli.c  ****             snprintf(numberString, 16, "%8.4f, ", eepromConfig.PID[PITCH_RATE_PID].D);           ua
 1052              		.loc 1 188 0
 1053 063a 40F20003 		movw	r3, #:lower16:eepromConfig
 1054 063e C0F20003 		movt	r3, #:upper16:eepromConfig
 1055 0642 D3F8CC30 		ldr	r3, [r3, #204]	@ float
 1056 0646 1846     		mov	r0, r3	@ float
 1057 0648 FFF7FEFF 		bl	__aeabi_f2d
 1058 064c 0246     		mov	r2, r0
 1059 064e 0B46     		mov	r3, r1
 1060 0650 CDE90023 		strd	r2, [sp]
 1061 0654 40F20000 		movw	r0, #:lower16:numberString
 1062 0658 C0F20000 		movt	r0, #:upper16:numberString
 1063 065c 4FF01001 		mov	r1, #16
 1064 0660 40F20002 		movw	r2, #:lower16:.LC2
 1065 0664 C0F20002 		movt	r2, #:upper16:.LC2
 1066 0668 FFF7FEFF 		bl	snprintf
 1067 066c 40F20000 		movw	r0, #:lower16:numberString
 1068 0670 C0F20000 		movt	r0, #:upper16:numberString
 1069 0674 FFF7FEFF 		bl	uart1Print
 189:../src/cli.c  ****             snprintf(numberString, 16, "%8.4f, ", eepromConfig.PID[PITCH_RATE_PID].windupGuard); ua
 1070              		.loc 1 189 0
 1071 0678 40F20003 		movw	r3, #:lower16:eepromConfig
 1072 067c C0F20003 		movt	r3, #:upper16:eepromConfig
 1073 0680 D3F8D430 		ldr	r3, [r3, #212]	@ float
 1074 0684 1846     		mov	r0, r3	@ float
 1075 0686 FFF7FEFF 		bl	__aeabi_f2d
 1076 068a 0246     		mov	r2, r0
 1077 068c 0B46     		mov	r3, r1
 1078 068e CDE90023 		strd	r2, [sp]
 1079 0692 40F20000 		movw	r0, #:lower16:numberString
 1080 0696 C0F20000 		movt	r0, #:upper16:numberString
 1081 069a 4FF01001 		mov	r1, #16
 1082 069e 40F20002 		movw	r2, #:lower16:.LC2
 1083 06a2 C0F20002 		movt	r2, #:upper16:.LC2
 1084 06a6 FFF7FEFF 		bl	snprintf
 1085 06aa 40F20000 		movw	r0, #:lower16:numberString
 1086 06ae C0F20000 		movt	r0, #:upper16:numberString
 1087 06b2 FFF7FEFF 		bl	uart1Print
 190:../src/cli.c  ****             if  (eepromConfig.PID[PITCH_RATE_PID].dErrorCalc)
 1088              		.loc 1 190 0
 1089 06b6 40F20003 		movw	r3, #:lower16:eepromConfig
 1090 06ba C0F20003 		movt	r3, #:upper16:eepromConfig
 1091 06be 93F8E430 		ldrb	r3, [r3, #228]	@ zero_extendqisi2
 1092 06c2 002B     		cmp	r3, #0
 1093 06c4 06D0     		beq	.L86
 191:../src/cli.c  ****                 uart1Print("Error\n");
 1094              		.loc 1 191 0
 1095 06c6 40F20000 		movw	r0, #:lower16:.LC3
 1096 06ca C0F20000 		movt	r0, #:upper16:.LC3
 1097 06ce FFF7FEFF 		bl	uart1Print
 1098 06d2 05E0     		b	.L87
 1099              	.L86:
 192:../src/cli.c  ****             else
 193:../src/cli.c  ****                 uart1Print("State\n");
 1100              		.loc 1 193 0
 1101 06d4 40F20000 		movw	r0, #:lower16:.LC4
 1102 06d8 C0F20000 		movt	r0, #:upper16:.LC4
 1103 06dc FFF7FEFF 		bl	uart1Print
 1104              	.L87:
 194:../src/cli.c  **** 
 195:../src/cli.c  ****             uart1Print("Yaw Rate PID:   ");
 1105              		.loc 1 195 0
 1106 06e0 40F20000 		movw	r0, #:lower16:.LC6
 1107 06e4 C0F20000 		movt	r0, #:upper16:.LC6
 1108 06e8 FFF7FEFF 		bl	uart1Print
 196:../src/cli.c  ****             snprintf(numberString, 16, "%8.4f, ", eepromConfig.PID[YAW_RATE_PID].B);           uart
 1109              		.loc 1 196 0
 1110 06ec 40F20003 		movw	r3, #:lower16:eepromConfig
 1111 06f0 C0F20003 		movt	r3, #:upper16:eepromConfig
 1112 06f4 D3F8E830 		ldr	r3, [r3, #232]	@ float
 1113 06f8 1846     		mov	r0, r3	@ float
 1114 06fa FFF7FEFF 		bl	__aeabi_f2d
 1115 06fe 0246     		mov	r2, r0
 1116 0700 0B46     		mov	r3, r1
 1117 0702 CDE90023 		strd	r2, [sp]
 1118 0706 40F20000 		movw	r0, #:lower16:numberString
 1119 070a C0F20000 		movt	r0, #:upper16:numberString
 1120 070e 4FF01001 		mov	r1, #16
 1121 0712 40F20002 		movw	r2, #:lower16:.LC2
 1122 0716 C0F20002 		movt	r2, #:upper16:.LC2
 1123 071a FFF7FEFF 		bl	snprintf
 1124 071e 40F20000 		movw	r0, #:lower16:numberString
 1125 0722 C0F20000 		movt	r0, #:upper16:numberString
 1126 0726 FFF7FEFF 		bl	uart1Print
 197:../src/cli.c  ****             snprintf(numberString, 16, "%8.4f, ", eepromConfig.PID[YAW_RATE_PID].P);           uart
 1127              		.loc 1 197 0
 1128 072a 40F20003 		movw	r3, #:lower16:eepromConfig
 1129 072e C0F20003 		movt	r3, #:upper16:eepromConfig
 1130 0732 D3F8EC30 		ldr	r3, [r3, #236]	@ float
 1131 0736 1846     		mov	r0, r3	@ float
 1132 0738 FFF7FEFF 		bl	__aeabi_f2d
 1133 073c 0246     		mov	r2, r0
 1134 073e 0B46     		mov	r3, r1
 1135 0740 CDE90023 		strd	r2, [sp]
 1136 0744 40F20000 		movw	r0, #:lower16:numberString
 1137 0748 C0F20000 		movt	r0, #:upper16:numberString
 1138 074c 4FF01001 		mov	r1, #16
 1139 0750 40F20002 		movw	r2, #:lower16:.LC2
 1140 0754 C0F20002 		movt	r2, #:upper16:.LC2
 1141 0758 FFF7FEFF 		bl	snprintf
 1142 075c 40F20000 		movw	r0, #:lower16:numberString
 1143 0760 C0F20000 		movt	r0, #:upper16:numberString
 1144 0764 FFF7FEFF 		bl	uart1Print
 198:../src/cli.c  ****             snprintf(numberString, 16, "%8.4f, ", eepromConfig.PID[YAW_RATE_PID].I);           uart
 1145              		.loc 1 198 0
 1146 0768 40F20003 		movw	r3, #:lower16:eepromConfig
 1147 076c C0F20003 		movt	r3, #:upper16:eepromConfig
 1148 0770 D3F8F030 		ldr	r3, [r3, #240]	@ float
 1149 0774 1846     		mov	r0, r3	@ float
 1150 0776 FFF7FEFF 		bl	__aeabi_f2d
 1151 077a 0246     		mov	r2, r0
 1152 077c 0B46     		mov	r3, r1
 1153 077e CDE90023 		strd	r2, [sp]
 1154 0782 40F20000 		movw	r0, #:lower16:numberString
 1155 0786 C0F20000 		movt	r0, #:upper16:numberString
 1156 078a 4FF01001 		mov	r1, #16
 1157 078e 40F20002 		movw	r2, #:lower16:.LC2
 1158 0792 C0F20002 		movt	r2, #:upper16:.LC2
 1159 0796 FFF7FEFF 		bl	snprintf
 1160 079a 40F20000 		movw	r0, #:lower16:numberString
 1161 079e C0F20000 		movt	r0, #:upper16:numberString
 1162 07a2 FFF7FEFF 		bl	uart1Print
 199:../src/cli.c  ****             snprintf(numberString, 16, "%8.4f, ", eepromConfig.PID[YAW_RATE_PID].D);           uart
 1163              		.loc 1 199 0
 1164 07a6 40F20003 		movw	r3, #:lower16:eepromConfig
 1165 07aa C0F20003 		movt	r3, #:upper16:eepromConfig
 1166 07ae D3F8F430 		ldr	r3, [r3, #244]	@ float
 1167 07b2 1846     		mov	r0, r3	@ float
 1168 07b4 FFF7FEFF 		bl	__aeabi_f2d
 1169 07b8 0246     		mov	r2, r0
 1170 07ba 0B46     		mov	r3, r1
 1171 07bc CDE90023 		strd	r2, [sp]
 1172 07c0 40F20000 		movw	r0, #:lower16:numberString
 1173 07c4 C0F20000 		movt	r0, #:upper16:numberString
 1174 07c8 4FF01001 		mov	r1, #16
 1175 07cc 40F20002 		movw	r2, #:lower16:.LC2
 1176 07d0 C0F20002 		movt	r2, #:upper16:.LC2
 1177 07d4 FFF7FEFF 		bl	snprintf
 1178 07d8 40F20000 		movw	r0, #:lower16:numberString
 1179 07dc C0F20000 		movt	r0, #:upper16:numberString
 1180 07e0 FFF7FEFF 		bl	uart1Print
 200:../src/cli.c  ****             snprintf(numberString, 16, "%8.4f, ", eepromConfig.PID[YAW_RATE_PID].windupGuard); uart
 1181              		.loc 1 200 0
 1182 07e4 40F20003 		movw	r3, #:lower16:eepromConfig
 1183 07e8 C0F20003 		movt	r3, #:upper16:eepromConfig
 1184 07ec D3F8FC30 		ldr	r3, [r3, #252]	@ float
 1185 07f0 1846     		mov	r0, r3	@ float
 1186 07f2 FFF7FEFF 		bl	__aeabi_f2d
 1187 07f6 0246     		mov	r2, r0
 1188 07f8 0B46     		mov	r3, r1
 1189 07fa CDE90023 		strd	r2, [sp]
 1190 07fe 40F20000 		movw	r0, #:lower16:numberString
 1191 0802 C0F20000 		movt	r0, #:upper16:numberString
 1192 0806 4FF01001 		mov	r1, #16
 1193 080a 40F20002 		movw	r2, #:lower16:.LC2
 1194 080e C0F20002 		movt	r2, #:upper16:.LC2
 1195 0812 FFF7FEFF 		bl	snprintf
 1196 0816 40F20000 		movw	r0, #:lower16:numberString
 1197 081a C0F20000 		movt	r0, #:upper16:numberString
 1198 081e FFF7FEFF 		bl	uart1Print
 201:../src/cli.c  ****             if  (eepromConfig.PID[YAW_RATE_PID].dErrorCalc)
 1199              		.loc 1 201 0
 1200 0822 40F20003 		movw	r3, #:lower16:eepromConfig
 1201 0826 C0F20003 		movt	r3, #:upper16:eepromConfig
 1202 082a 93F80C31 		ldrb	r3, [r3, #268]	@ zero_extendqisi2
 1203 082e 002B     		cmp	r3, #0
 1204 0830 06D0     		beq	.L88
 202:../src/cli.c  ****                 uart1Print("Error\n");
 1205              		.loc 1 202 0
 1206 0832 40F20000 		movw	r0, #:lower16:.LC3
 1207 0836 C0F20000 		movt	r0, #:upper16:.LC3
 1208 083a FFF7FEFF 		bl	uart1Print
 1209 083e 05E0     		b	.L89
 1210              	.L88:
 203:../src/cli.c  ****             else
 204:../src/cli.c  ****                 uart1Print("State\n");
 1211              		.loc 1 204 0
 1212 0840 40F20000 		movw	r0, #:lower16:.LC4
 1213 0844 C0F20000 		movt	r0, #:upper16:.LC4
 1214 0848 FFF7FEFF 		bl	uart1Print
 1215              	.L89:
 205:../src/cli.c  **** 
 206:../src/cli.c  ****             queryType = 'x';
 1216              		.loc 1 206 0
 1217 084c 40F20003 		movw	r3, #:lower16:queryType
 1218 0850 C0F20003 		movt	r3, #:upper16:queryType
 1219 0854 4FF07802 		mov	r2, #120
 1220 0858 1A70     		strb	r2, [r3, #0]
 207:../src/cli.c  ****             validCommand = false;
 1221              		.loc 1 207 0
 1222 085a 40F20003 		movw	r3, #:lower16:validCommand
 1223 085e C0F20003 		movt	r3, #:upper16:validCommand
 1224 0862 4FF00002 		mov	r2, #0
 1225 0866 1A70     		strb	r2, [r3, #0]
 208:../src/cli.c  ****             break;
 1226              		.loc 1 208 0
 1227 0868 02F0E4BA 		b	.L17
 1228              	.L58:
 209:../src/cli.c  **** 
 210:../src/cli.c  ****         ///////////////////////////////
 211:../src/cli.c  **** 
 212:../src/cli.c  ****         case 'b': // Attitude PIDs
 213:../src/cli.c  ****             uart1Print("\n");
 1229              		.loc 1 213 0
 1230 086c 40F20000 		movw	r0, #:lower16:.LC0
 1231 0870 C0F20000 		movt	r0, #:upper16:.LC0
 1232 0874 FFF7FEFF 		bl	uart1Print
 214:../src/cli.c  **** 
 215:../src/cli.c  ****             uart1Print("Roll Attitude PID:  ");
 1233              		.loc 1 215 0
 1234 0878 40F20000 		movw	r0, #:lower16:.LC7
 1235 087c C0F20000 		movt	r0, #:upper16:.LC7
 1236 0880 FFF7FEFF 		bl	uart1Print
 216:../src/cli.c  ****             snprintf(numberString, 16, "%8.4f, ", eepromConfig.PID[ROLL_ATT_PID].B);           uart
 1237              		.loc 1 216 0
 1238 0884 40F20003 		movw	r3, #:lower16:eepromConfig
 1239 0888 C0F20003 		movt	r3, #:upper16:eepromConfig
 1240 088c D3F81031 		ldr	r3, [r3, #272]	@ float
 1241 0890 1846     		mov	r0, r3	@ float
 1242 0892 FFF7FEFF 		bl	__aeabi_f2d
 1243 0896 0246     		mov	r2, r0
 1244 0898 0B46     		mov	r3, r1
 1245 089a CDE90023 		strd	r2, [sp]
 1246 089e 40F20000 		movw	r0, #:lower16:numberString
 1247 08a2 C0F20000 		movt	r0, #:upper16:numberString
 1248 08a6 4FF01001 		mov	r1, #16
 1249 08aa 40F20002 		movw	r2, #:lower16:.LC2
 1250 08ae C0F20002 		movt	r2, #:upper16:.LC2
 1251 08b2 FFF7FEFF 		bl	snprintf
 1252 08b6 40F20000 		movw	r0, #:lower16:numberString
 1253 08ba C0F20000 		movt	r0, #:upper16:numberString
 1254 08be FFF7FEFF 		bl	uart1Print
 217:../src/cli.c  ****             snprintf(numberString, 16, "%8.4f, ", eepromConfig.PID[ROLL_ATT_PID].P);           uart
 1255              		.loc 1 217 0
 1256 08c2 40F20003 		movw	r3, #:lower16:eepromConfig
 1257 08c6 C0F20003 		movt	r3, #:upper16:eepromConfig
 1258 08ca D3F81431 		ldr	r3, [r3, #276]	@ float
 1259 08ce 1846     		mov	r0, r3	@ float
 1260 08d0 FFF7FEFF 		bl	__aeabi_f2d
 1261 08d4 0246     		mov	r2, r0
 1262 08d6 0B46     		mov	r3, r1
 1263 08d8 CDE90023 		strd	r2, [sp]
 1264 08dc 40F20000 		movw	r0, #:lower16:numberString
 1265 08e0 C0F20000 		movt	r0, #:upper16:numberString
 1266 08e4 4FF01001 		mov	r1, #16
 1267 08e8 40F20002 		movw	r2, #:lower16:.LC2
 1268 08ec C0F20002 		movt	r2, #:upper16:.LC2
 1269 08f0 FFF7FEFF 		bl	snprintf
 1270 08f4 40F20000 		movw	r0, #:lower16:numberString
 1271 08f8 C0F20000 		movt	r0, #:upper16:numberString
 1272 08fc FFF7FEFF 		bl	uart1Print
 218:../src/cli.c  ****             snprintf(numberString, 16, "%8.4f, ", eepromConfig.PID[ROLL_ATT_PID].I);           uart
 1273              		.loc 1 218 0
 1274 0900 40F20003 		movw	r3, #:lower16:eepromConfig
 1275 0904 C0F20003 		movt	r3, #:upper16:eepromConfig
 1276 0908 D3F81831 		ldr	r3, [r3, #280]	@ float
 1277 090c 1846     		mov	r0, r3	@ float
 1278 090e FFF7FEFF 		bl	__aeabi_f2d
 1279 0912 0246     		mov	r2, r0
 1280 0914 0B46     		mov	r3, r1
 1281 0916 CDE90023 		strd	r2, [sp]
 1282 091a 40F20000 		movw	r0, #:lower16:numberString
 1283 091e C0F20000 		movt	r0, #:upper16:numberString
 1284 0922 4FF01001 		mov	r1, #16
 1285 0926 40F20002 		movw	r2, #:lower16:.LC2
 1286 092a C0F20002 		movt	r2, #:upper16:.LC2
 1287 092e FFF7FEFF 		bl	snprintf
 1288 0932 40F20000 		movw	r0, #:lower16:numberString
 1289 0936 C0F20000 		movt	r0, #:upper16:numberString
 1290 093a FFF7FEFF 		bl	uart1Print
 219:../src/cli.c  ****             snprintf(numberString, 16, "%8.4f, ", eepromConfig.PID[ROLL_ATT_PID].D);           uart
 1291              		.loc 1 219 0
 1292 093e 40F20003 		movw	r3, #:lower16:eepromConfig
 1293 0942 C0F20003 		movt	r3, #:upper16:eepromConfig
 1294 0946 D3F81C31 		ldr	r3, [r3, #284]	@ float
 1295 094a 1846     		mov	r0, r3	@ float
 1296 094c FFF7FEFF 		bl	__aeabi_f2d
 1297 0950 0246     		mov	r2, r0
 1298 0952 0B46     		mov	r3, r1
 1299 0954 CDE90023 		strd	r2, [sp]
 1300 0958 40F20000 		movw	r0, #:lower16:numberString
 1301 095c C0F20000 		movt	r0, #:upper16:numberString
 1302 0960 4FF01001 		mov	r1, #16
 1303 0964 40F20002 		movw	r2, #:lower16:.LC2
 1304 0968 C0F20002 		movt	r2, #:upper16:.LC2
 1305 096c FFF7FEFF 		bl	snprintf
 1306 0970 40F20000 		movw	r0, #:lower16:numberString
 1307 0974 C0F20000 		movt	r0, #:upper16:numberString
 1308 0978 FFF7FEFF 		bl	uart1Print
 220:../src/cli.c  ****             snprintf(numberString, 16, "%8.4f, ", eepromConfig.PID[ROLL_ATT_PID].windupGuard); uart
 1309              		.loc 1 220 0
 1310 097c 40F20003 		movw	r3, #:lower16:eepromConfig
 1311 0980 C0F20003 		movt	r3, #:upper16:eepromConfig
 1312 0984 D3F82431 		ldr	r3, [r3, #292]	@ float
 1313 0988 1846     		mov	r0, r3	@ float
 1314 098a FFF7FEFF 		bl	__aeabi_f2d
 1315 098e 0246     		mov	r2, r0
 1316 0990 0B46     		mov	r3, r1
 1317 0992 CDE90023 		strd	r2, [sp]
 1318 0996 40F20000 		movw	r0, #:lower16:numberString
 1319 099a C0F20000 		movt	r0, #:upper16:numberString
 1320 099e 4FF01001 		mov	r1, #16
 1321 09a2 40F20002 		movw	r2, #:lower16:.LC2
 1322 09a6 C0F20002 		movt	r2, #:upper16:.LC2
 1323 09aa FFF7FEFF 		bl	snprintf
 1324 09ae 40F20000 		movw	r0, #:lower16:numberString
 1325 09b2 C0F20000 		movt	r0, #:upper16:numberString
 1326 09b6 FFF7FEFF 		bl	uart1Print
 221:../src/cli.c  ****             if  (eepromConfig.PID[ROLL_ATT_PID].dErrorCalc)
 1327              		.loc 1 221 0
 1328 09ba 40F20003 		movw	r3, #:lower16:eepromConfig
 1329 09be C0F20003 		movt	r3, #:upper16:eepromConfig
 1330 09c2 93F83431 		ldrb	r3, [r3, #308]	@ zero_extendqisi2
 1331 09c6 002B     		cmp	r3, #0
 1332 09c8 06D0     		beq	.L90
 222:../src/cli.c  ****                 uart1Print("Error\n");
 1333              		.loc 1 222 0
 1334 09ca 40F20000 		movw	r0, #:lower16:.LC3
 1335 09ce C0F20000 		movt	r0, #:upper16:.LC3
 1336 09d2 FFF7FEFF 		bl	uart1Print
 1337 09d6 05E0     		b	.L91
 1338              	.L90:
 223:../src/cli.c  ****             else
 224:../src/cli.c  ****                 uart1Print("State\n");
 1339              		.loc 1 224 0
 1340 09d8 40F20000 		movw	r0, #:lower16:.LC4
 1341 09dc C0F20000 		movt	r0, #:upper16:.LC4
 1342 09e0 FFF7FEFF 		bl	uart1Print
 1343              	.L91:
 225:../src/cli.c  **** 
 226:../src/cli.c  ****             uart1Print("Pitch Attitude PID: ");
 1344              		.loc 1 226 0
 1345 09e4 40F20000 		movw	r0, #:lower16:.LC8
 1346 09e8 C0F20000 		movt	r0, #:upper16:.LC8
 1347 09ec FFF7FEFF 		bl	uart1Print
 227:../src/cli.c  ****             snprintf(numberString, 16, "%8.4f, ", eepromConfig.PID[PITCH_ATT_PID].B);           uar
 1348              		.loc 1 227 0
 1349 09f0 40F20003 		movw	r3, #:lower16:eepromConfig
 1350 09f4 C0F20003 		movt	r3, #:upper16:eepromConfig
 1351 09f8 D3F83831 		ldr	r3, [r3, #312]	@ float
 1352 09fc 1846     		mov	r0, r3	@ float
 1353 09fe FFF7FEFF 		bl	__aeabi_f2d
 1354 0a02 0246     		mov	r2, r0
 1355 0a04 0B46     		mov	r3, r1
 1356 0a06 CDE90023 		strd	r2, [sp]
 1357 0a0a 40F20000 		movw	r0, #:lower16:numberString
 1358 0a0e C0F20000 		movt	r0, #:upper16:numberString
 1359 0a12 4FF01001 		mov	r1, #16
 1360 0a16 40F20002 		movw	r2, #:lower16:.LC2
 1361 0a1a C0F20002 		movt	r2, #:upper16:.LC2
 1362 0a1e FFF7FEFF 		bl	snprintf
 1363 0a22 40F20000 		movw	r0, #:lower16:numberString
 1364 0a26 C0F20000 		movt	r0, #:upper16:numberString
 1365 0a2a FFF7FEFF 		bl	uart1Print
 228:../src/cli.c  ****             snprintf(numberString, 16, "%8.4f, ", eepromConfig.PID[PITCH_ATT_PID].P);           uar
 1366              		.loc 1 228 0
 1367 0a2e 40F20003 		movw	r3, #:lower16:eepromConfig
 1368 0a32 C0F20003 		movt	r3, #:upper16:eepromConfig
 1369 0a36 D3F83C31 		ldr	r3, [r3, #316]	@ float
 1370 0a3a 1846     		mov	r0, r3	@ float
 1371 0a3c FFF7FEFF 		bl	__aeabi_f2d
 1372 0a40 0246     		mov	r2, r0
 1373 0a42 0B46     		mov	r3, r1
 1374 0a44 CDE90023 		strd	r2, [sp]
 1375 0a48 40F20000 		movw	r0, #:lower16:numberString
 1376 0a4c C0F20000 		movt	r0, #:upper16:numberString
 1377 0a50 4FF01001 		mov	r1, #16
 1378 0a54 40F20002 		movw	r2, #:lower16:.LC2
 1379 0a58 C0F20002 		movt	r2, #:upper16:.LC2
 1380 0a5c FFF7FEFF 		bl	snprintf
 1381 0a60 40F20000 		movw	r0, #:lower16:numberString
 1382 0a64 C0F20000 		movt	r0, #:upper16:numberString
 1383 0a68 FFF7FEFF 		bl	uart1Print
 229:../src/cli.c  ****             snprintf(numberString, 16, "%8.4f, ", eepromConfig.PID[PITCH_ATT_PID].I);           uar
 1384              		.loc 1 229 0
 1385 0a6c 40F20003 		movw	r3, #:lower16:eepromConfig
 1386 0a70 C0F20003 		movt	r3, #:upper16:eepromConfig
 1387 0a74 D3F84031 		ldr	r3, [r3, #320]	@ float
 1388 0a78 1846     		mov	r0, r3	@ float
 1389 0a7a FFF7FEFF 		bl	__aeabi_f2d
 1390 0a7e 0246     		mov	r2, r0
 1391 0a80 0B46     		mov	r3, r1
 1392 0a82 CDE90023 		strd	r2, [sp]
 1393 0a86 40F20000 		movw	r0, #:lower16:numberString
 1394 0a8a C0F20000 		movt	r0, #:upper16:numberString
 1395 0a8e 4FF01001 		mov	r1, #16
 1396 0a92 40F20002 		movw	r2, #:lower16:.LC2
 1397 0a96 C0F20002 		movt	r2, #:upper16:.LC2
 1398 0a9a FFF7FEFF 		bl	snprintf
 1399 0a9e 40F20000 		movw	r0, #:lower16:numberString
 1400 0aa2 C0F20000 		movt	r0, #:upper16:numberString
 1401 0aa6 FFF7FEFF 		bl	uart1Print
 230:../src/cli.c  ****             snprintf(numberString, 16, "%8.4f, ", eepromConfig.PID[PITCH_ATT_PID].D);           uar
 1402              		.loc 1 230 0
 1403 0aaa 40F20003 		movw	r3, #:lower16:eepromConfig
 1404 0aae C0F20003 		movt	r3, #:upper16:eepromConfig
 1405 0ab2 D3F84431 		ldr	r3, [r3, #324]	@ float
 1406 0ab6 1846     		mov	r0, r3	@ float
 1407 0ab8 FFF7FEFF 		bl	__aeabi_f2d
 1408 0abc 0246     		mov	r2, r0
 1409 0abe 0B46     		mov	r3, r1
 1410 0ac0 CDE90023 		strd	r2, [sp]
 1411 0ac4 40F20000 		movw	r0, #:lower16:numberString
 1412 0ac8 C0F20000 		movt	r0, #:upper16:numberString
 1413 0acc 4FF01001 		mov	r1, #16
 1414 0ad0 40F20002 		movw	r2, #:lower16:.LC2
 1415 0ad4 C0F20002 		movt	r2, #:upper16:.LC2
 1416 0ad8 FFF7FEFF 		bl	snprintf
 1417 0adc 40F20000 		movw	r0, #:lower16:numberString
 1418 0ae0 C0F20000 		movt	r0, #:upper16:numberString
 1419 0ae4 FFF7FEFF 		bl	uart1Print
 231:../src/cli.c  ****             snprintf(numberString, 16, "%8.4f, ", eepromConfig.PID[PITCH_ATT_PID].windupGuard); uar
 1420              		.loc 1 231 0
 1421 0ae8 40F20003 		movw	r3, #:lower16:eepromConfig
 1422 0aec C0F20003 		movt	r3, #:upper16:eepromConfig
 1423 0af0 D3F84C31 		ldr	r3, [r3, #332]	@ float
 1424 0af4 1846     		mov	r0, r3	@ float
 1425 0af6 FFF7FEFF 		bl	__aeabi_f2d
 1426 0afa 0246     		mov	r2, r0
 1427 0afc 0B46     		mov	r3, r1
 1428 0afe CDE90023 		strd	r2, [sp]
 1429 0b02 40F20000 		movw	r0, #:lower16:numberString
 1430 0b06 C0F20000 		movt	r0, #:upper16:numberString
 1431 0b0a 4FF01001 		mov	r1, #16
 1432 0b0e 40F20002 		movw	r2, #:lower16:.LC2
 1433 0b12 C0F20002 		movt	r2, #:upper16:.LC2
 1434 0b16 FFF7FEFF 		bl	snprintf
 1435 0b1a 40F20000 		movw	r0, #:lower16:numberString
 1436 0b1e C0F20000 		movt	r0, #:upper16:numberString
 1437 0b22 FFF7FEFF 		bl	uart1Print
 232:../src/cli.c  ****             if  (eepromConfig.PID[PITCH_ATT_PID].dErrorCalc)
 1438              		.loc 1 232 0
 1439 0b26 40F20003 		movw	r3, #:lower16:eepromConfig
 1440 0b2a C0F20003 		movt	r3, #:upper16:eepromConfig
 1441 0b2e 93F85C31 		ldrb	r3, [r3, #348]	@ zero_extendqisi2
 1442 0b32 002B     		cmp	r3, #0
 1443 0b34 06D0     		beq	.L92
 233:../src/cli.c  ****                 uart1Print("Error\n");
 1444              		.loc 1 233 0
 1445 0b36 40F20000 		movw	r0, #:lower16:.LC3
 1446 0b3a C0F20000 		movt	r0, #:upper16:.LC3
 1447 0b3e FFF7FEFF 		bl	uart1Print
 1448 0b42 05E0     		b	.L93
 1449              	.L92:
 234:../src/cli.c  ****             else
 235:../src/cli.c  ****                 uart1Print("State\n");
 1450              		.loc 1 235 0
 1451 0b44 40F20000 		movw	r0, #:lower16:.LC4
 1452 0b48 C0F20000 		movt	r0, #:upper16:.LC4
 1453 0b4c FFF7FEFF 		bl	uart1Print
 1454              	.L93:
 236:../src/cli.c  **** 
 237:../src/cli.c  ****             uart1Print("Heading PID:        ");
 1455              		.loc 1 237 0
 1456 0b50 40F20000 		movw	r0, #:lower16:.LC9
 1457 0b54 C0F20000 		movt	r0, #:upper16:.LC9
 1458 0b58 FFF7FEFF 		bl	uart1Print
 238:../src/cli.c  ****             snprintf(numberString, 16, "%8.4f, ", eepromConfig.PID[HEADING_PID].B);           uart1
 1459              		.loc 1 238 0
 1460 0b5c 40F20003 		movw	r3, #:lower16:eepromConfig
 1461 0b60 C0F20003 		movt	r3, #:upper16:eepromConfig
 1462 0b64 D3F86031 		ldr	r3, [r3, #352]	@ float
 1463 0b68 1846     		mov	r0, r3	@ float
 1464 0b6a FFF7FEFF 		bl	__aeabi_f2d
 1465 0b6e 0246     		mov	r2, r0
 1466 0b70 0B46     		mov	r3, r1
 1467 0b72 CDE90023 		strd	r2, [sp]
 1468 0b76 40F20000 		movw	r0, #:lower16:numberString
 1469 0b7a C0F20000 		movt	r0, #:upper16:numberString
 1470 0b7e 4FF01001 		mov	r1, #16
 1471 0b82 40F20002 		movw	r2, #:lower16:.LC2
 1472 0b86 C0F20002 		movt	r2, #:upper16:.LC2
 1473 0b8a FFF7FEFF 		bl	snprintf
 1474 0b8e 40F20000 		movw	r0, #:lower16:numberString
 1475 0b92 C0F20000 		movt	r0, #:upper16:numberString
 1476 0b96 FFF7FEFF 		bl	uart1Print
 239:../src/cli.c  ****             snprintf(numberString, 16, "%8.4f, ", eepromConfig.PID[HEADING_PID].P);           uart1
 1477              		.loc 1 239 0
 1478 0b9a 40F20003 		movw	r3, #:lower16:eepromConfig
 1479 0b9e C0F20003 		movt	r3, #:upper16:eepromConfig
 1480 0ba2 D3F86431 		ldr	r3, [r3, #356]	@ float
 1481 0ba6 1846     		mov	r0, r3	@ float
 1482 0ba8 FFF7FEFF 		bl	__aeabi_f2d
 1483 0bac 0246     		mov	r2, r0
 1484 0bae 0B46     		mov	r3, r1
 1485 0bb0 CDE90023 		strd	r2, [sp]
 1486 0bb4 40F20000 		movw	r0, #:lower16:numberString
 1487 0bb8 C0F20000 		movt	r0, #:upper16:numberString
 1488 0bbc 4FF01001 		mov	r1, #16
 1489 0bc0 40F20002 		movw	r2, #:lower16:.LC2
 1490 0bc4 C0F20002 		movt	r2, #:upper16:.LC2
 1491 0bc8 FFF7FEFF 		bl	snprintf
 1492 0bcc 40F20000 		movw	r0, #:lower16:numberString
 1493 0bd0 C0F20000 		movt	r0, #:upper16:numberString
 1494 0bd4 FFF7FEFF 		bl	uart1Print
 240:../src/cli.c  ****             snprintf(numberString, 16, "%8.4f, ", eepromConfig.PID[HEADING_PID].I);           uart1
 1495              		.loc 1 240 0
 1496 0bd8 40F20003 		movw	r3, #:lower16:eepromConfig
 1497 0bdc C0F20003 		movt	r3, #:upper16:eepromConfig
 1498 0be0 D3F86831 		ldr	r3, [r3, #360]	@ float
 1499 0be4 1846     		mov	r0, r3	@ float
 1500 0be6 FFF7FEFF 		bl	__aeabi_f2d
 1501 0bea 0246     		mov	r2, r0
 1502 0bec 0B46     		mov	r3, r1
 1503 0bee CDE90023 		strd	r2, [sp]
 1504 0bf2 40F20000 		movw	r0, #:lower16:numberString
 1505 0bf6 C0F20000 		movt	r0, #:upper16:numberString
 1506 0bfa 4FF01001 		mov	r1, #16
 1507 0bfe 40F20002 		movw	r2, #:lower16:.LC2
 1508 0c02 C0F20002 		movt	r2, #:upper16:.LC2
 1509 0c06 FFF7FEFF 		bl	snprintf
 1510 0c0a 40F20000 		movw	r0, #:lower16:numberString
 1511 0c0e C0F20000 		movt	r0, #:upper16:numberString
 1512 0c12 FFF7FEFF 		bl	uart1Print
 241:../src/cli.c  ****             snprintf(numberString, 16, "%8.4f, ", eepromConfig.PID[HEADING_PID].D);           uart1
 1513              		.loc 1 241 0
 1514 0c16 40F20003 		movw	r3, #:lower16:eepromConfig
 1515 0c1a C0F20003 		movt	r3, #:upper16:eepromConfig
 1516 0c1e D3F86C31 		ldr	r3, [r3, #364]	@ float
 1517 0c22 1846     		mov	r0, r3	@ float
 1518 0c24 FFF7FEFF 		bl	__aeabi_f2d
 1519 0c28 0246     		mov	r2, r0
 1520 0c2a 0B46     		mov	r3, r1
 1521 0c2c CDE90023 		strd	r2, [sp]
 1522 0c30 40F20000 		movw	r0, #:lower16:numberString
 1523 0c34 C0F20000 		movt	r0, #:upper16:numberString
 1524 0c38 4FF01001 		mov	r1, #16
 1525 0c3c 40F20002 		movw	r2, #:lower16:.LC2
 1526 0c40 C0F20002 		movt	r2, #:upper16:.LC2
 1527 0c44 FFF7FEFF 		bl	snprintf
 1528 0c48 40F20000 		movw	r0, #:lower16:numberString
 1529 0c4c C0F20000 		movt	r0, #:upper16:numberString
 1530 0c50 FFF7FEFF 		bl	uart1Print
 242:../src/cli.c  ****             snprintf(numberString, 16, "%8.4f, ", eepromConfig.PID[HEADING_PID].windupGuard); uart1
 1531              		.loc 1 242 0
 1532 0c54 40F20003 		movw	r3, #:lower16:eepromConfig
 1533 0c58 C0F20003 		movt	r3, #:upper16:eepromConfig
 1534 0c5c D3F87431 		ldr	r3, [r3, #372]	@ float
 1535 0c60 1846     		mov	r0, r3	@ float
 1536 0c62 FFF7FEFF 		bl	__aeabi_f2d
 1537 0c66 0246     		mov	r2, r0
 1538 0c68 0B46     		mov	r3, r1
 1539 0c6a CDE90023 		strd	r2, [sp]
 1540 0c6e 40F20000 		movw	r0, #:lower16:numberString
 1541 0c72 C0F20000 		movt	r0, #:upper16:numberString
 1542 0c76 4FF01001 		mov	r1, #16
 1543 0c7a 40F20002 		movw	r2, #:lower16:.LC2
 1544 0c7e C0F20002 		movt	r2, #:upper16:.LC2
 1545 0c82 FFF7FEFF 		bl	snprintf
 1546 0c86 40F20000 		movw	r0, #:lower16:numberString
 1547 0c8a C0F20000 		movt	r0, #:upper16:numberString
 1548 0c8e FFF7FEFF 		bl	uart1Print
 243:../src/cli.c  ****             if  (eepromConfig.PID[HEADING_PID].dErrorCalc)
 1549              		.loc 1 243 0
 1550 0c92 40F20003 		movw	r3, #:lower16:eepromConfig
 1551 0c96 C0F20003 		movt	r3, #:upper16:eepromConfig
 1552 0c9a 93F88431 		ldrb	r3, [r3, #388]	@ zero_extendqisi2
 1553 0c9e 002B     		cmp	r3, #0
 1554 0ca0 06D0     		beq	.L94
 244:../src/cli.c  ****                 uart1Print("Error\n");
 1555              		.loc 1 244 0
 1556 0ca2 40F20000 		movw	r0, #:lower16:.LC3
 1557 0ca6 C0F20000 		movt	r0, #:upper16:.LC3
 1558 0caa FFF7FEFF 		bl	uart1Print
 1559 0cae 05E0     		b	.L95
 1560              	.L94:
 245:../src/cli.c  ****             else
 246:../src/cli.c  ****                 uart1Print("State\n");
 1561              		.loc 1 246 0
 1562 0cb0 40F20000 		movw	r0, #:lower16:.LC4
 1563 0cb4 C0F20000 		movt	r0, #:upper16:.LC4
 1564 0cb8 FFF7FEFF 		bl	uart1Print
 1565              	.L95:
 247:../src/cli.c  **** 
 248:../src/cli.c  ****             queryType = 'x';
 1566              		.loc 1 248 0
 1567 0cbc 40F20003 		movw	r3, #:lower16:queryType
 1568 0cc0 C0F20003 		movt	r3, #:upper16:queryType
 1569 0cc4 4FF07802 		mov	r2, #120
 1570 0cc8 1A70     		strb	r2, [r3, #0]
 249:../src/cli.c  ****             validCommand = false;
 1571              		.loc 1 249 0
 1572 0cca 40F20003 		movw	r3, #:lower16:validCommand
 1573 0cce C0F20003 		movt	r3, #:upper16:validCommand
 1574 0cd2 4FF00002 		mov	r2, #0
 1575 0cd6 1A70     		strb	r2, [r3, #0]
 250:../src/cli.c  ****             break;
 1576              		.loc 1 250 0
 1577 0cd8 02F0ACB8 		b	.L17
 1578              	.L59:
 251:../src/cli.c  **** 
 252:../src/cli.c  ****         ///////////////////////////////
 253:../src/cli.c  **** 
 254:../src/cli.c  ****         case 'c': // Velocity PIDs
 255:../src/cli.c  ****             uart1Print("\n");
 1579              		.loc 1 255 0
 1580 0cdc 40F20000 		movw	r0, #:lower16:.LC0
 1581 0ce0 C0F20000 		movt	r0, #:upper16:.LC0
 1582 0ce4 FFF7FEFF 		bl	uart1Print
 256:../src/cli.c  **** 
 257:../src/cli.c  ****             uart1Print("nDot PID:  ");
 1583              		.loc 1 257 0
 1584 0ce8 40F20000 		movw	r0, #:lower16:.LC10
 1585 0cec C0F20000 		movt	r0, #:upper16:.LC10
 1586 0cf0 FFF7FEFF 		bl	uart1Print
 258:../src/cli.c  ****             snprintf(numberString, 16, "%8.4f, ", eepromConfig.PID[NDOT_PID].B);           uart1Pri
 1587              		.loc 1 258 0
 1588 0cf4 40F20003 		movw	r3, #:lower16:eepromConfig
 1589 0cf8 C0F20003 		movt	r3, #:upper16:eepromConfig
 1590 0cfc D3F88831 		ldr	r3, [r3, #392]	@ float
 1591 0d00 1846     		mov	r0, r3	@ float
 1592 0d02 FFF7FEFF 		bl	__aeabi_f2d
 1593 0d06 0246     		mov	r2, r0
 1594 0d08 0B46     		mov	r3, r1
 1595 0d0a CDE90023 		strd	r2, [sp]
 1596 0d0e 40F20000 		movw	r0, #:lower16:numberString
 1597 0d12 C0F20000 		movt	r0, #:upper16:numberString
 1598 0d16 4FF01001 		mov	r1, #16
 1599 0d1a 40F20002 		movw	r2, #:lower16:.LC2
 1600 0d1e C0F20002 		movt	r2, #:upper16:.LC2
 1601 0d22 FFF7FEFF 		bl	snprintf
 1602 0d26 40F20000 		movw	r0, #:lower16:numberString
 1603 0d2a C0F20000 		movt	r0, #:upper16:numberString
 1604 0d2e FFF7FEFF 		bl	uart1Print
 259:../src/cli.c  ****             snprintf(numberString, 16, "%8.4f, ", eepromConfig.PID[NDOT_PID].P);           uart1Pri
 1605              		.loc 1 259 0
 1606 0d32 40F20003 		movw	r3, #:lower16:eepromConfig
 1607 0d36 C0F20003 		movt	r3, #:upper16:eepromConfig
 1608 0d3a D3F88C31 		ldr	r3, [r3, #396]	@ float
 1609 0d3e 1846     		mov	r0, r3	@ float
 1610 0d40 FFF7FEFF 		bl	__aeabi_f2d
 1611 0d44 0246     		mov	r2, r0
 1612 0d46 0B46     		mov	r3, r1
 1613 0d48 CDE90023 		strd	r2, [sp]
 1614 0d4c 40F20000 		movw	r0, #:lower16:numberString
 1615 0d50 C0F20000 		movt	r0, #:upper16:numberString
 1616 0d54 4FF01001 		mov	r1, #16
 1617 0d58 40F20002 		movw	r2, #:lower16:.LC2
 1618 0d5c C0F20002 		movt	r2, #:upper16:.LC2
 1619 0d60 FFF7FEFF 		bl	snprintf
 1620 0d64 40F20000 		movw	r0, #:lower16:numberString
 1621 0d68 C0F20000 		movt	r0, #:upper16:numberString
 1622 0d6c FFF7FEFF 		bl	uart1Print
 260:../src/cli.c  ****             snprintf(numberString, 16, "%8.4f, ", eepromConfig.PID[NDOT_PID].I);           uart1Pri
 1623              		.loc 1 260 0
 1624 0d70 40F20003 		movw	r3, #:lower16:eepromConfig
 1625 0d74 C0F20003 		movt	r3, #:upper16:eepromConfig
 1626 0d78 D3F89031 		ldr	r3, [r3, #400]	@ float
 1627 0d7c 1846     		mov	r0, r3	@ float
 1628 0d7e FFF7FEFF 		bl	__aeabi_f2d
 1629 0d82 0246     		mov	r2, r0
 1630 0d84 0B46     		mov	r3, r1
 1631 0d86 CDE90023 		strd	r2, [sp]
 1632 0d8a 40F20000 		movw	r0, #:lower16:numberString
 1633 0d8e C0F20000 		movt	r0, #:upper16:numberString
 1634 0d92 4FF01001 		mov	r1, #16
 1635 0d96 40F20002 		movw	r2, #:lower16:.LC2
 1636 0d9a C0F20002 		movt	r2, #:upper16:.LC2
 1637 0d9e FFF7FEFF 		bl	snprintf
 1638 0da2 40F20000 		movw	r0, #:lower16:numberString
 1639 0da6 C0F20000 		movt	r0, #:upper16:numberString
 1640 0daa FFF7FEFF 		bl	uart1Print
 261:../src/cli.c  ****             snprintf(numberString, 16, "%8.4f, ", eepromConfig.PID[NDOT_PID].D);           uart1Pri
 1641              		.loc 1 261 0
 1642 0dae 40F20003 		movw	r3, #:lower16:eepromConfig
 1643 0db2 C0F20003 		movt	r3, #:upper16:eepromConfig
 1644 0db6 D3F89431 		ldr	r3, [r3, #404]	@ float
 1645 0dba 1846     		mov	r0, r3	@ float
 1646 0dbc FFF7FEFF 		bl	__aeabi_f2d
 1647 0dc0 0246     		mov	r2, r0
 1648 0dc2 0B46     		mov	r3, r1
 1649 0dc4 CDE90023 		strd	r2, [sp]
 1650 0dc8 40F20000 		movw	r0, #:lower16:numberString
 1651 0dcc C0F20000 		movt	r0, #:upper16:numberString
 1652 0dd0 4FF01001 		mov	r1, #16
 1653 0dd4 40F20002 		movw	r2, #:lower16:.LC2
 1654 0dd8 C0F20002 		movt	r2, #:upper16:.LC2
 1655 0ddc FFF7FEFF 		bl	snprintf
 1656 0de0 40F20000 		movw	r0, #:lower16:numberString
 1657 0de4 C0F20000 		movt	r0, #:upper16:numberString
 1658 0de8 FFF7FEFF 		bl	uart1Print
 262:../src/cli.c  ****             snprintf(numberString, 16, "%8.4f, ", eepromConfig.PID[NDOT_PID].windupGuard); uart1Pri
 1659              		.loc 1 262 0
 1660 0dec 40F20003 		movw	r3, #:lower16:eepromConfig
 1661 0df0 C0F20003 		movt	r3, #:upper16:eepromConfig
 1662 0df4 D3F89C31 		ldr	r3, [r3, #412]	@ float
 1663 0df8 1846     		mov	r0, r3	@ float
 1664 0dfa FFF7FEFF 		bl	__aeabi_f2d
 1665 0dfe 0246     		mov	r2, r0
 1666 0e00 0B46     		mov	r3, r1
 1667 0e02 CDE90023 		strd	r2, [sp]
 1668 0e06 40F20000 		movw	r0, #:lower16:numberString
 1669 0e0a C0F20000 		movt	r0, #:upper16:numberString
 1670 0e0e 4FF01001 		mov	r1, #16
 1671 0e12 40F20002 		movw	r2, #:lower16:.LC2
 1672 0e16 C0F20002 		movt	r2, #:upper16:.LC2
 1673 0e1a FFF7FEFF 		bl	snprintf
 1674 0e1e 40F20000 		movw	r0, #:lower16:numberString
 1675 0e22 C0F20000 		movt	r0, #:upper16:numberString
 1676 0e26 FFF7FEFF 		bl	uart1Print
 263:../src/cli.c  ****             if  (eepromConfig.PID[NDOT_PID].dErrorCalc)
 1677              		.loc 1 263 0
 1678 0e2a 40F20003 		movw	r3, #:lower16:eepromConfig
 1679 0e2e C0F20003 		movt	r3, #:upper16:eepromConfig
 1680 0e32 93F8AC31 		ldrb	r3, [r3, #428]	@ zero_extendqisi2
 1681 0e36 002B     		cmp	r3, #0
 1682 0e38 06D0     		beq	.L96
 264:../src/cli.c  ****                 uart1Print("Error\n");
 1683              		.loc 1 264 0
 1684 0e3a 40F20000 		movw	r0, #:lower16:.LC3
 1685 0e3e C0F20000 		movt	r0, #:upper16:.LC3
 1686 0e42 FFF7FEFF 		bl	uart1Print
 1687 0e46 05E0     		b	.L97
 1688              	.L96:
 265:../src/cli.c  ****             else
 266:../src/cli.c  ****                 uart1Print("State\n");
 1689              		.loc 1 266 0
 1690 0e48 40F20000 		movw	r0, #:lower16:.LC4
 1691 0e4c C0F20000 		movt	r0, #:upper16:.LC4
 1692 0e50 FFF7FEFF 		bl	uart1Print
 1693              	.L97:
 267:../src/cli.c  **** 
 268:../src/cli.c  ****             uart1Print("eDot PID:  ");
 1694              		.loc 1 268 0
 1695 0e54 40F20000 		movw	r0, #:lower16:.LC11
 1696 0e58 C0F20000 		movt	r0, #:upper16:.LC11
 1697 0e5c FFF7FEFF 		bl	uart1Print
 269:../src/cli.c  ****             snprintf(numberString, 16, "%8.4f, ", eepromConfig.PID[EDOT_PID].B);           uart1Pri
 1698              		.loc 1 269 0
 1699 0e60 40F20003 		movw	r3, #:lower16:eepromConfig
 1700 0e64 C0F20003 		movt	r3, #:upper16:eepromConfig
 1701 0e68 D3F8B031 		ldr	r3, [r3, #432]	@ float
 1702 0e6c 1846     		mov	r0, r3	@ float
 1703 0e6e FFF7FEFF 		bl	__aeabi_f2d
 1704 0e72 0246     		mov	r2, r0
 1705 0e74 0B46     		mov	r3, r1
 1706 0e76 CDE90023 		strd	r2, [sp]
 1707 0e7a 40F20000 		movw	r0, #:lower16:numberString
 1708 0e7e C0F20000 		movt	r0, #:upper16:numberString
 1709 0e82 4FF01001 		mov	r1, #16
 1710 0e86 40F20002 		movw	r2, #:lower16:.LC2
 1711 0e8a C0F20002 		movt	r2, #:upper16:.LC2
 1712 0e8e FFF7FEFF 		bl	snprintf
 1713 0e92 40F20000 		movw	r0, #:lower16:numberString
 1714 0e96 C0F20000 		movt	r0, #:upper16:numberString
 1715 0e9a FFF7FEFF 		bl	uart1Print
 270:../src/cli.c  ****             snprintf(numberString, 16, "%8.4f, ", eepromConfig.PID[EDOT_PID].P);           uart1Pri
 1716              		.loc 1 270 0
 1717 0e9e 40F20003 		movw	r3, #:lower16:eepromConfig
 1718 0ea2 C0F20003 		movt	r3, #:upper16:eepromConfig
 1719 0ea6 D3F8B431 		ldr	r3, [r3, #436]	@ float
 1720 0eaa 1846     		mov	r0, r3	@ float
 1721 0eac FFF7FEFF 		bl	__aeabi_f2d
 1722 0eb0 0246     		mov	r2, r0
 1723 0eb2 0B46     		mov	r3, r1
 1724 0eb4 CDE90023 		strd	r2, [sp]
 1725 0eb8 40F20000 		movw	r0, #:lower16:numberString
 1726 0ebc C0F20000 		movt	r0, #:upper16:numberString
 1727 0ec0 4FF01001 		mov	r1, #16
 1728 0ec4 40F20002 		movw	r2, #:lower16:.LC2
 1729 0ec8 C0F20002 		movt	r2, #:upper16:.LC2
 1730 0ecc FFF7FEFF 		bl	snprintf
 1731 0ed0 40F20000 		movw	r0, #:lower16:numberString
 1732 0ed4 C0F20000 		movt	r0, #:upper16:numberString
 1733 0ed8 FFF7FEFF 		bl	uart1Print
 271:../src/cli.c  ****             snprintf(numberString, 16, "%8.4f, ", eepromConfig.PID[EDOT_PID].I);           uart1Pri
 1734              		.loc 1 271 0
 1735 0edc 40F20003 		movw	r3, #:lower16:eepromConfig
 1736 0ee0 C0F20003 		movt	r3, #:upper16:eepromConfig
 1737 0ee4 D3F8B831 		ldr	r3, [r3, #440]	@ float
 1738 0ee8 1846     		mov	r0, r3	@ float
 1739 0eea FFF7FEFF 		bl	__aeabi_f2d
 1740 0eee 0246     		mov	r2, r0
 1741 0ef0 0B46     		mov	r3, r1
 1742 0ef2 CDE90023 		strd	r2, [sp]
 1743 0ef6 40F20000 		movw	r0, #:lower16:numberString
 1744 0efa C0F20000 		movt	r0, #:upper16:numberString
 1745 0efe 4FF01001 		mov	r1, #16
 1746 0f02 40F20002 		movw	r2, #:lower16:.LC2
 1747 0f06 C0F20002 		movt	r2, #:upper16:.LC2
 1748 0f0a FFF7FEFF 		bl	snprintf
 1749 0f0e 40F20000 		movw	r0, #:lower16:numberString
 1750 0f12 C0F20000 		movt	r0, #:upper16:numberString
 1751 0f16 FFF7FEFF 		bl	uart1Print
 272:../src/cli.c  ****             snprintf(numberString, 16, "%8.4f, ", eepromConfig.PID[EDOT_PID].D);           uart1Pri
 1752              		.loc 1 272 0
 1753 0f1a 40F20003 		movw	r3, #:lower16:eepromConfig
 1754 0f1e C0F20003 		movt	r3, #:upper16:eepromConfig
 1755 0f22 D3F8BC31 		ldr	r3, [r3, #444]	@ float
 1756 0f26 1846     		mov	r0, r3	@ float
 1757 0f28 FFF7FEFF 		bl	__aeabi_f2d
 1758 0f2c 0246     		mov	r2, r0
 1759 0f2e 0B46     		mov	r3, r1
 1760 0f30 CDE90023 		strd	r2, [sp]
 1761 0f34 40F20000 		movw	r0, #:lower16:numberString
 1762 0f38 C0F20000 		movt	r0, #:upper16:numberString
 1763 0f3c 4FF01001 		mov	r1, #16
 1764 0f40 40F20002 		movw	r2, #:lower16:.LC2
 1765 0f44 C0F20002 		movt	r2, #:upper16:.LC2
 1766 0f48 FFF7FEFF 		bl	snprintf
 1767 0f4c 40F20000 		movw	r0, #:lower16:numberString
 1768 0f50 C0F20000 		movt	r0, #:upper16:numberString
 1769 0f54 FFF7FEFF 		bl	uart1Print
 273:../src/cli.c  ****             snprintf(numberString, 16, "%8.4f, ", eepromConfig.PID[EDOT_PID].windupGuard); uart1Pri
 1770              		.loc 1 273 0
 1771 0f58 40F20003 		movw	r3, #:lower16:eepromConfig
 1772 0f5c C0F20003 		movt	r3, #:upper16:eepromConfig
 1773 0f60 D3F8C431 		ldr	r3, [r3, #452]	@ float
 1774 0f64 1846     		mov	r0, r3	@ float
 1775 0f66 FFF7FEFF 		bl	__aeabi_f2d
 1776 0f6a 0246     		mov	r2, r0
 1777 0f6c 0B46     		mov	r3, r1
 1778 0f6e CDE90023 		strd	r2, [sp]
 1779 0f72 40F20000 		movw	r0, #:lower16:numberString
 1780 0f76 C0F20000 		movt	r0, #:upper16:numberString
 1781 0f7a 4FF01001 		mov	r1, #16
 1782 0f7e 40F20002 		movw	r2, #:lower16:.LC2
 1783 0f82 C0F20002 		movt	r2, #:upper16:.LC2
 1784 0f86 FFF7FEFF 		bl	snprintf
 1785 0f8a 40F20000 		movw	r0, #:lower16:numberString
 1786 0f8e C0F20000 		movt	r0, #:upper16:numberString
 1787 0f92 FFF7FEFF 		bl	uart1Print
 274:../src/cli.c  ****             if  (eepromConfig.PID[EDOT_PID].dErrorCalc)
 1788              		.loc 1 274 0
 1789 0f96 40F20003 		movw	r3, #:lower16:eepromConfig
 1790 0f9a C0F20003 		movt	r3, #:upper16:eepromConfig
 1791 0f9e 93F8D431 		ldrb	r3, [r3, #468]	@ zero_extendqisi2
 1792 0fa2 002B     		cmp	r3, #0
 1793 0fa4 06D0     		beq	.L98
 275:../src/cli.c  ****                 uart1Print("Error\n");
 1794              		.loc 1 275 0
 1795 0fa6 40F20000 		movw	r0, #:lower16:.LC3
 1796 0faa C0F20000 		movt	r0, #:upper16:.LC3
 1797 0fae FFF7FEFF 		bl	uart1Print
 1798 0fb2 05E0     		b	.L99
 1799              	.L98:
 276:../src/cli.c  ****             else
 277:../src/cli.c  ****                 uart1Print("State\n");
 1800              		.loc 1 277 0
 1801 0fb4 40F20000 		movw	r0, #:lower16:.LC4
 1802 0fb8 C0F20000 		movt	r0, #:upper16:.LC4
 1803 0fbc FFF7FEFF 		bl	uart1Print
 1804              	.L99:
 278:../src/cli.c  **** 
 279:../src/cli.c  ****             uart1Print("hDot PID:  ");
 1805              		.loc 1 279 0
 1806 0fc0 40F20000 		movw	r0, #:lower16:.LC12
 1807 0fc4 C0F20000 		movt	r0, #:upper16:.LC12
 1808 0fc8 FFF7FEFF 		bl	uart1Print
 280:../src/cli.c  ****             snprintf(numberString, 16, "%8.4f, ", eepromConfig.PID[HDOT_PID].B);           uart1Pri
 1809              		.loc 1 280 0
 1810 0fcc 40F20003 		movw	r3, #:lower16:eepromConfig
 1811 0fd0 C0F20003 		movt	r3, #:upper16:eepromConfig
 1812 0fd4 D3F8D831 		ldr	r3, [r3, #472]	@ float
 1813 0fd8 1846     		mov	r0, r3	@ float
 1814 0fda FFF7FEFF 		bl	__aeabi_f2d
 1815 0fde 0246     		mov	r2, r0
 1816 0fe0 0B46     		mov	r3, r1
 1817 0fe2 CDE90023 		strd	r2, [sp]
 1818 0fe6 40F20000 		movw	r0, #:lower16:numberString
 1819 0fea C0F20000 		movt	r0, #:upper16:numberString
 1820 0fee 4FF01001 		mov	r1, #16
 1821 0ff2 40F20002 		movw	r2, #:lower16:.LC2
 1822 0ff6 C0F20002 		movt	r2, #:upper16:.LC2
 1823 0ffa FFF7FEFF 		bl	snprintf
 1824 0ffe 40F20000 		movw	r0, #:lower16:numberString
 1825 1002 C0F20000 		movt	r0, #:upper16:numberString
 1826 1006 FFF7FEFF 		bl	uart1Print
 281:../src/cli.c  ****             snprintf(numberString, 16, "%8.4f, ", eepromConfig.PID[HDOT_PID].P);           uart1Pri
 1827              		.loc 1 281 0
 1828 100a 40F20003 		movw	r3, #:lower16:eepromConfig
 1829 100e C0F20003 		movt	r3, #:upper16:eepromConfig
 1830 1012 D3F8DC31 		ldr	r3, [r3, #476]	@ float
 1831 1016 1846     		mov	r0, r3	@ float
 1832 1018 FFF7FEFF 		bl	__aeabi_f2d
 1833 101c 0246     		mov	r2, r0
 1834 101e 0B46     		mov	r3, r1
 1835 1020 CDE90023 		strd	r2, [sp]
 1836 1024 40F20000 		movw	r0, #:lower16:numberString
 1837 1028 C0F20000 		movt	r0, #:upper16:numberString
 1838 102c 4FF01001 		mov	r1, #16
 1839 1030 40F20002 		movw	r2, #:lower16:.LC2
 1840 1034 C0F20002 		movt	r2, #:upper16:.LC2
 1841 1038 FFF7FEFF 		bl	snprintf
 1842 103c 40F20000 		movw	r0, #:lower16:numberString
 1843 1040 C0F20000 		movt	r0, #:upper16:numberString
 1844 1044 FFF7FEFF 		bl	uart1Print
 282:../src/cli.c  ****             snprintf(numberString, 16, "%8.4f, ", eepromConfig.PID[HDOT_PID].I);           uart1Pri
 1845              		.loc 1 282 0
 1846 1048 40F20003 		movw	r3, #:lower16:eepromConfig
 1847 104c C0F20003 		movt	r3, #:upper16:eepromConfig
 1848 1050 D3F8E031 		ldr	r3, [r3, #480]	@ float
 1849 1054 1846     		mov	r0, r3	@ float
 1850 1056 FFF7FEFF 		bl	__aeabi_f2d
 1851 105a 0246     		mov	r2, r0
 1852 105c 0B46     		mov	r3, r1
 1853 105e CDE90023 		strd	r2, [sp]
 1854 1062 40F20000 		movw	r0, #:lower16:numberString
 1855 1066 C0F20000 		movt	r0, #:upper16:numberString
 1856 106a 4FF01001 		mov	r1, #16
 1857 106e 40F20002 		movw	r2, #:lower16:.LC2
 1858 1072 C0F20002 		movt	r2, #:upper16:.LC2
 1859 1076 FFF7FEFF 		bl	snprintf
 1860 107a 40F20000 		movw	r0, #:lower16:numberString
 1861 107e C0F20000 		movt	r0, #:upper16:numberString
 1862 1082 FFF7FEFF 		bl	uart1Print
 283:../src/cli.c  ****             snprintf(numberString, 16, "%8.4f, ", eepromConfig.PID[HDOT_PID].D);           uart1Pri
 1863              		.loc 1 283 0
 1864 1086 40F20003 		movw	r3, #:lower16:eepromConfig
 1865 108a C0F20003 		movt	r3, #:upper16:eepromConfig
 1866 108e D3F8E431 		ldr	r3, [r3, #484]	@ float
 1867 1092 1846     		mov	r0, r3	@ float
 1868 1094 FFF7FEFF 		bl	__aeabi_f2d
 1869 1098 0246     		mov	r2, r0
 1870 109a 0B46     		mov	r3, r1
 1871 109c CDE90023 		strd	r2, [sp]
 1872 10a0 40F20000 		movw	r0, #:lower16:numberString
 1873 10a4 C0F20000 		movt	r0, #:upper16:numberString
 1874 10a8 4FF01001 		mov	r1, #16
 1875 10ac 40F20002 		movw	r2, #:lower16:.LC2
 1876 10b0 C0F20002 		movt	r2, #:upper16:.LC2
 1877 10b4 FFF7FEFF 		bl	snprintf
 1878 10b8 40F20000 		movw	r0, #:lower16:numberString
 1879 10bc C0F20000 		movt	r0, #:upper16:numberString
 1880 10c0 FFF7FEFF 		bl	uart1Print
 284:../src/cli.c  ****             snprintf(numberString, 16, "%8.4f, ", eepromConfig.PID[HDOT_PID].windupGuard); uart1Pri
 1881              		.loc 1 284 0
 1882 10c4 40F20003 		movw	r3, #:lower16:eepromConfig
 1883 10c8 C0F20003 		movt	r3, #:upper16:eepromConfig
 1884 10cc D3F8EC31 		ldr	r3, [r3, #492]	@ float
 1885 10d0 1846     		mov	r0, r3	@ float
 1886 10d2 FFF7FEFF 		bl	__aeabi_f2d
 1887 10d6 0246     		mov	r2, r0
 1888 10d8 0B46     		mov	r3, r1
 1889 10da CDE90023 		strd	r2, [sp]
 1890 10de 40F20000 		movw	r0, #:lower16:numberString
 1891 10e2 C0F20000 		movt	r0, #:upper16:numberString
 1892 10e6 4FF01001 		mov	r1, #16
 1893 10ea 40F20002 		movw	r2, #:lower16:.LC2
 1894 10ee C0F20002 		movt	r2, #:upper16:.LC2
 1895 10f2 FFF7FEFF 		bl	snprintf
 1896 10f6 40F20000 		movw	r0, #:lower16:numberString
 1897 10fa C0F20000 		movt	r0, #:upper16:numberString
 1898 10fe FFF7FEFF 		bl	uart1Print
 285:../src/cli.c  ****             if  (eepromConfig.PID[HDOT_PID].dErrorCalc)
 1899              		.loc 1 285 0
 1900 1102 40F20003 		movw	r3, #:lower16:eepromConfig
 1901 1106 C0F20003 		movt	r3, #:upper16:eepromConfig
 1902 110a 93F8FC31 		ldrb	r3, [r3, #508]	@ zero_extendqisi2
 1903 110e 002B     		cmp	r3, #0
 1904 1110 06D0     		beq	.L100
 286:../src/cli.c  ****                 uart1Print("Error\n");
 1905              		.loc 1 286 0
 1906 1112 40F20000 		movw	r0, #:lower16:.LC3
 1907 1116 C0F20000 		movt	r0, #:upper16:.LC3
 1908 111a FFF7FEFF 		bl	uart1Print
 1909 111e 05E0     		b	.L101
 1910              	.L100:
 287:../src/cli.c  ****             else
 288:../src/cli.c  ****                 uart1Print("State\n");
 1911              		.loc 1 288 0
 1912 1120 40F20000 		movw	r0, #:lower16:.LC4
 1913 1124 C0F20000 		movt	r0, #:upper16:.LC4
 1914 1128 FFF7FEFF 		bl	uart1Print
 1915              	.L101:
 289:../src/cli.c  **** 
 290:../src/cli.c  ****             queryType = 'x';
 1916              		.loc 1 290 0
 1917 112c 40F20003 		movw	r3, #:lower16:queryType
 1918 1130 C0F20003 		movt	r3, #:upper16:queryType
 1919 1134 4FF07802 		mov	r2, #120
 1920 1138 1A70     		strb	r2, [r3, #0]
 291:../src/cli.c  ****             validCommand = false;
 1921              		.loc 1 291 0
 1922 113a 40F20003 		movw	r3, #:lower16:validCommand
 1923 113e C0F20003 		movt	r3, #:upper16:validCommand
 1924 1142 4FF00002 		mov	r2, #0
 1925 1146 1A70     		strb	r2, [r3, #0]
 292:../src/cli.c  ****         	break;
 1926              		.loc 1 292 0
 1927 1148 01F074BE 		b	.L17
 1928              	.L60:
 293:../src/cli.c  **** 
 294:../src/cli.c  ****         ///////////////////////////////
 295:../src/cli.c  **** 
 296:../src/cli.c  ****         case 'd': // Position PIDs
 297:../src/cli.c  ****             uart1Print("\n");
 1929              		.loc 1 297 0
 1930 114c 40F20000 		movw	r0, #:lower16:.LC0
 1931 1150 C0F20000 		movt	r0, #:upper16:.LC0
 1932 1154 FFF7FEFF 		bl	uart1Print
 298:../src/cli.c  **** 
 299:../src/cli.c  ****             uart1Print("n PID:  ");
 1933              		.loc 1 299 0
 1934 1158 40F20000 		movw	r0, #:lower16:.LC13
 1935 115c C0F20000 		movt	r0, #:upper16:.LC13
 1936 1160 FFF7FEFF 		bl	uart1Print
 300:../src/cli.c  ****             snprintf(numberString, 16, "%8.4f, ", eepromConfig.PID[N_PID].B);           uart1Print(
 1937              		.loc 1 300 0
 1938 1164 40F20003 		movw	r3, #:lower16:eepromConfig
 1939 1168 C0F20003 		movt	r3, #:upper16:eepromConfig
 1940 116c D3F80032 		ldr	r3, [r3, #512]	@ float
 1941 1170 1846     		mov	r0, r3	@ float
 1942 1172 FFF7FEFF 		bl	__aeabi_f2d
 1943 1176 0246     		mov	r2, r0
 1944 1178 0B46     		mov	r3, r1
 1945 117a CDE90023 		strd	r2, [sp]
 1946 117e 40F20000 		movw	r0, #:lower16:numberString
 1947 1182 C0F20000 		movt	r0, #:upper16:numberString
 1948 1186 4FF01001 		mov	r1, #16
 1949 118a 40F20002 		movw	r2, #:lower16:.LC2
 1950 118e C0F20002 		movt	r2, #:upper16:.LC2
 1951 1192 FFF7FEFF 		bl	snprintf
 1952 1196 40F20000 		movw	r0, #:lower16:numberString
 1953 119a C0F20000 		movt	r0, #:upper16:numberString
 1954 119e FFF7FEFF 		bl	uart1Print
 301:../src/cli.c  ****             snprintf(numberString, 16, "%8.4f, ", eepromConfig.PID[N_PID].P);           uart1Print(
 1955              		.loc 1 301 0
 1956 11a2 40F20003 		movw	r3, #:lower16:eepromConfig
 1957 11a6 C0F20003 		movt	r3, #:upper16:eepromConfig
 1958 11aa D3F80432 		ldr	r3, [r3, #516]	@ float
 1959 11ae 1846     		mov	r0, r3	@ float
 1960 11b0 FFF7FEFF 		bl	__aeabi_f2d
 1961 11b4 0246     		mov	r2, r0
 1962 11b6 0B46     		mov	r3, r1
 1963 11b8 CDE90023 		strd	r2, [sp]
 1964 11bc 40F20000 		movw	r0, #:lower16:numberString
 1965 11c0 C0F20000 		movt	r0, #:upper16:numberString
 1966 11c4 4FF01001 		mov	r1, #16
 1967 11c8 40F20002 		movw	r2, #:lower16:.LC2
 1968 11cc C0F20002 		movt	r2, #:upper16:.LC2
 1969 11d0 FFF7FEFF 		bl	snprintf
 1970 11d4 40F20000 		movw	r0, #:lower16:numberString
 1971 11d8 C0F20000 		movt	r0, #:upper16:numberString
 1972 11dc FFF7FEFF 		bl	uart1Print
 302:../src/cli.c  ****             snprintf(numberString, 16, "%8.4f, ", eepromConfig.PID[N_PID].I);           uart1Print(
 1973              		.loc 1 302 0
 1974 11e0 40F20003 		movw	r3, #:lower16:eepromConfig
 1975 11e4 C0F20003 		movt	r3, #:upper16:eepromConfig
 1976 11e8 D3F80832 		ldr	r3, [r3, #520]	@ float
 1977 11ec 1846     		mov	r0, r3	@ float
 1978 11ee FFF7FEFF 		bl	__aeabi_f2d
 1979 11f2 0246     		mov	r2, r0
 1980 11f4 0B46     		mov	r3, r1
 1981 11f6 CDE90023 		strd	r2, [sp]
 1982 11fa 40F20000 		movw	r0, #:lower16:numberString
 1983 11fe C0F20000 		movt	r0, #:upper16:numberString
 1984 1202 4FF01001 		mov	r1, #16
 1985 1206 40F20002 		movw	r2, #:lower16:.LC2
 1986 120a C0F20002 		movt	r2, #:upper16:.LC2
 1987 120e FFF7FEFF 		bl	snprintf
 1988 1212 40F20000 		movw	r0, #:lower16:numberString
 1989 1216 C0F20000 		movt	r0, #:upper16:numberString
 1990 121a FFF7FEFF 		bl	uart1Print
 303:../src/cli.c  ****             snprintf(numberString, 16, "%8.4f, ", eepromConfig.PID[N_PID].D);           uart1Print(
 1991              		.loc 1 303 0
 1992 121e 40F20003 		movw	r3, #:lower16:eepromConfig
 1993 1222 C0F20003 		movt	r3, #:upper16:eepromConfig
 1994 1226 D3F80C32 		ldr	r3, [r3, #524]	@ float
 1995 122a 1846     		mov	r0, r3	@ float
 1996 122c FFF7FEFF 		bl	__aeabi_f2d
 1997 1230 0246     		mov	r2, r0
 1998 1232 0B46     		mov	r3, r1
 1999 1234 CDE90023 		strd	r2, [sp]
 2000 1238 40F20000 		movw	r0, #:lower16:numberString
 2001 123c C0F20000 		movt	r0, #:upper16:numberString
 2002 1240 4FF01001 		mov	r1, #16
 2003 1244 40F20002 		movw	r2, #:lower16:.LC2
 2004 1248 C0F20002 		movt	r2, #:upper16:.LC2
 2005 124c FFF7FEFF 		bl	snprintf
 2006 1250 40F20000 		movw	r0, #:lower16:numberString
 2007 1254 C0F20000 		movt	r0, #:upper16:numberString
 2008 1258 FFF7FEFF 		bl	uart1Print
 304:../src/cli.c  ****             snprintf(numberString, 16, "%8.4f, ", eepromConfig.PID[N_PID].windupGuard); uart1Print(
 2009              		.loc 1 304 0
 2010 125c 40F20003 		movw	r3, #:lower16:eepromConfig
 2011 1260 C0F20003 		movt	r3, #:upper16:eepromConfig
 2012 1264 D3F81432 		ldr	r3, [r3, #532]	@ float
 2013 1268 1846     		mov	r0, r3	@ float
 2014 126a FFF7FEFF 		bl	__aeabi_f2d
 2015 126e 0246     		mov	r2, r0
 2016 1270 0B46     		mov	r3, r1
 2017 1272 CDE90023 		strd	r2, [sp]
 2018 1276 40F20000 		movw	r0, #:lower16:numberString
 2019 127a C0F20000 		movt	r0, #:upper16:numberString
 2020 127e 4FF01001 		mov	r1, #16
 2021 1282 40F20002 		movw	r2, #:lower16:.LC2
 2022 1286 C0F20002 		movt	r2, #:upper16:.LC2
 2023 128a FFF7FEFF 		bl	snprintf
 2024 128e 40F20000 		movw	r0, #:lower16:numberString
 2025 1292 C0F20000 		movt	r0, #:upper16:numberString
 2026 1296 FFF7FEFF 		bl	uart1Print
 305:../src/cli.c  ****             if  (eepromConfig.PID[N_PID].dErrorCalc)
 2027              		.loc 1 305 0
 2028 129a 40F20003 		movw	r3, #:lower16:eepromConfig
 2029 129e C0F20003 		movt	r3, #:upper16:eepromConfig
 2030 12a2 93F82432 		ldrb	r3, [r3, #548]	@ zero_extendqisi2
 2031 12a6 002B     		cmp	r3, #0
 2032 12a8 06D0     		beq	.L102
 306:../src/cli.c  ****                 uart1Print("Error\n");
 2033              		.loc 1 306 0
 2034 12aa 40F20000 		movw	r0, #:lower16:.LC3
 2035 12ae C0F20000 		movt	r0, #:upper16:.LC3
 2036 12b2 FFF7FEFF 		bl	uart1Print
 2037 12b6 05E0     		b	.L103
 2038              	.L102:
 307:../src/cli.c  ****             else
 308:../src/cli.c  ****                 uart1Print("State\n");
 2039              		.loc 1 308 0
 2040 12b8 40F20000 		movw	r0, #:lower16:.LC4
 2041 12bc C0F20000 		movt	r0, #:upper16:.LC4
 2042 12c0 FFF7FEFF 		bl	uart1Print
 2043              	.L103:
 309:../src/cli.c  **** 
 310:../src/cli.c  ****             uart1Print("e PID:  ");
 2044              		.loc 1 310 0
 2045 12c4 40F20000 		movw	r0, #:lower16:.LC14
 2046 12c8 C0F20000 		movt	r0, #:upper16:.LC14
 2047 12cc FFF7FEFF 		bl	uart1Print
 311:../src/cli.c  ****             snprintf(numberString, 16, "%8.4f, ", eepromConfig.PID[E_PID].B);           uart1Print(
 2048              		.loc 1 311 0
 2049 12d0 40F20003 		movw	r3, #:lower16:eepromConfig
 2050 12d4 C0F20003 		movt	r3, #:upper16:eepromConfig
 2051 12d8 D3F82832 		ldr	r3, [r3, #552]	@ float
 2052 12dc 1846     		mov	r0, r3	@ float
 2053 12de FFF7FEFF 		bl	__aeabi_f2d
 2054 12e2 0246     		mov	r2, r0
 2055 12e4 0B46     		mov	r3, r1
 2056 12e6 CDE90023 		strd	r2, [sp]
 2057 12ea 40F20000 		movw	r0, #:lower16:numberString
 2058 12ee C0F20000 		movt	r0, #:upper16:numberString
 2059 12f2 4FF01001 		mov	r1, #16
 2060 12f6 40F20002 		movw	r2, #:lower16:.LC2
 2061 12fa C0F20002 		movt	r2, #:upper16:.LC2
 2062 12fe FFF7FEFF 		bl	snprintf
 2063 1302 40F20000 		movw	r0, #:lower16:numberString
 2064 1306 C0F20000 		movt	r0, #:upper16:numberString
 2065 130a FFF7FEFF 		bl	uart1Print
 312:../src/cli.c  ****             snprintf(numberString, 16, "%8.4f, ", eepromConfig.PID[E_PID].P);           uart1Print(
 2066              		.loc 1 312 0
 2067 130e 40F20003 		movw	r3, #:lower16:eepromConfig
 2068 1312 C0F20003 		movt	r3, #:upper16:eepromConfig
 2069 1316 D3F82C32 		ldr	r3, [r3, #556]	@ float
 2070 131a 1846     		mov	r0, r3	@ float
 2071 131c FFF7FEFF 		bl	__aeabi_f2d
 2072 1320 0246     		mov	r2, r0
 2073 1322 0B46     		mov	r3, r1
 2074 1324 CDE90023 		strd	r2, [sp]
 2075 1328 40F20000 		movw	r0, #:lower16:numberString
 2076 132c C0F20000 		movt	r0, #:upper16:numberString
 2077 1330 4FF01001 		mov	r1, #16
 2078 1334 40F20002 		movw	r2, #:lower16:.LC2
 2079 1338 C0F20002 		movt	r2, #:upper16:.LC2
 2080 133c FFF7FEFF 		bl	snprintf
 2081 1340 40F20000 		movw	r0, #:lower16:numberString
 2082 1344 C0F20000 		movt	r0, #:upper16:numberString
 2083 1348 FFF7FEFF 		bl	uart1Print
 313:../src/cli.c  ****             snprintf(numberString, 16, "%8.4f, ", eepromConfig.PID[E_PID].I);           uart1Print(
 2084              		.loc 1 313 0
 2085 134c 40F20003 		movw	r3, #:lower16:eepromConfig
 2086 1350 C0F20003 		movt	r3, #:upper16:eepromConfig
 2087 1354 D3F83032 		ldr	r3, [r3, #560]	@ float
 2088 1358 1846     		mov	r0, r3	@ float
 2089 135a FFF7FEFF 		bl	__aeabi_f2d
 2090 135e 0246     		mov	r2, r0
 2091 1360 0B46     		mov	r3, r1
 2092 1362 CDE90023 		strd	r2, [sp]
 2093 1366 40F20000 		movw	r0, #:lower16:numberString
 2094 136a C0F20000 		movt	r0, #:upper16:numberString
 2095 136e 4FF01001 		mov	r1, #16
 2096 1372 40F20002 		movw	r2, #:lower16:.LC2
 2097 1376 C0F20002 		movt	r2, #:upper16:.LC2
 2098 137a FFF7FEFF 		bl	snprintf
 2099 137e 40F20000 		movw	r0, #:lower16:numberString
 2100 1382 C0F20000 		movt	r0, #:upper16:numberString
 2101 1386 FFF7FEFF 		bl	uart1Print
 314:../src/cli.c  ****             snprintf(numberString, 16, "%8.4f, ", eepromConfig.PID[E_PID].D);           uart1Print(
 2102              		.loc 1 314 0
 2103 138a 40F20003 		movw	r3, #:lower16:eepromConfig
 2104 138e C0F20003 		movt	r3, #:upper16:eepromConfig
 2105 1392 D3F83432 		ldr	r3, [r3, #564]	@ float
 2106 1396 1846     		mov	r0, r3	@ float
 2107 1398 FFF7FEFF 		bl	__aeabi_f2d
 2108 139c 0246     		mov	r2, r0
 2109 139e 0B46     		mov	r3, r1
 2110 13a0 CDE90023 		strd	r2, [sp]
 2111 13a4 40F20000 		movw	r0, #:lower16:numberString
 2112 13a8 C0F20000 		movt	r0, #:upper16:numberString
 2113 13ac 4FF01001 		mov	r1, #16
 2114 13b0 40F20002 		movw	r2, #:lower16:.LC2
 2115 13b4 C0F20002 		movt	r2, #:upper16:.LC2
 2116 13b8 FFF7FEFF 		bl	snprintf
 2117 13bc 40F20000 		movw	r0, #:lower16:numberString
 2118 13c0 C0F20000 		movt	r0, #:upper16:numberString
 2119 13c4 FFF7FEFF 		bl	uart1Print
 315:../src/cli.c  ****             snprintf(numberString, 16, "%8.4f, ", eepromConfig.PID[E_PID].windupGuard); uart1Print(
 2120              		.loc 1 315 0
 2121 13c8 40F20003 		movw	r3, #:lower16:eepromConfig
 2122 13cc C0F20003 		movt	r3, #:upper16:eepromConfig
 2123 13d0 D3F83C32 		ldr	r3, [r3, #572]	@ float
 2124 13d4 1846     		mov	r0, r3	@ float
 2125 13d6 FFF7FEFF 		bl	__aeabi_f2d
 2126 13da 0246     		mov	r2, r0
 2127 13dc 0B46     		mov	r3, r1
 2128 13de CDE90023 		strd	r2, [sp]
 2129 13e2 40F20000 		movw	r0, #:lower16:numberString
 2130 13e6 C0F20000 		movt	r0, #:upper16:numberString
 2131 13ea 4FF01001 		mov	r1, #16
 2132 13ee 40F20002 		movw	r2, #:lower16:.LC2
 2133 13f2 C0F20002 		movt	r2, #:upper16:.LC2
 2134 13f6 FFF7FEFF 		bl	snprintf
 2135 13fa 40F20000 		movw	r0, #:lower16:numberString
 2136 13fe C0F20000 		movt	r0, #:upper16:numberString
 2137 1402 FFF7FEFF 		bl	uart1Print
 316:../src/cli.c  ****             if  (eepromConfig.PID[E_PID].dErrorCalc)
 2138              		.loc 1 316 0
 2139 1406 40F20003 		movw	r3, #:lower16:eepromConfig
 2140 140a C0F20003 		movt	r3, #:upper16:eepromConfig
 2141 140e 93F84C32 		ldrb	r3, [r3, #588]	@ zero_extendqisi2
 2142 1412 002B     		cmp	r3, #0
 2143 1414 06D0     		beq	.L104
 317:../src/cli.c  ****                 uart1Print("Error\n");
 2144              		.loc 1 317 0
 2145 1416 40F20000 		movw	r0, #:lower16:.LC3
 2146 141a C0F20000 		movt	r0, #:upper16:.LC3
 2147 141e FFF7FEFF 		bl	uart1Print
 2148 1422 05E0     		b	.L105
 2149              	.L104:
 318:../src/cli.c  ****             else
 319:../src/cli.c  ****                 uart1Print("State\n");
 2150              		.loc 1 319 0
 2151 1424 40F20000 		movw	r0, #:lower16:.LC4
 2152 1428 C0F20000 		movt	r0, #:upper16:.LC4
 2153 142c FFF7FEFF 		bl	uart1Print
 2154              	.L105:
 320:../src/cli.c  **** 
 321:../src/cli.c  ****             uart1Print("h PID:  ");
 2155              		.loc 1 321 0
 2156 1430 40F20000 		movw	r0, #:lower16:.LC15
 2157 1434 C0F20000 		movt	r0, #:upper16:.LC15
 2158 1438 FFF7FEFF 		bl	uart1Print
 322:../src/cli.c  ****             snprintf(numberString, 16, "%8.4f, ", eepromConfig.PID[H_PID].B);           uart1Print(
 2159              		.loc 1 322 0
 2160 143c 40F20003 		movw	r3, #:lower16:eepromConfig
 2161 1440 C0F20003 		movt	r3, #:upper16:eepromConfig
 2162 1444 D3F85032 		ldr	r3, [r3, #592]	@ float
 2163 1448 1846     		mov	r0, r3	@ float
 2164 144a FFF7FEFF 		bl	__aeabi_f2d
 2165 144e 0246     		mov	r2, r0
 2166 1450 0B46     		mov	r3, r1
 2167 1452 CDE90023 		strd	r2, [sp]
 2168 1456 40F20000 		movw	r0, #:lower16:numberString
 2169 145a C0F20000 		movt	r0, #:upper16:numberString
 2170 145e 4FF01001 		mov	r1, #16
 2171 1462 40F20002 		movw	r2, #:lower16:.LC2
 2172 1466 C0F20002 		movt	r2, #:upper16:.LC2
 2173 146a FFF7FEFF 		bl	snprintf
 2174 146e 40F20000 		movw	r0, #:lower16:numberString
 2175 1472 C0F20000 		movt	r0, #:upper16:numberString
 2176 1476 FFF7FEFF 		bl	uart1Print
 323:../src/cli.c  ****             snprintf(numberString, 16, "%8.4f, ", eepromConfig.PID[H_PID].P);           uart1Print(
 2177              		.loc 1 323 0
 2178 147a 40F20003 		movw	r3, #:lower16:eepromConfig
 2179 147e C0F20003 		movt	r3, #:upper16:eepromConfig
 2180 1482 D3F85432 		ldr	r3, [r3, #596]	@ float
 2181 1486 1846     		mov	r0, r3	@ float
 2182 1488 FFF7FEFF 		bl	__aeabi_f2d
 2183 148c 0246     		mov	r2, r0
 2184 148e 0B46     		mov	r3, r1
 2185 1490 CDE90023 		strd	r2, [sp]
 2186 1494 40F20000 		movw	r0, #:lower16:numberString
 2187 1498 C0F20000 		movt	r0, #:upper16:numberString
 2188 149c 4FF01001 		mov	r1, #16
 2189 14a0 40F20002 		movw	r2, #:lower16:.LC2
 2190 14a4 C0F20002 		movt	r2, #:upper16:.LC2
 2191 14a8 FFF7FEFF 		bl	snprintf
 2192 14ac 40F20000 		movw	r0, #:lower16:numberString
 2193 14b0 C0F20000 		movt	r0, #:upper16:numberString
 2194 14b4 FFF7FEFF 		bl	uart1Print
 324:../src/cli.c  ****             snprintf(numberString, 16, "%8.4f, ", eepromConfig.PID[H_PID].I);           uart1Print(
 2195              		.loc 1 324 0
 2196 14b8 40F20003 		movw	r3, #:lower16:eepromConfig
 2197 14bc C0F20003 		movt	r3, #:upper16:eepromConfig
 2198 14c0 D3F85832 		ldr	r3, [r3, #600]	@ float
 2199 14c4 1846     		mov	r0, r3	@ float
 2200 14c6 FFF7FEFF 		bl	__aeabi_f2d
 2201 14ca 0246     		mov	r2, r0
 2202 14cc 0B46     		mov	r3, r1
 2203 14ce CDE90023 		strd	r2, [sp]
 2204 14d2 40F20000 		movw	r0, #:lower16:numberString
 2205 14d6 C0F20000 		movt	r0, #:upper16:numberString
 2206 14da 4FF01001 		mov	r1, #16
 2207 14de 40F20002 		movw	r2, #:lower16:.LC2
 2208 14e2 C0F20002 		movt	r2, #:upper16:.LC2
 2209 14e6 FFF7FEFF 		bl	snprintf
 2210 14ea 40F20000 		movw	r0, #:lower16:numberString
 2211 14ee C0F20000 		movt	r0, #:upper16:numberString
 2212 14f2 FFF7FEFF 		bl	uart1Print
 325:../src/cli.c  ****             snprintf(numberString, 16, "%8.4f, ", eepromConfig.PID[H_PID].D);           uart1Print(
 2213              		.loc 1 325 0
 2214 14f6 40F20003 		movw	r3, #:lower16:eepromConfig
 2215 14fa C0F20003 		movt	r3, #:upper16:eepromConfig
 2216 14fe D3F85C32 		ldr	r3, [r3, #604]	@ float
 2217 1502 1846     		mov	r0, r3	@ float
 2218 1504 FFF7FEFF 		bl	__aeabi_f2d
 2219 1508 0246     		mov	r2, r0
 2220 150a 0B46     		mov	r3, r1
 2221 150c CDE90023 		strd	r2, [sp]
 2222 1510 40F20000 		movw	r0, #:lower16:numberString
 2223 1514 C0F20000 		movt	r0, #:upper16:numberString
 2224 1518 4FF01001 		mov	r1, #16
 2225 151c 40F20002 		movw	r2, #:lower16:.LC2
 2226 1520 C0F20002 		movt	r2, #:upper16:.LC2
 2227 1524 FFF7FEFF 		bl	snprintf
 2228 1528 40F20000 		movw	r0, #:lower16:numberString
 2229 152c C0F20000 		movt	r0, #:upper16:numberString
 2230 1530 FFF7FEFF 		bl	uart1Print
 326:../src/cli.c  ****             snprintf(numberString, 16, "%8.4f, ", eepromConfig.PID[H_PID].windupGuard); uart1Print(
 2231              		.loc 1 326 0
 2232 1534 40F20003 		movw	r3, #:lower16:eepromConfig
 2233 1538 C0F20003 		movt	r3, #:upper16:eepromConfig
 2234 153c D3F86432 		ldr	r3, [r3, #612]	@ float
 2235 1540 1846     		mov	r0, r3	@ float
 2236 1542 FFF7FEFF 		bl	__aeabi_f2d
 2237 1546 0246     		mov	r2, r0
 2238 1548 0B46     		mov	r3, r1
 2239 154a CDE90023 		strd	r2, [sp]
 2240 154e 40F20000 		movw	r0, #:lower16:numberString
 2241 1552 C0F20000 		movt	r0, #:upper16:numberString
 2242 1556 4FF01001 		mov	r1, #16
 2243 155a 40F20002 		movw	r2, #:lower16:.LC2
 2244 155e C0F20002 		movt	r2, #:upper16:.LC2
 2245 1562 FFF7FEFF 		bl	snprintf
 2246 1566 40F20000 		movw	r0, #:lower16:numberString
 2247 156a C0F20000 		movt	r0, #:upper16:numberString
 2248 156e FFF7FEFF 		bl	uart1Print
 327:../src/cli.c  ****             if  (eepromConfig.PID[H_PID].dErrorCalc)
 2249              		.loc 1 327 0
 2250 1572 40F20003 		movw	r3, #:lower16:eepromConfig
 2251 1576 C0F20003 		movt	r3, #:upper16:eepromConfig
 2252 157a 93F87432 		ldrb	r3, [r3, #628]	@ zero_extendqisi2
 2253 157e 002B     		cmp	r3, #0
 2254 1580 06D0     		beq	.L106
 328:../src/cli.c  ****                 uart1Print("Error\n");
 2255              		.loc 1 328 0
 2256 1582 40F20000 		movw	r0, #:lower16:.LC3
 2257 1586 C0F20000 		movt	r0, #:upper16:.LC3
 2258 158a FFF7FEFF 		bl	uart1Print
 2259 158e 05E0     		b	.L107
 2260              	.L106:
 329:../src/cli.c  ****             else
 330:../src/cli.c  ****                 uart1Print("State\n");
 2261              		.loc 1 330 0
 2262 1590 40F20000 		movw	r0, #:lower16:.LC4
 2263 1594 C0F20000 		movt	r0, #:upper16:.LC4
 2264 1598 FFF7FEFF 		bl	uart1Print
 2265              	.L107:
 331:../src/cli.c  **** 
 332:../src/cli.c  ****             queryType = 'x';
 2266              		.loc 1 332 0
 2267 159c 40F20003 		movw	r3, #:lower16:queryType
 2268 15a0 C0F20003 		movt	r3, #:upper16:queryType
 2269 15a4 4FF07802 		mov	r2, #120
 2270 15a8 1A70     		strb	r2, [r3, #0]
 333:../src/cli.c  ****             validCommand = false;
 2271              		.loc 1 333 0
 2272 15aa 40F20003 		movw	r3, #:lower16:validCommand
 2273 15ae C0F20003 		movt	r3, #:upper16:validCommand
 2274 15b2 4FF00002 		mov	r2, #0
 2275 15b6 1A70     		strb	r2, [r3, #0]
 334:../src/cli.c  ****         	break;
 2276              		.loc 1 334 0
 2277 15b8 01F03CBC 		b	.L17
 2278              	.L61:
 335:../src/cli.c  **** 
 336:../src/cli.c  ****          ///////////////////////////////
 337:../src/cli.c  **** 
 338:../src/cli.c  ****         case 'e': // Loop Delta Times
 339:../src/cli.c  ****         	snprintf(numberString, 16, "%7ld, ", deltaTime1000Hz); uart1Print(numberString);
 2279              		.loc 1 339 0
 2280 15bc 40F20003 		movw	r3, #:lower16:deltaTime1000Hz
 2281 15c0 C0F20003 		movt	r3, #:upper16:deltaTime1000Hz
 2282 15c4 1B68     		ldr	r3, [r3, #0]
 2283 15c6 40F20000 		movw	r0, #:lower16:numberString
 2284 15ca C0F20000 		movt	r0, #:upper16:numberString
 2285 15ce 4FF01001 		mov	r1, #16
 2286 15d2 40F20002 		movw	r2, #:lower16:.LC16
 2287 15d6 C0F20002 		movt	r2, #:upper16:.LC16
 2288 15da FFF7FEFF 		bl	snprintf
 2289 15de 40F20000 		movw	r0, #:lower16:numberString
 2290 15e2 C0F20000 		movt	r0, #:upper16:numberString
 2291 15e6 FFF7FEFF 		bl	uart1Print
 340:../src/cli.c  ****         	snprintf(numberString, 16, "%7ld, ", deltaTime500Hz ); uart1Print(numberString);
 2292              		.loc 1 340 0
 2293 15ea 40F20003 		movw	r3, #:lower16:deltaTime500Hz
 2294 15ee C0F20003 		movt	r3, #:upper16:deltaTime500Hz
 2295 15f2 1B68     		ldr	r3, [r3, #0]
 2296 15f4 40F20000 		movw	r0, #:lower16:numberString
 2297 15f8 C0F20000 		movt	r0, #:upper16:numberString
 2298 15fc 4FF01001 		mov	r1, #16
 2299 1600 40F20002 		movw	r2, #:lower16:.LC16
 2300 1604 C0F20002 		movt	r2, #:upper16:.LC16
 2301 1608 FFF7FEFF 		bl	snprintf
 2302 160c 40F20000 		movw	r0, #:lower16:numberString
 2303 1610 C0F20000 		movt	r0, #:upper16:numberString
 2304 1614 FFF7FEFF 		bl	uart1Print
 341:../src/cli.c  ****         	snprintf(numberString, 16, "%7ld, ", deltaTime100Hz ); uart1Print(numberString);
 2305              		.loc 1 341 0
 2306 1618 40F20003 		movw	r3, #:lower16:deltaTime100Hz
 2307 161c C0F20003 		movt	r3, #:upper16:deltaTime100Hz
 2308 1620 1B68     		ldr	r3, [r3, #0]
 2309 1622 40F20000 		movw	r0, #:lower16:numberString
 2310 1626 C0F20000 		movt	r0, #:upper16:numberString
 2311 162a 4FF01001 		mov	r1, #16
 2312 162e 40F20002 		movw	r2, #:lower16:.LC16
 2313 1632 C0F20002 		movt	r2, #:upper16:.LC16
 2314 1636 FFF7FEFF 		bl	snprintf
 2315 163a 40F20000 		movw	r0, #:lower16:numberString
 2316 163e C0F20000 		movt	r0, #:upper16:numberString
 2317 1642 FFF7FEFF 		bl	uart1Print
 342:../src/cli.c  ****         	snprintf(numberString, 16, "%7ld, ", deltaTime50Hz  ); uart1Print(numberString);
 2318              		.loc 1 342 0
 2319 1646 40F20003 		movw	r3, #:lower16:deltaTime50Hz
 2320 164a C0F20003 		movt	r3, #:upper16:deltaTime50Hz
 2321 164e 1B68     		ldr	r3, [r3, #0]
 2322 1650 40F20000 		movw	r0, #:lower16:numberString
 2323 1654 C0F20000 		movt	r0, #:upper16:numberString
 2324 1658 4FF01001 		mov	r1, #16
 2325 165c 40F20002 		movw	r2, #:lower16:.LC16
 2326 1660 C0F20002 		movt	r2, #:upper16:.LC16
 2327 1664 FFF7FEFF 		bl	snprintf
 2328 1668 40F20000 		movw	r0, #:lower16:numberString
 2329 166c C0F20000 		movt	r0, #:upper16:numberString
 2330 1670 FFF7FEFF 		bl	uart1Print
 343:../src/cli.c  ****         	snprintf(numberString, 16, "%7ld, ", deltaTime10Hz  ); uart1Print(numberString);
 2331              		.loc 1 343 0
 2332 1674 40F20003 		movw	r3, #:lower16:deltaTime10Hz
 2333 1678 C0F20003 		movt	r3, #:upper16:deltaTime10Hz
 2334 167c 1B68     		ldr	r3, [r3, #0]
 2335 167e 40F20000 		movw	r0, #:lower16:numberString
 2336 1682 C0F20000 		movt	r0, #:upper16:numberString
 2337 1686 4FF01001 		mov	r1, #16
 2338 168a 40F20002 		movw	r2, #:lower16:.LC16
 2339 168e C0F20002 		movt	r2, #:upper16:.LC16
 2340 1692 FFF7FEFF 		bl	snprintf
 2341 1696 40F20000 		movw	r0, #:lower16:numberString
 2342 169a C0F20000 		movt	r0, #:upper16:numberString
 2343 169e FFF7FEFF 		bl	uart1Print
 344:../src/cli.c  ****         	snprintf(numberString, 16, "%7ld, ", deltaTime5Hz   ); uart1Print(numberString);
 2344              		.loc 1 344 0
 2345 16a2 40F20003 		movw	r3, #:lower16:deltaTime5Hz
 2346 16a6 C0F20003 		movt	r3, #:upper16:deltaTime5Hz
 2347 16aa 1B68     		ldr	r3, [r3, #0]
 2348 16ac 40F20000 		movw	r0, #:lower16:numberString
 2349 16b0 C0F20000 		movt	r0, #:upper16:numberString
 2350 16b4 4FF01001 		mov	r1, #16
 2351 16b8 40F20002 		movw	r2, #:lower16:.LC16
 2352 16bc C0F20002 		movt	r2, #:upper16:.LC16
 2353 16c0 FFF7FEFF 		bl	snprintf
 2354 16c4 40F20000 		movw	r0, #:lower16:numberString
 2355 16c8 C0F20000 		movt	r0, #:upper16:numberString
 2356 16cc FFF7FEFF 		bl	uart1Print
 345:../src/cli.c  ****         	snprintf(numberString, 16, "%7ld\n", deltaTime1Hz   ); uart1Print(numberString);
 2357              		.loc 1 345 0
 2358 16d0 40F20003 		movw	r3, #:lower16:deltaTime1Hz
 2359 16d4 C0F20003 		movt	r3, #:upper16:deltaTime1Hz
 2360 16d8 1B68     		ldr	r3, [r3, #0]
 2361 16da 40F20000 		movw	r0, #:lower16:numberString
 2362 16de C0F20000 		movt	r0, #:upper16:numberString
 2363 16e2 4FF01001 		mov	r1, #16
 2364 16e6 40F20002 		movw	r2, #:lower16:.LC17
 2365 16ea C0F20002 		movt	r2, #:upper16:.LC17
 2366 16ee FFF7FEFF 		bl	snprintf
 2367 16f2 40F20000 		movw	r0, #:lower16:numberString
 2368 16f6 C0F20000 		movt	r0, #:upper16:numberString
 2369 16fa FFF7FEFF 		bl	uart1Print
 346:../src/cli.c  **** 
 347:../src/cli.c  ****         	validCommand = false;
 2370              		.loc 1 347 0
 2371 16fe 40F20003 		movw	r3, #:lower16:validCommand
 2372 1702 C0F20003 		movt	r3, #:upper16:validCommand
 2373 1706 4FF00002 		mov	r2, #0
 2374 170a 1A70     		strb	r2, [r3, #0]
 348:../src/cli.c  ****         	break;
 2375              		.loc 1 348 0
 2376 170c 01F092BB 		b	.L17
 2377              	.L62:
 349:../src/cli.c  **** 
 350:../src/cli.c  ****         ///////////////////////////////
 351:../src/cli.c  **** 
 352:../src/cli.c  ****         case 'f': // Loop Execution Times
 353:../src/cli.c  ****         	snprintf(numberString, 16, "%7ld, ", executionTime1000Hz); uart1Print(numberString);
 2378              		.loc 1 353 0
 2379 1710 40F20003 		movw	r3, #:lower16:executionTime1000Hz
 2380 1714 C0F20003 		movt	r3, #:upper16:executionTime1000Hz
 2381 1718 1B68     		ldr	r3, [r3, #0]
 2382 171a 40F20000 		movw	r0, #:lower16:numberString
 2383 171e C0F20000 		movt	r0, #:upper16:numberString
 2384 1722 4FF01001 		mov	r1, #16
 2385 1726 40F20002 		movw	r2, #:lower16:.LC16
 2386 172a C0F20002 		movt	r2, #:upper16:.LC16
 2387 172e FFF7FEFF 		bl	snprintf
 2388 1732 40F20000 		movw	r0, #:lower16:numberString
 2389 1736 C0F20000 		movt	r0, #:upper16:numberString
 2390 173a FFF7FEFF 		bl	uart1Print
 354:../src/cli.c  ****         	snprintf(numberString, 16, "%7ld, ", executionTime500Hz ); uart1Print(numberString);
 2391              		.loc 1 354 0
 2392 173e 40F20003 		movw	r3, #:lower16:executionTime500Hz
 2393 1742 C0F20003 		movt	r3, #:upper16:executionTime500Hz
 2394 1746 1B68     		ldr	r3, [r3, #0]
 2395 1748 40F20000 		movw	r0, #:lower16:numberString
 2396 174c C0F20000 		movt	r0, #:upper16:numberString
 2397 1750 4FF01001 		mov	r1, #16
 2398 1754 40F20002 		movw	r2, #:lower16:.LC16
 2399 1758 C0F20002 		movt	r2, #:upper16:.LC16
 2400 175c FFF7FEFF 		bl	snprintf
 2401 1760 40F20000 		movw	r0, #:lower16:numberString
 2402 1764 C0F20000 		movt	r0, #:upper16:numberString
 2403 1768 FFF7FEFF 		bl	uart1Print
 355:../src/cli.c  ****         	snprintf(numberString, 16, "%7ld, ", executionTime100Hz ); uart1Print(numberString);
 2404              		.loc 1 355 0
 2405 176c 40F20003 		movw	r3, #:lower16:executionTime100Hz
 2406 1770 C0F20003 		movt	r3, #:upper16:executionTime100Hz
 2407 1774 1B68     		ldr	r3, [r3, #0]
 2408 1776 40F20000 		movw	r0, #:lower16:numberString
 2409 177a C0F20000 		movt	r0, #:upper16:numberString
 2410 177e 4FF01001 		mov	r1, #16
 2411 1782 40F20002 		movw	r2, #:lower16:.LC16
 2412 1786 C0F20002 		movt	r2, #:upper16:.LC16
 2413 178a FFF7FEFF 		bl	snprintf
 2414 178e 40F20000 		movw	r0, #:lower16:numberString
 2415 1792 C0F20000 		movt	r0, #:upper16:numberString
 2416 1796 FFF7FEFF 		bl	uart1Print
 356:../src/cli.c  ****         	snprintf(numberString, 16, "%7ld, ", executionTime50Hz  ); uart1Print(numberString);
 2417              		.loc 1 356 0
 2418 179a 40F20003 		movw	r3, #:lower16:executionTime50Hz
 2419 179e C0F20003 		movt	r3, #:upper16:executionTime50Hz
 2420 17a2 1B68     		ldr	r3, [r3, #0]
 2421 17a4 40F20000 		movw	r0, #:lower16:numberString
 2422 17a8 C0F20000 		movt	r0, #:upper16:numberString
 2423 17ac 4FF01001 		mov	r1, #16
 2424 17b0 40F20002 		movw	r2, #:lower16:.LC16
 2425 17b4 C0F20002 		movt	r2, #:upper16:.LC16
 2426 17b8 FFF7FEFF 		bl	snprintf
 2427 17bc 40F20000 		movw	r0, #:lower16:numberString
 2428 17c0 C0F20000 		movt	r0, #:upper16:numberString
 2429 17c4 FFF7FEFF 		bl	uart1Print
 357:../src/cli.c  ****         	snprintf(numberString, 16, "%7ld, ", executionTime10Hz  ); uart1Print(numberString);
 2430              		.loc 1 357 0
 2431 17c8 40F20003 		movw	r3, #:lower16:executionTime10Hz
 2432 17cc C0F20003 		movt	r3, #:upper16:executionTime10Hz
 2433 17d0 1B68     		ldr	r3, [r3, #0]
 2434 17d2 40F20000 		movw	r0, #:lower16:numberString
 2435 17d6 C0F20000 		movt	r0, #:upper16:numberString
 2436 17da 4FF01001 		mov	r1, #16
 2437 17de 40F20002 		movw	r2, #:lower16:.LC16
 2438 17e2 C0F20002 		movt	r2, #:upper16:.LC16
 2439 17e6 FFF7FEFF 		bl	snprintf
 2440 17ea 40F20000 		movw	r0, #:lower16:numberString
 2441 17ee C0F20000 		movt	r0, #:upper16:numberString
 2442 17f2 FFF7FEFF 		bl	uart1Print
 358:../src/cli.c  ****         	snprintf(numberString, 16, "%7ld, ", executionTime5Hz   ); uart1Print(numberString);
 2443              		.loc 1 358 0
 2444 17f6 40F20003 		movw	r3, #:lower16:executionTime5Hz
 2445 17fa C0F20003 		movt	r3, #:upper16:executionTime5Hz
 2446 17fe 1B68     		ldr	r3, [r3, #0]
 2447 1800 40F20000 		movw	r0, #:lower16:numberString
 2448 1804 C0F20000 		movt	r0, #:upper16:numberString
 2449 1808 4FF01001 		mov	r1, #16
 2450 180c 40F20002 		movw	r2, #:lower16:.LC16
 2451 1810 C0F20002 		movt	r2, #:upper16:.LC16
 2452 1814 FFF7FEFF 		bl	snprintf
 2453 1818 40F20000 		movw	r0, #:lower16:numberString
 2454 181c C0F20000 		movt	r0, #:upper16:numberString
 2455 1820 FFF7FEFF 		bl	uart1Print
 359:../src/cli.c  ****         	snprintf(numberString, 16, "%7ld\n", executionTime1Hz   ); uart1Print(numberString);
 2456              		.loc 1 359 0
 2457 1824 40F20003 		movw	r3, #:lower16:executionTime1Hz
 2458 1828 C0F20003 		movt	r3, #:upper16:executionTime1Hz
 2459 182c 1B68     		ldr	r3, [r3, #0]
 2460 182e 40F20000 		movw	r0, #:lower16:numberString
 2461 1832 C0F20000 		movt	r0, #:upper16:numberString
 2462 1836 4FF01001 		mov	r1, #16
 2463 183a 40F20002 		movw	r2, #:lower16:.LC17
 2464 183e C0F20002 		movt	r2, #:upper16:.LC17
 2465 1842 FFF7FEFF 		bl	snprintf
 2466 1846 40F20000 		movw	r0, #:lower16:numberString
 2467 184a C0F20000 		movt	r0, #:upper16:numberString
 2468 184e FFF7FEFF 		bl	uart1Print
 360:../src/cli.c  **** 
 361:../src/cli.c  ****         	validCommand = false;
 2469              		.loc 1 361 0
 2470 1852 40F20003 		movw	r3, #:lower16:validCommand
 2471 1856 C0F20003 		movt	r3, #:upper16:validCommand
 2472 185a 4FF00002 		mov	r2, #0
 2473 185e 1A70     		strb	r2, [r3, #0]
 362:../src/cli.c  ****         	break;
 2474              		.loc 1 362 0
 2475 1860 01F0E8BA 		b	.L17
 2476              	.L63:
 363:../src/cli.c  **** 
 364:../src/cli.c  ****         ///////////////////////////////
 365:../src/cli.c  **** 
 366:../src/cli.c  ****         case 'g': // 500 Hz Accels
 367:../src/cli.c  ****         	ftoa(sensors.accel500Hz[XAXIS], numberString); uart1Print(numberString); uart1Print(", ");
 2477              		.loc 1 367 0
 2478 1864 40F20003 		movw	r3, #:lower16:sensors
 2479 1868 C0F20003 		movt	r3, #:upper16:sensors
 2480 186c 1B68     		ldr	r3, [r3, #0]	@ float
 2481 186e 1846     		mov	r0, r3	@ float
 2482 1870 40F20001 		movw	r1, #:lower16:numberString
 2483 1874 C0F20001 		movt	r1, #:upper16:numberString
 2484 1878 FFF7FEFF 		bl	ftoa
 2485 187c 40F20000 		movw	r0, #:lower16:numberString
 2486 1880 C0F20000 		movt	r0, #:upper16:numberString
 2487 1884 FFF7FEFF 		bl	uart1Print
 2488 1888 40F20000 		movw	r0, #:lower16:.LC18
 2489 188c C0F20000 		movt	r0, #:upper16:.LC18
 2490 1890 FFF7FEFF 		bl	uart1Print
 368:../src/cli.c  ****         	ftoa(sensors.accel500Hz[YAXIS], numberString); uart1Print(numberString); uart1Print(", ");
 2491              		.loc 1 368 0
 2492 1894 40F20003 		movw	r3, #:lower16:sensors
 2493 1898 C0F20003 		movt	r3, #:upper16:sensors
 2494 189c 5B68     		ldr	r3, [r3, #4]	@ float
 2495 189e 1846     		mov	r0, r3	@ float
 2496 18a0 40F20001 		movw	r1, #:lower16:numberString
 2497 18a4 C0F20001 		movt	r1, #:upper16:numberString
 2498 18a8 FFF7FEFF 		bl	ftoa
 2499 18ac 40F20000 		movw	r0, #:lower16:numberString
 2500 18b0 C0F20000 		movt	r0, #:upper16:numberString
 2501 18b4 FFF7FEFF 		bl	uart1Print
 2502 18b8 40F20000 		movw	r0, #:lower16:.LC18
 2503 18bc C0F20000 		movt	r0, #:upper16:.LC18
 2504 18c0 FFF7FEFF 		bl	uart1Print
 369:../src/cli.c  ****         	ftoa(sensors.accel500Hz[ZAXIS], numberString); uart1Print(numberString); uart1Print("\n");
 2505              		.loc 1 369 0
 2506 18c4 40F20003 		movw	r3, #:lower16:sensors
 2507 18c8 C0F20003 		movt	r3, #:upper16:sensors
 2508 18cc 9B68     		ldr	r3, [r3, #8]	@ float
 2509 18ce 1846     		mov	r0, r3	@ float
 2510 18d0 40F20001 		movw	r1, #:lower16:numberString
 2511 18d4 C0F20001 		movt	r1, #:upper16:numberString
 2512 18d8 FFF7FEFF 		bl	ftoa
 2513 18dc 40F20000 		movw	r0, #:lower16:numberString
 2514 18e0 C0F20000 		movt	r0, #:upper16:numberString
 2515 18e4 FFF7FEFF 		bl	uart1Print
 2516 18e8 40F20000 		movw	r0, #:lower16:.LC0
 2517 18ec C0F20000 		movt	r0, #:upper16:.LC0
 2518 18f0 FFF7FEFF 		bl	uart1Print
 370:../src/cli.c  **** 
 371:../src/cli.c  ****         	validCommand = false;
 2519              		.loc 1 371 0
 2520 18f4 40F20003 		movw	r3, #:lower16:validCommand
 2521 18f8 C0F20003 		movt	r3, #:upper16:validCommand
 2522 18fc 4FF00002 		mov	r2, #0
 2523 1900 1A70     		strb	r2, [r3, #0]
 372:../src/cli.c  ****         	break;
 2524              		.loc 1 372 0
 2525 1902 01F097BA 		b	.L17
 2526              	.L64:
 373:../src/cli.c  **** 
 374:../src/cli.c  ****         ///////////////////////////////
 375:../src/cli.c  **** 
 376:../src/cli.c  ****         case 'h': // 100 hz Earth Axis Accels
 377:../src/cli.c  ****         	ftoa(earthAxisAccels[XAXIS], numberString); uart1Print(numberString); uart1Print(", ");
 2527              		.loc 1 377 0
 2528 1906 40F20003 		movw	r3, #:lower16:earthAxisAccels
 2529 190a C0F20003 		movt	r3, #:upper16:earthAxisAccels
 2530 190e 1B68     		ldr	r3, [r3, #0]	@ float
 2531 1910 1846     		mov	r0, r3	@ float
 2532 1912 40F20001 		movw	r1, #:lower16:numberString
 2533 1916 C0F20001 		movt	r1, #:upper16:numberString
 2534 191a FFF7FEFF 		bl	ftoa
 2535 191e 40F20000 		movw	r0, #:lower16:numberString
 2536 1922 C0F20000 		movt	r0, #:upper16:numberString
 2537 1926 FFF7FEFF 		bl	uart1Print
 2538 192a 40F20000 		movw	r0, #:lower16:.LC18
 2539 192e C0F20000 		movt	r0, #:upper16:.LC18
 2540 1932 FFF7FEFF 		bl	uart1Print
 378:../src/cli.c  ****         	ftoa(earthAxisAccels[YAXIS], numberString); uart1Print(numberString); uart1Print(", ");
 2541              		.loc 1 378 0
 2542 1936 40F20003 		movw	r3, #:lower16:earthAxisAccels
 2543 193a C0F20003 		movt	r3, #:upper16:earthAxisAccels
 2544 193e 5B68     		ldr	r3, [r3, #4]	@ float
 2545 1940 1846     		mov	r0, r3	@ float
 2546 1942 40F20001 		movw	r1, #:lower16:numberString
 2547 1946 C0F20001 		movt	r1, #:upper16:numberString
 2548 194a FFF7FEFF 		bl	ftoa
 2549 194e 40F20000 		movw	r0, #:lower16:numberString
 2550 1952 C0F20000 		movt	r0, #:upper16:numberString
 2551 1956 FFF7FEFF 		bl	uart1Print
 2552 195a 40F20000 		movw	r0, #:lower16:.LC18
 2553 195e C0F20000 		movt	r0, #:upper16:.LC18
 2554 1962 FFF7FEFF 		bl	uart1Print
 379:../src/cli.c  ****         	ftoa(earthAxisAccels[ZAXIS], numberString); uart1Print(numberString); uart1Print("\n");
 2555              		.loc 1 379 0
 2556 1966 40F20003 		movw	r3, #:lower16:earthAxisAccels
 2557 196a C0F20003 		movt	r3, #:upper16:earthAxisAccels
 2558 196e 9B68     		ldr	r3, [r3, #8]	@ float
 2559 1970 1846     		mov	r0, r3	@ float
 2560 1972 40F20001 		movw	r1, #:lower16:numberString
 2561 1976 C0F20001 		movt	r1, #:upper16:numberString
 2562 197a FFF7FEFF 		bl	ftoa
 2563 197e 40F20000 		movw	r0, #:lower16:numberString
 2564 1982 C0F20000 		movt	r0, #:upper16:numberString
 2565 1986 FFF7FEFF 		bl	uart1Print
 2566 198a 40F20000 		movw	r0, #:lower16:.LC0
 2567 198e C0F20000 		movt	r0, #:upper16:.LC0
 2568 1992 FFF7FEFF 		bl	uart1Print
 380:../src/cli.c  **** 
 381:../src/cli.c  ****         	validCommand = false;
 2569              		.loc 1 381 0
 2570 1996 40F20003 		movw	r3, #:lower16:validCommand
 2571 199a C0F20003 		movt	r3, #:upper16:validCommand
 2572 199e 4FF00002 		mov	r2, #0
 2573 19a2 1A70     		strb	r2, [r3, #0]
 382:../src/cli.c  ****         	break;
 2574              		.loc 1 382 0
 2575 19a4 01F046BA 		b	.L17
 2576              	.L65:
 383:../src/cli.c  **** 
 384:../src/cli.c  ****         ///////////////////////////////
 385:../src/cli.c  **** 
 386:../src/cli.c  ****         case 'i': // 500 Hz Gyros
 387:../src/cli.c  ****         	ftoa(sensors.gyro500Hz[ROLL ] * R2D, numberString); uart1Print(numberString); uart1Print("
 2577              		.loc 1 387 0
 2578 19a8 40F20003 		movw	r3, #:lower16:sensors
 2579 19ac C0F20003 		movt	r3, #:upper16:sensors
 2580 19b0 93ED097A 		flds	s14, [r3, #36]
 2581 19b4 DFEDD17A 		flds	s15, .L139
 2582 19b8 67EE277A 		fmuls	s15, s14, s15
 2583 19bc 9FEDD07A 		flds	s14, .L139+4
 2584 19c0 C7EE877A 		fdivs	s15, s15, s14
 2585 19c4 17EE900A 		fmrs	r0, s15
 2586 19c8 40F20001 		movw	r1, #:lower16:numberString
 2587 19cc C0F20001 		movt	r1, #:upper16:numberString
 2588 19d0 FFF7FEFF 		bl	ftoa
 2589 19d4 40F20000 		movw	r0, #:lower16:numberString
 2590 19d8 C0F20000 		movt	r0, #:upper16:numberString
 2591 19dc FFF7FEFF 		bl	uart1Print
 2592 19e0 40F20000 		movw	r0, #:lower16:.LC18
 2593 19e4 C0F20000 		movt	r0, #:upper16:.LC18
 2594 19e8 FFF7FEFF 		bl	uart1Print
 388:../src/cli.c  ****         	ftoa(sensors.gyro500Hz[PITCH] * R2D, numberString); uart1Print(numberString); uart1Print("
 2595              		.loc 1 388 0
 2596 19ec 40F20003 		movw	r3, #:lower16:sensors
 2597 19f0 C0F20003 		movt	r3, #:upper16:sensors
 2598 19f4 93ED0A7A 		flds	s14, [r3, #40]
 2599 19f8 DFEDC07A 		flds	s15, .L139
 2600 19fc 67EE277A 		fmuls	s15, s14, s15
 2601 1a00 9FEDBF7A 		flds	s14, .L139+4
 2602 1a04 C7EE877A 		fdivs	s15, s15, s14
 2603 1a08 17EE900A 		fmrs	r0, s15
 2604 1a0c 40F20001 		movw	r1, #:lower16:numberString
 2605 1a10 C0F20001 		movt	r1, #:upper16:numberString
 2606 1a14 FFF7FEFF 		bl	ftoa
 2607 1a18 40F20000 		movw	r0, #:lower16:numberString
 2608 1a1c C0F20000 		movt	r0, #:upper16:numberString
 2609 1a20 FFF7FEFF 		bl	uart1Print
 2610 1a24 40F20000 		movw	r0, #:lower16:.LC18
 2611 1a28 C0F20000 		movt	r0, #:upper16:.LC18
 2612 1a2c FFF7FEFF 		bl	uart1Print
 389:../src/cli.c  ****         	ftoa(sensors.gyro500Hz[YAW  ] * R2D, numberString); uart1Print(numberString); uart1Print("
 2613              		.loc 1 389 0
 2614 1a30 40F20003 		movw	r3, #:lower16:sensors
 2615 1a34 C0F20003 		movt	r3, #:upper16:sensors
 2616 1a38 93ED0B7A 		flds	s14, [r3, #44]
 2617 1a3c DFEDAF7A 		flds	s15, .L139
 2618 1a40 67EE277A 		fmuls	s15, s14, s15
 2619 1a44 9FEDAE7A 		flds	s14, .L139+4
 2620 1a48 C7EE877A 		fdivs	s15, s15, s14
 2621 1a4c 17EE900A 		fmrs	r0, s15
 2622 1a50 40F20001 		movw	r1, #:lower16:numberString
 2623 1a54 C0F20001 		movt	r1, #:upper16:numberString
 2624 1a58 FFF7FEFF 		bl	ftoa
 2625 1a5c 40F20000 		movw	r0, #:lower16:numberString
 2626 1a60 C0F20000 		movt	r0, #:upper16:numberString
 2627 1a64 FFF7FEFF 		bl	uart1Print
 2628 1a68 40F20000 		movw	r0, #:lower16:.LC18
 2629 1a6c C0F20000 		movt	r0, #:upper16:.LC18
 2630 1a70 FFF7FEFF 		bl	uart1Print
 390:../src/cli.c  ****         	// HJI ftoa(mpu6000Temperature,             numberString); uart1Print(numberString); uart1
 391:../src/cli.c  **** 
 392:../src/cli.c  ****         	validCommand = false;
 2631              		.loc 1 392 0
 2632 1a74 40F20003 		movw	r3, #:lower16:validCommand
 2633 1a78 C0F20003 		movt	r3, #:upper16:validCommand
 2634 1a7c 4FF00002 		mov	r2, #0
 2635 1a80 1A70     		strb	r2, [r3, #0]
 393:../src/cli.c  ****         	break;
 2636              		.loc 1 393 0
 2637 1a82 01F0D7B9 		b	.L17
 2638              	.L66:
 394:../src/cli.c  **** 
 395:../src/cli.c  ****         ///////////////////////////////
 396:../src/cli.c  **** 
 397:../src/cli.c  ****         case 'j': // 10 Hz Mag Data
 398:../src/cli.c  ****         	ftoa(sensors.mag10Hz[XAXIS], numberString); uart1Print(numberString); uart1Print(", ");
 2639              		.loc 1 398 0
 2640 1a86 40F20003 		movw	r3, #:lower16:sensors
 2641 1a8a C0F20003 		movt	r3, #:upper16:sensors
 2642 1a8e 1B6B     		ldr	r3, [r3, #48]	@ float
 2643 1a90 1846     		mov	r0, r3	@ float
 2644 1a92 40F20001 		movw	r1, #:lower16:numberString
 2645 1a96 C0F20001 		movt	r1, #:upper16:numberString
 2646 1a9a FFF7FEFF 		bl	ftoa
 2647 1a9e 40F20000 		movw	r0, #:lower16:numberString
 2648 1aa2 C0F20000 		movt	r0, #:upper16:numberString
 2649 1aa6 FFF7FEFF 		bl	uart1Print
 2650 1aaa 40F20000 		movw	r0, #:lower16:.LC18
 2651 1aae C0F20000 		movt	r0, #:upper16:.LC18
 2652 1ab2 FFF7FEFF 		bl	uart1Print
 399:../src/cli.c  ****         	ftoa(sensors.mag10Hz[YAXIS], numberString); uart1Print(numberString); uart1Print(", ");
 2653              		.loc 1 399 0
 2654 1ab6 40F20003 		movw	r3, #:lower16:sensors
 2655 1aba C0F20003 		movt	r3, #:upper16:sensors
 2656 1abe 5B6B     		ldr	r3, [r3, #52]	@ float
 2657 1ac0 1846     		mov	r0, r3	@ float
 2658 1ac2 40F20001 		movw	r1, #:lower16:numberString
 2659 1ac6 C0F20001 		movt	r1, #:upper16:numberString
 2660 1aca FFF7FEFF 		bl	ftoa
 2661 1ace 40F20000 		movw	r0, #:lower16:numberString
 2662 1ad2 C0F20000 		movt	r0, #:upper16:numberString
 2663 1ad6 FFF7FEFF 		bl	uart1Print
 2664 1ada 40F20000 		movw	r0, #:lower16:.LC18
 2665 1ade C0F20000 		movt	r0, #:upper16:.LC18
 2666 1ae2 FFF7FEFF 		bl	uart1Print
 400:../src/cli.c  ****         	ftoa(sensors.mag10Hz[ZAXIS], numberString); uart1Print(numberString); uart1Print("\n");
 2667              		.loc 1 400 0
 2668 1ae6 40F20003 		movw	r3, #:lower16:sensors
 2669 1aea C0F20003 		movt	r3, #:upper16:sensors
 2670 1aee 9B6B     		ldr	r3, [r3, #56]	@ float
 2671 1af0 1846     		mov	r0, r3	@ float
 2672 1af2 40F20001 		movw	r1, #:lower16:numberString
 2673 1af6 C0F20001 		movt	r1, #:upper16:numberString
 2674 1afa FFF7FEFF 		bl	ftoa
 2675 1afe 40F20000 		movw	r0, #:lower16:numberString
 2676 1b02 C0F20000 		movt	r0, #:upper16:numberString
 2677 1b06 FFF7FEFF 		bl	uart1Print
 2678 1b0a 40F20000 		movw	r0, #:lower16:.LC0
 2679 1b0e C0F20000 		movt	r0, #:upper16:.LC0
 2680 1b12 FFF7FEFF 		bl	uart1Print
 401:../src/cli.c  **** 
 402:../src/cli.c  ****         	validCommand = false;
 2681              		.loc 1 402 0
 2682 1b16 40F20003 		movw	r3, #:lower16:validCommand
 2683 1b1a C0F20003 		movt	r3, #:upper16:validCommand
 2684 1b1e 4FF00002 		mov	r2, #0
 2685 1b22 1A70     		strb	r2, [r3, #0]
 403:../src/cli.c  ****         	break;
 2686              		.loc 1 403 0
 2687 1b24 01F086B9 		b	.L17
 2688              	.L67:
 404:../src/cli.c  **** 
 405:../src/cli.c  ****         ///////////////////////////////
 406:../src/cli.c  **** 
 407:../src/cli.c  ****         case 'k': // Vertical Axis Variables
 408:../src/cli.c  ****         	ftoa(earthAxisAccels[ZAXIS],  numberString); uart1Print(numberString); uart1Print(", ");
 2689              		.loc 1 408 0
 2690 1b28 40F20003 		movw	r3, #:lower16:earthAxisAccels
 2691 1b2c C0F20003 		movt	r3, #:upper16:earthAxisAccels
 2692 1b30 9B68     		ldr	r3, [r3, #8]	@ float
 2693 1b32 1846     		mov	r0, r3	@ float
 2694 1b34 40F20001 		movw	r1, #:lower16:numberString
 2695 1b38 C0F20001 		movt	r1, #:upper16:numberString
 2696 1b3c FFF7FEFF 		bl	ftoa
 2697 1b40 40F20000 		movw	r0, #:lower16:numberString
 2698 1b44 C0F20000 		movt	r0, #:upper16:numberString
 2699 1b48 FFF7FEFF 		bl	uart1Print
 2700 1b4c 40F20000 		movw	r0, #:lower16:.LC18
 2701 1b50 C0F20000 		movt	r0, #:upper16:.LC18
 2702 1b54 FFF7FEFF 		bl	uart1Print
 409:../src/cli.c  ****         	ftoa(sensors.pressureAlt10Hz, numberString); uart1Print(numberString); uart1Print(", ");
 2703              		.loc 1 409 0
 2704 1b58 40F20003 		movw	r3, #:lower16:sensors
 2705 1b5c C0F20003 		movt	r3, #:upper16:sensors
 2706 1b60 DB6B     		ldr	r3, [r3, #60]	@ float
 2707 1b62 1846     		mov	r0, r3	@ float
 2708 1b64 40F20001 		movw	r1, #:lower16:numberString
 2709 1b68 C0F20001 		movt	r1, #:upper16:numberString
 2710 1b6c FFF7FEFF 		bl	ftoa
 2711 1b70 40F20000 		movw	r0, #:lower16:numberString
 2712 1b74 C0F20000 		movt	r0, #:upper16:numberString
 2713 1b78 FFF7FEFF 		bl	uart1Print
 2714 1b7c 40F20000 		movw	r0, #:lower16:.LC18
 2715 1b80 C0F20000 		movt	r0, #:upper16:.LC18
 2716 1b84 FFF7FEFF 		bl	uart1Print
 410:../src/cli.c  ****         	ftoa(hDotEstimate,            numberString); uart1Print(numberString); uart1Print(", ");
 2717              		.loc 1 410 0
 2718 1b88 40F20003 		movw	r3, #:lower16:hDotEstimate
 2719 1b8c C0F20003 		movt	r3, #:upper16:hDotEstimate
 2720 1b90 1B68     		ldr	r3, [r3, #0]	@ float
 2721 1b92 1846     		mov	r0, r3	@ float
 2722 1b94 40F20001 		movw	r1, #:lower16:numberString
 2723 1b98 C0F20001 		movt	r1, #:upper16:numberString
 2724 1b9c FFF7FEFF 		bl	ftoa
 2725 1ba0 40F20000 		movw	r0, #:lower16:numberString
 2726 1ba4 C0F20000 		movt	r0, #:upper16:numberString
 2727 1ba8 FFF7FEFF 		bl	uart1Print
 2728 1bac 40F20000 		movw	r0, #:lower16:.LC18
 2729 1bb0 C0F20000 		movt	r0, #:upper16:.LC18
 2730 1bb4 FFF7FEFF 		bl	uart1Print
 411:../src/cli.c  ****         	ftoa(hEstimate,               numberString); uart1Print(numberString); uart1Print("\n");
 2731              		.loc 1 411 0
 2732 1bb8 40F20003 		movw	r3, #:lower16:hEstimate
 2733 1bbc C0F20003 		movt	r3, #:upper16:hEstimate
 2734 1bc0 1B68     		ldr	r3, [r3, #0]	@ float
 2735 1bc2 1846     		mov	r0, r3	@ float
 2736 1bc4 40F20001 		movw	r1, #:lower16:numberString
 2737 1bc8 C0F20001 		movt	r1, #:upper16:numberString
 2738 1bcc FFF7FEFF 		bl	ftoa
 2739 1bd0 40F20000 		movw	r0, #:lower16:numberString
 2740 1bd4 C0F20000 		movt	r0, #:upper16:numberString
 2741 1bd8 FFF7FEFF 		bl	uart1Print
 2742 1bdc 40F20000 		movw	r0, #:lower16:.LC0
 2743 1be0 C0F20000 		movt	r0, #:upper16:.LC0
 2744 1be4 FFF7FEFF 		bl	uart1Print
 412:../src/cli.c  **** 
 413:../src/cli.c  ****         	validCommand = false;
 2745              		.loc 1 413 0
 2746 1be8 40F20003 		movw	r3, #:lower16:validCommand
 2747 1bec C0F20003 		movt	r3, #:upper16:validCommand
 2748 1bf0 4FF00002 		mov	r2, #0
 2749 1bf4 1A70     		strb	r2, [r3, #0]
 414:../src/cli.c  ****         	break;
 2750              		.loc 1 414 0
 2751 1bf6 01F01DB9 		b	.L17
 2752              	.L68:
 415:../src/cli.c  **** 
 416:../src/cli.c  ****         ///////////////////////////////
 417:../src/cli.c  **** 
 418:../src/cli.c  ****         case 'l': // Attitudes
 419:../src/cli.c  ****         	snprintf(numberString, 16, "%9.4f, ", sensors.attitude500Hz[ROLL ] * R2D); uart1Print(numb
 2753              		.loc 1 419 0
 2754 1bfa 40F20003 		movw	r3, #:lower16:sensors
 2755 1bfe C0F20003 		movt	r3, #:upper16:sensors
 2756 1c02 93ED067A 		flds	s14, [r3, #24]
 2757 1c06 DFED3D7A 		flds	s15, .L139
 2758 1c0a 67EE277A 		fmuls	s15, s14, s15
 2759 1c0e 9FED3C7A 		flds	s14, .L139+4
 2760 1c12 C7EE877A 		fdivs	s15, s15, s14
 2761 1c16 17EE900A 		fmrs	r0, s15
 2762 1c1a FFF7FEFF 		bl	__aeabi_f2d
 2763 1c1e 0246     		mov	r2, r0
 2764 1c20 0B46     		mov	r3, r1
 2765 1c22 CDE90023 		strd	r2, [sp]
 2766 1c26 40F20000 		movw	r0, #:lower16:numberString
 2767 1c2a C0F20000 		movt	r0, #:upper16:numberString
 2768 1c2e 4FF01001 		mov	r1, #16
 2769 1c32 40F20002 		movw	r2, #:lower16:.LC19
 2770 1c36 C0F20002 		movt	r2, #:upper16:.LC19
 2771 1c3a FFF7FEFF 		bl	snprintf
 2772 1c3e 40F20000 		movw	r0, #:lower16:numberString
 2773 1c42 C0F20000 		movt	r0, #:upper16:numberString
 2774 1c46 FFF7FEFF 		bl	uart1Print
 420:../src/cli.c  ****         	snprintf(numberString, 16, "%9.4f, ", sensors.attitude500Hz[PITCH] * R2D); uart1Print(numb
 2775              		.loc 1 420 0
 2776 1c4a 40F20003 		movw	r3, #:lower16:sensors
 2777 1c4e C0F20003 		movt	r3, #:upper16:sensors
 2778 1c52 93ED077A 		flds	s14, [r3, #28]
 2779 1c56 DFED297A 		flds	s15, .L139
 2780 1c5a 67EE277A 		fmuls	s15, s14, s15
 2781 1c5e 9FED287A 		flds	s14, .L139+4
 2782 1c62 C7EE877A 		fdivs	s15, s15, s14
 2783 1c66 17EE900A 		fmrs	r0, s15
 2784 1c6a FFF7FEFF 		bl	__aeabi_f2d
 2785 1c6e 0246     		mov	r2, r0
 2786 1c70 0B46     		mov	r3, r1
 2787 1c72 CDE90023 		strd	r2, [sp]
 2788 1c76 40F20000 		movw	r0, #:lower16:numberString
 2789 1c7a C0F20000 		movt	r0, #:upper16:numberString
 2790 1c7e 4FF01001 		mov	r1, #16
 2791 1c82 40F20002 		movw	r2, #:lower16:.LC19
 2792 1c86 C0F20002 		movt	r2, #:upper16:.LC19
 2793 1c8a FFF7FEFF 		bl	snprintf
 2794 1c8e 40F20000 		movw	r0, #:lower16:numberString
 2795 1c92 C0F20000 		movt	r0, #:upper16:numberString
 2796 1c96 FFF7FEFF 		bl	uart1Print
 421:../src/cli.c  ****         	snprintf(numberString, 16, "%9.4f\n", sensors.attitude500Hz[YAW  ] * R2D); uart1Print(numb
 2797              		.loc 1 421 0
 2798 1c9a 40F20003 		movw	r3, #:lower16:sensors
 2799 1c9e C0F20003 		movt	r3, #:upper16:sensors
 2800 1ca2 93ED087A 		flds	s14, [r3, #32]
 2801 1ca6 DFED157A 		flds	s15, .L139
 2802 1caa 67EE277A 		fmuls	s15, s14, s15
 2803 1cae 9FED147A 		flds	s14, .L139+4
 2804 1cb2 C7EE877A 		fdivs	s15, s15, s14
 2805 1cb6 17EE900A 		fmrs	r0, s15
 2806 1cba FFF7FEFF 		bl	__aeabi_f2d
 2807 1cbe 0246     		mov	r2, r0
 2808 1cc0 0B46     		mov	r3, r1
 2809 1cc2 CDE90023 		strd	r2, [sp]
 2810 1cc6 40F20000 		movw	r0, #:lower16:numberString
 2811 1cca C0F20000 		movt	r0, #:upper16:numberString
 2812 1cce 4FF01001 		mov	r1, #16
 2813 1cd2 40F20002 		movw	r2, #:lower16:.LC20
 2814 1cd6 C0F20002 		movt	r2, #:upper16:.LC20
 2815 1cda FFF7FEFF 		bl	snprintf
 2816 1cde 40F20000 		movw	r0, #:lower16:numberString
 2817 1ce2 C0F20000 		movt	r0, #:upper16:numberString
 2818 1ce6 FFF7FEFF 		bl	uart1Print
 422:../src/cli.c  **** 
 423:../src/cli.c  ****         	validCommand = false;
 2819              		.loc 1 423 0
 2820 1cea 40F20003 		movw	r3, #:lower16:validCommand
 2821 1cee C0F20003 		movt	r3, #:upper16:validCommand
 2822 1cf2 4FF00002 		mov	r2, #0
 2823 1cf6 1A70     		strb	r2, [r3, #0]
 424:../src/cli.c  ****         	break;
 2824              		.loc 1 424 0
 2825 1cf8 01F09CB8 		b	.L17
 2826              	.L140:
 2827              		.align	2
 2828              	.L139:
 2829 1cfc 00003443 		.word	1127481344
 2830 1d00 DB0F4940 		.word	1078530011
 2831              	.L69:
 425:../src/cli.c  **** 
 426:../src/cli.c  ****        ///////////////////////////////
 427:../src/cli.c  **** 
 428:../src/cli.c  ****         case 'm': // GPS Data
 429:../src/cli.c  ****         	snprintf(numberString, 16, "%12.7f, ", sensors.gpsLatitude  * R2D); uart1Print(numberStrin
 2832              		.loc 1 429 0
 2833 1d04 40F20003 		movw	r3, #:lower16:sensors
 2834 1d08 C0F20003 		movt	r3, #:upper16:sensors
 2835 1d0c 93ED107A 		flds	s14, [r3, #64]
 2836 1d10 5FED067A 		flds	s15, .L139
 2837 1d14 67EE277A 		fmuls	s15, s14, s15
 2838 1d18 1FED077A 		flds	s14, .L139+4
 2839 1d1c C7EE877A 		fdivs	s15, s15, s14
 2840 1d20 17EE900A 		fmrs	r0, s15
 2841 1d24 FFF7FEFF 		bl	__aeabi_f2d
 2842 1d28 0246     		mov	r2, r0
 2843 1d2a 0B46     		mov	r3, r1
 2844 1d2c CDE90023 		strd	r2, [sp]
 2845 1d30 40F20000 		movw	r0, #:lower16:numberString
 2846 1d34 C0F20000 		movt	r0, #:upper16:numberString
 2847 1d38 4FF01001 		mov	r1, #16
 2848 1d3c 40F20002 		movw	r2, #:lower16:.LC21
 2849 1d40 C0F20002 		movt	r2, #:upper16:.LC21
 2850 1d44 FFF7FEFF 		bl	snprintf
 2851 1d48 40F20000 		movw	r0, #:lower16:numberString
 2852 1d4c C0F20000 		movt	r0, #:upper16:numberString
 2853 1d50 FFF7FEFF 		bl	uart1Print
 430:../src/cli.c  ****         	snprintf(numberString, 16, "%12.7f, ", sensors.gpsLongitude * R2D); uart1Print(numberStrin
 2854              		.loc 1 430 0
 2855 1d54 40F20003 		movw	r3, #:lower16:sensors
 2856 1d58 C0F20003 		movt	r3, #:upper16:sensors
 2857 1d5c 93ED117A 		flds	s14, [r3, #68]
 2858 1d60 5FED1A7A 		flds	s15, .L139
 2859 1d64 67EE277A 		fmuls	s15, s14, s15
 2860 1d68 1FED1B7A 		flds	s14, .L139+4
 2861 1d6c C7EE877A 		fdivs	s15, s15, s14
 2862 1d70 17EE900A 		fmrs	r0, s15
 2863 1d74 FFF7FEFF 		bl	__aeabi_f2d
 2864 1d78 0246     		mov	r2, r0
 2865 1d7a 0B46     		mov	r3, r1
 2866 1d7c CDE90023 		strd	r2, [sp]
 2867 1d80 40F20000 		movw	r0, #:lower16:numberString
 2868 1d84 C0F20000 		movt	r0, #:upper16:numberString
 2869 1d88 4FF01001 		mov	r1, #16
 2870 1d8c 40F20002 		movw	r2, #:lower16:.LC21
 2871 1d90 C0F20002 		movt	r2, #:upper16:.LC21
 2872 1d94 FFF7FEFF 		bl	snprintf
 2873 1d98 40F20000 		movw	r0, #:lower16:numberString
 2874 1d9c C0F20000 		movt	r0, #:upper16:numberString
 2875 1da0 FFF7FEFF 		bl	uart1Print
 431:../src/cli.c  **** 
 432:../src/cli.c  ****         	ftoa(sensors.gpsAltitude,          numberString); uart1Print(numberString); uart1Print(", 
 2876              		.loc 1 432 0
 2877 1da4 40F20003 		movw	r3, #:lower16:sensors
 2878 1da8 C0F20003 		movt	r3, #:upper16:sensors
 2879 1dac 9B6C     		ldr	r3, [r3, #72]	@ float
 2880 1dae 1846     		mov	r0, r3	@ float
 2881 1db0 40F20001 		movw	r1, #:lower16:numberString
 2882 1db4 C0F20001 		movt	r1, #:upper16:numberString
 2883 1db8 FFF7FEFF 		bl	ftoa
 2884 1dbc 40F20000 		movw	r0, #:lower16:numberString
 2885 1dc0 C0F20000 		movt	r0, #:upper16:numberString
 2886 1dc4 FFF7FEFF 		bl	uart1Print
 2887 1dc8 40F20000 		movw	r0, #:lower16:.LC18
 2888 1dcc C0F20000 		movt	r0, #:upper16:.LC18
 2889 1dd0 FFF7FEFF 		bl	uart1Print
 433:../src/cli.c  ****         	ftoa(sensors.gpsGroundSpeed,       numberString); uart1Print(numberString); uart1Print(", 
 2890              		.loc 1 433 0
 2891 1dd4 40F20003 		movw	r3, #:lower16:sensors
 2892 1dd8 C0F20003 		movt	r3, #:upper16:sensors
 2893 1ddc DB6C     		ldr	r3, [r3, #76]	@ float
 2894 1dde 1846     		mov	r0, r3	@ float
 2895 1de0 40F20001 		movw	r1, #:lower16:numberString
 2896 1de4 C0F20001 		movt	r1, #:upper16:numberString
 2897 1de8 FFF7FEFF 		bl	ftoa
 2898 1dec 40F20000 		movw	r0, #:lower16:numberString
 2899 1df0 C0F20000 		movt	r0, #:upper16:numberString
 2900 1df4 FFF7FEFF 		bl	uart1Print
 2901 1df8 40F20000 		movw	r0, #:lower16:.LC18
 2902 1dfc C0F20000 		movt	r0, #:upper16:.LC18
 2903 1e00 FFF7FEFF 		bl	uart1Print
 434:../src/cli.c  ****         	ftoa(sensors.gpsGroundTrack * R2D, numberString); uart1Print(numberString); uart1Print("\n
 2904              		.loc 1 434 0
 2905 1e04 40F20003 		movw	r3, #:lower16:sensors
 2906 1e08 C0F20003 		movt	r3, #:upper16:sensors
 2907 1e0c 93ED147A 		flds	s14, [r3, #80]
 2908 1e10 5FED467A 		flds	s15, .L139
 2909 1e14 67EE277A 		fmuls	s15, s14, s15
 2910 1e18 1FED477A 		flds	s14, .L139+4
 2911 1e1c C7EE877A 		fdivs	s15, s15, s14
 2912 1e20 17EE900A 		fmrs	r0, s15
 2913 1e24 40F20001 		movw	r1, #:lower16:numberString
 2914 1e28 C0F20001 		movt	r1, #:upper16:numberString
 2915 1e2c FFF7FEFF 		bl	ftoa
 2916 1e30 40F20000 		movw	r0, #:lower16:numberString
 2917 1e34 C0F20000 		movt	r0, #:upper16:numberString
 2918 1e38 FFF7FEFF 		bl	uart1Print
 2919 1e3c 40F20000 		movw	r0, #:lower16:.LC0
 2920 1e40 C0F20000 		movt	r0, #:upper16:.LC0
 2921 1e44 FFF7FEFF 		bl	uart1Print
 435:../src/cli.c  **** 
 436:../src/cli.c  ****             validCommand = false;
 2922              		.loc 1 436 0
 2923 1e48 40F20003 		movw	r3, #:lower16:validCommand
 2924 1e4c C0F20003 		movt	r3, #:upper16:validCommand
 2925 1e50 4FF00002 		mov	r2, #0
 2926 1e54 1A70     		strb	r2, [r3, #0]
 437:../src/cli.c  ****             break;
 2927              		.loc 1 437 0
 2928 1e56 00F0EDBF 		b	.L17
 2929              	.L70:
 438:../src/cli.c  **** 
 439:../src/cli.c  ****         ///////////////////////////////
 440:../src/cli.c  **** 
 441:../src/cli.c  ****         case 'n': // GPS Stats
 442:../src/cli.c  ****             if (sensors.gpsFix == FIX_2D)
 2930              		.loc 1 442 0
 2931 1e5a 40F20003 		movw	r3, #:lower16:sensors
 2932 1e5e C0F20003 		movt	r3, #:upper16:sensors
 2933 1e62 93F85530 		ldrb	r3, [r3, #85]	@ zero_extendqisi2
 2934 1e66 022B     		cmp	r3, #2
 2935 1e68 06D1     		bne	.L108
 443:../src/cli.c  ****                 uart1Print("2D Fix,  ");
 2936              		.loc 1 443 0
 2937 1e6a 40F20000 		movw	r0, #:lower16:.LC22
 2938 1e6e C0F20000 		movt	r0, #:upper16:.LC22
 2939 1e72 FFF7FEFF 		bl	uart1Print
 2940 1e76 32E0     		b	.L109
 2941              	.L108:
 444:../src/cli.c  ****             else if (sensors.gpsFix == FIX_3D)
 2942              		.loc 1 444 0
 2943 1e78 40F20003 		movw	r3, #:lower16:sensors
 2944 1e7c C0F20003 		movt	r3, #:upper16:sensors
 2945 1e80 93F85530 		ldrb	r3, [r3, #85]	@ zero_extendqisi2
 2946 1e84 032B     		cmp	r3, #3
 2947 1e86 06D1     		bne	.L110
 445:../src/cli.c  ****                 uart1Print("3D Fix,  ");
 2948              		.loc 1 445 0
 2949 1e88 40F20000 		movw	r0, #:lower16:.LC23
 2950 1e8c C0F20000 		movt	r0, #:upper16:.LC23
 2951 1e90 FFF7FEFF 		bl	uart1Print
 2952 1e94 23E0     		b	.L109
 2953              	.L110:
 446:../src/cli.c  ****             else if (sensors.gpsFix == FIX_2D_SBAS)
 2954              		.loc 1 446 0
 2955 1e96 40F20003 		movw	r3, #:lower16:sensors
 2956 1e9a C0F20003 		movt	r3, #:upper16:sensors
 2957 1e9e 93F85530 		ldrb	r3, [r3, #85]	@ zero_extendqisi2
 2958 1ea2 062B     		cmp	r3, #6
 2959 1ea4 06D1     		bne	.L111
 447:../src/cli.c  ****             	uart1Print("2D SBAS, ");
 2960              		.loc 1 447 0
 2961 1ea6 40F20000 		movw	r0, #:lower16:.LC24
 2962 1eaa C0F20000 		movt	r0, #:upper16:.LC24
 2963 1eae FFF7FEFF 		bl	uart1Print
 2964 1eb2 14E0     		b	.L109
 2965              	.L111:
 448:../src/cli.c  ****             else if (sensors.gpsFix == FIX_3D_SBAS)
 2966              		.loc 1 448 0
 2967 1eb4 40F20003 		movw	r3, #:lower16:sensors
 2968 1eb8 C0F20003 		movt	r3, #:upper16:sensors
 2969 1ebc 93F85530 		ldrb	r3, [r3, #85]	@ zero_extendqisi2
 2970 1ec0 072B     		cmp	r3, #7
 2971 1ec2 06D1     		bne	.L112
 449:../src/cli.c  ****             	uart1Print("3D SBAS, ");
 2972              		.loc 1 449 0
 2973 1ec4 40F20000 		movw	r0, #:lower16:.LC25
 2974 1ec8 C0F20000 		movt	r0, #:upper16:.LC25
 2975 1ecc FFF7FEFF 		bl	uart1Print
 2976 1ed0 05E0     		b	.L109
 2977              	.L112:
 450:../src/cli.c  ****             else
 451:../src/cli.c  ****                 uart1Print("No Fix, ");
 2978              		.loc 1 451 0
 2979 1ed2 40F20000 		movw	r0, #:lower16:.LC26
 2980 1ed6 C0F20000 		movt	r0, #:upper16:.LC26
 2981 1eda FFF7FEFF 		bl	uart1Print
 2982              	.L109:
 452:../src/cli.c  **** 
 453:../src/cli.c  ****             itoa(sensors.gpsNumSats, numberString, 10); uart1Print(numberString); uart1Print(", ");
 2983              		.loc 1 453 0
 2984 1ede 40F20003 		movw	r3, #:lower16:sensors
 2985 1ee2 C0F20003 		movt	r3, #:upper16:sensors
 2986 1ee6 93F85430 		ldrb	r3, [r3, #84]	@ zero_extendqisi2
 2987 1eea 1846     		mov	r0, r3
 2988 1eec 40F20001 		movw	r1, #:lower16:numberString
 2989 1ef0 C0F20001 		movt	r1, #:upper16:numberString
 2990 1ef4 4FF00A02 		mov	r2, #10
 2991 1ef8 FFF7FEFF 		bl	itoa
 2992 1efc 40F20000 		movw	r0, #:lower16:numberString
 2993 1f00 C0F20000 		movt	r0, #:upper16:numberString
 2994 1f04 FFF7FEFF 		bl	uart1Print
 2995 1f08 40F20000 		movw	r0, #:lower16:.LC18
 2996 1f0c C0F20000 		movt	r0, #:upper16:.LC18
 2997 1f10 FFF7FEFF 		bl	uart1Print
 454:../src/cli.c  ****         	itoa(sensors.gpsDate,    numberString, 10); uart1Print(numberString); uart1Print(" ");
 2998              		.loc 1 454 0
 2999 1f14 40F20003 		movw	r3, #:lower16:sensors
 3000 1f18 C0F20003 		movt	r3, #:upper16:sensors
 3001 1f1c 9B6D     		ldr	r3, [r3, #88]
 3002 1f1e 1846     		mov	r0, r3
 3003 1f20 40F20001 		movw	r1, #:lower16:numberString
 3004 1f24 C0F20001 		movt	r1, #:upper16:numberString
 3005 1f28 4FF00A02 		mov	r2, #10
 3006 1f2c FFF7FEFF 		bl	itoa
 3007 1f30 40F20000 		movw	r0, #:lower16:numberString
 3008 1f34 C0F20000 		movt	r0, #:upper16:numberString
 3009 1f38 FFF7FEFF 		bl	uart1Print
 3010 1f3c 40F20000 		movw	r0, #:lower16:.LC27
 3011 1f40 C0F20000 		movt	r0, #:upper16:.LC27
 3012 1f44 FFF7FEFF 		bl	uart1Print
 455:../src/cli.c  ****         	ftoa(sensors.gpsTime,    numberString);     uart1Print(numberString); uart1Print(", ");
 3013              		.loc 1 455 0
 3014 1f48 40F20003 		movw	r3, #:lower16:sensors
 3015 1f4c C0F20003 		movt	r3, #:upper16:sensors
 3016 1f50 DB6D     		ldr	r3, [r3, #92]	@ float
 3017 1f52 1846     		mov	r0, r3	@ float
 3018 1f54 40F20001 		movw	r1, #:lower16:numberString
 3019 1f58 C0F20001 		movt	r1, #:upper16:numberString
 3020 1f5c FFF7FEFF 		bl	ftoa
 3021 1f60 40F20000 		movw	r0, #:lower16:numberString
 3022 1f64 C0F20000 		movt	r0, #:upper16:numberString
 3023 1f68 FFF7FEFF 		bl	uart1Print
 3024 1f6c 40F20000 		movw	r0, #:lower16:.LC18
 3025 1f70 C0F20000 		movt	r0, #:upper16:.LC18
 3026 1f74 FFF7FEFF 		bl	uart1Print
 456:../src/cli.c  ****             ftoa(sensors.gpsHdop,    numberString);     uart1Print(numberString); uart1Print("\n");
 3027              		.loc 1 456 0
 3028 1f78 40F20003 		movw	r3, #:lower16:sensors
 3029 1f7c C0F20003 		movt	r3, #:upper16:sensors
 3030 1f80 1B6E     		ldr	r3, [r3, #96]	@ float
 3031 1f82 1846     		mov	r0, r3	@ float
 3032 1f84 40F20001 		movw	r1, #:lower16:numberString
 3033 1f88 C0F20001 		movt	r1, #:upper16:numberString
 3034 1f8c FFF7FEFF 		bl	ftoa
 3035 1f90 40F20000 		movw	r0, #:lower16:numberString
 3036 1f94 C0F20000 		movt	r0, #:upper16:numberString
 3037 1f98 FFF7FEFF 		bl	uart1Print
 3038 1f9c 40F20000 		movw	r0, #:lower16:.LC0
 3039 1fa0 C0F20000 		movt	r0, #:upper16:.LC0
 3040 1fa4 FFF7FEFF 		bl	uart1Print
 457:../src/cli.c  ****             validCommand = false;
 3041              		.loc 1 457 0
 3042 1fa8 40F20003 		movw	r3, #:lower16:validCommand
 3043 1fac C0F20003 		movt	r3, #:upper16:validCommand
 3044 1fb0 4FF00002 		mov	r2, #0
 3045 1fb4 1A70     		strb	r2, [r3, #0]
 458:../src/cli.c  ****         	break;
 3046              		.loc 1 458 0
 3047 1fb6 00F03DBF 		b	.L17
 3048              	.L71:
 459:../src/cli.c  **** 
 460:../src/cli.c  ****         ///////////////////////////////
 461:../src/cli.c  **** 
 462:../src/cli.c  ****         case 'o': // Not Used
 463:../src/cli.c  ****             queryType = 'x';
 3049              		.loc 1 463 0
 3050 1fba 40F20003 		movw	r3, #:lower16:queryType
 3051 1fbe C0F20003 		movt	r3, #:upper16:queryType
 3052 1fc2 4FF07802 		mov	r2, #120
 3053 1fc6 1A70     		strb	r2, [r3, #0]
 464:../src/cli.c  ****             validCommand = false;
 3054              		.loc 1 464 0
 3055 1fc8 40F20003 		movw	r3, #:lower16:validCommand
 3056 1fcc C0F20003 		movt	r3, #:upper16:validCommand
 3057 1fd0 4FF00002 		mov	r2, #0
 3058 1fd4 1A70     		strb	r2, [r3, #0]
 465:../src/cli.c  ****             break;
 3059              		.loc 1 465 0
 3060 1fd6 00F02DBF 		b	.L17
 3061              	.L72:
 466:../src/cli.c  **** 
 467:../src/cli.c  ****         ///////////////////////////////
 468:../src/cli.c  **** 
 469:../src/cli.c  ****         case 'p': // Not Used
 470:../src/cli.c  ****             queryType = 'x';
 3062              		.loc 1 470 0
 3063 1fda 40F20003 		movw	r3, #:lower16:queryType
 3064 1fde C0F20003 		movt	r3, #:upper16:queryType
 3065 1fe2 4FF07802 		mov	r2, #120
 3066 1fe6 1A70     		strb	r2, [r3, #0]
 471:../src/cli.c  ****         	validCommand = false;
 3067              		.loc 1 471 0
 3068 1fe8 40F20003 		movw	r3, #:lower16:validCommand
 3069 1fec C0F20003 		movt	r3, #:upper16:validCommand
 3070 1ff0 4FF00002 		mov	r2, #0
 3071 1ff4 1A70     		strb	r2, [r3, #0]
 472:../src/cli.c  ****         	break;
 3072              		.loc 1 472 0
 3073 1ff6 00F01DBF 		b	.L17
 3074              	.L73:
 473:../src/cli.c  **** 
 474:../src/cli.c  ****         ///////////////////////////////
 475:../src/cli.c  **** 
 476:../src/cli.c  ****         case 'q': // Not Used
 477:../src/cli.c  ****             queryType = 'x';
 3075              		.loc 1 477 0
 3076 1ffa 40F20003 		movw	r3, #:lower16:queryType
 3077 1ffe C0F20003 		movt	r3, #:upper16:queryType
 3078 2002 4FF07802 		mov	r2, #120
 3079 2006 1A70     		strb	r2, [r3, #0]
 478:../src/cli.c  ****            	validCommand = false;
 3080              		.loc 1 478 0
 3081 2008 40F20003 		movw	r3, #:lower16:validCommand
 3082 200c C0F20003 		movt	r3, #:upper16:validCommand
 3083 2010 4FF00002 		mov	r2, #0
 3084 2014 1A70     		strb	r2, [r3, #0]
 479:../src/cli.c  ****            	break;
 3085              		.loc 1 479 0
 3086 2016 00F00DBF 		b	.L17
 3087              	.L74:
 480:../src/cli.c  **** 
 481:../src/cli.c  ****         ///////////////////////////////
 482:../src/cli.c  **** 
 483:../src/cli.c  ****         case 'r':
 484:../src/cli.c  ****         	if (flightMode == RATE)
 3088              		.loc 1 484 0
 3089 201a 40F20003 		movw	r3, #:lower16:flightMode
 3090 201e C0F20003 		movt	r3, #:upper16:flightMode
 3091 2022 1B78     		ldrb	r3, [r3, #0]	@ zero_extendqisi2
 3092 2024 002B     		cmp	r3, #0
 3093 2026 06D1     		bne	.L113
 485:../src/cli.c  ****         		uart1Print("Flight Mode = RATE      ");
 3094              		.loc 1 485 0
 3095 2028 40F20000 		movw	r0, #:lower16:.LC28
 3096 202c C0F20000 		movt	r0, #:upper16:.LC28
 3097 2030 FFF7FEFF 		bl	uart1Print
 3098 2034 1AE0     		b	.L114
 3099              	.L113:
 486:../src/cli.c  ****         	else if (flightMode == ATTITUDE)
 3100              		.loc 1 486 0
 3101 2036 40F20003 		movw	r3, #:lower16:flightMode
 3102 203a C0F20003 		movt	r3, #:upper16:flightMode
 3103 203e 1B78     		ldrb	r3, [r3, #0]	@ zero_extendqisi2
 3104 2040 012B     		cmp	r3, #1
 3105 2042 06D1     		bne	.L115
 487:../src/cli.c  ****         		uart1Print("Flight Mode = ATTITUDE  ");
 3106              		.loc 1 487 0
 3107 2044 40F20000 		movw	r0, #:lower16:.LC29
 3108 2048 C0F20000 		movt	r0, #:upper16:.LC29
 3109 204c FFF7FEFF 		bl	uart1Print
 3110 2050 0CE0     		b	.L114
 3111              	.L115:
 488:../src/cli.c  ****         	else if (flightMode == GPS)
 3112              		.loc 1 488 0
 3113 2052 40F20003 		movw	r3, #:lower16:flightMode
 3114 2056 C0F20003 		movt	r3, #:upper16:flightMode
 3115 205a 1B78     		ldrb	r3, [r3, #0]	@ zero_extendqisi2
 3116 205c 022B     		cmp	r3, #2
 3117 205e 05D1     		bne	.L114
 489:../src/cli.c  ****         		uart1Print("Flight Mode = GPS       ");
 3118              		.loc 1 489 0
 3119 2060 40F20000 		movw	r0, #:lower16:.LC30
 3120 2064 C0F20000 		movt	r0, #:upper16:.LC30
 3121 2068 FFF7FEFF 		bl	uart1Print
 3122              	.L114:
 490:../src/cli.c  **** 
 491:../src/cli.c  ****         	if (headingHoldEngaged == true)
 3123              		.loc 1 491 0
 3124 206c 40F20003 		movw	r3, #:lower16:headingHoldEngaged
 3125 2070 C0F20003 		movt	r3, #:upper16:headingHoldEngaged
 3126 2074 1B78     		ldrb	r3, [r3, #0]	@ zero_extendqisi2
 3127 2076 012B     		cmp	r3, #1
 3128 2078 06D1     		bne	.L116
 492:../src/cli.c  ****         	    uart1Print("Heading Hold = ENGAGED     ");
 3129              		.loc 1 492 0
 3130 207a 40F20000 		movw	r0, #:lower16:.LC31
 3131 207e C0F20000 		movt	r0, #:upper16:.LC31
 3132 2082 FFF7FEFF 		bl	uart1Print
 3133 2086 05E0     		b	.L117
 3134              	.L116:
 493:../src/cli.c  ****         	else
 494:../src/cli.c  ****         	    uart1Print("Heading Hold = DISENGAGED  ");
 3135              		.loc 1 494 0
 3136 2088 40F20000 		movw	r0, #:lower16:.LC32
 3137 208c C0F20000 		movt	r0, #:upper16:.LC32
 3138 2090 FFF7FEFF 		bl	uart1Print
 3139              	.L117:
 495:../src/cli.c  **** 
 496:../src/cli.c  ****         	if (altitudeHoldState == DISENGAGED)
 3140              		.loc 1 496 0
 3141 2094 40F20003 		movw	r3, #:lower16:altitudeHoldState
 3142 2098 C0F20003 		movt	r3, #:upper16:altitudeHoldState
 3143 209c 1B78     		ldrb	r3, [r3, #0]	@ zero_extendqisi2
 3144 209e 002B     		cmp	r3, #0
 3145 20a0 06D1     		bne	.L118
 497:../src/cli.c  ****         		uart1Print("Altitude Hold = DISENAGED\n");
 3146              		.loc 1 497 0
 3147 20a2 40F20000 		movw	r0, #:lower16:.LC33
 3148 20a6 C0F20000 		movt	r0, #:upper16:.LC33
 3149 20aa FFF7FEFF 		bl	uart1Print
 3150 20ae 1AE0     		b	.L119
 3151              	.L118:
 498:../src/cli.c  ****             else if (altitudeHoldState == ENGAGED)
 3152              		.loc 1 498 0
 3153 20b0 40F20003 		movw	r3, #:lower16:altitudeHoldState
 3154 20b4 C0F20003 		movt	r3, #:upper16:altitudeHoldState
 3155 20b8 1B78     		ldrb	r3, [r3, #0]	@ zero_extendqisi2
 3156 20ba 012B     		cmp	r3, #1
 3157 20bc 06D1     		bne	.L120
 499:../src/cli.c  ****             	uart1Print("Altitude Hold = ENGAGED\n");
 3158              		.loc 1 499 0
 3159 20be 40F20000 		movw	r0, #:lower16:.LC34
 3160 20c2 C0F20000 		movt	r0, #:upper16:.LC34
 3161 20c6 FFF7FEFF 		bl	uart1Print
 3162 20ca 0CE0     		b	.L119
 3163              	.L120:
 500:../src/cli.c  ****             else if (altitudeHoldState == PANIC)
 3164              		.loc 1 500 0
 3165 20cc 40F20003 		movw	r3, #:lower16:altitudeHoldState
 3166 20d0 C0F20003 		movt	r3, #:upper16:altitudeHoldState
 3167 20d4 1B78     		ldrb	r3, [r3, #0]	@ zero_extendqisi2
 3168 20d6 022B     		cmp	r3, #2
 3169 20d8 05D1     		bne	.L119
 501:../src/cli.c  ****             	uart1Print("Altitude Hold = PANIC\n");
 3170              		.loc 1 501 0
 3171 20da 40F20000 		movw	r0, #:lower16:.LC35
 3172 20de C0F20000 		movt	r0, #:upper16:.LC35
 3173 20e2 FFF7FEFF 		bl	uart1Print
 3174              	.L119:
 502:../src/cli.c  **** 
 503:../src/cli.c  ****         	validCommand = false;
 3175              		.loc 1 503 0
 3176 20e6 40F20003 		movw	r3, #:lower16:validCommand
 3177 20ea C0F20003 		movt	r3, #:upper16:validCommand
 3178 20ee 4FF00002 		mov	r2, #0
 3179 20f2 1A70     		strb	r2, [r3, #0]
 504:../src/cli.c  ****         	break;
 3180              		.loc 1 504 0
 3181 20f4 00F09EBE 		b	.L17
 3182              	.L75:
 505:../src/cli.c  **** 
 506:../src/cli.c  ****         ///////////////////////////////
 507:../src/cli.c  **** 
 508:../src/cli.c  ****         case 's': // Raw Receiver Commands
 509:../src/cli.c  ****             if (eepromConfig.receiverType == SPEKTRUM)
 3183              		.loc 1 509 0
 3184 20f8 40F20003 		movw	r3, #:lower16:eepromConfig
 3185 20fc C0F20003 		movt	r3, #:upper16:eepromConfig
 3186 2100 93F86C30 		ldrb	r3, [r3, #108]	@ zero_extendqisi2
 3187 2104 032B     		cmp	r3, #3
 3188 2106 57D1     		bne	.L121
 510:../src/cli.c  ****             {
 511:../src/cli.c  **** 				for (index = 0; index < eepromConfig.spektrumChannels - 1; index++)
 3189              		.loc 1 511 0
 3190 2108 4FF00003 		mov	r3, #0
 3191 210c 8DF80F30 		strb	r3, [sp, #15]
 3192 2110 22E0     		b	.L122
 3193              	.L123:
 512:../src/cli.c  ****                 {
 513:../src/cli.c  ****     		    	itoa(spektrumChannelData[index], numberString, 10);
 3194              		.loc 1 513 0 discriminator 2
 3195 2112 9DF80F20 		ldrb	r2, [sp, #15]	@ zero_extendqisi2
 3196 2116 40F20003 		movw	r3, #:lower16:spektrumChannelData
 3197 211a C0F20003 		movt	r3, #:upper16:spektrumChannelData
 3198 211e 53F82230 		ldr	r3, [r3, r2, lsl #2]
 3199 2122 1846     		mov	r0, r3
 3200 2124 40F20001 		movw	r1, #:lower16:numberString
 3201 2128 C0F20001 		movt	r1, #:upper16:numberString
 3202 212c 4FF00A02 		mov	r2, #10
 3203 2130 FFF7FEFF 		bl	itoa
 514:../src/cli.c  ****     		    	uart1Print(numberString); uart1Print(", ");
 3204              		.loc 1 514 0 discriminator 2
 3205 2134 40F20000 		movw	r0, #:lower16:numberString
 3206 2138 C0F20000 		movt	r0, #:upper16:numberString
 3207 213c FFF7FEFF 		bl	uart1Print
 3208 2140 40F20000 		movw	r0, #:lower16:.LC18
 3209 2144 C0F20000 		movt	r0, #:upper16:.LC18
 3210 2148 FFF7FEFF 		bl	uart1Print
 511:../src/cli.c  **** 				for (index = 0; index < eepromConfig.spektrumChannels - 1; index++)
 3211              		.loc 1 511 0 discriminator 2
 3212 214c 9DF80F30 		ldrb	r3, [sp, #15]
 3213 2150 03F10103 		add	r3, r3, #1
 3214 2154 8DF80F30 		strb	r3, [sp, #15]
 3215              	.L122:
 511:../src/cli.c  **** 				for (index = 0; index < eepromConfig.spektrumChannels - 1; index++)
 3216              		.loc 1 511 0 is_stmt 0 discriminator 1
 3217 2158 9DF80F20 		ldrb	r2, [sp, #15]	@ zero_extendqisi2
 3218 215c 40F20003 		movw	r3, #:lower16:eepromConfig
 3219 2160 C0F20003 		movt	r3, #:upper16:eepromConfig
 3220 2164 93F86D30 		ldrb	r3, [r3, #109]	@ zero_extendqisi2
 3221 2168 03F1FF33 		add	r3, r3, #-1
 3222 216c 9A42     		cmp	r2, r3
 3223 216e D0DB     		blt	.L123
 515:../src/cli.c  ****     		    }
 516:../src/cli.c  **** 
 517:../src/cli.c  ****                 itoa(spektrumChannelData[eepromConfig.spektrumChannels - 1], numberString, 10);
 3224              		.loc 1 517 0 is_stmt 1
 3225 2170 40F20003 		movw	r3, #:lower16:eepromConfig
 3226 2174 C0F20003 		movt	r3, #:upper16:eepromConfig
 3227 2178 93F86D30 		ldrb	r3, [r3, #109]	@ zero_extendqisi2
 3228 217c 03F1FF32 		add	r2, r3, #-1
 3229 2180 40F20003 		movw	r3, #:lower16:spektrumChannelData
 3230 2184 C0F20003 		movt	r3, #:upper16:spektrumChannelData
 3231 2188 53F82230 		ldr	r3, [r3, r2, lsl #2]
 3232 218c 1846     		mov	r0, r3
 3233 218e 40F20001 		movw	r1, #:lower16:numberString
 3234 2192 C0F20001 		movt	r1, #:upper16:numberString
 3235 2196 4FF00A02 		mov	r2, #10
 3236 219a FFF7FEFF 		bl	itoa
 518:../src/cli.c  ****                 uart1Print(numberString); uart1Print("\n");
 3237              		.loc 1 518 0
 3238 219e 40F20000 		movw	r0, #:lower16:numberString
 3239 21a2 C0F20000 		movt	r0, #:upper16:numberString
 3240 21a6 FFF7FEFF 		bl	uart1Print
 3241 21aa 40F20000 		movw	r0, #:lower16:.LC0
 3242 21ae C0F20000 		movt	r0, #:upper16:.LC0
 3243 21b2 FFF7FEFF 		bl	uart1Print
 3244 21b6 43E0     		b	.L124
 3245              	.L121:
 519:../src/cli.c  **** 		    }
 520:../src/cli.c  **** 		    else
 521:../src/cli.c  **** 		    {
 522:../src/cli.c  **** 				for (index = 0; index < 7; index++)
 3246              		.loc 1 522 0
 3247 21b8 4FF00003 		mov	r3, #0
 3248 21bc 8DF80F30 		strb	r3, [sp, #15]
 3249 21c0 20E0     		b	.L125
 3250              	.L126:
 523:../src/cli.c  ****                 {
 524:../src/cli.c  ****     		    	itoa(rxRead(index), numberString, 10);
 3251              		.loc 1 524 0 discriminator 2
 3252 21c2 9DF80F30 		ldrb	r3, [sp, #15]	@ zero_extendqisi2
 3253 21c6 1846     		mov	r0, r3
 3254 21c8 FFF7FEFF 		bl	rxRead
 3255 21cc 0346     		mov	r3, r0
 3256 21ce 1846     		mov	r0, r3
 3257 21d0 40F20001 		movw	r1, #:lower16:numberString
 3258 21d4 C0F20001 		movt	r1, #:upper16:numberString
 3259 21d8 4FF00A02 		mov	r2, #10
 3260 21dc FFF7FEFF 		bl	itoa
 525:../src/cli.c  ****     		    	uart1Print(numberString); uart1Print(", ");
 3261              		.loc 1 525 0 discriminator 2
 3262 21e0 40F20000 		movw	r0, #:lower16:numberString
 3263 21e4 C0F20000 		movt	r0, #:upper16:numberString
 3264 21e8 FFF7FEFF 		bl	uart1Print
 3265 21ec 40F20000 		movw	r0, #:lower16:.LC18
 3266 21f0 C0F20000 		movt	r0, #:upper16:.LC18
 3267 21f4 FFF7FEFF 		bl	uart1Print
 522:../src/cli.c  **** 				for (index = 0; index < 7; index++)
 3268              		.loc 1 522 0 discriminator 2
 3269 21f8 9DF80F30 		ldrb	r3, [sp, #15]
 3270 21fc 03F10103 		add	r3, r3, #1
 3271 2200 8DF80F30 		strb	r3, [sp, #15]
 3272              	.L125:
 522:../src/cli.c  **** 				for (index = 0; index < 7; index++)
 3273              		.loc 1 522 0 is_stmt 0 discriminator 1
 3274 2204 9DF80F30 		ldrb	r3, [sp, #15]	@ zero_extendqisi2
 3275 2208 062B     		cmp	r3, #6
 3276 220a DAD9     		bls	.L126
 526:../src/cli.c  ****     		    }
 527:../src/cli.c  **** 
 528:../src/cli.c  ****                 itoa(rxRead(7), numberString, 10);
 3277              		.loc 1 528 0 is_stmt 1
 3278 220c 4FF00700 		mov	r0, #7
 3279 2210 FFF7FEFF 		bl	rxRead
 3280 2214 0346     		mov	r3, r0
 3281 2216 1846     		mov	r0, r3
 3282 2218 40F20001 		movw	r1, #:lower16:numberString
 3283 221c C0F20001 		movt	r1, #:upper16:numberString
 3284 2220 4FF00A02 		mov	r2, #10
 3285 2224 FFF7FEFF 		bl	itoa
 529:../src/cli.c  ****                 uart1Print(numberString); uart1Print("\n");
 3286              		.loc 1 529 0
 3287 2228 40F20000 		movw	r0, #:lower16:numberString
 3288 222c C0F20000 		movt	r0, #:upper16:numberString
 3289 2230 FFF7FEFF 		bl	uart1Print
 3290 2234 40F20000 		movw	r0, #:lower16:.LC0
 3291 2238 C0F20000 		movt	r0, #:upper16:.LC0
 3292 223c FFF7FEFF 		bl	uart1Print
 3293              	.L124:
 530:../src/cli.c  **** 			}
 531:../src/cli.c  **** 
 532:../src/cli.c  ****         	validCommand = false;
 3294              		.loc 1 532 0
 3295 2240 40F20003 		movw	r3, #:lower16:validCommand
 3296 2244 C0F20003 		movt	r3, #:upper16:validCommand
 3297 2248 4FF00002 		mov	r2, #0
 3298 224c 1A70     		strb	r2, [r3, #0]
 533:../src/cli.c  ****         	break;
 3299              		.loc 1 533 0
 3300 224e 00F0F1BD 		b	.L17
 3301              	.L76:
 534:../src/cli.c  **** 
 535:../src/cli.c  ****         ///////////////////////////////
 536:../src/cli.c  **** 
 537:../src/cli.c  ****         case 't': // Processed Receiver Commands
 538:../src/cli.c  ****             for (index = 0; index < 7; index++)
 3302              		.loc 1 538 0
 3303 2252 4FF00003 		mov	r3, #0
 3304 2256 8DF80F30 		strb	r3, [sp, #15]
 3305 225a 22E0     		b	.L127
 3306              	.L128:
 539:../src/cli.c  ****             {
 540:../src/cli.c  ****     			ftoa( rxCommand[index], numberString );
 3307              		.loc 1 540 0 discriminator 2
 3308 225c 9DF80F20 		ldrb	r2, [sp, #15]	@ zero_extendqisi2
 3309 2260 40F20003 		movw	r3, #:lower16:rxCommand
 3310 2264 C0F20003 		movt	r3, #:upper16:rxCommand
 3311 2268 4FEA8202 		lsl	r2, r2, #2
 3312 226c 9B18     		adds	r3, r3, r2
 3313 226e 1B68     		ldr	r3, [r3, #0]	@ float
 3314 2270 1846     		mov	r0, r3	@ float
 3315 2272 40F20001 		movw	r1, #:lower16:numberString
 3316 2276 C0F20001 		movt	r1, #:upper16:numberString
 3317 227a FFF7FEFF 		bl	ftoa
 541:../src/cli.c  ****     			uart1Print( numberString ); uart1Print( ", " );
 3318              		.loc 1 541 0 discriminator 2
 3319 227e 40F20000 		movw	r0, #:lower16:numberString
 3320 2282 C0F20000 		movt	r0, #:upper16:numberString
 3321 2286 FFF7FEFF 		bl	uart1Print
 3322 228a 40F20000 		movw	r0, #:lower16:.LC18
 3323 228e C0F20000 		movt	r0, #:upper16:.LC18
 3324 2292 FFF7FEFF 		bl	uart1Print
 538:../src/cli.c  ****             for (index = 0; index < 7; index++)
 3325              		.loc 1 538 0 discriminator 2
 3326 2296 9DF80F30 		ldrb	r3, [sp, #15]
 3327 229a 03F10103 		add	r3, r3, #1
 3328 229e 8DF80F30 		strb	r3, [sp, #15]
 3329              	.L127:
 538:../src/cli.c  ****             for (index = 0; index < 7; index++)
 3330              		.loc 1 538 0 is_stmt 0 discriminator 1
 3331 22a2 9DF80F30 		ldrb	r3, [sp, #15]	@ zero_extendqisi2
 3332 22a6 062B     		cmp	r3, #6
 3333 22a8 D8D9     		bls	.L128
 542:../src/cli.c  ****     		}
 543:../src/cli.c  **** 
 544:../src/cli.c  ****             ftoa( rxCommand[7], numberString );
 3334              		.loc 1 544 0 is_stmt 1
 3335 22aa 40F20003 		movw	r3, #:lower16:rxCommand
 3336 22ae C0F20003 		movt	r3, #:upper16:rxCommand
 3337 22b2 DB69     		ldr	r3, [r3, #28]	@ float
 3338 22b4 1846     		mov	r0, r3	@ float
 3339 22b6 40F20001 		movw	r1, #:lower16:numberString
 3340 22ba C0F20001 		movt	r1, #:upper16:numberString
 3341 22be FFF7FEFF 		bl	ftoa
 545:../src/cli.c  ****             uart1Print( numberString ); uart1Print( "\n" );
 3342              		.loc 1 545 0
 3343 22c2 40F20000 		movw	r0, #:lower16:numberString
 3344 22c6 C0F20000 		movt	r0, #:upper16:numberString
 3345 22ca FFF7FEFF 		bl	uart1Print
 3346 22ce 40F20000 		movw	r0, #:lower16:.LC0
 3347 22d2 C0F20000 		movt	r0, #:upper16:.LC0
 3348 22d6 FFF7FEFF 		bl	uart1Print
 546:../src/cli.c  **** 
 547:../src/cli.c  ****             validCommand = false;
 3349              		.loc 1 547 0
 3350 22da 40F20003 		movw	r3, #:lower16:validCommand
 3351 22de C0F20003 		movt	r3, #:upper16:validCommand
 3352 22e2 4FF00002 		mov	r2, #0
 3353 22e6 1A70     		strb	r2, [r3, #0]
 548:../src/cli.c  ****             break;
 3354              		.loc 1 548 0
 3355 22e8 00F0A4BD 		b	.L17
 3356              	.L77:
 549:../src/cli.c  **** 
 550:../src/cli.c  ****         ///////////////////////////////
 551:../src/cli.c  **** 
 552:../src/cli.c  ****         case 'u': // Command in Detent Discretes
 553:../src/cli.c  ****             if ( commandInDetent[ROLL] == true )
 3357              		.loc 1 553 0
 3358 22ec 40F20003 		movw	r3, #:lower16:commandInDetent
 3359 22f0 C0F20003 		movt	r3, #:upper16:commandInDetent
 3360 22f4 1B78     		ldrb	r3, [r3, #0]	@ zero_extendqisi2
 3361 22f6 012B     		cmp	r3, #1
 3362 22f8 06D1     		bne	.L129
 554:../src/cli.c  ****                 uart1Print( "true" );
 3363              		.loc 1 554 0
 3364 22fa 40F20000 		movw	r0, #:lower16:.LC36
 3365 22fe C0F20000 		movt	r0, #:upper16:.LC36
 3366 2302 FFF7FEFF 		bl	uart1Print
 3367 2306 05E0     		b	.L130
 3368              	.L129:
 555:../src/cli.c  ****             else
 556:../src/cli.c  ****                 uart1Print( "false" );
 3369              		.loc 1 556 0
 3370 2308 40F20000 		movw	r0, #:lower16:.LC37
 3371 230c C0F20000 		movt	r0, #:upper16:.LC37
 3372 2310 FFF7FEFF 		bl	uart1Print
 3373              	.L130:
 557:../src/cli.c  ****             uart1Print(", ");
 3374              		.loc 1 557 0
 3375 2314 40F20000 		movw	r0, #:lower16:.LC18
 3376 2318 C0F20000 		movt	r0, #:upper16:.LC18
 3377 231c FFF7FEFF 		bl	uart1Print
 558:../src/cli.c  **** 
 559:../src/cli.c  ****             if ( commandInDetent[PITCH] == true )
 3378              		.loc 1 559 0
 3379 2320 40F20003 		movw	r3, #:lower16:commandInDetent
 3380 2324 C0F20003 		movt	r3, #:upper16:commandInDetent
 3381 2328 5B78     		ldrb	r3, [r3, #1]	@ zero_extendqisi2
 3382 232a 012B     		cmp	r3, #1
 3383 232c 06D1     		bne	.L131
 560:../src/cli.c  ****                 uart1Print( "true" );
 3384              		.loc 1 560 0
 3385 232e 40F20000 		movw	r0, #:lower16:.LC36
 3386 2332 C0F20000 		movt	r0, #:upper16:.LC36
 3387 2336 FFF7FEFF 		bl	uart1Print
 3388 233a 05E0     		b	.L132
 3389              	.L131:
 561:../src/cli.c  ****             else
 562:../src/cli.c  ****                 uart1Print( "false" );
 3390              		.loc 1 562 0
 3391 233c 40F20000 		movw	r0, #:lower16:.LC37
 3392 2340 C0F20000 		movt	r0, #:upper16:.LC37
 3393 2344 FFF7FEFF 		bl	uart1Print
 3394              	.L132:
 563:../src/cli.c  ****             uart1Print(", ");
 3395              		.loc 1 563 0
 3396 2348 40F20000 		movw	r0, #:lower16:.LC18
 3397 234c C0F20000 		movt	r0, #:upper16:.LC18
 3398 2350 FFF7FEFF 		bl	uart1Print
 564:../src/cli.c  **** 
 565:../src/cli.c  ****             if ( commandInDetent[YAW] == true )
 3399              		.loc 1 565 0
 3400 2354 40F20003 		movw	r3, #:lower16:commandInDetent
 3401 2358 C0F20003 		movt	r3, #:upper16:commandInDetent
 3402 235c 9B78     		ldrb	r3, [r3, #2]	@ zero_extendqisi2
 3403 235e 012B     		cmp	r3, #1
 3404 2360 06D1     		bne	.L133
 566:../src/cli.c  ****                 uart1Print( "true" );
 3405              		.loc 1 566 0
 3406 2362 40F20000 		movw	r0, #:lower16:.LC36
 3407 2366 C0F20000 		movt	r0, #:upper16:.LC36
 3408 236a FFF7FEFF 		bl	uart1Print
 3409 236e 05E0     		b	.L134
 3410              	.L133:
 567:../src/cli.c  ****             else
 568:../src/cli.c  ****                 uart1Print( "false" );
 3411              		.loc 1 568 0
 3412 2370 40F20000 		movw	r0, #:lower16:.LC37
 3413 2374 C0F20000 		movt	r0, #:upper16:.LC37
 3414 2378 FFF7FEFF 		bl	uart1Print
 3415              	.L134:
 569:../src/cli.c  ****             uart1Print("\n");
 3416              		.loc 1 569 0
 3417 237c 40F20000 		movw	r0, #:lower16:.LC0
 3418 2380 C0F20000 		movt	r0, #:upper16:.LC0
 3419 2384 FFF7FEFF 		bl	uart1Print
 570:../src/cli.c  **** 
 571:../src/cli.c  ****             validCommand = false;
 3420              		.loc 1 571 0
 3421 2388 40F20003 		movw	r3, #:lower16:validCommand
 3422 238c C0F20003 		movt	r3, #:upper16:validCommand
 3423 2390 4FF00002 		mov	r2, #0
 3424 2394 1A70     		strb	r2, [r3, #0]
 572:../src/cli.c  ****             break;
 3425              		.loc 1 572 0
 3426 2396 00F04DBD 		b	.L17
 3427              	.L78:
 573:../src/cli.c  **** 
 574:../src/cli.c  ****         ///////////////////////////////
 575:../src/cli.c  **** 
 576:../src/cli.c  ****         case 'v': // ESC PWM Outputs
 577:../src/cli.c  ****             itoa(TIM17->CCR1, numberString, 10); uart1Print(numberString); uart1Print(", ");
 3428              		.loc 1 577 0
 3429 239a 4FF49043 		mov	r3, #18432
 3430 239e C4F20103 		movt	r3, 16385
 3431 23a2 5B6B     		ldr	r3, [r3, #52]
 3432 23a4 1846     		mov	r0, r3
 3433 23a6 40F20001 		movw	r1, #:lower16:numberString
 3434 23aa C0F20001 		movt	r1, #:upper16:numberString
 3435 23ae 4FF00A02 		mov	r2, #10
 3436 23b2 FFF7FEFF 		bl	itoa
 3437 23b6 40F20000 		movw	r0, #:lower16:numberString
 3438 23ba C0F20000 		movt	r0, #:upper16:numberString
 3439 23be FFF7FEFF 		bl	uart1Print
 3440 23c2 40F20000 		movw	r0, #:lower16:.LC18
 3441 23c6 C0F20000 		movt	r0, #:upper16:.LC18
 3442 23ca FFF7FEFF 		bl	uart1Print
 578:../src/cli.c  ****             itoa(TIM4->CCR1,  numberString, 10); uart1Print(numberString); uart1Print(", ");
 3443              		.loc 1 578 0
 3444 23ce 4FF40063 		mov	r3, #2048
 3445 23d2 C4F20003 		movt	r3, 16384
 3446 23d6 5B6B     		ldr	r3, [r3, #52]
 3447 23d8 1846     		mov	r0, r3
 3448 23da 40F20001 		movw	r1, #:lower16:numberString
 3449 23de C0F20001 		movt	r1, #:upper16:numberString
 3450 23e2 4FF00A02 		mov	r2, #10
 3451 23e6 FFF7FEFF 		bl	itoa
 3452 23ea 40F20000 		movw	r0, #:lower16:numberString
 3453 23ee C0F20000 		movt	r0, #:upper16:numberString
 3454 23f2 FFF7FEFF 		bl	uart1Print
 3455 23f6 40F20000 		movw	r0, #:lower16:.LC18
 3456 23fa C0F20000 		movt	r0, #:upper16:.LC18
 3457 23fe FFF7FEFF 		bl	uart1Print
 579:../src/cli.c  ****             itoa(TIM4->CCR2,  numberString, 10); uart1Print(numberString); uart1Print(", ");
 3458              		.loc 1 579 0
 3459 2402 4FF40063 		mov	r3, #2048
 3460 2406 C4F20003 		movt	r3, 16384
 3461 240a 9B6B     		ldr	r3, [r3, #56]
 3462 240c 1846     		mov	r0, r3
 3463 240e 40F20001 		movw	r1, #:lower16:numberString
 3464 2412 C0F20001 		movt	r1, #:upper16:numberString
 3465 2416 4FF00A02 		mov	r2, #10
 3466 241a FFF7FEFF 		bl	itoa
 3467 241e 40F20000 		movw	r0, #:lower16:numberString
 3468 2422 C0F20000 		movt	r0, #:upper16:numberString
 3469 2426 FFF7FEFF 		bl	uart1Print
 3470 242a 40F20000 		movw	r0, #:lower16:.LC18
 3471 242e C0F20000 		movt	r0, #:upper16:.LC18
 3472 2432 FFF7FEFF 		bl	uart1Print
 580:../src/cli.c  ****             itoa(TIM4->CCR3,  numberString, 10); uart1Print(numberString); uart1Print(", ");
 3473              		.loc 1 580 0
 3474 2436 4FF40063 		mov	r3, #2048
 3475 243a C4F20003 		movt	r3, 16384
 3476 243e DB6B     		ldr	r3, [r3, #60]
 3477 2440 1846     		mov	r0, r3
 3478 2442 40F20001 		movw	r1, #:lower16:numberString
 3479 2446 C0F20001 		movt	r1, #:upper16:numberString
 3480 244a 4FF00A02 		mov	r2, #10
 3481 244e FFF7FEFF 		bl	itoa
 3482 2452 40F20000 		movw	r0, #:lower16:numberString
 3483 2456 C0F20000 		movt	r0, #:upper16:numberString
 3484 245a FFF7FEFF 		bl	uart1Print
 3485 245e 40F20000 		movw	r0, #:lower16:.LC18
 3486 2462 C0F20000 		movt	r0, #:upper16:.LC18
 3487 2466 FFF7FEFF 		bl	uart1Print
 581:../src/cli.c  ****             itoa(TIM4->CCR4,  numberString, 10); uart1Print(numberString); uart1Print(", ");
 3488              		.loc 1 581 0
 3489 246a 4FF40063 		mov	r3, #2048
 3490 246e C4F20003 		movt	r3, 16384
 3491 2472 1B6C     		ldr	r3, [r3, #64]
 3492 2474 1846     		mov	r0, r3
 3493 2476 40F20001 		movw	r1, #:lower16:numberString
 3494 247a C0F20001 		movt	r1, #:upper16:numberString
 3495 247e 4FF00A02 		mov	r2, #10
 3496 2482 FFF7FEFF 		bl	itoa
 3497 2486 40F20000 		movw	r0, #:lower16:numberString
 3498 248a C0F20000 		movt	r0, #:upper16:numberString
 3499 248e FFF7FEFF 		bl	uart1Print
 3500 2492 40F20000 		movw	r0, #:lower16:.LC18
 3501 2496 C0F20000 		movt	r0, #:upper16:.LC18
 3502 249a FFF7FEFF 		bl	uart1Print
 582:../src/cli.c  ****             itoa(TIM8->CCR1,  numberString, 10); uart1Print(numberString); uart1Print(", ");
 3503              		.loc 1 582 0
 3504 249e 4FF45053 		mov	r3, #13312
 3505 24a2 C4F20103 		movt	r3, 16385
 3506 24a6 5B6B     		ldr	r3, [r3, #52]
 3507 24a8 1846     		mov	r0, r3
 3508 24aa 40F20001 		movw	r1, #:lower16:numberString
 3509 24ae C0F20001 		movt	r1, #:upper16:numberString
 3510 24b2 4FF00A02 		mov	r2, #10
 3511 24b6 FFF7FEFF 		bl	itoa
 3512 24ba 40F20000 		movw	r0, #:lower16:numberString
 3513 24be C0F20000 		movt	r0, #:upper16:numberString
 3514 24c2 FFF7FEFF 		bl	uart1Print
 3515 24c6 40F20000 		movw	r0, #:lower16:.LC18
 3516 24ca C0F20000 		movt	r0, #:upper16:.LC18
 3517 24ce FFF7FEFF 		bl	uart1Print
 583:../src/cli.c  ****             itoa(TIM8->CCR2,  numberString, 10); uart1Print(numberString); uart1Print(", ");
 3518              		.loc 1 583 0
 3519 24d2 4FF45053 		mov	r3, #13312
 3520 24d6 C4F20103 		movt	r3, 16385
 3521 24da 9B6B     		ldr	r3, [r3, #56]
 3522 24dc 1846     		mov	r0, r3
 3523 24de 40F20001 		movw	r1, #:lower16:numberString
 3524 24e2 C0F20001 		movt	r1, #:upper16:numberString
 3525 24e6 4FF00A02 		mov	r2, #10
 3526 24ea FFF7FEFF 		bl	itoa
 3527 24ee 40F20000 		movw	r0, #:lower16:numberString
 3528 24f2 C0F20000 		movt	r0, #:upper16:numberString
 3529 24f6 FFF7FEFF 		bl	uart1Print
 3530 24fa 40F20000 		movw	r0, #:lower16:.LC18
 3531 24fe C0F20000 		movt	r0, #:upper16:.LC18
 3532 2502 FFF7FEFF 		bl	uart1Print
 584:../src/cli.c  ****             itoa(TIM8->CCR3,  numberString, 10); uart1Print(numberString); uart1Print("\n");
 3533              		.loc 1 584 0
 3534 2506 4FF45053 		mov	r3, #13312
 3535 250a C4F20103 		movt	r3, 16385
 3536 250e DB6B     		ldr	r3, [r3, #60]
 3537 2510 1846     		mov	r0, r3
 3538 2512 40F20001 		movw	r1, #:lower16:numberString
 3539 2516 C0F20001 		movt	r1, #:upper16:numberString
 3540 251a 4FF00A02 		mov	r2, #10
 3541 251e FFF7FEFF 		bl	itoa
 3542 2522 40F20000 		movw	r0, #:lower16:numberString
 3543 2526 C0F20000 		movt	r0, #:upper16:numberString
 3544 252a FFF7FEFF 		bl	uart1Print
 3545 252e 40F20000 		movw	r0, #:lower16:.LC0
 3546 2532 C0F20000 		movt	r0, #:upper16:.LC0
 3547 2536 FFF7FEFF 		bl	uart1Print
 585:../src/cli.c  **** 
 586:../src/cli.c  ****             validCommand = false;
 3548              		.loc 1 586 0
 3549 253a 40F20003 		movw	r3, #:lower16:validCommand
 3550 253e C0F20003 		movt	r3, #:upper16:validCommand
 3551 2542 4FF00002 		mov	r2, #0
 3552 2546 1A70     		strb	r2, [r3, #0]
 587:../src/cli.c  ****             break;
 3553              		.loc 1 587 0
 3554 2548 00F074BC 		b	.L17
 3555              	.L79:
 588:../src/cli.c  **** 
 589:../src/cli.c  ****         ///////////////////////////////
 590:../src/cli.c  **** 
 591:../src/cli.c  ****         case 'w': // Servo PWM Outputs
 592:../src/cli.c  ****             itoa(TIM15->CCR1, numberString, 10); uart1Print(numberString); uart1Print(", ");
 3556              		.loc 1 592 0
 3557 254c 4FF48043 		mov	r3, #16384
 3558 2550 C4F20103 		movt	r3, 16385
 3559 2554 5B6B     		ldr	r3, [r3, #52]
 3560 2556 1846     		mov	r0, r3
 3561 2558 40F20001 		movw	r1, #:lower16:numberString
 3562 255c C0F20001 		movt	r1, #:upper16:numberString
 3563 2560 4FF00A02 		mov	r2, #10
 3564 2564 FFF7FEFF 		bl	itoa
 3565 2568 40F20000 		movw	r0, #:lower16:numberString
 3566 256c C0F20000 		movt	r0, #:upper16:numberString
 3567 2570 FFF7FEFF 		bl	uart1Print
 3568 2574 40F20000 		movw	r0, #:lower16:.LC18
 3569 2578 C0F20000 		movt	r0, #:upper16:.LC18
 3570 257c FFF7FEFF 		bl	uart1Print
 593:../src/cli.c  ****             itoa(TIM15->CCR2, numberString, 10); uart1Print(numberString); uart1Print(", ");
 3571              		.loc 1 593 0
 3572 2580 4FF48043 		mov	r3, #16384
 3573 2584 C4F20103 		movt	r3, 16385
 3574 2588 9B6B     		ldr	r3, [r3, #56]
 3575 258a 1846     		mov	r0, r3
 3576 258c 40F20001 		movw	r1, #:lower16:numberString
 3577 2590 C0F20001 		movt	r1, #:upper16:numberString
 3578 2594 4FF00A02 		mov	r2, #10
 3579 2598 FFF7FEFF 		bl	itoa
 3580 259c 40F20000 		movw	r0, #:lower16:numberString
 3581 25a0 C0F20000 		movt	r0, #:upper16:numberString
 3582 25a4 FFF7FEFF 		bl	uart1Print
 3583 25a8 40F20000 		movw	r0, #:lower16:.LC18
 3584 25ac C0F20000 		movt	r0, #:upper16:.LC18
 3585 25b0 FFF7FEFF 		bl	uart1Print
 594:../src/cli.c  **** 
 595:../src/cli.c  ****             validCommand = false;
 3586              		.loc 1 595 0
 3587 25b4 40F20003 		movw	r3, #:lower16:validCommand
 3588 25b8 C0F20003 		movt	r3, #:upper16:validCommand
 3589 25bc 4FF00002 		mov	r2, #0
 3590 25c0 1A70     		strb	r2, [r3, #0]
 596:../src/cli.c  ****             break;
 3591              		.loc 1 596 0
 3592 25c2 00F037BC 		b	.L17
 3593              	.L80:
 597:../src/cli.c  **** 
 598:../src/cli.c  ****         ///////////////////////////////
 599:../src/cli.c  **** 
 600:../src/cli.c  ****         case 'x':
 601:../src/cli.c  ****         	validCommand = false;
 3594              		.loc 1 601 0
 3595 25c6 40F20003 		movw	r3, #:lower16:validCommand
 3596 25ca C0F20003 		movt	r3, #:upper16:validCommand
 3597 25ce 4FF00002 		mov	r2, #0
 3598 25d2 1A70     		strb	r2, [r3, #0]
 602:../src/cli.c  ****         	break;
 3599              		.loc 1 602 0
 3600 25d4 00F02EBC 		b	.L17
 3601              	.L81:
 603:../src/cli.c  **** 
 604:../src/cli.c  ****         ///////////////////////////////
 605:../src/cli.c  **** 
 606:../src/cli.c  ****         case 'y': // ESC Calibration
 607:../src/cli.c  ****         	escCalibration();
 3602              		.loc 1 607 0
 3603 25d8 FFF7FEFF 		bl	escCalibration
 608:../src/cli.c  **** 
 609:../src/cli.c  ****         	queryType = 'x';
 3604              		.loc 1 609 0
 3605 25dc 40F20003 		movw	r3, #:lower16:queryType
 3606 25e0 C0F20003 		movt	r3, #:upper16:queryType
 3607 25e4 4FF07802 		mov	r2, #120
 3608 25e8 1A70     		strb	r2, [r3, #0]
 610:../src/cli.c  ****         	break;
 3609              		.loc 1 610 0
 3610 25ea 00F023BC 		b	.L17
 3611              	.L82:
 611:../src/cli.c  **** 
 612:../src/cli.c  ****         ///////////////////////////////
 613:../src/cli.c  **** 
 614:../src/cli.c  ****         case 'z':
 615:../src/cli.c  ****             queryType = 'x';
 3612              		.loc 1 615 0
 3613 25ee 40F20003 		movw	r3, #:lower16:queryType
 3614 25f2 C0F20003 		movt	r3, #:upper16:queryType
 3615 25f6 4FF07802 		mov	r2, #120
 3616 25fa 1A70     		strb	r2, [r3, #0]
 616:../src/cli.c  ****             break;
 3617              		.loc 1 616 0
 3618 25fc 00F01ABC 		b	.L17
 3619              	.L21:
 617:../src/cli.c  **** 
 618:../src/cli.c  ****         ///////////////////////////////
 619:../src/cli.c  **** 
 620:../src/cli.c  ****         case '1': // Turn high speed telemetry 1 on
 621:../src/cli.c  ****         	highSpeedTelemDisable();
 3620              		.loc 1 621 0
 3621 2600 FFF7FEFF 		bl	highSpeedTelemDisable
 622:../src/cli.c  ****           	highSpeedTelem1Enabled = true;
 3622              		.loc 1 622 0
 3623 2604 40F20003 		movw	r3, #:lower16:highSpeedTelem1Enabled
 3624 2608 C0F20003 		movt	r3, #:upper16:highSpeedTelem1Enabled
 3625 260c 4FF00102 		mov	r2, #1
 3626 2610 1A70     		strb	r2, [r3, #0]
 623:../src/cli.c  **** 
 624:../src/cli.c  ****         	queryType = 'x';
 3627              		.loc 1 624 0
 3628 2612 40F20003 		movw	r3, #:lower16:queryType
 3629 2616 C0F20003 		movt	r3, #:upper16:queryType
 3630 261a 4FF07802 		mov	r2, #120
 3631 261e 1A70     		strb	r2, [r3, #0]
 625:../src/cli.c  ****             break;
 3632              		.loc 1 625 0
 3633 2620 00F008BC 		b	.L17
 3634              	.L22:
 626:../src/cli.c  **** 
 627:../src/cli.c  ****         ///////////////////////////////
 628:../src/cli.c  **** 
 629:../src/cli.c  ****         case '2': // Turn high speed telemetry 2 on
 630:../src/cli.c  ****            	highSpeedTelemDisable();
 3635              		.loc 1 630 0
 3636 2624 FFF7FEFF 		bl	highSpeedTelemDisable
 631:../src/cli.c  ****            	highSpeedTelem2Enabled = true;
 3637              		.loc 1 631 0
 3638 2628 40F20003 		movw	r3, #:lower16:highSpeedTelem2Enabled
 3639 262c C0F20003 		movt	r3, #:upper16:highSpeedTelem2Enabled
 3640 2630 4FF00102 		mov	r2, #1
 3641 2634 1A70     		strb	r2, [r3, #0]
 632:../src/cli.c  **** 
 633:../src/cli.c  ****             queryType = 'x';
 3642              		.loc 1 633 0
 3643 2636 40F20003 		movw	r3, #:lower16:queryType
 3644 263a C0F20003 		movt	r3, #:upper16:queryType
 3645 263e 4FF07802 		mov	r2, #120
 3646 2642 1A70     		strb	r2, [r3, #0]
 634:../src/cli.c  ****            	break;
 3647              		.loc 1 634 0
 3648 2644 F6E3     		b	.L17
 3649              	.L23:
 635:../src/cli.c  **** 
 636:../src/cli.c  ****         ///////////////////////////////
 637:../src/cli.c  **** 
 638:../src/cli.c  ****         case '3': // Turn high speed telemetry 3 on
 639:../src/cli.c  ****            	highSpeedTelemDisable();
 3650              		.loc 1 639 0
 3651 2646 FFF7FEFF 		bl	highSpeedTelemDisable
 640:../src/cli.c  ****            	highSpeedTelem3Enabled = true;
 3652              		.loc 1 640 0
 3653 264a 40F20003 		movw	r3, #:lower16:highSpeedTelem3Enabled
 3654 264e C0F20003 		movt	r3, #:upper16:highSpeedTelem3Enabled
 3655 2652 4FF00102 		mov	r2, #1
 3656 2656 1A70     		strb	r2, [r3, #0]
 641:../src/cli.c  **** 
 642:../src/cli.c  ****             queryType = 'x';
 3657              		.loc 1 642 0
 3658 2658 40F20003 		movw	r3, #:lower16:queryType
 3659 265c C0F20003 		movt	r3, #:upper16:queryType
 3660 2660 4FF07802 		mov	r2, #120
 3661 2664 1A70     		strb	r2, [r3, #0]
 643:../src/cli.c  ****            	break;
 3662              		.loc 1 643 0
 3663 2666 E5E3     		b	.L17
 3664              	.L24:
 644:../src/cli.c  **** 
 645:../src/cli.c  ****         ///////////////////////////////
 646:../src/cli.c  **** 
 647:../src/cli.c  ****         case '4': // Turn high speed telemetry 4 on
 648:../src/cli.c  ****            	highSpeedTelemDisable();
 3665              		.loc 1 648 0
 3666 2668 FFF7FEFF 		bl	highSpeedTelemDisable
 649:../src/cli.c  ****            	highSpeedTelem4Enabled = true;
 3667              		.loc 1 649 0
 3668 266c 40F20003 		movw	r3, #:lower16:highSpeedTelem4Enabled
 3669 2670 C0F20003 		movt	r3, #:upper16:highSpeedTelem4Enabled
 3670 2674 4FF00102 		mov	r2, #1
 3671 2678 1A70     		strb	r2, [r3, #0]
 650:../src/cli.c  **** 
 651:../src/cli.c  ****             queryType = 'x';
 3672              		.loc 1 651 0
 3673 267a 40F20003 		movw	r3, #:lower16:queryType
 3674 267e C0F20003 		movt	r3, #:upper16:queryType
 3675 2682 4FF07802 		mov	r2, #120
 3676 2686 1A70     		strb	r2, [r3, #0]
 652:../src/cli.c  ****            	break;
 3677              		.loc 1 652 0
 3678 2688 D4E3     		b	.L17
 3679              	.L25:
 653:../src/cli.c  **** 
 654:../src/cli.c  ****         ///////////////////////////////
 655:../src/cli.c  **** 
 656:../src/cli.c  ****         case '5': // Turn high speed telemetry 5 on
 657:../src/cli.c  ****            	highSpeedTelemDisable();
 3680              		.loc 1 657 0
 3681 268a FFF7FEFF 		bl	highSpeedTelemDisable
 658:../src/cli.c  ****            	highSpeedTelem5Enabled = true;
 3682              		.loc 1 658 0
 3683 268e 40F20003 		movw	r3, #:lower16:highSpeedTelem5Enabled
 3684 2692 C0F20003 		movt	r3, #:upper16:highSpeedTelem5Enabled
 3685 2696 4FF00102 		mov	r2, #1
 3686 269a 1A70     		strb	r2, [r3, #0]
 659:../src/cli.c  **** 
 660:../src/cli.c  ****             queryType = 'x';
 3687              		.loc 1 660 0
 3688 269c 40F20003 		movw	r3, #:lower16:queryType
 3689 26a0 C0F20003 		movt	r3, #:upper16:queryType
 3690 26a4 4FF07802 		mov	r2, #120
 3691 26a8 1A70     		strb	r2, [r3, #0]
 661:../src/cli.c  ****            	break;
 3692              		.loc 1 661 0
 3693 26aa C3E3     		b	.L17
 3694              	.L26:
 662:../src/cli.c  **** 
 663:../src/cli.c  ****         ///////////////////////////////
 664:../src/cli.c  **** 
 665:../src/cli.c  ****         case '6': // Turn high speed telemetry 6 on
 666:../src/cli.c  ****            	highSpeedTelemDisable();
 3695              		.loc 1 666 0
 3696 26ac FFF7FEFF 		bl	highSpeedTelemDisable
 667:../src/cli.c  ****            	highSpeedTelem6Enabled = true;
 3697              		.loc 1 667 0
 3698 26b0 40F20003 		movw	r3, #:lower16:highSpeedTelem6Enabled
 3699 26b4 C0F20003 		movt	r3, #:upper16:highSpeedTelem6Enabled
 3700 26b8 4FF00102 		mov	r2, #1
 3701 26bc 1A70     		strb	r2, [r3, #0]
 668:../src/cli.c  **** 
 669:../src/cli.c  ****             queryType = 'x';
 3702              		.loc 1 669 0
 3703 26be 40F20003 		movw	r3, #:lower16:queryType
 3704 26c2 C0F20003 		movt	r3, #:upper16:queryType
 3705 26c6 4FF07802 		mov	r2, #120
 3706 26ca 1A70     		strb	r2, [r3, #0]
 670:../src/cli.c  ****            	break;
 3707              		.loc 1 670 0
 3708 26cc B2E3     		b	.L17
 3709              	.L27:
 671:../src/cli.c  **** 
 672:../src/cli.c  ****         ///////////////////////////////
 673:../src/cli.c  **** 
 674:../src/cli.c  ****         case '7': // Turn high speed telemetry 7 on
 675:../src/cli.c  ****            	highSpeedTelemDisable();
 3710              		.loc 1 675 0
 3711 26ce FFF7FEFF 		bl	highSpeedTelemDisable
 676:../src/cli.c  ****            	highSpeedTelem7Enabled = true;
 3712              		.loc 1 676 0
 3713 26d2 40F20003 		movw	r3, #:lower16:highSpeedTelem7Enabled
 3714 26d6 C0F20003 		movt	r3, #:upper16:highSpeedTelem7Enabled
 3715 26da 4FF00102 		mov	r2, #1
 3716 26de 1A70     		strb	r2, [r3, #0]
 677:../src/cli.c  **** 
 678:../src/cli.c  ****             queryType = 'x';
 3717              		.loc 1 678 0
 3718 26e0 40F20003 		movw	r3, #:lower16:queryType
 3719 26e4 C0F20003 		movt	r3, #:upper16:queryType
 3720 26e8 4FF07802 		mov	r2, #120
 3721 26ec 1A70     		strb	r2, [r3, #0]
 679:../src/cli.c  ****            	break;
 3722              		.loc 1 679 0
 3723 26ee A1E3     		b	.L17
 3724              	.L28:
 680:../src/cli.c  **** 
 681:../src/cli.c  ****         ///////////////////////////////
 682:../src/cli.c  **** 
 683:../src/cli.c  ****         case '8': // Turn high speed telemetry 8 on
 684:../src/cli.c  ****            	highSpeedTelemDisable();
 3725              		.loc 1 684 0
 3726 26f0 FFF7FEFF 		bl	highSpeedTelemDisable
 685:../src/cli.c  ****            	highSpeedTelem8Enabled = true;
 3727              		.loc 1 685 0
 3728 26f4 40F20003 		movw	r3, #:lower16:highSpeedTelem8Enabled
 3729 26f8 C0F20003 		movt	r3, #:upper16:highSpeedTelem8Enabled
 3730 26fc 4FF00102 		mov	r2, #1
 3731 2700 1A70     		strb	r2, [r3, #0]
 686:../src/cli.c  **** 
 687:../src/cli.c  ****             queryType = 'x';
 3732              		.loc 1 687 0
 3733 2702 40F20003 		movw	r3, #:lower16:queryType
 3734 2706 C0F20003 		movt	r3, #:upper16:queryType
 3735 270a 4FF07802 		mov	r2, #120
 3736 270e 1A70     		strb	r2, [r3, #0]
 688:../src/cli.c  ****            	break;
 3737              		.loc 1 688 0
 3738 2710 90E3     		b	.L17
 3739              	.L29:
 689:../src/cli.c  **** 
 690:../src/cli.c  ****         ///////////////////////////////
 691:../src/cli.c  **** 
 692:../src/cli.c  ****         case '9': // Turn high speed telemetry 9 on
 693:../src/cli.c  ****            	highSpeedTelemDisable();
 3740              		.loc 1 693 0
 3741 2712 FFF7FEFF 		bl	highSpeedTelemDisable
 694:../src/cli.c  ****            	highSpeedTelem9Enabled = true;
 3742              		.loc 1 694 0
 3743 2716 40F20003 		movw	r3, #:lower16:highSpeedTelem9Enabled
 3744 271a C0F20003 		movt	r3, #:upper16:highSpeedTelem9Enabled
 3745 271e 4FF00102 		mov	r2, #1
 3746 2722 1A70     		strb	r2, [r3, #0]
 695:../src/cli.c  **** 
 696:../src/cli.c  ****             queryType = 'x';
 3747              		.loc 1 696 0
 3748 2724 40F20003 		movw	r3, #:lower16:queryType
 3749 2728 C0F20003 		movt	r3, #:upper16:queryType
 3750 272c 4FF07802 		mov	r2, #120
 3751 2730 1A70     		strb	r2, [r3, #0]
 697:../src/cli.c  ****            	break;
 3752              		.loc 1 697 0
 3753 2732 7FE3     		b	.L17
 3754              	.L20:
 698:../src/cli.c  **** 
 699:../src/cli.c  ****         ///////////////////////////////
 700:../src/cli.c  **** 
 701:../src/cli.c  ****         case '0': // Disable high speed telemetry
 702:../src/cli.c  ****            	highSpeedTelemDisable();
 3755              		.loc 1 702 0
 3756 2734 FFF7FEFF 		bl	highSpeedTelemDisable
 703:../src/cli.c  **** 
 704:../src/cli.c  ****             queryType = 'x';
 3757              		.loc 1 704 0
 3758 2738 40F20003 		movw	r3, #:lower16:queryType
 3759 273c C0F20003 		movt	r3, #:upper16:queryType
 3760 2740 4FF07802 		mov	r2, #120
 3761 2744 1A70     		strb	r2, [r3, #0]
 705:../src/cli.c  ****            	break;
 3762              		.loc 1 705 0
 3763 2746 75E3     		b	.L17
 3764              	.L31:
 706:../src/cli.c  **** 
 707:../src/cli.c  ****         ///////////////////////////////
 708:../src/cli.c  **** 
 709:../src/cli.c  ****         ///////////////////////////////////////////////////////////////////////
 710:../src/cli.c  ****         ///////////////////////////////////////////////////////////////////////
 711:../src/cli.c  ****         ///////////////////////////////////////////////////////////////////////
 712:../src/cli.c  ****         ///////////////////////////////////////////////////////////////////////
 713:../src/cli.c  **** 
 714:../src/cli.c  ****         ///////////////////////////////
 715:../src/cli.c  **** 
 716:../src/cli.c  ****         case 'A': // Read Roll Rate PID Values
 717:../src/cli.c  ****             readUsbPID(ROLL_RATE_PID);
 3765              		.loc 1 717 0
 3766 2748 4FF00000 		mov	r0, #0
 3767 274c FFF7FEFF 		bl	readUsbPID
 718:../src/cli.c  ****             uart1Print( "\nRoll Rate PID Received....\n" );
 3768              		.loc 1 718 0
 3769 2750 40F20000 		movw	r0, #:lower16:.LC38
 3770 2754 C0F20000 		movt	r0, #:upper16:.LC38
 3771 2758 FFF7FEFF 		bl	uart1Print
 719:../src/cli.c  **** 
 720:../src/cli.c  ****         	queryType = 'a';
 3772              		.loc 1 720 0
 3773 275c 40F20003 		movw	r3, #:lower16:queryType
 3774 2760 C0F20003 		movt	r3, #:upper16:queryType
 3775 2764 4FF06102 		mov	r2, #97
 3776 2768 1A70     		strb	r2, [r3, #0]
 721:../src/cli.c  ****         	validCommand = false;
 3777              		.loc 1 721 0
 3778 276a 40F20003 		movw	r3, #:lower16:validCommand
 3779 276e C0F20003 		movt	r3, #:upper16:validCommand
 3780 2772 4FF00002 		mov	r2, #0
 3781 2776 1A70     		strb	r2, [r3, #0]
 722:../src/cli.c  ****         	break;
 3782              		.loc 1 722 0
 3783 2778 5CE3     		b	.L17
 3784              	.L32:
 723:../src/cli.c  **** 
 724:../src/cli.c  ****         ///////////////////////////////
 725:../src/cli.c  **** 
 726:../src/cli.c  ****         case 'B': // Read Pitch Rate PID Values
 727:../src/cli.c  ****             readUsbPID(PITCH_RATE_PID);
 3785              		.loc 1 727 0
 3786 277a 4FF00100 		mov	r0, #1
 3787 277e FFF7FEFF 		bl	readUsbPID
 728:../src/cli.c  ****             uart1Print( "\nPitch Rate PID Received....\n" );
 3788              		.loc 1 728 0
 3789 2782 40F20000 		movw	r0, #:lower16:.LC39
 3790 2786 C0F20000 		movt	r0, #:upper16:.LC39
 3791 278a FFF7FEFF 		bl	uart1Print
 729:../src/cli.c  **** 
 730:../src/cli.c  ****         	queryType = 'a';
 3792              		.loc 1 730 0
 3793 278e 40F20003 		movw	r3, #:lower16:queryType
 3794 2792 C0F20003 		movt	r3, #:upper16:queryType
 3795 2796 4FF06102 		mov	r2, #97
 3796 279a 1A70     		strb	r2, [r3, #0]
 731:../src/cli.c  ****         	validCommand = false;
 3797              		.loc 1 731 0
 3798 279c 40F20003 		movw	r3, #:lower16:validCommand
 3799 27a0 C0F20003 		movt	r3, #:upper16:validCommand
 3800 27a4 4FF00002 		mov	r2, #0
 3801 27a8 1A70     		strb	r2, [r3, #0]
 732:../src/cli.c  ****         	break;
 3802              		.loc 1 732 0
 3803 27aa 43E3     		b	.L17
 3804              	.L33:
 733:../src/cli.c  **** 
 734:../src/cli.c  ****         ///////////////////////////////
 735:../src/cli.c  **** 
 736:../src/cli.c  ****         case 'C': // Read Yaw Rate PID Values
 737:../src/cli.c  ****             readUsbPID(YAW_RATE_PID);
 3805              		.loc 1 737 0
 3806 27ac 4FF00200 		mov	r0, #2
 3807 27b0 FFF7FEFF 		bl	readUsbPID
 738:../src/cli.c  ****             uart1Print( "\nYaw Rate PID Received....\n" );
 3808              		.loc 1 738 0
 3809 27b4 40F20000 		movw	r0, #:lower16:.LC40
 3810 27b8 C0F20000 		movt	r0, #:upper16:.LC40
 3811 27bc FFF7FEFF 		bl	uart1Print
 739:../src/cli.c  **** 
 740:../src/cli.c  ****         	queryType = 'a';
 3812              		.loc 1 740 0
 3813 27c0 40F20003 		movw	r3, #:lower16:queryType
 3814 27c4 C0F20003 		movt	r3, #:upper16:queryType
 3815 27c8 4FF06102 		mov	r2, #97
 3816 27cc 1A70     		strb	r2, [r3, #0]
 741:../src/cli.c  ****         	validCommand = false;
 3817              		.loc 1 741 0
 3818 27ce 40F20003 		movw	r3, #:lower16:validCommand
 3819 27d2 C0F20003 		movt	r3, #:upper16:validCommand
 3820 27d6 4FF00002 		mov	r2, #0
 3821 27da 1A70     		strb	r2, [r3, #0]
 742:../src/cli.c  ****         	break;
 3822              		.loc 1 742 0
 3823 27dc 2AE3     		b	.L17
 3824              	.L34:
 743:../src/cli.c  **** 
 744:../src/cli.c  ****         ///////////////////////////////
 745:../src/cli.c  **** 
 746:../src/cli.c  ****         case 'D': // Read Roll Attitude PID Values
 747:../src/cli.c  ****             readUsbPID(ROLL_ATT_PID);
 3825              		.loc 1 747 0
 3826 27de 4FF00300 		mov	r0, #3
 3827 27e2 FFF7FEFF 		bl	readUsbPID
 748:../src/cli.c  ****             uart1Print( "\nRoll Attitude PID Received....\n" );
 3828              		.loc 1 748 0
 3829 27e6 40F20000 		movw	r0, #:lower16:.LC41
 3830 27ea C0F20000 		movt	r0, #:upper16:.LC41
 3831 27ee FFF7FEFF 		bl	uart1Print
 749:../src/cli.c  **** 
 750:../src/cli.c  ****         	queryType = 'b';
 3832              		.loc 1 750 0
 3833 27f2 40F20003 		movw	r3, #:lower16:queryType
 3834 27f6 C0F20003 		movt	r3, #:upper16:queryType
 3835 27fa 4FF06202 		mov	r2, #98
 3836 27fe 1A70     		strb	r2, [r3, #0]
 751:../src/cli.c  ****         	validCommand = false;
 3837              		.loc 1 751 0
 3838 2800 40F20003 		movw	r3, #:lower16:validCommand
 3839 2804 C0F20003 		movt	r3, #:upper16:validCommand
 3840 2808 4FF00002 		mov	r2, #0
 3841 280c 1A70     		strb	r2, [r3, #0]
 752:../src/cli.c  ****         	break;
 3842              		.loc 1 752 0
 3843 280e 11E3     		b	.L17
 3844              	.L35:
 753:../src/cli.c  **** 
 754:../src/cli.c  ****         ///////////////////////////////
 755:../src/cli.c  **** 
 756:../src/cli.c  ****         case 'E': // Read Pitch Attitude PID Values
 757:../src/cli.c  ****             readUsbPID(PITCH_ATT_PID);
 3845              		.loc 1 757 0
 3846 2810 4FF00400 		mov	r0, #4
 3847 2814 FFF7FEFF 		bl	readUsbPID
 758:../src/cli.c  ****             uart1Print( "\nPitch Attitude PID Received....\n" );
 3848              		.loc 1 758 0
 3849 2818 40F20000 		movw	r0, #:lower16:.LC42
 3850 281c C0F20000 		movt	r0, #:upper16:.LC42
 3851 2820 FFF7FEFF 		bl	uart1Print
 759:../src/cli.c  **** 
 760:../src/cli.c  ****         	queryType = 'b';
 3852              		.loc 1 760 0
 3853 2824 40F20003 		movw	r3, #:lower16:queryType
 3854 2828 C0F20003 		movt	r3, #:upper16:queryType
 3855 282c 4FF06202 		mov	r2, #98
 3856 2830 1A70     		strb	r2, [r3, #0]
 761:../src/cli.c  ****         	validCommand = false;
 3857              		.loc 1 761 0
 3858 2832 40F20003 		movw	r3, #:lower16:validCommand
 3859 2836 C0F20003 		movt	r3, #:upper16:validCommand
 3860 283a 4FF00002 		mov	r2, #0
 3861 283e 1A70     		strb	r2, [r3, #0]
 762:../src/cli.c  ****         	break;
 3862              		.loc 1 762 0
 3863 2840 F8E2     		b	.L17
 3864              	.L36:
 763:../src/cli.c  **** 
 764:../src/cli.c  ****         ///////////////////////////////
 765:../src/cli.c  **** 
 766:../src/cli.c  ****         case 'F': // Read Heading Hold PID Values
 767:../src/cli.c  ****             readUsbPID(HEADING_PID);
 3865              		.loc 1 767 0
 3866 2842 4FF00500 		mov	r0, #5
 3867 2846 FFF7FEFF 		bl	readUsbPID
 768:../src/cli.c  ****             uart1Print( "\nHeading PID Received....\n" );
 3868              		.loc 1 768 0
 3869 284a 40F20000 		movw	r0, #:lower16:.LC43
 3870 284e C0F20000 		movt	r0, #:upper16:.LC43
 3871 2852 FFF7FEFF 		bl	uart1Print
 769:../src/cli.c  **** 
 770:../src/cli.c  ****         	queryType = 'b';
 3872              		.loc 1 770 0
 3873 2856 40F20003 		movw	r3, #:lower16:queryType
 3874 285a C0F20003 		movt	r3, #:upper16:queryType
 3875 285e 4FF06202 		mov	r2, #98
 3876 2862 1A70     		strb	r2, [r3, #0]
 771:../src/cli.c  ****         	validCommand = false;
 3877              		.loc 1 771 0
 3878 2864 40F20003 		movw	r3, #:lower16:validCommand
 3879 2868 C0F20003 		movt	r3, #:upper16:validCommand
 3880 286c 4FF00002 		mov	r2, #0
 3881 2870 1A70     		strb	r2, [r3, #0]
 772:../src/cli.c  ****         	break;
 3882              		.loc 1 772 0
 3883 2872 DFE2     		b	.L17
 3884              	.L37:
 773:../src/cli.c  **** 
 774:../src/cli.c  ****         ///////////////////////////////
 775:../src/cli.c  **** 
 776:../src/cli.c  ****         case 'G': // Read nDot PID Values
 777:../src/cli.c  ****             readUsbPID(NDOT_PID);
 3885              		.loc 1 777 0
 3886 2874 4FF00600 		mov	r0, #6
 3887 2878 FFF7FEFF 		bl	readUsbPID
 778:../src/cli.c  ****             uart1Print( "\nnDot PID Received....\n" );
 3888              		.loc 1 778 0
 3889 287c 40F20000 		movw	r0, #:lower16:.LC44
 3890 2880 C0F20000 		movt	r0, #:upper16:.LC44
 3891 2884 FFF7FEFF 		bl	uart1Print
 779:../src/cli.c  **** 
 780:../src/cli.c  ****         	queryType = 'c';
 3892              		.loc 1 780 0
 3893 2888 40F20003 		movw	r3, #:lower16:queryType
 3894 288c C0F20003 		movt	r3, #:upper16:queryType
 3895 2890 4FF06302 		mov	r2, #99
 3896 2894 1A70     		strb	r2, [r3, #0]
 781:../src/cli.c  ****         	validCommand = false;
 3897              		.loc 1 781 0
 3898 2896 40F20003 		movw	r3, #:lower16:validCommand
 3899 289a C0F20003 		movt	r3, #:upper16:validCommand
 3900 289e 4FF00002 		mov	r2, #0
 3901 28a2 1A70     		strb	r2, [r3, #0]
 782:../src/cli.c  ****         	break;
 3902              		.loc 1 782 0
 3903 28a4 C6E2     		b	.L17
 3904              	.L38:
 783:../src/cli.c  **** 
 784:../src/cli.c  ****         ///////////////////////////////
 785:../src/cli.c  **** 
 786:../src/cli.c  ****         case 'H': // Read eDot PID Values
 787:../src/cli.c  ****             readUsbPID(EDOT_PID);
 3905              		.loc 1 787 0
 3906 28a6 4FF00700 		mov	r0, #7
 3907 28aa FFF7FEFF 		bl	readUsbPID
 788:../src/cli.c  ****             uart1Print( "\neDot PID Received....\n" );
 3908              		.loc 1 788 0
 3909 28ae 40F20000 		movw	r0, #:lower16:.LC45
 3910 28b2 C0F20000 		movt	r0, #:upper16:.LC45
 3911 28b6 FFF7FEFF 		bl	uart1Print
 789:../src/cli.c  **** 
 790:../src/cli.c  ****             queryType = 'c';
 3912              		.loc 1 790 0
 3913 28ba 40F20003 		movw	r3, #:lower16:queryType
 3914 28be C0F20003 		movt	r3, #:upper16:queryType
 3915 28c2 4FF06302 		mov	r2, #99
 3916 28c6 1A70     		strb	r2, [r3, #0]
 791:../src/cli.c  ****           	validCommand = false;
 3917              		.loc 1 791 0
 3918 28c8 40F20003 		movw	r3, #:lower16:validCommand
 3919 28cc C0F20003 		movt	r3, #:upper16:validCommand
 3920 28d0 4FF00002 		mov	r2, #0
 3921 28d4 1A70     		strb	r2, [r3, #0]
 792:../src/cli.c  ****           	break;
 3922              		.loc 1 792 0
 3923 28d6 ADE2     		b	.L17
 3924              	.L39:
 793:../src/cli.c  **** 
 794:../src/cli.c  ****         ///////////////////////////////
 795:../src/cli.c  **** 
 796:../src/cli.c  ****         case 'I': // Read hDot PID Values
 797:../src/cli.c  ****             readUsbPID(HDOT_PID);
 3925              		.loc 1 797 0
 3926 28d8 4FF00800 		mov	r0, #8
 3927 28dc FFF7FEFF 		bl	readUsbPID
 798:../src/cli.c  ****             uart1Print( "\nhDot PID Received....\n" );
 3928              		.loc 1 798 0
 3929 28e0 40F20000 		movw	r0, #:lower16:.LC46
 3930 28e4 C0F20000 		movt	r0, #:upper16:.LC46
 3931 28e8 FFF7FEFF 		bl	uart1Print
 799:../src/cli.c  **** 
 800:../src/cli.c  ****           	queryType = 'c';
 3932              		.loc 1 800 0
 3933 28ec 40F20003 		movw	r3, #:lower16:queryType
 3934 28f0 C0F20003 		movt	r3, #:upper16:queryType
 3935 28f4 4FF06302 		mov	r2, #99
 3936 28f8 1A70     		strb	r2, [r3, #0]
 801:../src/cli.c  ****           	validCommand = false;
 3937              		.loc 1 801 0
 3938 28fa 40F20003 		movw	r3, #:lower16:validCommand
 3939 28fe C0F20003 		movt	r3, #:upper16:validCommand
 3940 2902 4FF00002 		mov	r2, #0
 3941 2906 1A70     		strb	r2, [r3, #0]
 802:../src/cli.c  ****           	break;
 3942              		.loc 1 802 0
 3943 2908 94E2     		b	.L17
 3944              	.L40:
 803:../src/cli.c  **** 
 804:../src/cli.c  ****        	///////////////////////////////
 805:../src/cli.c  **** 
 806:../src/cli.c  ****         case 'J': // Read n PID Values
 807:../src/cli.c  ****             readUsbPID(N_PID);
 3945              		.loc 1 807 0
 3946 290a 4FF00900 		mov	r0, #9
 3947 290e FFF7FEFF 		bl	readUsbPID
 808:../src/cli.c  ****             uart1Print( "\nn PID Received....\n" );
 3948              		.loc 1 808 0
 3949 2912 40F20000 		movw	r0, #:lower16:.LC47
 3950 2916 C0F20000 		movt	r0, #:upper16:.LC47
 3951 291a FFF7FEFF 		bl	uart1Print
 809:../src/cli.c  **** 
 810:../src/cli.c  ****             queryType = 'd';
 3952              		.loc 1 810 0
 3953 291e 40F20003 		movw	r3, #:lower16:queryType
 3954 2922 C0F20003 		movt	r3, #:upper16:queryType
 3955 2926 4FF06402 		mov	r2, #100
 3956 292a 1A70     		strb	r2, [r3, #0]
 811:../src/cli.c  ****             validCommand = false;
 3957              		.loc 1 811 0
 3958 292c 40F20003 		movw	r3, #:lower16:validCommand
 3959 2930 C0F20003 		movt	r3, #:upper16:validCommand
 3960 2934 4FF00002 		mov	r2, #0
 3961 2938 1A70     		strb	r2, [r3, #0]
 812:../src/cli.c  ****         	break;
 3962              		.loc 1 812 0
 3963 293a 7BE2     		b	.L17
 3964              	.L41:
 813:../src/cli.c  **** 
 814:../src/cli.c  ****         ///////////////////////////////
 815:../src/cli.c  **** 
 816:../src/cli.c  ****         case 'K': // Read e PID Values
 817:../src/cli.c  ****             readUsbPID(E_PID);
 3965              		.loc 1 817 0
 3966 293c 4FF00A00 		mov	r0, #10
 3967 2940 FFF7FEFF 		bl	readUsbPID
 818:../src/cli.c  ****             uart1Print( "\ne PID Received....\n" );
 3968              		.loc 1 818 0
 3969 2944 40F20000 		movw	r0, #:lower16:.LC48
 3970 2948 C0F20000 		movt	r0, #:upper16:.LC48
 3971 294c FFF7FEFF 		bl	uart1Print
 819:../src/cli.c  **** 
 820:../src/cli.c  ****             queryType = 'd';
 3972              		.loc 1 820 0
 3973 2950 40F20003 		movw	r3, #:lower16:queryType
 3974 2954 C0F20003 		movt	r3, #:upper16:queryType
 3975 2958 4FF06402 		mov	r2, #100
 3976 295c 1A70     		strb	r2, [r3, #0]
 821:../src/cli.c  ****             validCommand = false;
 3977              		.loc 1 821 0
 3978 295e 40F20003 		movw	r3, #:lower16:validCommand
 3979 2962 C0F20003 		movt	r3, #:upper16:validCommand
 3980 2966 4FF00002 		mov	r2, #0
 3981 296a 1A70     		strb	r2, [r3, #0]
 822:../src/cli.c  ****         	break;
 3982              		.loc 1 822 0
 3983 296c 62E2     		b	.L17
 3984              	.L42:
 823:../src/cli.c  **** 
 824:../src/cli.c  ****         ///////////////////////////////
 825:../src/cli.c  **** 
 826:../src/cli.c  ****         case 'L': // Read h PID Values
 827:../src/cli.c  ****             readUsbPID(H_PID);
 3985              		.loc 1 827 0
 3986 296e 4FF00B00 		mov	r0, #11
 3987 2972 FFF7FEFF 		bl	readUsbPID
 828:../src/cli.c  ****             uart1Print( "\nh PID Received....\n" );
 3988              		.loc 1 828 0
 3989 2976 40F20000 		movw	r0, #:lower16:.LC49
 3990 297a C0F20000 		movt	r0, #:upper16:.LC49
 3991 297e FFF7FEFF 		bl	uart1Print
 829:../src/cli.c  **** 
 830:../src/cli.c  ****             queryType = 'd';
 3992              		.loc 1 830 0
 3993 2982 40F20003 		movw	r3, #:lower16:queryType
 3994 2986 C0F20003 		movt	r3, #:upper16:queryType
 3995 298a 4FF06402 		mov	r2, #100
 3996 298e 1A70     		strb	r2, [r3, #0]
 831:../src/cli.c  ****         	validCommand = false;
 3997              		.loc 1 831 0
 3998 2990 40F20003 		movw	r3, #:lower16:validCommand
 3999 2994 C0F20003 		movt	r3, #:upper16:validCommand
 4000 2998 4FF00002 		mov	r2, #0
 4001 299c 1A70     		strb	r2, [r3, #0]
 832:../src/cli.c  ****         	break;
 4002              		.loc 1 832 0
 4003 299e 49E2     		b	.L17
 4004              	.L43:
 833:../src/cli.c  **** 
 834:../src/cli.c  ****         ///////////////////////////////
 835:../src/cli.c  **** 
 836:../src/cli.c  ****         case 'M': // MAX7456 CLI
 837:../src/cli.c  ****            	max7456CLI();
 4005              		.loc 1 837 0
 4006 29a0 FFF7FEFF 		bl	max7456CLI
 838:../src/cli.c  **** 
 839:../src/cli.c  ****            	queryType = 'x';
 4007              		.loc 1 839 0
 4008 29a4 40F20003 		movw	r3, #:lower16:queryType
 4009 29a8 C0F20003 		movt	r3, #:upper16:queryType
 4010 29ac 4FF07802 		mov	r2, #120
 4011 29b0 1A70     		strb	r2, [r3, #0]
 840:../src/cli.c  ****         	validCommand = false;
 4012              		.loc 1 840 0
 4013 29b2 40F20003 		movw	r3, #:lower16:validCommand
 4014 29b6 C0F20003 		movt	r3, #:upper16:validCommand
 4015 29ba 4FF00002 		mov	r2, #0
 4016 29be 1A70     		strb	r2, [r3, #0]
 841:../src/cli.c  ****         	break;
 4017              		.loc 1 841 0
 4018 29c0 38E2     		b	.L17
 4019              	.L44:
 842:../src/cli.c  **** 
 843:../src/cli.c  ****         ///////////////////////////////
 844:../src/cli.c  **** 
 845:../src/cli.c  ****         case 'N': // Mixer CLI
 846:../src/cli.c  ****             mixerCLI();
 4020              		.loc 1 846 0
 4021 29c2 FFF7FEFF 		bl	mixerCLI
 847:../src/cli.c  **** 
 848:../src/cli.c  ****             queryType = 'x';
 4022              		.loc 1 848 0
 4023 29c6 40F20003 		movw	r3, #:lower16:queryType
 4024 29ca C0F20003 		movt	r3, #:upper16:queryType
 4025 29ce 4FF07802 		mov	r2, #120
 4026 29d2 1A70     		strb	r2, [r3, #0]
 849:../src/cli.c  ****             validCommand = false;
 4027              		.loc 1 849 0
 4028 29d4 40F20003 		movw	r3, #:lower16:validCommand
 4029 29d8 C0F20003 		movt	r3, #:upper16:validCommand
 4030 29dc 4FF00002 		mov	r2, #0
 4031 29e0 1A70     		strb	r2, [r3, #0]
 850:../src/cli.c  ****             break;
 4032              		.loc 1 850 0
 4033 29e2 27E2     		b	.L17
 4034              	.L45:
 851:../src/cli.c  **** 
 852:../src/cli.c  ****         ///////////////////////////////
 853:../src/cli.c  **** 
 854:../src/cli.c  ****         case 'O': // Receiver CLI
 855:../src/cli.c  ****             receiverCLI();
 4035              		.loc 1 855 0
 4036 29e4 FFF7FEFF 		bl	receiverCLI
 856:../src/cli.c  **** 
 857:../src/cli.c  ****             queryType = 'x';
 4037              		.loc 1 857 0
 4038 29e8 40F20003 		movw	r3, #:lower16:queryType
 4039 29ec C0F20003 		movt	r3, #:upper16:queryType
 4040 29f0 4FF07802 		mov	r2, #120
 4041 29f4 1A70     		strb	r2, [r3, #0]
 858:../src/cli.c  ****             validCommand = false;
 4042              		.loc 1 858 0
 4043 29f6 40F20003 		movw	r3, #:lower16:validCommand
 4044 29fa C0F20003 		movt	r3, #:upper16:validCommand
 4045 29fe 4FF00002 		mov	r2, #0
 4046 2a02 1A70     		strb	r2, [r3, #0]
 859:../src/cli.c  ****             break;
 4047              		.loc 1 859 0
 4048 2a04 16E2     		b	.L17
 4049              	.L46:
 860:../src/cli.c  **** 
 861:../src/cli.c  ****         ///////////////////////////////
 862:../src/cli.c  **** 
 863:../src/cli.c  ****         case 'P': // Sensor CLI
 864:../src/cli.c  ****            	sensorCLI();
 4050              		.loc 1 864 0
 4051 2a06 FFF7FEFF 		bl	sensorCLI
 865:../src/cli.c  **** 
 866:../src/cli.c  ****            	queryType = 'x';
 4052              		.loc 1 866 0
 4053 2a0a 40F20003 		movw	r3, #:lower16:queryType
 4054 2a0e C0F20003 		movt	r3, #:upper16:queryType
 4055 2a12 4FF07802 		mov	r2, #120
 4056 2a16 1A70     		strb	r2, [r3, #0]
 867:../src/cli.c  ****            	validCommand = false;
 4057              		.loc 1 867 0
 4058 2a18 40F20003 		movw	r3, #:lower16:validCommand
 4059 2a1c C0F20003 		movt	r3, #:upper16:validCommand
 4060 2a20 4FF00002 		mov	r2, #0
 4061 2a24 1A70     		strb	r2, [r3, #0]
 868:../src/cli.c  ****            	break;
 4062              		.loc 1 868 0
 4063 2a26 05E2     		b	.L17
 4064              	.L47:
 869:../src/cli.c  **** 
 870:../src/cli.c  ****         ///////////////////////////////
 871:../src/cli.c  **** 
 872:../src/cli.c  ****         case 'Q': // GPS CLI
 873:../src/cli.c  ****             gpsCLI();
 4065              		.loc 1 873 0
 4066 2a28 FFF7FEFF 		bl	gpsCLI
 874:../src/cli.c  **** 
 875:../src/cli.c  ****             queryType = 'x';
 4067              		.loc 1 875 0
 4068 2a2c 40F20003 		movw	r3, #:lower16:queryType
 4069 2a30 C0F20003 		movt	r3, #:upper16:queryType
 4070 2a34 4FF07802 		mov	r2, #120
 4071 2a38 1A70     		strb	r2, [r3, #0]
 876:../src/cli.c  ****            	validCommand = false;
 4072              		.loc 1 876 0
 4073 2a3a 40F20003 		movw	r3, #:lower16:validCommand
 4074 2a3e C0F20003 		movt	r3, #:upper16:validCommand
 4075 2a42 4FF00002 		mov	r2, #0
 4076 2a46 1A70     		strb	r2, [r3, #0]
 877:../src/cli.c  ****            	break;
 4077              		.loc 1 877 0
 4078 2a48 F4E1     		b	.L17
 4079              	.L48:
 878:../src/cli.c  **** 
 879:../src/cli.c  ****         ///////////////////////////////
 880:../src/cli.c  **** 
 881:../src/cli.c  ****         case 'R': // Reset to Bootloader
 882:../src/cli.c  ****         	uart1Print("Entering Bootloader....\n\n");
 4080              		.loc 1 882 0
 4081 2a4a 40F20000 		movw	r0, #:lower16:.LC50
 4082 2a4e C0F20000 		movt	r0, #:upper16:.LC50
 4083 2a52 FFF7FEFF 		bl	uart1Print
 883:../src/cli.c  ****         	delay(100);
 4084              		.loc 1 883 0
 4085 2a56 4FF06400 		mov	r0, #100
 4086 2a5a FFF7FEFF 		bl	delay
 884:../src/cli.c  ****         	systemReset(true);
 4087              		.loc 1 884 0
 4088 2a5e 4FF00100 		mov	r0, #1
 4089 2a62 FFF7FEFF 		bl	systemReset
 885:../src/cli.c  ****         	break;
 4090              		.loc 1 885 0
 4091 2a66 E5E1     		b	.L17
 4092              	.L49:
 886:../src/cli.c  **** 
 887:../src/cli.c  ****         ///////////////////////////////
 888:../src/cli.c  **** 
 889:../src/cli.c  ****         case 'S': // Reset System
 890:../src/cli.c  ****         	uart1Print("\nSystem Reseting....\n\n");
 4093              		.loc 1 890 0
 4094 2a68 40F20000 		movw	r0, #:lower16:.LC51
 4095 2a6c C0F20000 		movt	r0, #:upper16:.LC51
 4096 2a70 FFF7FEFF 		bl	uart1Print
 891:../src/cli.c  ****         	delay(100);
 4097              		.loc 1 891 0
 4098 2a74 4FF06400 		mov	r0, #100
 4099 2a78 FFF7FEFF 		bl	delay
 892:../src/cli.c  ****         	systemReset(false);
 4100              		.loc 1 892 0
 4101 2a7c 4FF00000 		mov	r0, #0
 4102 2a80 FFF7FEFF 		bl	systemReset
 893:../src/cli.c  ****         	break;
 4103              		.loc 1 893 0
 4104 2a84 D6E1     		b	.L17
 4105              	.L50:
 894:../src/cli.c  **** 
 895:../src/cli.c  ****         ///////////////////////////////
 896:../src/cli.c  **** 
 897:../src/cli.c  ****         case 'T': // Not Used
 898:../src/cli.c  ****             queryType = 'x';
 4106              		.loc 1 898 0
 4107 2a86 40F20003 		movw	r3, #:lower16:queryType
 4108 2a8a C0F20003 		movt	r3, #:upper16:queryType
 4109 2a8e 4FF07802 		mov	r2, #120
 4110 2a92 1A70     		strb	r2, [r3, #0]
 899:../src/cli.c  ****            	validCommand = false;
 4111              		.loc 1 899 0
 4112 2a94 40F20003 		movw	r3, #:lower16:validCommand
 4113 2a98 C0F20003 		movt	r3, #:upper16:validCommand
 4114 2a9c 4FF00002 		mov	r2, #0
 4115 2aa0 1A70     		strb	r2, [r3, #0]
 900:../src/cli.c  ****            	break;
 4116              		.loc 1 900 0
 4117 2aa2 C7E1     		b	.L17
 4118              	.L51:
 901:../src/cli.c  **** 
 902:../src/cli.c  ****         ///////////////////////////////
 903:../src/cli.c  **** 
 904:../src/cli.c  ****         case 'U': // Not Used
 905:../src/cli.c  ****             queryType = 'x';
 4119              		.loc 1 905 0
 4120 2aa4 40F20003 		movw	r3, #:lower16:queryType
 4121 2aa8 C0F20003 		movt	r3, #:upper16:queryType
 4122 2aac 4FF07802 		mov	r2, #120
 4123 2ab0 1A70     		strb	r2, [r3, #0]
 906:../src/cli.c  ****          	validCommand = false;
 4124              		.loc 1 906 0
 4125 2ab2 40F20003 		movw	r3, #:lower16:validCommand
 4126 2ab6 C0F20003 		movt	r3, #:upper16:validCommand
 4127 2aba 4FF00002 		mov	r2, #0
 4128 2abe 1A70     		strb	r2, [r3, #0]
 907:../src/cli.c  ****          	break;
 4129              		.loc 1 907 0
 4130 2ac0 B8E1     		b	.L17
 4131              	.L52:
 908:../src/cli.c  **** 
 909:../src/cli.c  ****         ///////////////////////////////
 910:../src/cli.c  **** 
 911:../src/cli.c  ****         case 'V': // Reset EEPROM Parameters
 912:../src/cli.c  ****             uart1Print( "\nEEPROM Parameters Reset....\n" );
 4132              		.loc 1 912 0
 4133 2ac2 40F20000 		movw	r0, #:lower16:.LC52
 4134 2ac6 C0F20000 		movt	r0, #:upper16:.LC52
 4135 2aca FFF7FEFF 		bl	uart1Print
 913:../src/cli.c  ****             checkFirstTime(true);
 4136              		.loc 1 913 0
 4137 2ace 4FF00100 		mov	r0, #1
 4138 2ad2 FFF7FEFF 		bl	checkFirstTime
 914:../src/cli.c  ****             uart1Print("\nSystem Resetting....\n\n");
 4139              		.loc 1 914 0
 4140 2ad6 40F20000 		movw	r0, #:lower16:.LC53
 4141 2ada C0F20000 		movt	r0, #:upper16:.LC53
 4142 2ade FFF7FEFF 		bl	uart1Print
 915:../src/cli.c  ****             delay(100);
 4143              		.loc 1 915 0
 4144 2ae2 4FF06400 		mov	r0, #100
 4145 2ae6 FFF7FEFF 		bl	delay
 916:../src/cli.c  ****             systemReset(false);
 4146              		.loc 1 916 0
 4147 2aea 4FF00000 		mov	r0, #0
 4148 2aee FFF7FEFF 		bl	systemReset
 917:../src/cli.c  ****             break;
 4149              		.loc 1 917 0
 4150 2af2 9FE1     		b	.L17
 4151              	.L53:
 918:../src/cli.c  **** 
 919:../src/cli.c  ****         ///////////////////////////////
 920:../src/cli.c  **** 
 921:../src/cli.c  ****         case 'W': // Write EEPROM Parameters
 922:../src/cli.c  ****             uart1Print("\nWriting EEPROM Parameters....\n");
 4152              		.loc 1 922 0
 4153 2af4 40F20000 		movw	r0, #:lower16:.LC54
 4154 2af8 C0F20000 		movt	r0, #:upper16:.LC54
 4155 2afc FFF7FEFF 		bl	uart1Print
 923:../src/cli.c  ****             writeEEPROM();
 4156              		.loc 1 923 0
 4157 2b00 FFF7FEFF 		bl	writeEEPROM
 924:../src/cli.c  **** 
 925:../src/cli.c  ****             queryType = 'x';
 4158              		.loc 1 925 0
 4159 2b04 40F20003 		movw	r3, #:lower16:queryType
 4160 2b08 C0F20003 		movt	r3, #:upper16:queryType
 4161 2b0c 4FF07802 		mov	r2, #120
 4162 2b10 1A70     		strb	r2, [r3, #0]
 926:../src/cli.c  ****          	validCommand = false;
 4163              		.loc 1 926 0
 4164 2b12 40F20003 		movw	r3, #:lower16:validCommand
 4165 2b16 C0F20003 		movt	r3, #:upper16:validCommand
 4166 2b1a 4FF00002 		mov	r2, #0
 4167 2b1e 1A70     		strb	r2, [r3, #0]
 927:../src/cli.c  ****          	break;
 4168              		.loc 1 927 0
 4169 2b20 88E1     		b	.L17
 4170              	.L54:
 928:../src/cli.c  **** 
 929:../src/cli.c  ****         ///////////////////////////////
 930:../src/cli.c  **** 
 931:../src/cli.c  ****         case 'X': // Not Used
 932:../src/cli.c  ****             queryType = 'x';
 4171              		.loc 1 932 0
 4172 2b22 40F20003 		movw	r3, #:lower16:queryType
 4173 2b26 C0F20003 		movt	r3, #:upper16:queryType
 4174 2b2a 4FF07802 		mov	r2, #120
 4175 2b2e 1A70     		strb	r2, [r3, #0]
 933:../src/cli.c  ****             validCommand = false;
 4176              		.loc 1 933 0
 4177 2b30 40F20003 		movw	r3, #:lower16:validCommand
 4178 2b34 C0F20003 		movt	r3, #:upper16:validCommand
 4179 2b38 4FF00002 		mov	r2, #0
 4180 2b3c 1A70     		strb	r2, [r3, #0]
 934:../src/cli.c  ****             break;
 4181              		.loc 1 934 0
 4182 2b3e 79E1     		b	.L17
 4183              	.L55:
 935:../src/cli.c  **** 
 936:../src/cli.c  ****         ///////////////////////////////
 937:../src/cli.c  **** 
 938:../src/cli.c  ****         case 'Y': // Not Used
 939:../src/cli.c  ****             queryType = 'x';
 4184              		.loc 1 939 0
 4185 2b40 40F20003 		movw	r3, #:lower16:queryType
 4186 2b44 C0F20003 		movt	r3, #:upper16:queryType
 4187 2b48 4FF07802 		mov	r2, #120
 4188 2b4c 1A70     		strb	r2, [r3, #0]
 940:../src/cli.c  ****             break;
 4189              		.loc 1 940 0
 4190 2b4e 71E1     		b	.L17
 4191              	.L56:
 941:../src/cli.c  **** 
 942:../src/cli.c  ****         ///////////////////////////////
 943:../src/cli.c  **** 
 944:../src/cli.c  ****         case 'Z': // Not Used
 945:../src/cli.c  ****             queryType = 'x';
 4192              		.loc 1 945 0
 4193 2b50 40F20003 		movw	r3, #:lower16:queryType
 4194 2b54 C0F20003 		movt	r3, #:upper16:queryType
 4195 2b58 4FF07802 		mov	r2, #120
 4196 2b5c 1A70     		strb	r2, [r3, #0]
 946:../src/cli.c  ****             break;
 4197              		.loc 1 946 0
 4198 2b5e 69E1     		b	.L17
 4199              	.L30:
 947:../src/cli.c  **** 
 948:../src/cli.c  ****         ///////////////////////////////
 949:../src/cli.c  **** 
 950:../src/cli.c  ****         case '?': // Command Summary
 951:../src/cli.c  ****         	cliBusy = true;
 4200              		.loc 1 951 0
 4201 2b60 40F20003 		movw	r3, #:lower16:cliBusy
 4202 2b64 C0F20003 		movt	r3, #:upper16:cliBusy
 4203 2b68 4FF00102 		mov	r2, #1
 4204 2b6c 1A70     		strb	r2, [r3, #0]
 952:../src/cli.c  **** 
 953:../src/cli.c  ****         	uart1Print("\n");
 4205              		.loc 1 953 0
 4206 2b6e 40F20000 		movw	r0, #:lower16:.LC0
 4207 2b72 C0F20000 		movt	r0, #:upper16:.LC0
 4208 2b76 FFF7FEFF 		bl	uart1Print
 954:../src/cli.c  ****    		    uart1Print("'a' Rate PIDs                              'A' Set Roll Rate PID Data   AB;P;I
 4209              		.loc 1 954 0
 4210 2b7a 40F20000 		movw	r0, #:lower16:.LC55
 4211 2b7e C0F20000 		movt	r0, #:upper16:.LC55
 4212 2b82 FFF7FEFF 		bl	uart1Print
 955:../src/cli.c  ****    		    uart1Print("'b' Attitude PIDs                          'B' Set Pitch Rate PID Data  BB;P;I
 4213              		.loc 1 955 0
 4214 2b86 40F20000 		movw	r0, #:lower16:.LC56
 4215 2b8a C0F20000 		movt	r0, #:upper16:.LC56
 4216 2b8e FFF7FEFF 		bl	uart1Print
 956:../src/cli.c  ****    		    uart1Print("'c' Velocity PIDs                          'C' Set Yaw Rate PID Data    CB;P;I
 4217              		.loc 1 956 0
 4218 2b92 40F20000 		movw	r0, #:lower16:.LC57
 4219 2b96 C0F20000 		movt	r0, #:upper16:.LC57
 4220 2b9a FFF7FEFF 		bl	uart1Print
 957:../src/cli.c  ****    		    uart1Print("'d' Position PIDs                          'D' Set Roll Att PID Data    DB;P;I
 4221              		.loc 1 957 0
 4222 2b9e 40F20000 		movw	r0, #:lower16:.LC58
 4223 2ba2 C0F20000 		movt	r0, #:upper16:.LC58
 4224 2ba6 FFF7FEFF 		bl	uart1Print
 958:../src/cli.c  ****    		    uart1Print("'e' Loop Delta Times                       'E' Set Pitch Att PID Data   EB;P;I
 4225              		.loc 1 958 0
 4226 2baa 40F20000 		movw	r0, #:lower16:.LC59
 4227 2bae C0F20000 		movt	r0, #:upper16:.LC59
 4228 2bb2 FFF7FEFF 		bl	uart1Print
 959:../src/cli.c  ****    		    uart1Print("'f' Loop Execution Times                   'F' Set Hdg Hold PID Data    FB;P;I
 4229              		.loc 1 959 0
 4230 2bb6 40F20000 		movw	r0, #:lower16:.LC60
 4231 2bba C0F20000 		movt	r0, #:upper16:.LC60
 4232 2bbe FFF7FEFF 		bl	uart1Print
 960:../src/cli.c  ****    		    uart1Print("'g' 500 Hz Accels                          'G' Set nDot PID Data        GB;P;I
 4233              		.loc 1 960 0
 4234 2bc2 40F20000 		movw	r0, #:lower16:.LC61
 4235 2bc6 C0F20000 		movt	r0, #:upper16:.LC61
 4236 2bca FFF7FEFF 		bl	uart1Print
 961:../src/cli.c  ****    		    uart1Print("'h' 100 Hz Earth Axis Accels               'H' Set eDot PID Data        HB;P;I
 4237              		.loc 1 961 0
 4238 2bce 40F20000 		movw	r0, #:lower16:.LC62
 4239 2bd2 C0F20000 		movt	r0, #:upper16:.LC62
 4240 2bd6 FFF7FEFF 		bl	uart1Print
 962:../src/cli.c  ****    		    uart1Print("'i' 500 Hz Gyros                           'I' Set hDot PID Data        IB;P;I
 4241              		.loc 1 962 0
 4242 2bda 40F20000 		movw	r0, #:lower16:.LC63
 4243 2bde C0F20000 		movt	r0, #:upper16:.LC63
 4244 2be2 FFF7FEFF 		bl	uart1Print
 963:../src/cli.c  ****    		    uart1Print("'j' 10 hz Mag Data                         'J' Set n PID Data           JB;P;I
 4245              		.loc 1 963 0
 4246 2be6 40F20000 		movw	r0, #:lower16:.LC64
 4247 2bea C0F20000 		movt	r0, #:upper16:.LC64
 4248 2bee FFF7FEFF 		bl	uart1Print
 964:../src/cli.c  ****    		    uart1Print("'k' Vertical Axis Variable                 'K' Set e PID Data           KB;P;I
 4249              		.loc 1 964 0
 4250 2bf2 40F20000 		movw	r0, #:lower16:.LC65
 4251 2bf6 C0F20000 		movt	r0, #:upper16:.LC65
 4252 2bfa FFF7FEFF 		bl	uart1Print
 965:../src/cli.c  ****    		    uart1Print("'l' Attitudes                              'L' Set h PID Data           LB;P;I
 4253              		.loc 1 965 0
 4254 2bfe 40F20000 		movw	r0, #:lower16:.LC66
 4255 2c02 C0F20000 		movt	r0, #:upper16:.LC66
 4256 2c06 FFF7FEFF 		bl	uart1Print
 966:../src/cli.c  ****    		    uart1Print("\n");
 4257              		.loc 1 966 0
 4258 2c0a 40F20000 		movw	r0, #:lower16:.LC0
 4259 2c0e C0F20000 		movt	r0, #:upper16:.LC0
 4260 2c12 FFF7FEFF 		bl	uart1Print
 967:../src/cli.c  **** 
 968:../src/cli.c  ****    		    uart1Print("Press space bar for more, or enter a command....\n");
 4261              		.loc 1 968 0
 4262 2c16 40F20000 		movw	r0, #:lower16:.LC67
 4263 2c1a C0F20000 		movt	r0, #:upper16:.LC67
 4264 2c1e FFF7FEFF 		bl	uart1Print
 969:../src/cli.c  ****    		    while (uart1Available() == false);
 4265              		.loc 1 969 0
 4266 2c22 00BF     		nop
 4267              	.L135:
 4268              		.loc 1 969 0 is_stmt 0 discriminator 1
 4269 2c24 FFF7FEFF 		bl	uart1Available
 4270 2c28 0346     		mov	r3, r0
 4271 2c2a 002B     		cmp	r3, #0
 4272 2c2c FAD0     		beq	.L135
 970:../src/cli.c  ****    		    queryType = uart1Read();
 4273              		.loc 1 970 0 is_stmt 1
 4274 2c2e FFF7FEFF 		bl	uart1Read
 4275 2c32 0346     		mov	r3, r0
 4276 2c34 1A46     		mov	r2, r3
 4277 2c36 40F20003 		movw	r3, #:lower16:queryType
 4278 2c3a C0F20003 		movt	r3, #:upper16:queryType
 4279 2c3e 1A70     		strb	r2, [r3, #0]
 971:../src/cli.c  ****    		    if (queryType != ' ')
 4280              		.loc 1 971 0
 4281 2c40 40F20003 		movw	r3, #:lower16:queryType
 4282 2c44 C0F20003 		movt	r3, #:upper16:queryType
 4283 2c48 1B78     		ldrb	r3, [r3, #0]
 4284 2c4a DBB2     		uxtb	r3, r3
 4285 2c4c 202B     		cmp	r3, #32
 4286 2c4e 0ED0     		beq	.L136
 972:../src/cli.c  ****    		    {
 973:../src/cli.c  ****    		        validCommand = true;
 4287              		.loc 1 973 0
 4288 2c50 40F20003 		movw	r3, #:lower16:validCommand
 4289 2c54 C0F20003 		movt	r3, #:upper16:validCommand
 4290 2c58 4FF00102 		mov	r2, #1
 4291 2c5c 1A70     		strb	r2, [r3, #0]
 974:../src/cli.c  ****    		        cliBusy = false;
 4292              		.loc 1 974 0
 4293 2c5e 40F20003 		movw	r3, #:lower16:cliBusy
 4294 2c62 C0F20003 		movt	r3, #:upper16:cliBusy
 4295 2c66 4FF00002 		mov	r2, #0
 4296 2c6a 1A70     		strb	r2, [r3, #0]
 975:../src/cli.c  ****    		    	return;
 4297              		.loc 1 975 0
 4298 2c6c E2E0     		b	.L17
 4299              	.L136:
 976:../src/cli.c  ****    		    }
 977:../src/cli.c  **** 
 978:../src/cli.c  ****    		    uart1Print("\n");
 4300              		.loc 1 978 0
 4301 2c6e 40F20000 		movw	r0, #:lower16:.LC0
 4302 2c72 C0F20000 		movt	r0, #:upper16:.LC0
 4303 2c76 FFF7FEFF 		bl	uart1Print
 979:../src/cli.c  ****    		    uart1Print("'m' GPS Data                               'M' MAX7456 CLI\n");
 4304              		.loc 1 979 0
 4305 2c7a 40F20000 		movw	r0, #:lower16:.LC68
 4306 2c7e C0F20000 		movt	r0, #:upper16:.LC68
 4307 2c82 FFF7FEFF 		bl	uart1Print
 980:../src/cli.c  ****    		    uart1Print("'n' GPS Stats                              'N' Mixer CLI\n");
 4308              		.loc 1 980 0
 4309 2c86 40F20000 		movw	r0, #:lower16:.LC69
 4310 2c8a C0F20000 		movt	r0, #:upper16:.LC69
 4311 2c8e FFF7FEFF 		bl	uart1Print
 981:../src/cli.c  ****    		    uart1Print("'o' Not Used                               'O' Receiver CLI\n");
 4312              		.loc 1 981 0
 4313 2c92 40F20000 		movw	r0, #:lower16:.LC70
 4314 2c96 C0F20000 		movt	r0, #:upper16:.LC70
 4315 2c9a FFF7FEFF 		bl	uart1Print
 982:../src/cli.c  ****    		    uart1Print("'p' Not Used                               'P' Sensor CLI\n");
 4316              		.loc 1 982 0
 4317 2c9e 40F20000 		movw	r0, #:lower16:.LC71
 4318 2ca2 C0F20000 		movt	r0, #:upper16:.LC71
 4319 2ca6 FFF7FEFF 		bl	uart1Print
 983:../src/cli.c  ****    		    uart1Print("'q' Not Used                               'Q' GPS CLI\n");
 4320              		.loc 1 983 0
 4321 2caa 40F20000 		movw	r0, #:lower16:.LC72
 4322 2cae C0F20000 		movt	r0, #:upper16:.LC72
 4323 2cb2 FFF7FEFF 		bl	uart1Print
 984:../src/cli.c  ****    		    uart1Print("'r' Mode States                            'R' Reset and Enter Bootloader\n");
 4324              		.loc 1 984 0
 4325 2cb6 40F20000 		movw	r0, #:lower16:.LC73
 4326 2cba C0F20000 		movt	r0, #:upper16:.LC73
 4327 2cbe FFF7FEFF 		bl	uart1Print
 985:../src/cli.c  ****    		    uart1Print("'s' Raw Receiver Commands                  'S' Reset\n");
 4328              		.loc 1 985 0
 4329 2cc2 40F20000 		movw	r0, #:lower16:.LC74
 4330 2cc6 C0F20000 		movt	r0, #:upper16:.LC74
 4331 2cca FFF7FEFF 		bl	uart1Print
 986:../src/cli.c  ****    		    uart1Print("'t' Processed Receiver Commands            'T' Not Used\n");
 4332              		.loc 1 986 0
 4333 2cce 40F20000 		movw	r0, #:lower16:.LC75
 4334 2cd2 C0F20000 		movt	r0, #:upper16:.LC75
 4335 2cd6 FFF7FEFF 		bl	uart1Print
 987:../src/cli.c  ****    		    uart1Print("'u' Command In Detent Discretes            'U' Not Used\n");
 4336              		.loc 1 987 0
 4337 2cda 40F20000 		movw	r0, #:lower16:.LC76
 4338 2cde C0F20000 		movt	r0, #:upper16:.LC76
 4339 2ce2 FFF7FEFF 		bl	uart1Print
 988:../src/cli.c  ****    		    uart1Print("'v' Motor PWM Outputs                      'V' Reset EEPROM Parameters\n");
 4340              		.loc 1 988 0
 4341 2ce6 40F20000 		movw	r0, #:lower16:.LC77
 4342 2cea C0F20000 		movt	r0, #:upper16:.LC77
 4343 2cee FFF7FEFF 		bl	uart1Print
 989:../src/cli.c  ****    		    uart1Print("'w' Servo PWM Outputs                      'W' Write EEPROM Parameters\n");
 4344              		.loc 1 989 0
 4345 2cf2 40F20000 		movw	r0, #:lower16:.LC78
 4346 2cf6 C0F20000 		movt	r0, #:upper16:.LC78
 4347 2cfa FFF7FEFF 		bl	uart1Print
 990:../src/cli.c  ****    		    uart1Print("'x' Terminate Serial Communication         'X' Not Used\n");
 4348              		.loc 1 990 0
 4349 2cfe 40F20000 		movw	r0, #:lower16:.LC79
 4350 2d02 C0F20000 		movt	r0, #:upper16:.LC79
 4351 2d06 FFF7FEFF 		bl	uart1Print
 991:../src/cli.c  ****    		    uart1Print("\n");
 4352              		.loc 1 991 0
 4353 2d0a 40F20000 		movw	r0, #:lower16:.LC0
 4354 2d0e C0F20000 		movt	r0, #:upper16:.LC0
 4355 2d12 FFF7FEFF 		bl	uart1Print
 992:../src/cli.c  **** 
 993:../src/cli.c  ****    		    uart1Print("Press space bar for more, or enter a command....\n");
 4356              		.loc 1 993 0
 4357 2d16 40F20000 		movw	r0, #:lower16:.LC67
 4358 2d1a C0F20000 		movt	r0, #:upper16:.LC67
 4359 2d1e FFF7FEFF 		bl	uart1Print
 994:../src/cli.c  ****    		    while (uart1Available() == false);
 4360              		.loc 1 994 0
 4361 2d22 00BF     		nop
 4362              	.L137:
 4363              		.loc 1 994 0 is_stmt 0 discriminator 1
 4364 2d24 FFF7FEFF 		bl	uart1Available
 4365 2d28 0346     		mov	r3, r0
 4366 2d2a 002B     		cmp	r3, #0
 4367 2d2c FAD0     		beq	.L137
 995:../src/cli.c  ****    		    queryType = uart1Read();
 4368              		.loc 1 995 0 is_stmt 1
 4369 2d2e FFF7FEFF 		bl	uart1Read
 4370 2d32 0346     		mov	r3, r0
 4371 2d34 1A46     		mov	r2, r3
 4372 2d36 40F20003 		movw	r3, #:lower16:queryType
 4373 2d3a C0F20003 		movt	r3, #:upper16:queryType
 4374 2d3e 1A70     		strb	r2, [r3, #0]
 996:../src/cli.c  ****    		    if (queryType != ' ')
 4375              		.loc 1 996 0
 4376 2d40 40F20003 		movw	r3, #:lower16:queryType
 4377 2d44 C0F20003 		movt	r3, #:upper16:queryType
 4378 2d48 1B78     		ldrb	r3, [r3, #0]
 4379 2d4a DBB2     		uxtb	r3, r3
 4380 2d4c 202B     		cmp	r3, #32
 4381 2d4e 0ED0     		beq	.L138
 997:../src/cli.c  ****    		    {
 998:../src/cli.c  ****    		    	validCommand = true;
 4382              		.loc 1 998 0
 4383 2d50 40F20003 		movw	r3, #:lower16:validCommand
 4384 2d54 C0F20003 		movt	r3, #:upper16:validCommand
 4385 2d58 4FF00102 		mov	r2, #1
 4386 2d5c 1A70     		strb	r2, [r3, #0]
 999:../src/cli.c  ****    		    	cliBusy = false;
 4387              		.loc 1 999 0
 4388 2d5e 40F20003 		movw	r3, #:lower16:cliBusy
 4389 2d62 C0F20003 		movt	r3, #:upper16:cliBusy
 4390 2d66 4FF00002 		mov	r2, #0
 4391 2d6a 1A70     		strb	r2, [r3, #0]
1000:../src/cli.c  ****    		    	return;
 4392              		.loc 1 1000 0
 4393 2d6c 62E0     		b	.L17
 4394              	.L138:
1001:../src/cli.c  ****    		    }
1002:../src/cli.c  **** 
1003:../src/cli.c  ****    		    uart1Print("\n");
 4395              		.loc 1 1003 0
 4396 2d6e 40F20000 		movw	r0, #:lower16:.LC0
 4397 2d72 C0F20000 		movt	r0, #:upper16:.LC0
 4398 2d76 FFF7FEFF 		bl	uart1Print
1004:../src/cli.c  ****    		    uart1Print("'y' ESC Calibration                        'Y' Not Used\n");
 4399              		.loc 1 1004 0
 4400 2d7a 40F20000 		movw	r0, #:lower16:.LC80
 4401 2d7e C0F20000 		movt	r0, #:upper16:.LC80
 4402 2d82 FFF7FEFF 		bl	uart1Print
1005:../src/cli.c  ****    		    uart1Print("'z' Not Used                               'Z' Not Used\n");
 4403              		.loc 1 1005 0
 4404 2d86 40F20000 		movw	r0, #:lower16:.LC81
 4405 2d8a C0F20000 		movt	r0, #:upper16:.LC81
 4406 2d8e FFF7FEFF 		bl	uart1Print
1006:../src/cli.c  ****    		    uart1Print("'1' High Speed Telemetry 1 Enable\n");
 4407              		.loc 1 1006 0
 4408 2d92 40F20000 		movw	r0, #:lower16:.LC82
 4409 2d96 C0F20000 		movt	r0, #:upper16:.LC82
 4410 2d9a FFF7FEFF 		bl	uart1Print
1007:../src/cli.c  ****    		    uart1Print("'2' High Speed Telemetry 2 Enable\n");
 4411              		.loc 1 1007 0
 4412 2d9e 40F20000 		movw	r0, #:lower16:.LC83
 4413 2da2 C0F20000 		movt	r0, #:upper16:.LC83
 4414 2da6 FFF7FEFF 		bl	uart1Print
1008:../src/cli.c  ****    		    uart1Print("'3' High Speed Telemetry 3 Enable\n");
 4415              		.loc 1 1008 0
 4416 2daa 40F20000 		movw	r0, #:lower16:.LC84
 4417 2dae C0F20000 		movt	r0, #:upper16:.LC84
 4418 2db2 FFF7FEFF 		bl	uart1Print
1009:../src/cli.c  ****    		    uart1Print("'4' High Speed Telemetry 4 Enable\n");
 4419              		.loc 1 1009 0
 4420 2db6 40F20000 		movw	r0, #:lower16:.LC85
 4421 2dba C0F20000 		movt	r0, #:upper16:.LC85
 4422 2dbe FFF7FEFF 		bl	uart1Print
1010:../src/cli.c  ****    		    uart1Print("'5' High Speed Telemetry 5 Enable\n");
 4423              		.loc 1 1010 0
