   1              		.syntax unified
   2              		.cpu cortex-m4
   3              		.eabi_attribute 27, 3
   4              		.fpu fpv4-sp-d16
   5              		.eabi_attribute 20, 1
   6              		.eabi_attribute 21, 1
   7              		.eabi_attribute 23, 3
   8              		.eabi_attribute 24, 1
   9              		.eabi_attribute 25, 1
  10              		.eabi_attribute 26, 1
  11              		.eabi_attribute 30, 6
  12              		.eabi_attribute 34, 1
  13              		.eabi_attribute 18, 4
  14              		.thumb
  15              		.file	"stm32f30x_it.c"
  16              		.text
  17              	.Ltext0:
  18              		.cfi_sections	.debug_frame
  19              		.align	2
  20              		.global	NMI_Handler
  21              		.thumb
  22              		.thumb_func
  24              	NMI_Handler:
  25              	.LFB111:
  26              		.file 1 "../src/stm32f30x_it.c"
   1:../src/stm32f30x_it.c **** /**
   2:../src/stm32f30x_it.c ****   ******************************************************************************
   3:../src/stm32f30x_it.c ****   * @file    Project/STM32F30x_StdPeriph_Templates/stm32f30x_it.c 
   4:../src/stm32f30x_it.c ****   * @author  MCD Application Team
   5:../src/stm32f30x_it.c ****   * @version V1.0.0
   6:../src/stm32f30x_it.c ****   * @date    23-October-2012
   7:../src/stm32f30x_it.c ****   * @brief   Main Interrupt Service Routines.
   8:../src/stm32f30x_it.c ****   *          This file provides template for all exceptions handler and 
   9:../src/stm32f30x_it.c ****   *          peripherals interrupt service routine.
  10:../src/stm32f30x_it.c ****   ******************************************************************************
  11:../src/stm32f30x_it.c ****   * @attention
  12:../src/stm32f30x_it.c ****   *
  13:../src/stm32f30x_it.c ****   * <h2><center>&copy; COPYRIGHT 2012 STMicroelectronics</center></h2>
  14:../src/stm32f30x_it.c ****   *
  15:../src/stm32f30x_it.c ****   * Licensed under MCD-ST Liberty SW License Agreement V2, (the "License");
  16:../src/stm32f30x_it.c ****   * You may not use this file except in compliance with the License.
  17:../src/stm32f30x_it.c ****   * You may obtain a copy of the License at:
  18:../src/stm32f30x_it.c ****   *
  19:../src/stm32f30x_it.c ****   *        http://www.st.com/software_license_agreement_liberty_v2
  20:../src/stm32f30x_it.c ****   *
  21:../src/stm32f30x_it.c ****   * Unless required by applicable law or agreed to in writing, software 
  22:../src/stm32f30x_it.c ****   * distributed under the License is distributed on an "AS IS" BASIS, 
  23:../src/stm32f30x_it.c ****   * WITHOUT WARRANTIES OR CONDITIONS OF ANY KIND, either express or implied.
  24:../src/stm32f30x_it.c ****   * See the License for the specific language governing permissions and
  25:../src/stm32f30x_it.c ****   * limitations under the License.
  26:../src/stm32f30x_it.c ****   *
  27:../src/stm32f30x_it.c ****   ******************************************************************************
  28:../src/stm32f30x_it.c ****   */
  29:../src/stm32f30x_it.c **** 
  30:../src/stm32f30x_it.c **** /* Includes ------------------------------------------------------------------*/
  31:../src/stm32f30x_it.c **** #include "stm32f30x_it.h"
  32:../src/stm32f30x_it.c **** // HJI #include "main.h"
  33:../src/stm32f30x_it.c **** 
  34:../src/stm32f30x_it.c **** /** @addtogroup Template_Project
  35:../src/stm32f30x_it.c ****   * @{
  36:../src/stm32f30x_it.c ****   */
  37:../src/stm32f30x_it.c **** 
  38:../src/stm32f30x_it.c **** /* Private typedef -----------------------------------------------------------*/
  39:../src/stm32f30x_it.c **** /* Private define ------------------------------------------------------------*/
  40:../src/stm32f30x_it.c **** /* Private macro -------------------------------------------------------------*/
  41:../src/stm32f30x_it.c **** /* Private variables ---------------------------------------------------------*/
  42:../src/stm32f30x_it.c **** /* Private function prototypes -----------------------------------------------*/
  43:../src/stm32f30x_it.c **** /* Private functions ---------------------------------------------------------*/
  44:../src/stm32f30x_it.c **** 
  45:../src/stm32f30x_it.c **** /******************************************************************************/
  46:../src/stm32f30x_it.c **** /*            Cortex-M4 Processor Exceptions Handlers                         */
  47:../src/stm32f30x_it.c **** /******************************************************************************/
  48:../src/stm32f30x_it.c **** 
  49:../src/stm32f30x_it.c **** /**
  50:../src/stm32f30x_it.c ****   * @brief  This function handles NMI exception.
  51:../src/stm32f30x_it.c ****   * @param  None
  52:../src/stm32f30x_it.c ****   * @retval None
  53:../src/stm32f30x_it.c ****   */
  54:../src/stm32f30x_it.c **** void NMI_Handler(void)
  55:../src/stm32f30x_it.c **** {
  27              		.loc 1 55 0
  28              		.cfi_startproc
  29              		@ args = 0, pretend = 0, frame = 0
  30              		@ frame_needed = 0, uses_anonymous_args = 0
  31              		@ link register save eliminated.
  56:../src/stm32f30x_it.c **** }
  32              		.loc 1 56 0
  33 0000 7047     		bx	lr
  34              		.cfi_endproc
  35              	.LFE111:
  37 0002 00BF     		.align	2
  38              		.global	HardFault_Handler
  39              		.thumb
  40              		.thumb_func
  42              	HardFault_Handler:
  43              	.LFB112:
  57:../src/stm32f30x_it.c **** 
  58:../src/stm32f30x_it.c **** /**
  59:../src/stm32f30x_it.c ****   * @brief  This function handles Hard Fault exception.
  60:../src/stm32f30x_it.c ****   * @param  None
  61:../src/stm32f30x_it.c ****   * @retval None
  62:../src/stm32f30x_it.c ****   */
  63:../src/stm32f30x_it.c **** void HardFault_Handler(void)
  64:../src/stm32f30x_it.c **** {
  44              		.loc 1 64 0
  45              		.cfi_startproc
  46              		@ args = 0, pretend = 0, frame = 0
  47              		@ frame_needed = 0, uses_anonymous_args = 0
  48              		@ link register save eliminated.
  49              	.L3:
  65:../src/stm32f30x_it.c ****   /* Go to infinite loop when Hard Fault exception occurs */
  66:../src/stm32f30x_it.c ****   while (1)
  67:../src/stm32f30x_it.c ****   {
  68:../src/stm32f30x_it.c ****   }
  50              		.loc 1 68 0 discriminator 1
  51 0004 FEE7     		b	.L3
  52              		.cfi_endproc
  53              	.LFE112:
  55 0006 00BF     		.align	2
  56              		.global	MemManage_Handler
  57              		.thumb
  58              		.thumb_func
  60              	MemManage_Handler:
  61              	.LFB113:
  69:../src/stm32f30x_it.c **** }
  70:../src/stm32f30x_it.c **** 
  71:../src/stm32f30x_it.c **** /**
  72:../src/stm32f30x_it.c ****   * @brief  This function handles Memory Manage exception.
  73:../src/stm32f30x_it.c ****   * @param  None
  74:../src/stm32f30x_it.c ****   * @retval None
  75:../src/stm32f30x_it.c ****   */
  76:../src/stm32f30x_it.c **** void MemManage_Handler(void)
  77:../src/stm32f30x_it.c **** {
  62              		.loc 1 77 0
  63              		.cfi_startproc
  64              		@ args = 0, pretend = 0, frame = 0
  65              		@ frame_needed = 0, uses_anonymous_args = 0
  66              		@ link register save eliminated.
  67              	.L5:
  78:../src/stm32f30x_it.c ****   /* Go to infinite loop when Memory Manage exception occurs */
  79:../src/stm32f30x_it.c ****   while (1)
  80:../src/stm32f30x_it.c ****   {
  81:../src/stm32f30x_it.c ****   }
  68              		.loc 1 81 0 discriminator 1
  69 0008 FEE7     		b	.L5
  70              		.cfi_endproc
  71              	.LFE113:
  73 000a 00BF     		.align	2
  74              		.global	BusFault_Handler
  75              		.thumb
  76              		.thumb_func
  78              	BusFault_Handler:
  79              	.LFB114:
  82:../src/stm32f30x_it.c **** }
  83:../src/stm32f30x_it.c **** 
  84:../src/stm32f30x_it.c **** /**
  85:../src/stm32f30x_it.c ****   * @brief  This function handles Bus Fault exception.
  86:../src/stm32f30x_it.c ****   * @param  None
  87:../src/stm32f30x_it.c ****   * @retval None
  88:../src/stm32f30x_it.c ****   */
  89:../src/stm32f30x_it.c **** void BusFault_Handler(void)
  90:../src/stm32f30x_it.c **** {
  80              		.loc 1 90 0
  81              		.cfi_startproc
  82              		@ args = 0, pretend = 0, frame = 0
  83              		@ frame_needed = 0, uses_anonymous_args = 0
  84              		@ link register save eliminated.
  85              	.L7:
  91:../src/stm32f30x_it.c ****   /* Go to infinite loop when Bus Fault exception occurs */
  92:../src/stm32f30x_it.c ****   while (1)
  93:../src/stm32f30x_it.c ****   {
  94:../src/stm32f30x_it.c ****   }
  86              		.loc 1 94 0 discriminator 1
  87 000c FEE7     		b	.L7
  88              		.cfi_endproc
  89              	.LFE114:
  91 000e 00BF     		.align	2
  92              		.global	UsageFault_Handler
  93              		.thumb
  94              		.thumb_func
  96              	UsageFault_Handler:
  97              	.LFB115:
  95:../src/stm32f30x_it.c **** }
  96:../src/stm32f30x_it.c **** 
  97:../src/stm32f30x_it.c **** /**
  98:../src/stm32f30x_it.c ****   * @brief  This function handles Usage Fault exception.
  99:../src/stm32f30x_it.c ****   * @param  None
 100:../src/stm32f30x_it.c ****   * @retval None
 101:../src/stm32f30x_it.c ****   */
 102:../src/stm32f30x_it.c **** void UsageFault_Handler(void)
 103:../src/stm32f30x_it.c **** {
  98              		.loc 1 103 0
  99              		.cfi_startproc
 100              		@ args = 0, pretend = 0, frame = 0
 101              		@ frame_needed = 0, uses_anonymous_args = 0
 102              		@ link register save eliminated.
 103              	.L9:
 104:../src/stm32f30x_it.c ****   /* Go to infinite loop when Usage Fault exception occurs */
 105:../src/stm32f30x_it.c ****   while (1)
 106:../src/stm32f30x_it.c ****   {
 107:../src/stm32f30x_it.c ****   }
 104              		.loc 1 107 0 discriminator 1
 105 0010 FEE7     		b	.L9
 106              		.cfi_endproc
 107              	.LFE115:
 109 0012 00BF     		.align	2
 110              		.global	SVC_Handler
 111              		.thumb
 112              		.thumb_func
 114              	SVC_Handler:
 115              	.LFB116:
 108:../src/stm32f30x_it.c **** }
 109:../src/stm32f30x_it.c **** 
 110:../src/stm32f30x_it.c **** /**
 111:../src/stm32f30x_it.c ****   * @brief  This function handles SVCall exception.
 112:../src/stm32f30x_it.c ****   * @param  None
 113:../src/stm32f30x_it.c ****   * @retval None
 114:../src/stm32f30x_it.c ****   */
 115:../src/stm32f30x_it.c **** void SVC_Handler(void)
 116:../src/stm32f30x_it.c **** {
 116              		.loc 1 116 0
 117              		.cfi_startproc
 118              		@ args = 0, pretend = 0, frame = 0
 119              		@ frame_needed = 0, uses_anonymous_args = 0
 120              		@ link register save eliminated.
 117:../src/stm32f30x_it.c **** }
 121              		.loc 1 117 0
 122 0014 7047     		bx	lr
 123              		.cfi_endproc
 124              	.LFE116:
 126 0016 00BF     		.align	2
 127              		.global	DebugMon_Handler
 128              		.thumb
 129              		.thumb_func
 131              	DebugMon_Handler:
 132              	.LFB117:
 118:../src/stm32f30x_it.c **** 
 119:../src/stm32f30x_it.c **** /**
 120:../src/stm32f30x_it.c ****   * @brief  This function handles Debug Monitor exception.
 121:../src/stm32f30x_it.c ****   * @param  None
 122:../src/stm32f30x_it.c ****   * @retval None
 123:../src/stm32f30x_it.c ****   */
 124:../src/stm32f30x_it.c **** void DebugMon_Handler(void)
 125:../src/stm32f30x_it.c **** {
 133              		.loc 1 125 0
 134              		.cfi_startproc
 135              		@ args = 0, pretend = 0, frame = 0
 136              		@ frame_needed = 0, uses_anonymous_args = 0
 137              		@ link register save eliminated.
 126:../src/stm32f30x_it.c **** }
 138              		.loc 1 126 0
 139 0018 7047     		bx	lr
 140              		.cfi_endproc
 141              	.LFE117:
 143 001a 00BF     		.align	2
 144              		.global	PendSV_Handler
 145              		.thumb
 146              		.thumb_func
 148              	PendSV_Handler:
 149              	.LFB118:
 127:../src/stm32f30x_it.c **** 
 128:../src/stm32f30x_it.c **** /**
 129:../src/stm32f30x_it.c ****   * @brief  This function handles PendSVC exception.
 130:../src/stm32f30x_it.c ****   * @param  None
 131:../src/stm32f30x_it.c ****   * @retval None
 132:../src/stm32f30x_it.c ****   */
 133:../src/stm32f30x_it.c **** void PendSV_Handler(void)
 134:../src/stm32f30x_it.c **** {
 150              		.loc 1 134 0
 151              		.cfi_startproc
 152              		@ args = 0, pretend = 0, frame = 0
 153              		@ frame_needed = 0, uses_anonymous_args = 0
 154              		@ link register save eliminated.
 135:../src/stm32f30x_it.c **** }
 155              		.loc 1 135 0
 156 001c 7047     		bx	lr
 157              		.cfi_endproc
 158              	.LFE118:
 160              	.Letext0:
 161              		.file 2 "c:\\program files\\codesourcery\\sourcery_codebench_lite_for_arm_eabi\\bin\\../lib/gcc/ar
 162              		.file 3 "D:\\Documents and Settings\\e722209\\Desktop\\workspace\\aq32Plus_F3\\Libraries\\CMSIS\\I