   1              		.syntax unified
   2              		.cpu cortex-m4
   3              		.eabi_attribute 27, 3
   4              		.fpu fpv4-sp-d16
   5              		.eabi_attribute 20, 1
   6              		.eabi_attribute 21, 1
   7              		.eabi_attribute 23, 3
   8              		.eabi_attribute 24, 1
   9              		.eabi_attribute 25, 1
  10              		.eabi_attribute 26, 1
  11              		.eabi_attribute 30, 6
  12              		.eabi_attribute 34, 1
  13              		.eabi_attribute 18, 4
  14              		.thumb
  15              		.file	"stm32f30x_misc.c"
  16              		.text
  17              	.Ltext0:
  18              		.cfi_sections	.debug_frame
  19              		.align	2
  20              		.global	NVIC_PriorityGroupConfig
  21              		.thumb
  22              		.thumb_func
  24              	NVIC_PriorityGroupConfig:
  25              	.LFB111:
  26              		.file 1 "../Libraries/STM32F30x_StdPeriph_Driver/src/stm32f30x_misc.c"
   1:../Libraries/STM32F30x_StdPeriph_Driver/src/stm32f30x_misc.c **** /**
   2:../Libraries/STM32F30x_StdPeriph_Driver/src/stm32f30x_misc.c ****   ******************************************************************************
   3:../Libraries/STM32F30x_StdPeriph_Driver/src/stm32f30x_misc.c ****   * @file    stm32f30x_misc.c
   4:../Libraries/STM32F30x_StdPeriph_Driver/src/stm32f30x_misc.c ****   * @author  MCD Application Team
   5:../Libraries/STM32F30x_StdPeriph_Driver/src/stm32f30x_misc.c ****   * @version V1.0.1
   6:../Libraries/STM32F30x_StdPeriph_Driver/src/stm32f30x_misc.c ****   * @date    23-October-2012
   7:../Libraries/STM32F30x_StdPeriph_Driver/src/stm32f30x_misc.c ****   * @brief   This file provides all the miscellaneous firmware functions (add-on
   8:../Libraries/STM32F30x_StdPeriph_Driver/src/stm32f30x_misc.c ****   *          to CMSIS functions).
   9:../Libraries/STM32F30x_StdPeriph_Driver/src/stm32f30x_misc.c ****   *          
  10:../Libraries/STM32F30x_StdPeriph_Driver/src/stm32f30x_misc.c ****   @verbatim   
  11:../Libraries/STM32F30x_StdPeriph_Driver/src/stm32f30x_misc.c ****                                
  12:../Libraries/STM32F30x_StdPeriph_Driver/src/stm32f30x_misc.c ****  ===============================================================================      
  13:../Libraries/STM32F30x_StdPeriph_Driver/src/stm32f30x_misc.c ****               ##### How to configure Interrupts using driver #####
  14:../Libraries/STM32F30x_StdPeriph_Driver/src/stm32f30x_misc.c ****  ===============================================================================      
  15:../Libraries/STM32F30x_StdPeriph_Driver/src/stm32f30x_misc.c ****     [..] This section provide functions allowing to configure the NVIC interrupts 
  16:../Libraries/STM32F30x_StdPeriph_Driver/src/stm32f30x_misc.c ****          (IRQ). The Cortex-M4 exceptions are managed by CMSIS functions.
  17:../Libraries/STM32F30x_StdPeriph_Driver/src/stm32f30x_misc.c ****          (#) Configure the NVIC Priority Grouping using NVIC_PriorityGroupConfig()
  18:../Libraries/STM32F30x_StdPeriph_Driver/src/stm32f30x_misc.c ****              function according to the following table.
  19:../Libraries/STM32F30x_StdPeriph_Driver/src/stm32f30x_misc.c ****              The table below gives the allowed values of the pre-emption priority 
  20:../Libraries/STM32F30x_StdPeriph_Driver/src/stm32f30x_misc.c ****              and subpriority according to the Priority Grouping configuration 
  21:../Libraries/STM32F30x_StdPeriph_Driver/src/stm32f30x_misc.c ****              performed by NVIC_PriorityGroupConfig function.
  22:../Libraries/STM32F30x_StdPeriph_Driver/src/stm32f30x_misc.c ****          
  23:../Libraries/STM32F30x_StdPeriph_Driver/src/stm32f30x_misc.c ****          (#) Enable and Configure the priority of the selected IRQ Channels.
  24:../Libraries/STM32F30x_StdPeriph_Driver/src/stm32f30x_misc.c ****     [..]
  25:../Libraries/STM32F30x_StdPeriph_Driver/src/stm32f30x_misc.c ****     (@) When the NVIC_PriorityGroup_0 is selected, it will no any nested interrupt,
  26:../Libraries/STM32F30x_StdPeriph_Driver/src/stm32f30x_misc.c ****         the IRQ priority will be managed only by subpriority.
  27:../Libraries/STM32F30x_StdPeriph_Driver/src/stm32f30x_misc.c ****         The sub-priority is only used to sort pending exception priorities, 
  28:../Libraries/STM32F30x_StdPeriph_Driver/src/stm32f30x_misc.c ****         and does not affect active exceptions.
  29:../Libraries/STM32F30x_StdPeriph_Driver/src/stm32f30x_misc.c ****     (@) Lower priority values gives higher priority.
  30:../Libraries/STM32F30x_StdPeriph_Driver/src/stm32f30x_misc.c ****     (@) Priority Order:
  31:../Libraries/STM32F30x_StdPeriph_Driver/src/stm32f30x_misc.c ****         (#@) Lowest Preemption priority.
  32:../Libraries/STM32F30x_StdPeriph_Driver/src/stm32f30x_misc.c ****         (#@) Lowest Subpriority.
  33:../Libraries/STM32F30x_StdPeriph_Driver/src/stm32f30x_misc.c ****         (#@) Lowest hardware priority (IRQn position).
  34:../Libraries/STM32F30x_StdPeriph_Driver/src/stm32f30x_misc.c **** 
  35:../Libraries/STM32F30x_StdPeriph_Driver/src/stm32f30x_misc.c ****   @endverbatim
  36:../Libraries/STM32F30x_StdPeriph_Driver/src/stm32f30x_misc.c **** 
  37:../Libraries/STM32F30x_StdPeriph_Driver/src/stm32f30x_misc.c ****   ******************************************************************************
  38:../Libraries/STM32F30x_StdPeriph_Driver/src/stm32f30x_misc.c ****   * @attention
  39:../Libraries/STM32F30x_StdPeriph_Driver/src/stm32f30x_misc.c ****   *
  40:../Libraries/STM32F30x_StdPeriph_Driver/src/stm32f30x_misc.c ****   * <h2><center>&copy; COPYRIGHT 2012 STMicroelectronics</center></h2>
  41:../Libraries/STM32F30x_StdPeriph_Driver/src/stm32f30x_misc.c ****   *
  42:../Libraries/STM32F30x_StdPeriph_Driver/src/stm32f30x_misc.c ****   * Licensed under MCD-ST Liberty SW License Agreement V2, (the "License");
  43:../Libraries/STM32F30x_StdPeriph_Driver/src/stm32f30x_misc.c ****   * You may not use this file except in compliance with the License.
  44:../Libraries/STM32F30x_StdPeriph_Driver/src/stm32f30x_misc.c ****   * You may obtain a copy of the License at:
  45:../Libraries/STM32F30x_StdPeriph_Driver/src/stm32f30x_misc.c ****   *
  46:../Libraries/STM32F30x_StdPeriph_Driver/src/stm32f30x_misc.c ****   *        http://www.st.com/software_license_agreement_liberty_v2
  47:../Libraries/STM32F30x_StdPeriph_Driver/src/stm32f30x_misc.c ****   *
  48:../Libraries/STM32F30x_StdPeriph_Driver/src/stm32f30x_misc.c ****   * Unless required by applicable law or agreed to in writing, software 
  49:../Libraries/STM32F30x_StdPeriph_Driver/src/stm32f30x_misc.c ****   * distributed under the License is distributed on an "AS IS" BASIS, 
  50:../Libraries/STM32F30x_StdPeriph_Driver/src/stm32f30x_misc.c ****   * WITHOUT WARRANTIES OR CONDITIONS OF ANY KIND, either express or implied.
  51:../Libraries/STM32F30x_StdPeriph_Driver/src/stm32f30x_misc.c ****   * See the License for the specific language governing permissions and
  52:../Libraries/STM32F30x_StdPeriph_Driver/src/stm32f30x_misc.c ****   * limitations under the License.
  53:../Libraries/STM32F30x_StdPeriph_Driver/src/stm32f30x_misc.c ****   *
  54:../Libraries/STM32F30x_StdPeriph_Driver/src/stm32f30x_misc.c ****   ******************************************************************************
  55:../Libraries/STM32F30x_StdPeriph_Driver/src/stm32f30x_misc.c ****   */
  56:../Libraries/STM32F30x_StdPeriph_Driver/src/stm32f30x_misc.c **** 
  57:../Libraries/STM32F30x_StdPeriph_Driver/src/stm32f30x_misc.c **** /* Includes ------------------------------------------------------------------*/
  58:../Libraries/STM32F30x_StdPeriph_Driver/src/stm32f30x_misc.c **** #include "stm32f30x_misc.h"
  59:../Libraries/STM32F30x_StdPeriph_Driver/src/stm32f30x_misc.c **** 
  60:../Libraries/STM32F30x_StdPeriph_Driver/src/stm32f30x_misc.c **** /** @addtogroup STM32F30x_StdPeriph_Driver
  61:../Libraries/STM32F30x_StdPeriph_Driver/src/stm32f30x_misc.c ****   * @{
  62:../Libraries/STM32F30x_StdPeriph_Driver/src/stm32f30x_misc.c ****   */
  63:../Libraries/STM32F30x_StdPeriph_Driver/src/stm32f30x_misc.c **** 
  64:../Libraries/STM32F30x_StdPeriph_Driver/src/stm32f30x_misc.c **** /** @defgroup MISC 
  65:../Libraries/STM32F30x_StdPeriph_Driver/src/stm32f30x_misc.c ****   * @brief MISC driver modules
  66:../Libraries/STM32F30x_StdPeriph_Driver/src/stm32f30x_misc.c ****   * @{
  67:../Libraries/STM32F30x_StdPeriph_Driver/src/stm32f30x_misc.c ****   */
  68:../Libraries/STM32F30x_StdPeriph_Driver/src/stm32f30x_misc.c **** 
  69:../Libraries/STM32F30x_StdPeriph_Driver/src/stm32f30x_misc.c **** /* Private typedef -----------------------------------------------------------*/
  70:../Libraries/STM32F30x_StdPeriph_Driver/src/stm32f30x_misc.c **** /* Private define ------------------------------------------------------------*/
  71:../Libraries/STM32F30x_StdPeriph_Driver/src/stm32f30x_misc.c **** #define AIRCR_VECTKEY_MASK    ((uint32_t)0x05FA0000)
  72:../Libraries/STM32F30x_StdPeriph_Driver/src/stm32f30x_misc.c **** 
  73:../Libraries/STM32F30x_StdPeriph_Driver/src/stm32f30x_misc.c **** /* Private macro -------------------------------------------------------------*/
  74:../Libraries/STM32F30x_StdPeriph_Driver/src/stm32f30x_misc.c **** /* Private variables ---------------------------------------------------------*/
  75:../Libraries/STM32F30x_StdPeriph_Driver/src/stm32f30x_misc.c **** /* Private function prototypes -----------------------------------------------*/
  76:../Libraries/STM32F30x_StdPeriph_Driver/src/stm32f30x_misc.c **** /* Private functions ---------------------------------------------------------*/
  77:../Libraries/STM32F30x_StdPeriph_Driver/src/stm32f30x_misc.c **** 
  78:../Libraries/STM32F30x_StdPeriph_Driver/src/stm32f30x_misc.c **** /** @defgroup MISC_Private_Functions
  79:../Libraries/STM32F30x_StdPeriph_Driver/src/stm32f30x_misc.c ****   * @{
  80:../Libraries/STM32F30x_StdPeriph_Driver/src/stm32f30x_misc.c ****   */
  81:../Libraries/STM32F30x_StdPeriph_Driver/src/stm32f30x_misc.c **** 
  82:../Libraries/STM32F30x_StdPeriph_Driver/src/stm32f30x_misc.c **** /**
  83:../Libraries/STM32F30x_StdPeriph_Driver/src/stm32f30x_misc.c ****   * @brief  Configures the priority grouping: pre-emption priority and subpriority.
  84:../Libraries/STM32F30x_StdPeriph_Driver/src/stm32f30x_misc.c ****   * @param  NVIC_PriorityGroup: specifies the priority grouping bits length. 
  85:../Libraries/STM32F30x_StdPeriph_Driver/src/stm32f30x_misc.c ****   *   This parameter can be one of the following values:
  86:../Libraries/STM32F30x_StdPeriph_Driver/src/stm32f30x_misc.c ****   *     @arg NVIC_PriorityGroup_0: 0 bits for pre-emption priority.
  87:../Libraries/STM32F30x_StdPeriph_Driver/src/stm32f30x_misc.c ****   *                                4 bits for subpriority.
  88:../Libraries/STM32F30x_StdPeriph_Driver/src/stm32f30x_misc.c ****   *     @arg NVIC_PriorityGroup_1: 1 bits for pre-emption priority.
  89:../Libraries/STM32F30x_StdPeriph_Driver/src/stm32f30x_misc.c ****   *                                3 bits for subpriority.
  90:../Libraries/STM32F30x_StdPeriph_Driver/src/stm32f30x_misc.c ****   *     @arg NVIC_PriorityGroup_2: 2 bits for pre-emption priority.
  91:../Libraries/STM32F30x_StdPeriph_Driver/src/stm32f30x_misc.c ****   *                                2 bits for subpriority.
  92:../Libraries/STM32F30x_StdPeriph_Driver/src/stm32f30x_misc.c ****   *     @arg NVIC_PriorityGroup_3: 3 bits for pre-emption priority.
  93:../Libraries/STM32F30x_StdPeriph_Driver/src/stm32f30x_misc.c ****   *                                1 bits for subpriority.
  94:../Libraries/STM32F30x_StdPeriph_Driver/src/stm32f30x_misc.c ****   *     @arg NVIC_PriorityGroup_4: 4 bits for pre-emption priority.
  95:../Libraries/STM32F30x_StdPeriph_Driver/src/stm32f30x_misc.c ****   *                                0 bits for subpriority.
  96:../Libraries/STM32F30x_StdPeriph_Driver/src/stm32f30x_misc.c ****   *     @note When NVIC_PriorityGroup_0 is selected, it will no be any nested 
  97:../Libraries/STM32F30x_StdPeriph_Driver/src/stm32f30x_misc.c ****   *           interrupt. This interrupts priority is managed only with subpriority.                
  98:../Libraries/STM32F30x_StdPeriph_Driver/src/stm32f30x_misc.c ****   * @retval None
  99:../Libraries/STM32F30x_StdPeriph_Driver/src/stm32f30x_misc.c ****   */
 100:../Libraries/STM32F30x_StdPeriph_Driver/src/stm32f30x_misc.c **** void NVIC_PriorityGroupConfig(uint32_t NVIC_PriorityGroup)
 101:../Libraries/STM32F30x_StdPeriph_Driver/src/stm32f30x_misc.c **** {
  27              		.loc 1 101 0
  28              		.cfi_startproc
  29              		@ args = 0, pretend = 0, frame = 8
  30              		@ frame_needed = 0, uses_anonymous_args = 0
  31              		@ link register save eliminated.
  32 0000 82B0     		sub	sp, sp, #8
  33              	.LCFI0:
  34              		.cfi_def_cfa_offset 8
  35 0002 0190     		str	r0, [sp, #4]
 102:../Libraries/STM32F30x_StdPeriph_Driver/src/stm32f30x_misc.c ****   /* Check the parameters */
 103:../Libraries/STM32F30x_StdPeriph_Driver/src/stm32f30x_misc.c ****   assert_param(IS_NVIC_PRIORITY_GROUP(NVIC_PriorityGroup));
 104:../Libraries/STM32F30x_StdPeriph_Driver/src/stm32f30x_misc.c ****   
 105:../Libraries/STM32F30x_StdPeriph_Driver/src/stm32f30x_misc.c ****   /* Set the PRIGROUP[10:8] bits according to NVIC_PriorityGroup value */
 106:../Libraries/STM32F30x_StdPeriph_Driver/src/stm32f30x_misc.c ****   SCB->AIRCR = AIRCR_VECTKEY_MASK | NVIC_PriorityGroup;
  36              		.loc 1 106 0
  37 0004 4FF46D43 		mov	r3, #60672
  38 0008 CEF20003 		movt	r3, 57344
  39 000c 019A     		ldr	r2, [sp, #4]
  40 000e 42F0BE62 		orr	r2, r2, #99614720
  41 0012 42F42022 		orr	r2, r2, #655360
  42 0016 DA60     		str	r2, [r3, #12]
 107:../Libraries/STM32F30x_StdPeriph_Driver/src/stm32f30x_misc.c **** }
  43              		.loc 1 107 0
  44 0018 02B0     		add	sp, sp, #8
  45 001a 7047     		bx	lr
  46              		.cfi_endproc
  47              	.LFE111:
  49              		.align	2
  50              		.global	NVIC_Init
  51              		.thumb
  52              		.thumb_func
  54              	NVIC_Init:
  55              	.LFB112:
 108:../Libraries/STM32F30x_StdPeriph_Driver/src/stm32f30x_misc.c **** 
 109:../Libraries/STM32F30x_StdPeriph_Driver/src/stm32f30x_misc.c **** /**
 110:../Libraries/STM32F30x_StdPeriph_Driver/src/stm32f30x_misc.c ****   * @brief  Initializes the NVIC peripheral according to the specified
 111:../Libraries/STM32F30x_StdPeriph_Driver/src/stm32f30x_misc.c ****   *         parameters in the NVIC_InitStruct.
 112:../Libraries/STM32F30x_StdPeriph_Driver/src/stm32f30x_misc.c ****   * @note   To configure interrupts priority correctly, the NVIC_PriorityGroupConfig()
 113:../Libraries/STM32F30x_StdPeriph_Driver/src/stm32f30x_misc.c ****   *         function should be called before. 
 114:../Libraries/STM32F30x_StdPeriph_Driver/src/stm32f30x_misc.c ****   * @param  NVIC_InitStruct: pointer to a NVIC_InitTypeDef structure that contains
 115:../Libraries/STM32F30x_StdPeriph_Driver/src/stm32f30x_misc.c ****   *         the configuration information for the specified NVIC peripheral.
 116:../Libraries/STM32F30x_StdPeriph_Driver/src/stm32f30x_misc.c ****   * @retval None
 117:../Libraries/STM32F30x_StdPeriph_Driver/src/stm32f30x_misc.c ****   */
 118:../Libraries/STM32F30x_StdPeriph_Driver/src/stm32f30x_misc.c **** void NVIC_Init(NVIC_InitTypeDef* NVIC_InitStruct)
 119:../Libraries/STM32F30x_StdPeriph_Driver/src/stm32f30x_misc.c **** {
  56              		.loc 1 119 0
  57              		.cfi_startproc
  58              		@ args = 0, pretend = 0, frame = 24
  59              		@ frame_needed = 0, uses_anonymous_args = 0
  60              		@ link register save eliminated.
  61 001c 86B0     		sub	sp, sp, #24
  62              	.LCFI1:
  63              		.cfi_def_cfa_offset 24
  64 001e 0190     		str	r0, [sp, #4]
 120:../Libraries/STM32F30x_StdPeriph_Driver/src/stm32f30x_misc.c ****   uint32_t tmppriority = 0x00, tmppre = 0x00, tmpsub = 0x0F;
  65              		.loc 1 120 0
  66 0020 4FF00003 		mov	r3, #0
  67 0024 0593     		str	r3, [sp, #20]
  68 0026 4FF00003 		mov	r3, #0
  69 002a 0493     		str	r3, [sp, #16]
  70 002c 4FF00F03 		mov	r3, #15
  71 0030 0393     		str	r3, [sp, #12]
 121:../Libraries/STM32F30x_StdPeriph_Driver/src/stm32f30x_misc.c ****   
 122:../Libraries/STM32F30x_StdPeriph_Driver/src/stm32f30x_misc.c ****   /* Check the parameters */
 123:../Libraries/STM32F30x_StdPeriph_Driver/src/stm32f30x_misc.c ****   assert_param(IS_FUNCTIONAL_STATE(NVIC_InitStruct->NVIC_IRQChannelCmd));
 124:../Libraries/STM32F30x_StdPeriph_Driver/src/stm32f30x_misc.c ****   assert_param(IS_NVIC_PREEMPTION_PRIORITY(NVIC_InitStruct->NVIC_IRQChannelPreemptionPriority));  
 125:../Libraries/STM32F30x_StdPeriph_Driver/src/stm32f30x_misc.c ****   assert_param(IS_NVIC_SUB_PRIORITY(NVIC_InitStruct->NVIC_IRQChannelSubPriority));
 126:../Libraries/STM32F30x_StdPeriph_Driver/src/stm32f30x_misc.c ****     
 127:../Libraries/STM32F30x_StdPeriph_Driver/src/stm32f30x_misc.c ****   if (NVIC_InitStruct->NVIC_IRQChannelCmd != DISABLE)
  72              		.loc 1 127 0
  73 0032 019B     		ldr	r3, [sp, #4]
  74 0034 DB78     		ldrb	r3, [r3, #3]	@ zero_extendqisi2
  75 0036 002B     		cmp	r3, #0
  76 0038 47D0     		beq	.L3
 128:../Libraries/STM32F30x_StdPeriph_Driver/src/stm32f30x_misc.c ****   {
 129:../Libraries/STM32F30x_StdPeriph_Driver/src/stm32f30x_misc.c ****     /* Compute the Corresponding IRQ Priority --------------------------------*/    
 130:../Libraries/STM32F30x_StdPeriph_Driver/src/stm32f30x_misc.c ****     tmppriority = (0x700 - ((SCB->AIRCR) & (uint32_t)0x700))>> 0x08;
  77              		.loc 1 130 0
  78 003a 4FF46D43 		mov	r3, #60672
  79 003e CEF20003 		movt	r3, 57344
  80 0042 DB68     		ldr	r3, [r3, #12]
  81 0044 6FEA0303 		mvn	r3, r3
  82 0048 03F4E063 		and	r3, r3, #1792
  83 004c 4FEA1323 		lsr	r3, r3, #8
  84 0050 0593     		str	r3, [sp, #20]
 131:../Libraries/STM32F30x_StdPeriph_Driver/src/stm32f30x_misc.c ****     tmppre = (0x4 - tmppriority);
  85              		.loc 1 131 0
  86 0052 059B     		ldr	r3, [sp, #20]
  87 0054 C3F10403 		rsb	r3, r3, #4
  88 0058 0493     		str	r3, [sp, #16]
 132:../Libraries/STM32F30x_StdPeriph_Driver/src/stm32f30x_misc.c ****     tmpsub = tmpsub >> tmppriority;
  89              		.loc 1 132 0
  90 005a 059B     		ldr	r3, [sp, #20]
  91 005c 039A     		ldr	r2, [sp, #12]
  92 005e 22FA03F3 		lsr	r3, r2, r3
  93 0062 0393     		str	r3, [sp, #12]
 133:../Libraries/STM32F30x_StdPeriph_Driver/src/stm32f30x_misc.c **** 
 134:../Libraries/STM32F30x_StdPeriph_Driver/src/stm32f30x_misc.c ****     tmppriority = (uint32_t)NVIC_InitStruct->NVIC_IRQChannelPreemptionPriority << tmppre;
  94              		.loc 1 134 0
  95 0064 019B     		ldr	r3, [sp, #4]
  96 0066 5B78     		ldrb	r3, [r3, #1]	@ zero_extendqisi2
  97 0068 1A46     		mov	r2, r3
  98 006a 049B     		ldr	r3, [sp, #16]
  99 006c 02FA03F3 		lsl	r3, r2, r3
 100 0070 0593     		str	r3, [sp, #20]
 135:../Libraries/STM32F30x_StdPeriph_Driver/src/stm32f30x_misc.c ****     tmppriority |=  NVIC_InitStruct->NVIC_IRQChannelSubPriority & tmpsub;
 101              		.loc 1 135 0
 102 0072 019B     		ldr	r3, [sp, #4]
 103 0074 9B78     		ldrb	r3, [r3, #2]	@ zero_extendqisi2
 104 0076 1A46     		mov	r2, r3
 105 0078 039B     		ldr	r3, [sp, #12]
 106 007a 1340     		ands	r3, r3, r2
 107 007c 059A     		ldr	r2, [sp, #20]
 108 007e 1343     		orrs	r3, r3, r2
 109 0080 0593     		str	r3, [sp, #20]
 136:../Libraries/STM32F30x_StdPeriph_Driver/src/stm32f30x_misc.c ****     tmppriority = tmppriority << 0x04;
 110              		.loc 1 136 0
 111 0082 059B     		ldr	r3, [sp, #20]
 112 0084 4FEA0313 		lsl	r3, r3, #4
 113 0088 0593     		str	r3, [sp, #20]
 137:../Libraries/STM32F30x_StdPeriph_Driver/src/stm32f30x_misc.c ****         
 138:../Libraries/STM32F30x_StdPeriph_Driver/src/stm32f30x_misc.c ****     NVIC->IP[NVIC_InitStruct->NVIC_IRQChannel] = tmppriority;
 114              		.loc 1 138 0
 115 008a 4FF46143 		mov	r3, #57600
 116 008e CEF20003 		movt	r3, 57344
 117 0092 019A     		ldr	r2, [sp, #4]
 118 0094 1278     		ldrb	r2, [r2, #0]	@ zero_extendqisi2
 119 0096 1146     		mov	r1, r2
 120 0098 059A     		ldr	r2, [sp, #20]
 121 009a D2B2     		uxtb	r2, r2
 122 009c 5B18     		adds	r3, r3, r1
 123 009e 83F80023 		strb	r2, [r3, #768]
 139:../Libraries/STM32F30x_StdPeriph_Driver/src/stm32f30x_misc.c ****     
 140:../Libraries/STM32F30x_StdPeriph_Driver/src/stm32f30x_misc.c ****     /* Enable the Selected IRQ Channels --------------------------------------*/
 141:../Libraries/STM32F30x_StdPeriph_Driver/src/stm32f30x_misc.c ****     NVIC->ISER[NVIC_InitStruct->NVIC_IRQChannel >> 0x05] =
 124              		.loc 1 141 0
 125 00a2 4FF46143 		mov	r3, #57600
 126 00a6 CEF20003 		movt	r3, 57344
 127 00aa 019A     		ldr	r2, [sp, #4]
 128 00ac 1278     		ldrb	r2, [r2, #0]	@ zero_extendqisi2
 129 00ae 4FEA5212 		lsr	r2, r2, #5
 130 00b2 D2B2     		uxtb	r2, r2
 142:../Libraries/STM32F30x_StdPeriph_Driver/src/stm32f30x_misc.c ****       (uint32_t)0x01 << (NVIC_InitStruct->NVIC_IRQChannel & (uint8_t)0x1F);
 131              		.loc 1 142 0
 132 00b4 0199     		ldr	r1, [sp, #4]
 133 00b6 0978     		ldrb	r1, [r1, #0]	@ zero_extendqisi2
 134 00b8 01F01F01 		and	r1, r1, #31
 135 00bc 4FF00100 		mov	r0, #1
 136 00c0 00FA01F1 		lsl	r1, r0, r1
 141:../Libraries/STM32F30x_StdPeriph_Driver/src/stm32f30x_misc.c ****     NVIC->ISER[NVIC_InitStruct->NVIC_IRQChannel >> 0x05] =
 137              		.loc 1 141 0
 138 00c4 43F82210 		str	r1, [r3, r2, lsl #2]
 139 00c8 14E0     		b	.L2
 140              	.L3:
 143:../Libraries/STM32F30x_StdPeriph_Driver/src/stm32f30x_misc.c ****   }
 144:../Libraries/STM32F30x_StdPeriph_Driver/src/stm32f30x_misc.c ****   else
 145:../Libraries/STM32F30x_StdPeriph_Driver/src/stm32f30x_misc.c ****   {
 146:../Libraries/STM32F30x_StdPeriph_Driver/src/stm32f30x_misc.c ****     /* Disable the Selected IRQ Channels -------------------------------------*/
 147:../Libraries/STM32F30x_StdPeriph_Driver/src/stm32f30x_misc.c ****     NVIC->ICER[NVIC_InitStruct->NVIC_IRQChannel >> 0x05] =
 141              		.loc 1 147 0
 142 00ca 4FF46143 		mov	r3, #57600
 143 00ce CEF20003 		movt	r3, 57344
 144 00d2 019A     		ldr	r2, [sp, #4]
 145 00d4 1278     		ldrb	r2, [r2, #0]	@ zero_extendqisi2
 146 00d6 4FEA5212 		lsr	r2, r2, #5
 147 00da D2B2     		uxtb	r2, r2
 148:../Libraries/STM32F30x_StdPeriph_Driver/src/stm32f30x_misc.c ****       (uint32_t)0x01 << (NVIC_InitStruct->NVIC_IRQChannel & (uint8_t)0x1F);
 148              		.loc 1 148 0
 149 00dc 0199     		ldr	r1, [sp, #4]
 150 00de 0978     		ldrb	r1, [r1, #0]	@ zero_extendqisi2
 151 00e0 01F01F01 		and	r1, r1, #31
 152 00e4 4FF00100 		mov	r0, #1
 153 00e8 00FA01F1 		lsl	r1, r0, r1
 147:../Libraries/STM32F30x_StdPeriph_Driver/src/stm32f30x_misc.c ****     NVIC->ICER[NVIC_InitStruct->NVIC_IRQChannel >> 0x05] =
 154              		.loc 1 147 0
 155 00ec 02F12002 		add	r2, r2, #32
 156 00f0 43F82210 		str	r1, [r3, r2, lsl #2]
 157              	.L2:
 149:../Libraries/STM32F30x_StdPeriph_Driver/src/stm32f30x_misc.c ****   }
 150:../Libraries/STM32F30x_StdPeriph_Driver/src/stm32f30x_misc.c **** }
 158              		.loc 1 150 0
 159 00f4 06B0     		add	sp, sp, #24
 160 00f6 7047     		bx	lr
 161              		.cfi_endproc
 162              	.LFE112:
 164              		.align	2
 165              		.global	NVIC_SetVectorTable
 166              		.thumb
 167              		.thumb_func
 169              	NVIC_SetVectorTable:
 170              	.LFB113:
 151:../Libraries/STM32F30x_StdPeriph_Driver/src/stm32f30x_misc.c **** 
 152:../Libraries/STM32F30x_StdPeriph_Driver/src/stm32f30x_misc.c **** /**
 153:../Libraries/STM32F30x_StdPeriph_Driver/src/stm32f30x_misc.c ****   * @brief  Sets the vector table location and Offset.
 154:../Libraries/STM32F30x_StdPeriph_Driver/src/stm32f30x_misc.c ****   * @param  NVIC_VectTab: specifies if the vector table is in RAM or FLASH memory.
 155:../Libraries/STM32F30x_StdPeriph_Driver/src/stm32f30x_misc.c ****   *   This parameter can be one of the following values:
 156:../Libraries/STM32F30x_StdPeriph_Driver/src/stm32f30x_misc.c ****   *     @arg NVIC_VectTab_RAM
 157:../Libraries/STM32F30x_StdPeriph_Driver/src/stm32f30x_misc.c ****   *     @arg NVIC_VectTab_FLASH
 158:../Libraries/STM32F30x_StdPeriph_Driver/src/stm32f30x_misc.c ****   * @param  Offset: Vector Table base offset field. This value must be a multiple of 0x200.
 159:../Libraries/STM32F30x_StdPeriph_Driver/src/stm32f30x_misc.c ****   * @retval None
 160:../Libraries/STM32F30x_StdPeriph_Driver/src/stm32f30x_misc.c ****   */
 161:../Libraries/STM32F30x_StdPeriph_Driver/src/stm32f30x_misc.c **** void NVIC_SetVectorTable(uint32_t NVIC_VectTab, uint32_t Offset)
 162:../Libraries/STM32F30x_StdPeriph_Driver/src/stm32f30x_misc.c **** { 
 171              		.loc 1 162 0
 172              		.cfi_startproc
 173              		@ args = 0, pretend = 0, frame = 8
 174              		@ frame_needed = 0, uses_anonymous_args = 0
 175              		@ link register save eliminated.
 176 00f8 82B0     		sub	sp, sp, #8
 177              	.LCFI2:
 178              		.cfi_def_cfa_offset 8
 179 00fa 0190     		str	r0, [sp, #4]
 180 00fc 0091     		str	r1, [sp, #0]
 163:../Libraries/STM32F30x_StdPeriph_Driver/src/stm32f30x_misc.c ****   /* Check the parameters */
 164:../Libraries/STM32F30x_StdPeriph_Driver/src/stm32f30x_misc.c ****   assert_param(IS_NVIC_VECTTAB(NVIC_VectTab));
 165:../Libraries/STM32F30x_StdPeriph_Driver/src/stm32f30x_misc.c ****   assert_param(IS_NVIC_OFFSET(Offset));  
 166:../Libraries/STM32F30x_StdPeriph_Driver/src/stm32f30x_misc.c ****    
 167:../Libraries/STM32F30x_StdPeriph_Driver/src/stm32f30x_misc.c ****   SCB->VTOR = NVIC_VectTab | (Offset & (uint32_t)0x1FFFFF80);
 181              		.loc 1 167 0
 182 00fe 4FF46D43 		mov	r3, #60672
 183 0102 CEF20003 		movt	r3, 57344
 184 0106 009A     		ldr	r2, [sp, #0]
 185 0108 22F06042 		bic	r2, r2, #-536870912
 186 010c 22F07F02 		bic	r2, r2, #127
 187 0110 0199     		ldr	r1, [sp, #4]
 188 0112 0A43     		orrs	r2, r2, r1
 189 0114 9A60     		str	r2, [r3, #8]
 168:../Libraries/STM32F30x_StdPeriph_Driver/src/stm32f30x_misc.c **** }
 190              		.loc 1 168 0
 191 0116 02B0     		add	sp, sp, #8
 192 0118 7047     		bx	lr
 193              		.cfi_endproc
 194              	.LFE113:
 196 011a 00BF     		.align	2
 197              		.global	NVIC_SystemLPConfig
 198              		.thumb
 199              		.thumb_func
 201              	NVIC_SystemLPConfig:
 202              	.LFB114:
 169:../Libraries/STM32F30x_StdPeriph_Driver/src/stm32f30x_misc.c **** 
 170:../Libraries/STM32F30x_StdPeriph_Driver/src/stm32f30x_misc.c **** /**
 171:../Libraries/STM32F30x_StdPeriph_Driver/src/stm32f30x_misc.c ****   * @brief  Selects the condition for the system to enter low power mode.
 172:../Libraries/STM32F30x_StdPeriph_Driver/src/stm32f30x_misc.c ****   * @param  LowPowerMode: Specifies the new mode for the system to enter low power mode.
 173:../Libraries/STM32F30x_StdPeriph_Driver/src/stm32f30x_misc.c ****   *   This parameter can be one of the following values:
 174:../Libraries/STM32F30x_StdPeriph_Driver/src/stm32f30x_misc.c ****   *     @arg NVIC_LP_SEVONPEND
 175:../Libraries/STM32F30x_StdPeriph_Driver/src/stm32f30x_misc.c ****   *     @arg NVIC_LP_SLEEPDEEP
 176:../Libraries/STM32F30x_StdPeriph_Driver/src/stm32f30x_misc.c ****   *     @arg NVIC_LP_SLEEPONEXIT
 177:../Libraries/STM32F30x_StdPeriph_Driver/src/stm32f30x_misc.c ****   * @param  NewState: new state of LP condition. This parameter can be: ENABLE or DISABLE.
 178:../Libraries/STM32F30x_StdPeriph_Driver/src/stm32f30x_misc.c ****   * @retval None
 179:../Libraries/STM32F30x_StdPeriph_Driver/src/stm32f30x_misc.c ****   */
 180:../Libraries/STM32F30x_StdPeriph_Driver/src/stm32f30x_misc.c **** void NVIC_SystemLPConfig(uint8_t LowPowerMode, FunctionalState NewState)
 181:../Libraries/STM32F30x_StdPeriph_Driver/src/stm32f30x_misc.c **** {
 203              		.loc 1 181 0
 204              		.cfi_startproc
 205              		@ args = 0, pretend = 0, frame = 8
 206              		@ frame_needed = 0, uses_anonymous_args = 0
 207              		@ link register save eliminated.
 208 011c 82B0     		sub	sp, sp, #8
 209              	.LCFI3:
 210              		.cfi_def_cfa_offset 8
 211 011e 0246     		mov	r2, r0
 212 0120 0B46     		mov	r3, r1
 213 0122 8DF80720 		strb	r2, [sp, #7]
 214 0126 8DF80630 		strb	r3, [sp, #6]
 182:../Libraries/STM32F30x_StdPeriph_Driver/src/stm32f30x_misc.c ****   /* Check the parameters */
 183:../Libraries/STM32F30x_StdPeriph_Driver/src/stm32f30x_misc.c ****   assert_param(IS_NVIC_LP(LowPowerMode));
 184:../Libraries/STM32F30x_StdPeriph_Driver/src/stm32f30x_misc.c ****   assert_param(IS_FUNCTIONAL_STATE(NewState));  
 185:../Libraries/STM32F30x_StdPeriph_Driver/src/stm32f30x_misc.c ****   
 186:../Libraries/STM32F30x_StdPeriph_Driver/src/stm32f30x_misc.c ****   if (NewState != DISABLE)
 215              		.loc 1 186 0
 216 012a 9DF80630 		ldrb	r3, [sp, #6]	@ zero_extendqisi2
 217 012e 002B     		cmp	r3, #0
 218 0130 0DD0     		beq	.L7
 187:../Libraries/STM32F30x_StdPeriph_Driver/src/stm32f30x_misc.c ****   {
 188:../Libraries/STM32F30x_StdPeriph_Driver/src/stm32f30x_misc.c ****     SCB->SCR |= LowPowerMode;
 219              		.loc 1 188 0
 220 0132 4FF46D43 		mov	r3, #60672
 221 0136 CEF20003 		movt	r3, 57344
 222 013a 4FF46D42 		mov	r2, #60672
 223 013e CEF20002 		movt	r2, 57344
 224 0142 1169     		ldr	r1, [r2, #16]
 225 0144 9DF80720 		ldrb	r2, [sp, #7]	@ zero_extendqisi2
 226 0148 0A43     		orrs	r2, r2, r1
 227 014a 1A61     		str	r2, [r3, #16]
 228 014c 0EE0     		b	.L6
 229              	.L7:
 189:../Libraries/STM32F30x_StdPeriph_Driver/src/stm32f30x_misc.c ****   }
 190:../Libraries/STM32F30x_StdPeriph_Driver/src/stm32f30x_misc.c ****   else
 191:../Libraries/STM32F30x_StdPeriph_Driver/src/stm32f30x_misc.c ****   {
 192:../Libraries/STM32F30x_StdPeriph_Driver/src/stm32f30x_misc.c ****     SCB->SCR &= (uint32_t)(~(uint32_t)LowPowerMode);
 230              		.loc 1 192 0
 231 014e 4FF46D43 		mov	r3, #60672
 232 0152 CEF20003 		movt	r3, 57344
 233 0156 4FF46D42 		mov	r2, #60672
 234 015a CEF20002 		movt	r2, 57344
 235 015e 1169     		ldr	r1, [r2, #16]
 236 0160 9DF80720 		ldrb	r2, [sp, #7]	@ zero_extendqisi2
 237 0164 6FEA0202 		mvn	r2, r2
 238 0168 0A40     		ands	r2, r2, r1
 239 016a 1A61     		str	r2, [r3, #16]
 240              	.L6:
 193:../Libraries/STM32F30x_StdPeriph_Driver/src/stm32f30x_misc.c ****   }
 194:../Libraries/STM32F30x_StdPeriph_Driver/src/stm32f30x_misc.c **** }
 241              		.loc 1 194 0
 242 016c 02B0     		add	sp, sp, #8
 243 016e 7047     		bx	lr
 244              		.cfi_endproc
 245              	.LFE114:
 247              		.align	2
 248              		.global	SysTick_CLKSourceConfig
 249              		.thumb
 250              		.thumb_func
 252              	SysTick_CLKSourceConfig:
 253              	.LFB115:
 195:../Libraries/STM32F30x_StdPeriph_Driver/src/stm32f30x_misc.c **** 
 196:../Libraries/STM32F30x_StdPeriph_Driver/src/stm32f30x_misc.c **** /**
 197:../Libraries/STM32F30x_StdPeriph_Driver/src/stm32f30x_misc.c ****   * @brief  Configures the SysTick clock source.
 198:../Libraries/STM32F30x_StdPeriph_Driver/src/stm32f30x_misc.c ****   * @param  SysTick_CLKSource: specifies the SysTick clock source.
 199:../Libraries/STM32F30x_StdPeriph_Driver/src/stm32f30x_misc.c ****   *   This parameter can be one of the following values:
 200:../Libraries/STM32F30x_StdPeriph_Driver/src/stm32f30x_misc.c ****   *     @arg SysTick_CLKSource_HCLK_Div8: AHB clock divided by 8 selected as SysTick clock source.
 201:../Libraries/STM32F30x_StdPeriph_Driver/src/stm32f30x_misc.c ****   *     @arg SysTick_CLKSource_HCLK: AHB clock selected as SysTick clock source.
 202:../Libraries/STM32F30x_StdPeriph_Driver/src/stm32f30x_misc.c ****   * @retval None
 203:../Libraries/STM32F30x_StdPeriph_Driver/src/stm32f30x_misc.c ****   */
 204:../Libraries/STM32F30x_StdPeriph_Driver/src/stm32f30x_misc.c **** void SysTick_CLKSourceConfig(uint32_t SysTick_CLKSource)
 205:../Libraries/STM32F30x_StdPeriph_Driver/src/stm32f30x_misc.c **** {
 254              		.loc 1 205 0
 255              		.cfi_startproc
 256              		@ args = 0, pretend = 0, frame = 8
 257              		@ frame_needed = 0, uses_anonymous_args = 0
 258              		@ link register save eliminated.
 259 0170 82B0     		sub	sp, sp, #8
 260              	.LCFI4:
 261              		.cfi_def_cfa_offset 8
 262 0172 0190     		str	r0, [sp, #4]
 206:../Libraries/STM32F30x_StdPeriph_Driver/src/stm32f30x_misc.c ****   /* Check the parameters */
 207:../Libraries/STM32F30x_StdPeriph_Driver/src/stm32f30x_misc.c ****   assert_param(IS_SYSTICK_CLK_SOURCE(SysTick_CLKSource));
 208:../Libraries/STM32F30x_StdPeriph_Driver/src/stm32f30x_misc.c ****   if (SysTick_CLKSource == SysTick_CLKSource_HCLK)
 263              		.loc 1 208 0
 264 0174 019B     		ldr	r3, [sp, #4]
 265 0176 042B     		cmp	r3, #4
 266 0178 0CD1     		bne	.L10
 209:../Libraries/STM32F30x_StdPeriph_Driver/src/stm32f30x_misc.c ****   {
 210:../Libraries/STM32F30x_StdPeriph_Driver/src/stm32f30x_misc.c ****     SysTick->CTRL |= SysTick_CLKSource_HCLK;
 267              		.loc 1 210 0
 268 017a 4EF21003 		movw	r3, #57360
 269 017e CEF20003 		movt	r3, 57344
 270 0182 4EF21002 		movw	r2, #57360
 271 0186 CEF20002 		movt	r2, 57344
 272 018a 1268     		ldr	r2, [r2, #0]
 273 018c 42F00402 		orr	r2, r2, #4
 274 0190 1A60     		str	r2, [r3, #0]
 275 0192 0BE0     		b	.L9
 276              	.L10:
 211:../Libraries/STM32F30x_StdPeriph_Driver/src/stm32f30x_misc.c ****   }
 212:../Libraries/STM32F30x_StdPeriph_Driver/src/stm32f30x_misc.c ****   else
 213:../Libraries/STM32F30x_StdPeriph_Driver/src/stm32f30x_misc.c ****   {
 214:../Libraries/STM32F30x_StdPeriph_Driver/src/stm32f30x_misc.c ****     SysTick->CTRL &= SysTick_CLKSource_HCLK_Div8;
 277              		.loc 1 214 0
 278 0194 4EF21003 		movw	r3, #57360
 279 0198 CEF20003 		movt	r3, 57344
 280 019c 4EF21002 		movw	r2, #57360
 281 01a0 CEF20002 		movt	r2, 57344
 282 01a4 1268     		ldr	r2, [r2, #0]
 283 01a6 22F00402 		bic	r2, r2, #4
 284 01aa 1A60     		str	r2, [r3, #0]
 285              	.L9:
 215:../Libraries/STM32F30x_StdPeriph_Driver/src/stm32f30x_misc.c ****   }
 216:../Libraries/STM32F30x_StdPeriph_Driver/src/stm32f30x_misc.c **** }
 286              		.loc 1 216 0
 287 01ac 02B0     		add	sp, sp, #8
 288 01ae 7047     		bx	lr
 289              		.cfi_endproc
 290              	.LFE115:
 292              	.Letext0:
 293              		.file 2 "c:\\program files\\codesourcery\\sourcery_codebench_lite_for_arm_eabi\\bin\\../lib/gcc/ar
 294              		.file 3 "D:\\Documents and Settings\\e722209\\Desktop\\workspace\\aq32Plus_F3\\Libraries\\CMSIS\\I
 295              		.file 4 "D:\\Documents and Settings\\e722209\\Desktop\\workspace\\aq32Plus_F3\\Libraries\\Device\\
 296              		.file 5 "D:\\Documents and Settings\\e722209\\Desktop\\workspace\\aq32Plus_F3\\Libraries\\STM32F30