   1              		.syntax unified
   2              		.cpu cortex-m4
   3              		.eabi_attribute 27, 3
   4              		.fpu fpv4-sp-d16
   5              		.eabi_attribute 20, 1
   6              		.eabi_attribute 21, 1
   7              		.eabi_attribute 23, 3
   8              		.eabi_attribute 24, 1
   9              		.eabi_attribute 25, 1
  10              		.eabi_attribute 26, 1
  11              		.eabi_attribute 30, 6
  12              		.eabi_attribute 34, 1
  13              		.eabi_attribute 18, 4
  14              		.thumb
  15              		.file	"stm32f30x_exti.c"
  16              		.text
  17              	.Ltext0:
  18              		.cfi_sections	.debug_frame
  19              		.align	2
  20              		.global	EXTI_DeInit
  21              		.thumb
  22              		.thumb_func
  24              	EXTI_DeInit:
  25              	.LFB111:
  26              		.file 1 "../Libraries/STM32F30x_StdPeriph_Driver/src/stm32f30x_exti.c"
   1:../Libraries/STM32F30x_StdPeriph_Driver/src/stm32f30x_exti.c **** /**
   2:../Libraries/STM32F30x_StdPeriph_Driver/src/stm32f30x_exti.c ****   ******************************************************************************
   3:../Libraries/STM32F30x_StdPeriph_Driver/src/stm32f30x_exti.c ****   * @file    stm32f30x_exti.c
   4:../Libraries/STM32F30x_StdPeriph_Driver/src/stm32f30x_exti.c ****   * @author  MCD Application Team
   5:../Libraries/STM32F30x_StdPeriph_Driver/src/stm32f30x_exti.c ****   * @version V1.0.1
   6:../Libraries/STM32F30x_StdPeriph_Driver/src/stm32f30x_exti.c ****   * @date    23-October-2012
   7:../Libraries/STM32F30x_StdPeriph_Driver/src/stm32f30x_exti.c ****   * @brief   This file provides firmware functions to manage the following 
   8:../Libraries/STM32F30x_StdPeriph_Driver/src/stm32f30x_exti.c ****   *          functionalities of the EXTI peripheral:
   9:../Libraries/STM32F30x_StdPeriph_Driver/src/stm32f30x_exti.c ****   *           + Initialization and Configuration 
  10:../Libraries/STM32F30x_StdPeriph_Driver/src/stm32f30x_exti.c ****   *           + Interrupts and flags management 
  11:../Libraries/STM32F30x_StdPeriph_Driver/src/stm32f30x_exti.c ****   *
  12:../Libraries/STM32F30x_StdPeriph_Driver/src/stm32f30x_exti.c ****   @verbatim
  13:../Libraries/STM32F30x_StdPeriph_Driver/src/stm32f30x_exti.c ****  ===============================================================================
  14:../Libraries/STM32F30x_StdPeriph_Driver/src/stm32f30x_exti.c ****                           ##### EXTI features #####
  15:../Libraries/STM32F30x_StdPeriph_Driver/src/stm32f30x_exti.c ****  ===============================================================================
  16:../Libraries/STM32F30x_StdPeriph_Driver/src/stm32f30x_exti.c ****     [..] External interrupt/event lines are mapped as following:
  17:../Libraries/STM32F30x_StdPeriph_Driver/src/stm32f30x_exti.c ****          (#) All available GPIO pins are connected to the 16 external 
  18:../Libraries/STM32F30x_StdPeriph_Driver/src/stm32f30x_exti.c ****              interrupt/event lines from EXTI0 to EXTI15.
  19:../Libraries/STM32F30x_StdPeriph_Driver/src/stm32f30x_exti.c ****          (#) EXTI line 16 is connected to the PVD output
  20:../Libraries/STM32F30x_StdPeriph_Driver/src/stm32f30x_exti.c ****          (#) EXTI line 17 is connected to the RTC Alarm event
  21:../Libraries/STM32F30x_StdPeriph_Driver/src/stm32f30x_exti.c ****          (#) EXTI line 18 is connected to USB Device wakeup event  
  22:../Libraries/STM32F30x_StdPeriph_Driver/src/stm32f30x_exti.c ****          (#) EXTI line 19 is connected to the RTC Tamper and TimeStamp events
  23:../Libraries/STM32F30x_StdPeriph_Driver/src/stm32f30x_exti.c ****          (#) EXTI line 20 is connected to the RTC wakeup event  
  24:../Libraries/STM32F30x_StdPeriph_Driver/src/stm32f30x_exti.c ****          (#) EXTI line 21 is connected to the Comparator 1 wakeup event 
  25:../Libraries/STM32F30x_StdPeriph_Driver/src/stm32f30x_exti.c ****          (#) EXTI line 22 is connected to the Comparator 2 wakeup event
  26:../Libraries/STM32F30x_StdPeriph_Driver/src/stm32f30x_exti.c ****          (#) EXTI line 23 is connected to the I2C1 wakeup event
  27:../Libraries/STM32F30x_StdPeriph_Driver/src/stm32f30x_exti.c ****          (#) EXTI line 24 is connected to the I2C2 wakeup event  
  28:../Libraries/STM32F30x_StdPeriph_Driver/src/stm32f30x_exti.c ****          (#) EXTI line 25 is connected to the USART1 wakeup event
  29:../Libraries/STM32F30x_StdPeriph_Driver/src/stm32f30x_exti.c ****          (#) EXTI line 26 is connected to the USART2 wakeup event  
  30:../Libraries/STM32F30x_StdPeriph_Driver/src/stm32f30x_exti.c ****          (#) EXTI line 27 is reserved
  31:../Libraries/STM32F30x_StdPeriph_Driver/src/stm32f30x_exti.c ****          (#) EXTI line 28 is connected to the USART3 wakeup event
  32:../Libraries/STM32F30x_StdPeriph_Driver/src/stm32f30x_exti.c ****          (#) EXTI line 29 is connected to the Comparator 3 event
  33:../Libraries/STM32F30x_StdPeriph_Driver/src/stm32f30x_exti.c ****          (#) EXTI line 30 is connected to the Comparator 4 event
  34:../Libraries/STM32F30x_StdPeriph_Driver/src/stm32f30x_exti.c ****          (#) EXTI line 31 is connected to the Comparator 5 event
  35:../Libraries/STM32F30x_StdPeriph_Driver/src/stm32f30x_exti.c ****          (#) EXTI line 32 is connected to the Comparator 6 event
  36:../Libraries/STM32F30x_StdPeriph_Driver/src/stm32f30x_exti.c ****          (#) EXTI line 33 is connected to the Comparator 7 event
  37:../Libraries/STM32F30x_StdPeriph_Driver/src/stm32f30x_exti.c ****          (#) EXTI line 34 is connected for thr UART4 wakeup event
  38:../Libraries/STM32F30x_StdPeriph_Driver/src/stm32f30x_exti.c ****          (#) EXTI line 35 is connected for the UART5 wakeup event               
  39:../Libraries/STM32F30x_StdPeriph_Driver/src/stm32f30x_exti.c **** 
  40:../Libraries/STM32F30x_StdPeriph_Driver/src/stm32f30x_exti.c ****                        ##### How to use this driver #####
  41:../Libraries/STM32F30x_StdPeriph_Driver/src/stm32f30x_exti.c ****  ===============================================================================
  42:../Libraries/STM32F30x_StdPeriph_Driver/src/stm32f30x_exti.c ****     [..] In order to use an I/O pin as an external interrupt source, 
  43:../Libraries/STM32F30x_StdPeriph_Driver/src/stm32f30x_exti.c ****          follow steps below:
  44:../Libraries/STM32F30x_StdPeriph_Driver/src/stm32f30x_exti.c ****          (#) Configure the I/O in input mode using GPIO_Init().
  45:../Libraries/STM32F30x_StdPeriph_Driver/src/stm32f30x_exti.c ****          (#) Select the input source pin for the EXTI line using
  46:../Libraries/STM32F30x_StdPeriph_Driver/src/stm32f30x_exti.c ****              SYSCFG_EXTILineConfig().
  47:../Libraries/STM32F30x_StdPeriph_Driver/src/stm32f30x_exti.c ****          (#) Select the mode(interrupt, event) and configure the trigger 
  48:../Libraries/STM32F30x_StdPeriph_Driver/src/stm32f30x_exti.c ****              selection (Rising, falling or both) using EXTI_Init(). For the 
  49:../Libraries/STM32F30x_StdPeriph_Driver/src/stm32f30x_exti.c ****              internal interrupt, the trigger selection is not needed 
  50:../Libraries/STM32F30x_StdPeriph_Driver/src/stm32f30x_exti.c ****              (the active edge is always the rising one).
  51:../Libraries/STM32F30x_StdPeriph_Driver/src/stm32f30x_exti.c ****          (#) Configure NVIC IRQ channel mapped to the EXTI line using NVIC_Init().
  52:../Libraries/STM32F30x_StdPeriph_Driver/src/stm32f30x_exti.c ****          (#) Optionally, you can generate a software interrupt using the function 
  53:../Libraries/STM32F30x_StdPeriph_Driver/src/stm32f30x_exti.c ****              EXTI_GenerateSWInterrupt().
  54:../Libraries/STM32F30x_StdPeriph_Driver/src/stm32f30x_exti.c ****     [..]
  55:../Libraries/STM32F30x_StdPeriph_Driver/src/stm32f30x_exti.c ****     (@) SYSCFG APB clock must be enabled to get write access to SYSCFG_EXTICRx
  56:../Libraries/STM32F30x_StdPeriph_Driver/src/stm32f30x_exti.c ****       registers using RCC_APB2PeriphClockCmd(RCC_APB2Periph_SYSCFG, ENABLE);
  57:../Libraries/STM32F30x_StdPeriph_Driver/src/stm32f30x_exti.c ****                 
  58:../Libraries/STM32F30x_StdPeriph_Driver/src/stm32f30x_exti.c ****   @endverbatim
  59:../Libraries/STM32F30x_StdPeriph_Driver/src/stm32f30x_exti.c **** 
  60:../Libraries/STM32F30x_StdPeriph_Driver/src/stm32f30x_exti.c ****   ******************************************************************************
  61:../Libraries/STM32F30x_StdPeriph_Driver/src/stm32f30x_exti.c ****   * @attention
  62:../Libraries/STM32F30x_StdPeriph_Driver/src/stm32f30x_exti.c ****   *
  63:../Libraries/STM32F30x_StdPeriph_Driver/src/stm32f30x_exti.c ****   * <h2><center>&copy; COPYRIGHT 2012 STMicroelectronics</center></h2>
  64:../Libraries/STM32F30x_StdPeriph_Driver/src/stm32f30x_exti.c ****   *
  65:../Libraries/STM32F30x_StdPeriph_Driver/src/stm32f30x_exti.c ****   * Licensed under MCD-ST Liberty SW License Agreement V2, (the "License");
  66:../Libraries/STM32F30x_StdPeriph_Driver/src/stm32f30x_exti.c ****   * You may not use this file except in compliance with the License.
  67:../Libraries/STM32F30x_StdPeriph_Driver/src/stm32f30x_exti.c ****   * You may obtain a copy of the License at:
  68:../Libraries/STM32F30x_StdPeriph_Driver/src/stm32f30x_exti.c ****   *
  69:../Libraries/STM32F30x_StdPeriph_Driver/src/stm32f30x_exti.c ****   *        http://www.st.com/software_license_agreement_liberty_v2
  70:../Libraries/STM32F30x_StdPeriph_Driver/src/stm32f30x_exti.c ****   *
  71:../Libraries/STM32F30x_StdPeriph_Driver/src/stm32f30x_exti.c ****   * Unless required by applicable law or agreed to in writing, software 
  72:../Libraries/STM32F30x_StdPeriph_Driver/src/stm32f30x_exti.c ****   * distributed under the License is distributed on an "AS IS" BASIS, 
  73:../Libraries/STM32F30x_StdPeriph_Driver/src/stm32f30x_exti.c ****   * WITHOUT WARRANTIES OR CONDITIONS OF ANY KIND, either express or implied.
  74:../Libraries/STM32F30x_StdPeriph_Driver/src/stm32f30x_exti.c ****   * See the License for the specific language governing permissions and
  75:../Libraries/STM32F30x_StdPeriph_Driver/src/stm32f30x_exti.c ****   * limitations under the License.
  76:../Libraries/STM32F30x_StdPeriph_Driver/src/stm32f30x_exti.c ****   *
  77:../Libraries/STM32F30x_StdPeriph_Driver/src/stm32f30x_exti.c ****   ******************************************************************************
  78:../Libraries/STM32F30x_StdPeriph_Driver/src/stm32f30x_exti.c ****   */
  79:../Libraries/STM32F30x_StdPeriph_Driver/src/stm32f30x_exti.c **** 
  80:../Libraries/STM32F30x_StdPeriph_Driver/src/stm32f30x_exti.c **** /* Includes ------------------------------------------------------------------*/
  81:../Libraries/STM32F30x_StdPeriph_Driver/src/stm32f30x_exti.c **** #include "stm32f30x_exti.h"
  82:../Libraries/STM32F30x_StdPeriph_Driver/src/stm32f30x_exti.c **** 
  83:../Libraries/STM32F30x_StdPeriph_Driver/src/stm32f30x_exti.c **** /** @addtogroup STM32F30x_StdPeriph_Driver
  84:../Libraries/STM32F30x_StdPeriph_Driver/src/stm32f30x_exti.c ****   * @{
  85:../Libraries/STM32F30x_StdPeriph_Driver/src/stm32f30x_exti.c ****   */
  86:../Libraries/STM32F30x_StdPeriph_Driver/src/stm32f30x_exti.c **** 
  87:../Libraries/STM32F30x_StdPeriph_Driver/src/stm32f30x_exti.c **** /** @defgroup EXTI 
  88:../Libraries/STM32F30x_StdPeriph_Driver/src/stm32f30x_exti.c ****   * @brief EXTI driver modules
  89:../Libraries/STM32F30x_StdPeriph_Driver/src/stm32f30x_exti.c ****   * @{
  90:../Libraries/STM32F30x_StdPeriph_Driver/src/stm32f30x_exti.c ****   */
  91:../Libraries/STM32F30x_StdPeriph_Driver/src/stm32f30x_exti.c **** 
  92:../Libraries/STM32F30x_StdPeriph_Driver/src/stm32f30x_exti.c **** 
  93:../Libraries/STM32F30x_StdPeriph_Driver/src/stm32f30x_exti.c **** /* Private typedef -----------------------------------------------------------*/
  94:../Libraries/STM32F30x_StdPeriph_Driver/src/stm32f30x_exti.c **** /* Private define ------------------------------------------------------------*/
  95:../Libraries/STM32F30x_StdPeriph_Driver/src/stm32f30x_exti.c **** #define EXTI_LINENONE     ((uint32_t)0x00000)        /* No interrupt selected */
  96:../Libraries/STM32F30x_StdPeriph_Driver/src/stm32f30x_exti.c **** 
  97:../Libraries/STM32F30x_StdPeriph_Driver/src/stm32f30x_exti.c **** /* Private macro -------------------------------------------------------------*/
  98:../Libraries/STM32F30x_StdPeriph_Driver/src/stm32f30x_exti.c **** /* Private variables ---------------------------------------------------------*/
  99:../Libraries/STM32F30x_StdPeriph_Driver/src/stm32f30x_exti.c **** /* Private function prototypes -----------------------------------------------*/
 100:../Libraries/STM32F30x_StdPeriph_Driver/src/stm32f30x_exti.c **** /* Private functions ---------------------------------------------------------*/
 101:../Libraries/STM32F30x_StdPeriph_Driver/src/stm32f30x_exti.c **** 
 102:../Libraries/STM32F30x_StdPeriph_Driver/src/stm32f30x_exti.c **** /** @defgroup EXTI_Private_Functions 
 103:../Libraries/STM32F30x_StdPeriph_Driver/src/stm32f30x_exti.c ****   * @{
 104:../Libraries/STM32F30x_StdPeriph_Driver/src/stm32f30x_exti.c ****   */
 105:../Libraries/STM32F30x_StdPeriph_Driver/src/stm32f30x_exti.c **** 
 106:../Libraries/STM32F30x_StdPeriph_Driver/src/stm32f30x_exti.c **** /** @defgroup EXTI_Group1 Initialization and Configuration functions
 107:../Libraries/STM32F30x_StdPeriph_Driver/src/stm32f30x_exti.c ****  *  @brief   Initialization and Configuration functions
 108:../Libraries/STM32F30x_StdPeriph_Driver/src/stm32f30x_exti.c ****  *
 109:../Libraries/STM32F30x_StdPeriph_Driver/src/stm32f30x_exti.c **** @verbatim
 110:../Libraries/STM32F30x_StdPeriph_Driver/src/stm32f30x_exti.c ****  ===============================================================================
 111:../Libraries/STM32F30x_StdPeriph_Driver/src/stm32f30x_exti.c ****               ##### Initialization and Configuration functions #####
 112:../Libraries/STM32F30x_StdPeriph_Driver/src/stm32f30x_exti.c ****  ===============================================================================
 113:../Libraries/STM32F30x_StdPeriph_Driver/src/stm32f30x_exti.c **** 
 114:../Libraries/STM32F30x_StdPeriph_Driver/src/stm32f30x_exti.c **** @endverbatim
 115:../Libraries/STM32F30x_StdPeriph_Driver/src/stm32f30x_exti.c ****   * @{
 116:../Libraries/STM32F30x_StdPeriph_Driver/src/stm32f30x_exti.c ****   */
 117:../Libraries/STM32F30x_StdPeriph_Driver/src/stm32f30x_exti.c ****     
 118:../Libraries/STM32F30x_StdPeriph_Driver/src/stm32f30x_exti.c **** /**
 119:../Libraries/STM32F30x_StdPeriph_Driver/src/stm32f30x_exti.c ****   * @brief  Deinitializes the EXTI peripheral registers to their default reset 
 120:../Libraries/STM32F30x_StdPeriph_Driver/src/stm32f30x_exti.c ****   *         values.
 121:../Libraries/STM32F30x_StdPeriph_Driver/src/stm32f30x_exti.c ****   * @param  None
 122:../Libraries/STM32F30x_StdPeriph_Driver/src/stm32f30x_exti.c ****   * @retval None
 123:../Libraries/STM32F30x_StdPeriph_Driver/src/stm32f30x_exti.c ****   */
 124:../Libraries/STM32F30x_StdPeriph_Driver/src/stm32f30x_exti.c **** void EXTI_DeInit(void)
 125:../Libraries/STM32F30x_StdPeriph_Driver/src/stm32f30x_exti.c **** {
  27              		.loc 1 125 0
  28              		.cfi_startproc
  29              		@ args = 0, pretend = 0, frame = 0
  30              		@ frame_needed = 0, uses_anonymous_args = 0
  31              		@ link register save eliminated.
 126:../Libraries/STM32F30x_StdPeriph_Driver/src/stm32f30x_exti.c ****   EXTI->IMR    = 0x1F800000;
  32              		.loc 1 126 0
  33 0000 4FF48063 		mov	r3, #1024
  34 0004 C4F20103 		movt	r3, 16385
  35 0008 4FF0FC52 		mov	r2, #528482304
  36 000c 1A60     		str	r2, [r3, #0]
 127:../Libraries/STM32F30x_StdPeriph_Driver/src/stm32f30x_exti.c ****   EXTI->EMR    = 0x00000000;
  37              		.loc 1 127 0
  38 000e 4FF48063 		mov	r3, #1024
  39 0012 C4F20103 		movt	r3, 16385
  40 0016 4FF00002 		mov	r2, #0
  41 001a 5A60     		str	r2, [r3, #4]
 128:../Libraries/STM32F30x_StdPeriph_Driver/src/stm32f30x_exti.c ****   EXTI->RTSR   = 0x00000000;
  42              		.loc 1 128 0
  43 001c 4FF48063 		mov	r3, #1024
  44 0020 C4F20103 		movt	r3, 16385
  45 0024 4FF00002 		mov	r2, #0
  46 0028 9A60     		str	r2, [r3, #8]
 129:../Libraries/STM32F30x_StdPeriph_Driver/src/stm32f30x_exti.c ****   EXTI->FTSR   = 0x00000000;
  47              		.loc 1 129 0
  48 002a 4FF48063 		mov	r3, #1024
  49 002e C4F20103 		movt	r3, 16385
  50 0032 4FF00002 		mov	r2, #0
  51 0036 DA60     		str	r2, [r3, #12]
 130:../Libraries/STM32F30x_StdPeriph_Driver/src/stm32f30x_exti.c ****   EXTI->SWIER  = 0x00000000;
  52              		.loc 1 130 0
  53 0038 4FF48063 		mov	r3, #1024
  54 003c C4F20103 		movt	r3, 16385
  55 0040 4FF00002 		mov	r2, #0
  56 0044 1A61     		str	r2, [r3, #16]
 131:../Libraries/STM32F30x_StdPeriph_Driver/src/stm32f30x_exti.c ****   EXTI->PR     = 0xE07FFFFF;
  57              		.loc 1 131 0
  58 0046 4FF48063 		mov	r3, #1024
  59 004a C4F20103 		movt	r3, 16385
  60 004e 6FF0FC52 		mvn	r2, #528482304
  61 0052 5A61     		str	r2, [r3, #20]
 132:../Libraries/STM32F30x_StdPeriph_Driver/src/stm32f30x_exti.c ****   EXTI->IMR2   = 0x0000000C;
  62              		.loc 1 132 0
  63 0054 4FF48063 		mov	r3, #1024
  64 0058 C4F20103 		movt	r3, 16385
  65 005c 4FF00C02 		mov	r2, #12
  66 0060 1A62     		str	r2, [r3, #32]
 133:../Libraries/STM32F30x_StdPeriph_Driver/src/stm32f30x_exti.c ****   EXTI->EMR2   = 0x00000000;
  67              		.loc 1 133 0
  68 0062 4FF48063 		mov	r3, #1024
  69 0066 C4F20103 		movt	r3, 16385
  70 006a 4FF00002 		mov	r2, #0
  71 006e 5A62     		str	r2, [r3, #36]
 134:../Libraries/STM32F30x_StdPeriph_Driver/src/stm32f30x_exti.c ****   EXTI->RTSR2  = 0x00000000;
  72              		.loc 1 134 0
  73 0070 4FF48063 		mov	r3, #1024
  74 0074 C4F20103 		movt	r3, 16385
  75 0078 4FF00002 		mov	r2, #0
  76 007c 9A62     		str	r2, [r3, #40]
 135:../Libraries/STM32F30x_StdPeriph_Driver/src/stm32f30x_exti.c ****   EXTI->FTSR2  = 0x00000000;
  77              		.loc 1 135 0
  78 007e 4FF48063 		mov	r3, #1024
  79 0082 C4F20103 		movt	r3, 16385
  80 0086 4FF00002 		mov	r2, #0
  81 008a DA62     		str	r2, [r3, #44]
 136:../Libraries/STM32F30x_StdPeriph_Driver/src/stm32f30x_exti.c ****   EXTI->SWIER2 = 0x00000000;
  82              		.loc 1 136 0
  83 008c 4FF48063 		mov	r3, #1024
  84 0090 C4F20103 		movt	r3, 16385
  85 0094 4FF00002 		mov	r2, #0
  86 0098 1A63     		str	r2, [r3, #48]
 137:../Libraries/STM32F30x_StdPeriph_Driver/src/stm32f30x_exti.c ****   EXTI->PR2    = 0x00000003;
  87              		.loc 1 137 0
  88 009a 4FF48063 		mov	r3, #1024
  89 009e C4F20103 		movt	r3, 16385
  90 00a2 4FF00302 		mov	r2, #3
  91 00a6 5A63     		str	r2, [r3, #52]
 138:../Libraries/STM32F30x_StdPeriph_Driver/src/stm32f30x_exti.c **** }
  92              		.loc 1 138 0
  93 00a8 7047     		bx	lr
  94              		.cfi_endproc
  95              	.LFE111:
  97 00aa 00BF     		.align	2
  98              		.global	EXTI_Init
  99              		.thumb
 100              		.thumb_func
 102              	EXTI_Init:
 103              	.LFB112:
 139:../Libraries/STM32F30x_StdPeriph_Driver/src/stm32f30x_exti.c **** 
 140:../Libraries/STM32F30x_StdPeriph_Driver/src/stm32f30x_exti.c **** /**
 141:../Libraries/STM32F30x_StdPeriph_Driver/src/stm32f30x_exti.c ****   * @brief  Initializes the EXTI peripheral according to the specified
 142:../Libraries/STM32F30x_StdPeriph_Driver/src/stm32f30x_exti.c ****   *         parameters in the EXTI_InitStruct.
 143:../Libraries/STM32F30x_StdPeriph_Driver/src/stm32f30x_exti.c ****   *    EXTI_Line specifies the EXTI line (EXTI0....EXTI35).
 144:../Libraries/STM32F30x_StdPeriph_Driver/src/stm32f30x_exti.c ****   *    EXTI_Mode specifies which EXTI line is used as interrupt or an event.
 145:../Libraries/STM32F30x_StdPeriph_Driver/src/stm32f30x_exti.c ****   *    EXTI_Trigger selects the trigger. When the trigger occurs, interrupt
 146:../Libraries/STM32F30x_StdPeriph_Driver/src/stm32f30x_exti.c ****   *                 pending bit will be set.
 147:../Libraries/STM32F30x_StdPeriph_Driver/src/stm32f30x_exti.c ****   *    EXTI_LineCmd controls (Enable/Disable) the EXTI line.
 148:../Libraries/STM32F30x_StdPeriph_Driver/src/stm32f30x_exti.c ****   * @param  EXTI_InitStruct: pointer to a EXTI_InitTypeDef structure that 
 149:../Libraries/STM32F30x_StdPeriph_Driver/src/stm32f30x_exti.c ****   *         contains the configuration information for the EXTI peripheral.
 150:../Libraries/STM32F30x_StdPeriph_Driver/src/stm32f30x_exti.c ****   * @retval None
 151:../Libraries/STM32F30x_StdPeriph_Driver/src/stm32f30x_exti.c ****   */
 152:../Libraries/STM32F30x_StdPeriph_Driver/src/stm32f30x_exti.c ****   
 153:../Libraries/STM32F30x_StdPeriph_Driver/src/stm32f30x_exti.c **** 
 154:../Libraries/STM32F30x_StdPeriph_Driver/src/stm32f30x_exti.c **** void EXTI_Init(EXTI_InitTypeDef* EXTI_InitStruct)
 155:../Libraries/STM32F30x_StdPeriph_Driver/src/stm32f30x_exti.c **** {
 104              		.loc 1 155 0
 105              		.cfi_startproc
 106              		@ args = 0, pretend = 0, frame = 16
 107              		@ frame_needed = 0, uses_anonymous_args = 0
 108              		@ link register save eliminated.
 109 00ac 84B0     		sub	sp, sp, #16
 110              	.LCFI0:
 111              		.cfi_def_cfa_offset 16
 112 00ae 0190     		str	r0, [sp, #4]
 156:../Libraries/STM32F30x_StdPeriph_Driver/src/stm32f30x_exti.c ****   uint32_t tmp = 0;
 113              		.loc 1 156 0
 114 00b0 4FF00003 		mov	r3, #0
 115 00b4 0393     		str	r3, [sp, #12]
 157:../Libraries/STM32F30x_StdPeriph_Driver/src/stm32f30x_exti.c **** 
 158:../Libraries/STM32F30x_StdPeriph_Driver/src/stm32f30x_exti.c ****   /* Check the parameters */
 159:../Libraries/STM32F30x_StdPeriph_Driver/src/stm32f30x_exti.c ****   assert_param(IS_EXTI_MODE(EXTI_InitStruct->EXTI_Mode));
 160:../Libraries/STM32F30x_StdPeriph_Driver/src/stm32f30x_exti.c ****   assert_param(IS_EXTI_TRIGGER(EXTI_InitStruct->EXTI_Trigger));
 161:../Libraries/STM32F30x_StdPeriph_Driver/src/stm32f30x_exti.c ****   assert_param(IS_EXTI_LINE_ALL(EXTI_InitStruct->EXTI_Line));
 162:../Libraries/STM32F30x_StdPeriph_Driver/src/stm32f30x_exti.c ****   assert_param(IS_FUNCTIONAL_STATE(EXTI_InitStruct->EXTI_LineCmd));
 163:../Libraries/STM32F30x_StdPeriph_Driver/src/stm32f30x_exti.c **** 
 164:../Libraries/STM32F30x_StdPeriph_Driver/src/stm32f30x_exti.c ****   tmp = (uint32_t)EXTI_BASE;
 116              		.loc 1 164 0
 117 00b6 4FF48063 		mov	r3, #1024
 118 00ba C4F20103 		movt	r3, 16385
 119 00be 0393     		str	r3, [sp, #12]
 165:../Libraries/STM32F30x_StdPeriph_Driver/src/stm32f30x_exti.c ****       
 166:../Libraries/STM32F30x_StdPeriph_Driver/src/stm32f30x_exti.c ****   if (EXTI_InitStruct->EXTI_LineCmd != DISABLE)
 120              		.loc 1 166 0
 121 00c0 019B     		ldr	r3, [sp, #4]
 122 00c2 9B79     		ldrb	r3, [r3, #6]	@ zero_extendqisi2
 123 00c4 002B     		cmp	r3, #0
 124 00c6 00F01181 		beq	.L3
 167:../Libraries/STM32F30x_StdPeriph_Driver/src/stm32f30x_exti.c ****   {
 168:../Libraries/STM32F30x_StdPeriph_Driver/src/stm32f30x_exti.c ****     /* Clear EXTI line configuration */   
 169:../Libraries/STM32F30x_StdPeriph_Driver/src/stm32f30x_exti.c ****     *(__IO uint32_t *) (((uint32_t) &(EXTI->IMR)) + ((EXTI_InitStruct->EXTI_Line) >> 5 ) * 0x20) &=
 125              		.loc 1 169 0
 126 00ca 019B     		ldr	r3, [sp, #4]
 127 00cc 1B68     		ldr	r3, [r3, #0]
 128 00ce 4FEA5313 		lsr	r3, r3, #5
 129 00d2 03F10073 		add	r3, r3, #33554432
 130 00d6 03F50263 		add	r3, r3, #2080
 131 00da 4FEA4313 		lsl	r3, r3, #5
 132 00de 1A46     		mov	r2, r3
 133 00e0 019B     		ldr	r3, [sp, #4]
 134 00e2 1B68     		ldr	r3, [r3, #0]
 135 00e4 4FEA5313 		lsr	r3, r3, #5
 136 00e8 03F10073 		add	r3, r3, #33554432
 137 00ec 03F50263 		add	r3, r3, #2080
 138 00f0 4FEA4313 		lsl	r3, r3, #5
 139 00f4 1968     		ldr	r1, [r3, #0]
 140 00f6 019B     		ldr	r3, [sp, #4]
 141 00f8 1B68     		ldr	r3, [r3, #0]
 142 00fa 03F01F03 		and	r3, r3, #31
 143 00fe 4FF00100 		mov	r0, #1
 144 0102 00FA03F3 		lsl	r3, r0, r3
 145 0106 6FEA0303 		mvn	r3, r3
 146 010a 0B40     		ands	r3, r3, r1
 147 010c 1360     		str	r3, [r2, #0]
 170:../Libraries/STM32F30x_StdPeriph_Driver/src/stm32f30x_exti.c ****     *(__IO uint32_t *) (((uint32_t) &(EXTI->EMR)) + ((EXTI_InitStruct->EXTI_Line) >> 5 ) * 0x20) &=
 148              		.loc 1 170 0
 149 010e 019B     		ldr	r3, [sp, #4]
 150 0110 1B68     		ldr	r3, [r3, #0]
 151 0112 4FEA5313 		lsr	r3, r3, #5
 152 0116 4FEA4312 		lsl	r2, r3, #5
 153 011a 40F20443 		movw	r3, #1028
 154 011e C4F20103 		movt	r3, 16385
 155 0122 D318     		adds	r3, r2, r3
 156 0124 1A46     		mov	r2, r3
 157 0126 019B     		ldr	r3, [sp, #4]
 158 0128 1B68     		ldr	r3, [r3, #0]
 159 012a 4FEA5313 		lsr	r3, r3, #5
 160 012e 4FEA4311 		lsl	r1, r3, #5
 161 0132 40F20443 		movw	r3, #1028
 162 0136 C4F20103 		movt	r3, 16385
 163 013a CB18     		adds	r3, r1, r3
 164 013c 1968     		ldr	r1, [r3, #0]
 165 013e 019B     		ldr	r3, [sp, #4]
 166 0140 1B68     		ldr	r3, [r3, #0]
 167 0142 03F01F03 		and	r3, r3, #31
 168 0146 4FF00100 		mov	r0, #1
 169 014a 00FA03F3 		lsl	r3, r0, r3
 170 014e 6FEA0303 		mvn	r3, r3
 171 0152 0B40     		ands	r3, r3, r1
 172 0154 1360     		str	r3, [r2, #0]
 171:../Libraries/STM32F30x_StdPeriph_Driver/src/stm32f30x_exti.c ****      
 172:../Libraries/STM32F30x_StdPeriph_Driver/src/stm32f30x_exti.c ****     tmp += EXTI_InitStruct->EXTI_Mode + (((EXTI_InitStruct->EXTI_Line) >> 5 ) * 0x20);
 173              		.loc 1 172 0
 174 0156 019B     		ldr	r3, [sp, #4]
 175 0158 1B79     		ldrb	r3, [r3, #4]	@ zero_extendqisi2
 176 015a 1A46     		mov	r2, r3
 177 015c 019B     		ldr	r3, [sp, #4]
 178 015e 1B68     		ldr	r3, [r3, #0]
 179 0160 4FEA5313 		lsr	r3, r3, #5
 180 0164 4FEA4313 		lsl	r3, r3, #5
 181 0168 D318     		adds	r3, r2, r3
 182 016a 039A     		ldr	r2, [sp, #12]
 183 016c D318     		adds	r3, r2, r3
 184 016e 0393     		str	r3, [sp, #12]
 173:../Libraries/STM32F30x_StdPeriph_Driver/src/stm32f30x_exti.c **** 
 174:../Libraries/STM32F30x_StdPeriph_Driver/src/stm32f30x_exti.c ****     *(__IO uint32_t *) tmp |= (uint32_t)(1 << (EXTI_InitStruct->EXTI_Line & 0x1F));
 185              		.loc 1 174 0
 186 0170 039B     		ldr	r3, [sp, #12]
 187 0172 039A     		ldr	r2, [sp, #12]
 188 0174 1168     		ldr	r1, [r2, #0]
 189 0176 019A     		ldr	r2, [sp, #4]
 190 0178 1268     		ldr	r2, [r2, #0]
 191 017a 02F01F02 		and	r2, r2, #31
 192 017e 4FF00100 		mov	r0, #1
 193 0182 00FA02F2 		lsl	r2, r0, r2
 194 0186 0A43     		orrs	r2, r2, r1
 195 0188 1A60     		str	r2, [r3, #0]
 175:../Libraries/STM32F30x_StdPeriph_Driver/src/stm32f30x_exti.c ****     
 176:../Libraries/STM32F30x_StdPeriph_Driver/src/stm32f30x_exti.c ****     tmp = (uint32_t)EXTI_BASE;
 196              		.loc 1 176 0
 197 018a 4FF48063 		mov	r3, #1024
 198 018e C4F20103 		movt	r3, 16385
 199 0192 0393     		str	r3, [sp, #12]
 177:../Libraries/STM32F30x_StdPeriph_Driver/src/stm32f30x_exti.c **** 
 178:../Libraries/STM32F30x_StdPeriph_Driver/src/stm32f30x_exti.c ****     /* Clear Rising Falling edge configuration */
 179:../Libraries/STM32F30x_StdPeriph_Driver/src/stm32f30x_exti.c ****     *(__IO uint32_t *) (((uint32_t) &(EXTI->RTSR)) + ((EXTI_InitStruct->EXTI_Line) >> 5 ) * 0x20) &
 200              		.loc 1 179 0
 201 0194 019B     		ldr	r3, [sp, #4]
 202 0196 1B68     		ldr	r3, [r3, #0]
 203 0198 4FEA5313 		lsr	r3, r3, #5
 204 019c 4FEA4312 		lsl	r2, r3, #5
 205 01a0 4FF48163 		mov	r3, #1032
 206 01a4 C4F20103 		movt	r3, 16385
 207 01a8 D318     		adds	r3, r2, r3
 208 01aa 1A46     		mov	r2, r3
 209 01ac 019B     		ldr	r3, [sp, #4]
 210 01ae 1B68     		ldr	r3, [r3, #0]
 211 01b0 4FEA5313 		lsr	r3, r3, #5
 212 01b4 4FEA4311 		lsl	r1, r3, #5
 213 01b8 4FF48163 		mov	r3, #1032
 214 01bc C4F20103 		movt	r3, 16385
 215 01c0 CB18     		adds	r3, r1, r3
 216 01c2 1968     		ldr	r1, [r3, #0]
 217 01c4 019B     		ldr	r3, [sp, #4]
 218 01c6 1B68     		ldr	r3, [r3, #0]
 219 01c8 03F01F03 		and	r3, r3, #31
 220 01cc 4FF00100 		mov	r0, #1
 221 01d0 00FA03F3 		lsl	r3, r0, r3
 222 01d4 6FEA0303 		mvn	r3, r3
 223 01d8 0B40     		ands	r3, r3, r1
 224 01da 1360     		str	r3, [r2, #0]
 180:../Libraries/STM32F30x_StdPeriph_Driver/src/stm32f30x_exti.c ****     *(__IO uint32_t *) (((uint32_t) &(EXTI->FTSR)) + ((EXTI_InitStruct->EXTI_Line) >> 5 ) * 0x20) &
 225              		.loc 1 180 0
 226 01dc 019B     		ldr	r3, [sp, #4]
 227 01de 1B68     		ldr	r3, [r3, #0]
 228 01e0 4FEA5313 		lsr	r3, r3, #5
 229 01e4 4FEA4312 		lsl	r2, r3, #5
 230 01e8 40F20C43 		movw	r3, #1036
 231 01ec C4F20103 		movt	r3, 16385
 232 01f0 D318     		adds	r3, r2, r3
 233 01f2 1A46     		mov	r2, r3
 234 01f4 019B     		ldr	r3, [sp, #4]
 235 01f6 1B68     		ldr	r3, [r3, #0]
 236 01f8 4FEA5313 		lsr	r3, r3, #5
 237 01fc 4FEA4311 		lsl	r1, r3, #5
 238 0200 40F20C43 		movw	r3, #1036
 239 0204 C4F20103 		movt	r3, 16385
 240 0208 CB18     		adds	r3, r1, r3
 241 020a 1968     		ldr	r1, [r3, #0]
 242 020c 019B     		ldr	r3, [sp, #4]
 243 020e 1B68     		ldr	r3, [r3, #0]
 244 0210 03F01F03 		and	r3, r3, #31
 245 0214 4FF00100 		mov	r0, #1
 246 0218 00FA03F3 		lsl	r3, r0, r3
 247 021c 6FEA0303 		mvn	r3, r3
 248 0220 0B40     		ands	r3, r3, r1
 249 0222 1360     		str	r3, [r2, #0]
 181:../Libraries/STM32F30x_StdPeriph_Driver/src/stm32f30x_exti.c ****     
 182:../Libraries/STM32F30x_StdPeriph_Driver/src/stm32f30x_exti.c ****       /* Select the trigger for the selected interrupts */
 183:../Libraries/STM32F30x_StdPeriph_Driver/src/stm32f30x_exti.c ****     if (EXTI_InitStruct->EXTI_Trigger == EXTI_Trigger_Rising_Falling)
 250              		.loc 1 183 0
 251 0224 019B     		ldr	r3, [sp, #4]
 252 0226 5B79     		ldrb	r3, [r3, #5]	@ zero_extendqisi2
 253 0228 102B     		cmp	r3, #16
 254 022a 44D1     		bne	.L4
 184:../Libraries/STM32F30x_StdPeriph_Driver/src/stm32f30x_exti.c ****     {
 185:../Libraries/STM32F30x_StdPeriph_Driver/src/stm32f30x_exti.c ****       /* Rising Falling edge */
 186:../Libraries/STM32F30x_StdPeriph_Driver/src/stm32f30x_exti.c ****     *(__IO uint32_t *) (((uint32_t) &(EXTI->RTSR)) + ((EXTI_InitStruct->EXTI_Line) >> 5 ) * 0x20) |
 255              		.loc 1 186 0
 256 022c 019B     		ldr	r3, [sp, #4]
 257 022e 1B68     		ldr	r3, [r3, #0]
 258 0230 4FEA5313 		lsr	r3, r3, #5
 259 0234 4FEA4312 		lsl	r2, r3, #5
 260 0238 4FF48163 		mov	r3, #1032
 261 023c C4F20103 		movt	r3, 16385
 262 0240 D318     		adds	r3, r2, r3
 263 0242 1A46     		mov	r2, r3
 264 0244 019B     		ldr	r3, [sp, #4]
 265 0246 1B68     		ldr	r3, [r3, #0]
 266 0248 4FEA5313 		lsr	r3, r3, #5
 267 024c 4FEA4311 		lsl	r1, r3, #5
 268 0250 4FF48163 		mov	r3, #1032
 269 0254 C4F20103 		movt	r3, 16385
 270 0258 CB18     		adds	r3, r1, r3
 271 025a 1968     		ldr	r1, [r3, #0]
 272 025c 019B     		ldr	r3, [sp, #4]
 273 025e 1B68     		ldr	r3, [r3, #0]
 274 0260 03F01F03 		and	r3, r3, #31
 275 0264 4FF00100 		mov	r0, #1
 276 0268 00FA03F3 		lsl	r3, r0, r3
 277 026c 0B43     		orrs	r3, r3, r1
 278 026e 1360     		str	r3, [r2, #0]
 187:../Libraries/STM32F30x_StdPeriph_Driver/src/stm32f30x_exti.c ****     *(__IO uint32_t *) (((uint32_t) &(EXTI->FTSR)) + ((EXTI_InitStruct->EXTI_Line) >> 5 ) * 0x20) |
 279              		.loc 1 187 0
 280 0270 019B     		ldr	r3, [sp, #4]
 281 0272 1B68     		ldr	r3, [r3, #0]
 282 0274 4FEA5313 		lsr	r3, r3, #5
 283 0278 4FEA4312 		lsl	r2, r3, #5
 284 027c 40F20C43 		movw	r3, #1036
 285 0280 C4F20103 		movt	r3, 16385
 286 0284 D318     		adds	r3, r2, r3
 287 0286 1A46     		mov	r2, r3
 288 0288 019B     		ldr	r3, [sp, #4]
 289 028a 1B68     		ldr	r3, [r3, #0]
 290 028c 4FEA5313 		lsr	r3, r3, #5
 291 0290 4FEA4311 		lsl	r1, r3, #5
 292 0294 40F20C43 		movw	r3, #1036
 293 0298 C4F20103 		movt	r3, 16385
 294 029c CB18     		adds	r3, r1, r3
 295 029e 1968     		ldr	r1, [r3, #0]
 296 02a0 019B     		ldr	r3, [sp, #4]
 297 02a2 1B68     		ldr	r3, [r3, #0]
 298 02a4 03F01F03 		and	r3, r3, #31
 299 02a8 4FF00100 		mov	r0, #1
 300 02ac 00FA03F3 		lsl	r3, r0, r3
 301 02b0 0B43     		orrs	r3, r3, r1
 302 02b2 1360     		str	r3, [r2, #0]
 303 02b4 36E0     		b	.L2
 304              	.L4:
 188:../Libraries/STM32F30x_StdPeriph_Driver/src/stm32f30x_exti.c ****     }
 189:../Libraries/STM32F30x_StdPeriph_Driver/src/stm32f30x_exti.c ****     else
 190:../Libraries/STM32F30x_StdPeriph_Driver/src/stm32f30x_exti.c ****     {
 191:../Libraries/STM32F30x_StdPeriph_Driver/src/stm32f30x_exti.c ****       tmp += EXTI_InitStruct->EXTI_Trigger + (((EXTI_InitStruct->EXTI_Line) >> 5 ) * 0x20);
 305              		.loc 1 191 0
 306 02b6 019B     		ldr	r3, [sp, #4]
 307 02b8 5B79     		ldrb	r3, [r3, #5]	@ zero_extendqisi2
 308 02ba 1A46     		mov	r2, r3
 309 02bc 019B     		ldr	r3, [sp, #4]
 310 02be 1B68     		ldr	r3, [r3, #0]
 311 02c0 4FEA5313 		lsr	r3, r3, #5
 312 02c4 4FEA4313 		lsl	r3, r3, #5
 313 02c8 D318     		adds	r3, r2, r3
 314 02ca 039A     		ldr	r2, [sp, #12]
 315 02cc D318     		adds	r3, r2, r3
 316 02ce 0393     		str	r3, [sp, #12]
 192:../Libraries/STM32F30x_StdPeriph_Driver/src/stm32f30x_exti.c **** 
 193:../Libraries/STM32F30x_StdPeriph_Driver/src/stm32f30x_exti.c ****       *(__IO uint32_t *) tmp |= (uint32_t)(1 << (EXTI_InitStruct->EXTI_Line & 0x1F));
 317              		.loc 1 193 0
 318 02d0 039B     		ldr	r3, [sp, #12]
 319 02d2 039A     		ldr	r2, [sp, #12]
 320 02d4 1168     		ldr	r1, [r2, #0]
 321 02d6 019A     		ldr	r2, [sp, #4]
 322 02d8 1268     		ldr	r2, [r2, #0]
 323 02da 02F01F02 		and	r2, r2, #31
 324 02de 4FF00100 		mov	r0, #1
 325 02e2 00FA02F2 		lsl	r2, r0, r2
 326 02e6 0A43     		orrs	r2, r2, r1
 327 02e8 1A60     		str	r2, [r3, #0]
 328 02ea 1BE0     		b	.L2
 329              	.L3:
 194:../Libraries/STM32F30x_StdPeriph_Driver/src/stm32f30x_exti.c ****     }
 195:../Libraries/STM32F30x_StdPeriph_Driver/src/stm32f30x_exti.c ****   }
 196:../Libraries/STM32F30x_StdPeriph_Driver/src/stm32f30x_exti.c ****       
 197:../Libraries/STM32F30x_StdPeriph_Driver/src/stm32f30x_exti.c ****   else
 198:../Libraries/STM32F30x_StdPeriph_Driver/src/stm32f30x_exti.c ****   {
 199:../Libraries/STM32F30x_StdPeriph_Driver/src/stm32f30x_exti.c ****     tmp += EXTI_InitStruct->EXTI_Mode + (((EXTI_InitStruct->EXTI_Line) >> 5 ) * 0x20);
 330              		.loc 1 199 0
 331 02ec 019B     		ldr	r3, [sp, #4]
 332 02ee 1B79     		ldrb	r3, [r3, #4]	@ zero_extendqisi2
 333 02f0 1A46     		mov	r2, r3
 334 02f2 019B     		ldr	r3, [sp, #4]
 335 02f4 1B68     		ldr	r3, [r3, #0]
 336 02f6 4FEA5313 		lsr	r3, r3, #5
 337 02fa 4FEA4313 		lsl	r3, r3, #5
 338 02fe D318     		adds	r3, r2, r3
 339 0300 039A     		ldr	r2, [sp, #12]
 340 0302 D318     		adds	r3, r2, r3
 341 0304 0393     		str	r3, [sp, #12]
 200:../Libraries/STM32F30x_StdPeriph_Driver/src/stm32f30x_exti.c **** 
 201:../Libraries/STM32F30x_StdPeriph_Driver/src/stm32f30x_exti.c ****     /* Disable the selected external lines */
 202:../Libraries/STM32F30x_StdPeriph_Driver/src/stm32f30x_exti.c ****     *(__IO uint32_t *) tmp &= ~(uint32_t)(1 << (EXTI_InitStruct->EXTI_Line & 0x1F));
 342              		.loc 1 202 0
 343 0306 039B     		ldr	r3, [sp, #12]
 344 0308 039A     		ldr	r2, [sp, #12]
 345 030a 1168     		ldr	r1, [r2, #0]
 346 030c 019A     		ldr	r2, [sp, #4]
 347 030e 1268     		ldr	r2, [r2, #0]
 348 0310 02F01F02 		and	r2, r2, #31
 349 0314 4FF00100 		mov	r0, #1
 350 0318 00FA02F2 		lsl	r2, r0, r2
 351 031c 6FEA0202 		mvn	r2, r2
 352 0320 0A40     		ands	r2, r2, r1
 353 0322 1A60     		str	r2, [r3, #0]
 354              	.L2:
 203:../Libraries/STM32F30x_StdPeriph_Driver/src/stm32f30x_exti.c ****   }
 204:../Libraries/STM32F30x_StdPeriph_Driver/src/stm32f30x_exti.c ****          
 205:../Libraries/STM32F30x_StdPeriph_Driver/src/stm32f30x_exti.c **** }
 355              		.loc 1 205 0
 356 0324 04B0     		add	sp, sp, #16
 357 0326 7047     		bx	lr
 358              		.cfi_endproc
 359              	.LFE112:
 361              		.align	2
 362              		.global	EXTI_StructInit
 363              		.thumb
 364              		.thumb_func
 366              	EXTI_StructInit:
 367              	.LFB113:
 206:../Libraries/STM32F30x_StdPeriph_Driver/src/stm32f30x_exti.c **** 
 207:../Libraries/STM32F30x_StdPeriph_Driver/src/stm32f30x_exti.c **** /**
 208:../Libraries/STM32F30x_StdPeriph_Driver/src/stm32f30x_exti.c ****   * @brief  Fills each EXTI_InitStruct member with its reset value.
 209:../Libraries/STM32F30x_StdPeriph_Driver/src/stm32f30x_exti.c ****   * @param  EXTI_InitStruct: pointer to a EXTI_InitTypeDef structure which will
 210:../Libraries/STM32F30x_StdPeriph_Driver/src/stm32f30x_exti.c ****   *         be initialized.
 211:../Libraries/STM32F30x_StdPeriph_Driver/src/stm32f30x_exti.c ****   * @retval None
 212:../Libraries/STM32F30x_StdPeriph_Driver/src/stm32f30x_exti.c ****   */
 213:../Libraries/STM32F30x_StdPeriph_Driver/src/stm32f30x_exti.c **** void EXTI_StructInit(EXTI_InitTypeDef* EXTI_InitStruct)
 214:../Libraries/STM32F30x_StdPeriph_Driver/src/stm32f30x_exti.c **** {
 368              		.loc 1 214 0
 369              		.cfi_startproc
 370              		@ args = 0, pretend = 0, frame = 8
 371              		@ frame_needed = 0, uses_anonymous_args = 0
 372              		@ link register save eliminated.
 373 0328 82B0     		sub	sp, sp, #8
 374              	.LCFI1:
 375              		.cfi_def_cfa_offset 8
 376 032a 0190     		str	r0, [sp, #4]
 215:../Libraries/STM32F30x_StdPeriph_Driver/src/stm32f30x_exti.c ****   EXTI_InitStruct->EXTI_Line = EXTI_LINENONE;
 377              		.loc 1 215 0
 378 032c 019B     		ldr	r3, [sp, #4]
 379 032e 4FF00002 		mov	r2, #0
 380 0332 1A60     		str	r2, [r3, #0]
 216:../Libraries/STM32F30x_StdPeriph_Driver/src/stm32f30x_exti.c ****   EXTI_InitStruct->EXTI_Mode = EXTI_Mode_Interrupt;
 381              		.loc 1 216 0
 382 0334 019B     		ldr	r3, [sp, #4]
 383 0336 4FF00002 		mov	r2, #0
 384 033a 1A71     		strb	r2, [r3, #4]
 217:../Libraries/STM32F30x_StdPeriph_Driver/src/stm32f30x_exti.c ****   EXTI_InitStruct->EXTI_Trigger = EXTI_Trigger_Rising_Falling;
 385              		.loc 1 217 0
 386 033c 019B     		ldr	r3, [sp, #4]
 387 033e 4FF01002 		mov	r2, #16
 388 0342 5A71     		strb	r2, [r3, #5]
 218:../Libraries/STM32F30x_StdPeriph_Driver/src/stm32f30x_exti.c ****   EXTI_InitStruct->EXTI_LineCmd = DISABLE;
 389              		.loc 1 218 0
 390 0344 019B     		ldr	r3, [sp, #4]
 391 0346 4FF00002 		mov	r2, #0
 392 034a 9A71     		strb	r2, [r3, #6]
 219:../Libraries/STM32F30x_StdPeriph_Driver/src/stm32f30x_exti.c **** }
 393              		.loc 1 219 0
 394 034c 02B0     		add	sp, sp, #8
 395 034e 7047     		bx	lr
 396              		.cfi_endproc
 397              	.LFE113:
 399              		.align	2
 400              		.global	EXTI_GenerateSWInterrupt
 401              		.thumb
 402              		.thumb_func
 404              	EXTI_GenerateSWInterrupt:
 405              	.LFB114:
 220:../Libraries/STM32F30x_StdPeriph_Driver/src/stm32f30x_exti.c **** 
 221:../Libraries/STM32F30x_StdPeriph_Driver/src/stm32f30x_exti.c **** /**
 222:../Libraries/STM32F30x_StdPeriph_Driver/src/stm32f30x_exti.c ****   * @brief  Generates a Software interrupt on selected EXTI line.
 223:../Libraries/STM32F30x_StdPeriph_Driver/src/stm32f30x_exti.c ****   * @param  EXTI_Line: specifies the EXTI line on which the software interrupt
 224:../Libraries/STM32F30x_StdPeriph_Driver/src/stm32f30x_exti.c ****   *         will be generated.
 225:../Libraries/STM32F30x_StdPeriph_Driver/src/stm32f30x_exti.c ****   *   This parameter can be any combination of EXTI_Linex where x can be (0..20).
 226:../Libraries/STM32F30x_StdPeriph_Driver/src/stm32f30x_exti.c ****   * @retval None
 227:../Libraries/STM32F30x_StdPeriph_Driver/src/stm32f30x_exti.c ****   */
 228:../Libraries/STM32F30x_StdPeriph_Driver/src/stm32f30x_exti.c **** void EXTI_GenerateSWInterrupt(uint32_t EXTI_Line)
 229:../Libraries/STM32F30x_StdPeriph_Driver/src/stm32f30x_exti.c **** {
 406              		.loc 1 229 0
 407              		.cfi_startproc
 408              		@ args = 0, pretend = 0, frame = 8
 409              		@ frame_needed = 0, uses_anonymous_args = 0
 410              		@ link register save eliminated.
 411 0350 82B0     		sub	sp, sp, #8
 412              	.LCFI2:
 413              		.cfi_def_cfa_offset 8
 414 0352 0190     		str	r0, [sp, #4]
 230:../Libraries/STM32F30x_StdPeriph_Driver/src/stm32f30x_exti.c ****   /* Check the parameters */
 231:../Libraries/STM32F30x_StdPeriph_Driver/src/stm32f30x_exti.c ****   assert_param(IS_EXTI_LINE_EXT(EXTI_Line));
 232:../Libraries/STM32F30x_StdPeriph_Driver/src/stm32f30x_exti.c **** 
 233:../Libraries/STM32F30x_StdPeriph_Driver/src/stm32f30x_exti.c ****   *(__IO uint32_t *) (((uint32_t) &(EXTI->SWIER)) + ((EXTI_Line) >> 5 ) * 0x20) |= (uint32_t)(1 << 
 415              		.loc 1 233 0
 416 0354 019B     		ldr	r3, [sp, #4]
 417 0356 4FEA5313 		lsr	r3, r3, #5
 418 035a 4FEA4312 		lsl	r2, r3, #5
 419 035e 4FF48263 		mov	r3, #1040
 420 0362 C4F20103 		movt	r3, 16385
 421 0366 D318     		adds	r3, r2, r3
 422 0368 1A46     		mov	r2, r3
 423 036a 019B     		ldr	r3, [sp, #4]
 424 036c 4FEA5313 		lsr	r3, r3, #5
 425 0370 4FEA4311 		lsl	r1, r3, #5
 426 0374 4FF48263 		mov	r3, #1040
 427 0378 C4F20103 		movt	r3, 16385
 428 037c CB18     		adds	r3, r1, r3
 429 037e 1968     		ldr	r1, [r3, #0]
 430 0380 019B     		ldr	r3, [sp, #4]
 431 0382 03F01F03 		and	r3, r3, #31
 432 0386 4FF00100 		mov	r0, #1
 433 038a 00FA03F3 		lsl	r3, r0, r3
 434 038e 0B43     		orrs	r3, r3, r1
 435 0390 1360     		str	r3, [r2, #0]
 234:../Libraries/STM32F30x_StdPeriph_Driver/src/stm32f30x_exti.c **** 
 235:../Libraries/STM32F30x_StdPeriph_Driver/src/stm32f30x_exti.c **** }
 436              		.loc 1 235 0
 437 0392 02B0     		add	sp, sp, #8
 438 0394 7047     		bx	lr
 439              		.cfi_endproc
 440              	.LFE114:
 442 0396 00BF     		.align	2
 443              		.global	EXTI_GetFlagStatus
 444              		.thumb
 445              		.thumb_func
 447              	EXTI_GetFlagStatus:
 448              	.LFB115:
 236:../Libraries/STM32F30x_StdPeriph_Driver/src/stm32f30x_exti.c **** 
 237:../Libraries/STM32F30x_StdPeriph_Driver/src/stm32f30x_exti.c **** /**
 238:../Libraries/STM32F30x_StdPeriph_Driver/src/stm32f30x_exti.c ****   * @}
 239:../Libraries/STM32F30x_StdPeriph_Driver/src/stm32f30x_exti.c ****   */
 240:../Libraries/STM32F30x_StdPeriph_Driver/src/stm32f30x_exti.c ****   
 241:../Libraries/STM32F30x_StdPeriph_Driver/src/stm32f30x_exti.c **** /** @defgroup EXTI_Group2 Interrupts and flags management functions
 242:../Libraries/STM32F30x_StdPeriph_Driver/src/stm32f30x_exti.c ****  *  @brief    EXTI Interrupts and flags management functions
 243:../Libraries/STM32F30x_StdPeriph_Driver/src/stm32f30x_exti.c ****  *
 244:../Libraries/STM32F30x_StdPeriph_Driver/src/stm32f30x_exti.c **** @verbatim  
 245:../Libraries/STM32F30x_StdPeriph_Driver/src/stm32f30x_exti.c ****  ===============================================================================
 246:../Libraries/STM32F30x_StdPeriph_Driver/src/stm32f30x_exti.c ****               ##### Interrupts and flags management functions #####
 247:../Libraries/STM32F30x_StdPeriph_Driver/src/stm32f30x_exti.c ****  ===============================================================================
 248:../Libraries/STM32F30x_StdPeriph_Driver/src/stm32f30x_exti.c ****     [..]
 249:../Libraries/STM32F30x_StdPeriph_Driver/src/stm32f30x_exti.c ****     This section provides functions allowing to configure the EXTI Interrupts 
 250:../Libraries/STM32F30x_StdPeriph_Driver/src/stm32f30x_exti.c ****     sources and check or clear the flags or pending bits status.
 251:../Libraries/STM32F30x_StdPeriph_Driver/src/stm32f30x_exti.c ****     
 252:../Libraries/STM32F30x_StdPeriph_Driver/src/stm32f30x_exti.c **** @endverbatim
 253:../Libraries/STM32F30x_StdPeriph_Driver/src/stm32f30x_exti.c ****   * @{
 254:../Libraries/STM32F30x_StdPeriph_Driver/src/stm32f30x_exti.c ****   */
 255:../Libraries/STM32F30x_StdPeriph_Driver/src/stm32f30x_exti.c **** 
 256:../Libraries/STM32F30x_StdPeriph_Driver/src/stm32f30x_exti.c **** /**
 257:../Libraries/STM32F30x_StdPeriph_Driver/src/stm32f30x_exti.c ****   * @brief  Checks whether the specified EXTI line flag is set or not.
 258:../Libraries/STM32F30x_StdPeriph_Driver/src/stm32f30x_exti.c ****   * @param  EXTI_Line: specifies the EXTI line flag to check.
 259:../Libraries/STM32F30x_StdPeriph_Driver/src/stm32f30x_exti.c ****   *   This parameter can be any combination of EXTI_Linex where x can be (0..20).
 260:../Libraries/STM32F30x_StdPeriph_Driver/src/stm32f30x_exti.c ****   * @retval The new state of EXTI_Line (SET or RESET).                  
 261:../Libraries/STM32F30x_StdPeriph_Driver/src/stm32f30x_exti.c ****   */
 262:../Libraries/STM32F30x_StdPeriph_Driver/src/stm32f30x_exti.c **** FlagStatus EXTI_GetFlagStatus(uint32_t EXTI_Line)
 263:../Libraries/STM32F30x_StdPeriph_Driver/src/stm32f30x_exti.c **** {
 449              		.loc 1 263 0
 450              		.cfi_startproc
 451              		@ args = 0, pretend = 0, frame = 16
 452              		@ frame_needed = 0, uses_anonymous_args = 0
 453              		@ link register save eliminated.
 454 0398 84B0     		sub	sp, sp, #16
 455              	.LCFI3:
 456              		.cfi_def_cfa_offset 16
 457 039a 0190     		str	r0, [sp, #4]
 264:../Libraries/STM32F30x_StdPeriph_Driver/src/stm32f30x_exti.c ****   FlagStatus bitstatus = RESET;
 458              		.loc 1 264 0
 459 039c 4FF00003 		mov	r3, #0
 460 03a0 8DF80F30 		strb	r3, [sp, #15]
 265:../Libraries/STM32F30x_StdPeriph_Driver/src/stm32f30x_exti.c ****   
 266:../Libraries/STM32F30x_StdPeriph_Driver/src/stm32f30x_exti.c ****   /* Check the parameters */
 267:../Libraries/STM32F30x_StdPeriph_Driver/src/stm32f30x_exti.c ****   assert_param(IS_GET_EXTI_LINE(EXTI_Line));
 268:../Libraries/STM32F30x_StdPeriph_Driver/src/stm32f30x_exti.c ****    
 269:../Libraries/STM32F30x_StdPeriph_Driver/src/stm32f30x_exti.c ****   if ((*(__IO uint32_t *) (((uint32_t) &(EXTI->PR)) + ((EXTI_Line) >> 5 ) * 0x20)& (uint32_t)(1 << 
 461              		.loc 1 269 0
 462 03a4 019B     		ldr	r3, [sp, #4]
 463 03a6 4FEA5313 		lsr	r3, r3, #5
 464 03aa 4FEA4312 		lsl	r2, r3, #5
 465 03ae 40F21443 		movw	r3, #1044
 466 03b2 C4F20103 		movt	r3, 16385
 467 03b6 D318     		adds	r3, r2, r3
 468 03b8 1A68     		ldr	r2, [r3, #0]
 469 03ba 019B     		ldr	r3, [sp, #4]
 470 03bc 03F01F03 		and	r3, r3, #31
 471 03c0 4FF00101 		mov	r1, #1
 472 03c4 01FA03F3 		lsl	r3, r1, r3
 473 03c8 1340     		ands	r3, r3, r2
 474 03ca 002B     		cmp	r3, #0
 475 03cc 04D0     		beq	.L9
 270:../Libraries/STM32F30x_StdPeriph_Driver/src/stm32f30x_exti.c ****   {
 271:../Libraries/STM32F30x_StdPeriph_Driver/src/stm32f30x_exti.c ****     bitstatus = SET;
 476              		.loc 1 271 0
 477 03ce 4FF00103 		mov	r3, #1
 478 03d2 8DF80F30 		strb	r3, [sp, #15]
 479 03d6 03E0     		b	.L10
 480              	.L9:
 272:../Libraries/STM32F30x_StdPeriph_Driver/src/stm32f30x_exti.c ****   }
 273:../Libraries/STM32F30x_StdPeriph_Driver/src/stm32f30x_exti.c ****   else
 274:../Libraries/STM32F30x_StdPeriph_Driver/src/stm32f30x_exti.c ****   {
 275:../Libraries/STM32F30x_StdPeriph_Driver/src/stm32f30x_exti.c ****     bitstatus = RESET;
 481              		.loc 1 275 0
 482 03d8 4FF00003 		mov	r3, #0
 483 03dc 8DF80F30 		strb	r3, [sp, #15]
 484              	.L10:
 276:../Libraries/STM32F30x_StdPeriph_Driver/src/stm32f30x_exti.c ****   }
 277:../Libraries/STM32F30x_StdPeriph_Driver/src/stm32f30x_exti.c ****   return bitstatus;
 485              		.loc 1 277 0
 486 03e0 9DF80F30 		ldrb	r3, [sp, #15]	@ zero_extendqisi2
 278:../Libraries/STM32F30x_StdPeriph_Driver/src/stm32f30x_exti.c **** }
 487              		.loc 1 278 0
 488 03e4 1846     		mov	r0, r3
 489 03e6 04B0     		add	sp, sp, #16
 490 03e8 7047     		bx	lr
 491              		.cfi_endproc
 492              	.LFE115:
 494 03ea 00BF     		.align	2
 495              		.global	EXTI_ClearFlag
 496              		.thumb
 497              		.thumb_func
 499              	EXTI_ClearFlag:
 500              	.LFB116:
 279:../Libraries/STM32F30x_StdPeriph_Driver/src/stm32f30x_exti.c **** 
 280:../Libraries/STM32F30x_StdPeriph_Driver/src/stm32f30x_exti.c **** /**
 281:../Libraries/STM32F30x_StdPeriph_Driver/src/stm32f30x_exti.c ****   * @brief  Clears the EXTI's line pending flags.
 282:../Libraries/STM32F30x_StdPeriph_Driver/src/stm32f30x_exti.c ****   * @param  EXTI_Line: specifies the EXTI lines flags to clear.
 283:../Libraries/STM32F30x_StdPeriph_Driver/src/stm32f30x_exti.c ****   *   This parameter can be any combination of EXTI_Linex where x can be (0..20).
 284:../Libraries/STM32F30x_StdPeriph_Driver/src/stm32f30x_exti.c ****   * @retval None
 285:../Libraries/STM32F30x_StdPeriph_Driver/src/stm32f30x_exti.c ****   */
 286:../Libraries/STM32F30x_StdPeriph_Driver/src/stm32f30x_exti.c **** void EXTI_ClearFlag(uint32_t EXTI_Line)
 287:../Libraries/STM32F30x_StdPeriph_Driver/src/stm32f30x_exti.c **** {
 501              		.loc 1 287 0
 502              		.cfi_startproc
 503              		@ args = 0, pretend = 0, frame = 8
 504              		@ frame_needed = 0, uses_anonymous_args = 0
 505              		@ link register save eliminated.
 506 03ec 82B0     		sub	sp, sp, #8
 507              	.LCFI4:
 508              		.cfi_def_cfa_offset 8
 509 03ee 0190     		str	r0, [sp, #4]
 288:../Libraries/STM32F30x_StdPeriph_Driver/src/stm32f30x_exti.c ****   /* Check the parameters */
 289:../Libraries/STM32F30x_StdPeriph_Driver/src/stm32f30x_exti.c ****   assert_param(IS_EXTI_LINE_EXT(EXTI_Line));
 290:../Libraries/STM32F30x_StdPeriph_Driver/src/stm32f30x_exti.c **** 
 291:../Libraries/STM32F30x_StdPeriph_Driver/src/stm32f30x_exti.c ****   *(__IO uint32_t *) (((uint32_t) &(EXTI->PR)) + ((EXTI_Line) >> 5 ) * 0x20) = (1 << (EXTI_Line & 0
 510              		.loc 1 291 0
 511 03f0 019B     		ldr	r3, [sp, #4]
 512 03f2 4FEA5313 		lsr	r3, r3, #5
 513 03f6 4FEA4312 		lsl	r2, r3, #5
 514 03fa 40F21443 		movw	r3, #1044
 515 03fe C4F20103 		movt	r3, 16385
 516 0402 D318     		adds	r3, r2, r3
 517 0404 019A     		ldr	r2, [sp, #4]
 518 0406 02F01F02 		and	r2, r2, #31
 519 040a 4FF00101 		mov	r1, #1
 520 040e 01FA02F2 		lsl	r2, r1, r2
 521 0412 1A60     		str	r2, [r3, #0]
 292:../Libraries/STM32F30x_StdPeriph_Driver/src/stm32f30x_exti.c **** }
 522              		.loc 1 292 0
 523 0414 02B0     		add	sp, sp, #8
 524 0416 7047     		bx	lr
 525              		.cfi_endproc
 526              	.LFE116:
 528              		.align	2
 529              		.global	EXTI_GetITStatus
 530              		.thumb
 531              		.thumb_func
 533              	EXTI_GetITStatus:
 534              	.LFB117:
 293:../Libraries/STM32F30x_StdPeriph_Driver/src/stm32f30x_exti.c **** 
 294:../Libraries/STM32F30x_StdPeriph_Driver/src/stm32f30x_exti.c **** /**
 295:../Libraries/STM32F30x_StdPeriph_Driver/src/stm32f30x_exti.c ****   * @brief  Checks whether the specified EXTI line is asserted or not.
 296:../Libraries/STM32F30x_StdPeriph_Driver/src/stm32f30x_exti.c ****   * @param  EXTI_Line: specifies the EXTI line to check.
 297:../Libraries/STM32F30x_StdPeriph_Driver/src/stm32f30x_exti.c ****   *   This parameter can be any combination of EXTI_Linex where x can be (0..20).
 298:../Libraries/STM32F30x_StdPeriph_Driver/src/stm32f30x_exti.c ****   * @retval The new state of EXTI_Line (SET or RESET).
 299:../Libraries/STM32F30x_StdPeriph_Driver/src/stm32f30x_exti.c ****   */
 300:../Libraries/STM32F30x_StdPeriph_Driver/src/stm32f30x_exti.c **** ITStatus EXTI_GetITStatus(uint32_t EXTI_Line)
 301:../Libraries/STM32F30x_StdPeriph_Driver/src/stm32f30x_exti.c **** {
 535              		.loc 1 301 0
 536              		.cfi_startproc
 537              		@ args = 0, pretend = 0, frame = 16
 538              		@ frame_needed = 0, uses_anonymous_args = 0
 539              		@ link register save eliminated.
 540 0418 84B0     		sub	sp, sp, #16
 541              	.LCFI5:
 542              		.cfi_def_cfa_offset 16
 543 041a 0190     		str	r0, [sp, #4]
 302:../Libraries/STM32F30x_StdPeriph_Driver/src/stm32f30x_exti.c ****   ITStatus bitstatus = RESET;
 544              		.loc 1 302 0
 545 041c 4FF00003 		mov	r3, #0
 546 0420 8DF80F30 		strb	r3, [sp, #15]
 303:../Libraries/STM32F30x_StdPeriph_Driver/src/stm32f30x_exti.c ****   uint32_t enablestatus = 0;
 547              		.loc 1 303 0
 548 0424 4FF00003 		mov	r3, #0
 549 0428 0293     		str	r3, [sp, #8]
 304:../Libraries/STM32F30x_StdPeriph_Driver/src/stm32f30x_exti.c ****   
 305:../Libraries/STM32F30x_StdPeriph_Driver/src/stm32f30x_exti.c ****   /* Check the parameters */
 306:../Libraries/STM32F30x_StdPeriph_Driver/src/stm32f30x_exti.c ****   assert_param(IS_GET_EXTI_LINE(EXTI_Line));
 307:../Libraries/STM32F30x_StdPeriph_Driver/src/stm32f30x_exti.c ****   
 308:../Libraries/STM32F30x_StdPeriph_Driver/src/stm32f30x_exti.c ****   enablestatus =  *(__IO uint32_t *) (((uint32_t) &(EXTI->IMR)) + ((EXTI_Line) >> 5 ) * 0x20) & (ui
 550              		.loc 1 308 0
 551 042a 019B     		ldr	r3, [sp, #4]
 552 042c 4FEA5313 		lsr	r3, r3, #5
 553 0430 03F10073 		add	r3, r3, #33554432
 554 0434 03F50263 		add	r3, r3, #2080
 555 0438 4FEA4313 		lsl	r3, r3, #5
 556 043c 1A68     		ldr	r2, [r3, #0]
 557 043e 019B     		ldr	r3, [sp, #4]
 558 0440 03F01F03 		and	r3, r3, #31
 559 0444 4FF00101 		mov	r1, #1
 560 0448 01FA03F3 		lsl	r3, r1, r3
 561 044c 1340     		ands	r3, r3, r2
 562 044e 0293     		str	r3, [sp, #8]
 309:../Libraries/STM32F30x_StdPeriph_Driver/src/stm32f30x_exti.c ****  
 310:../Libraries/STM32F30x_StdPeriph_Driver/src/stm32f30x_exti.c ****   if ( (((*(__IO uint32_t *) (((uint32_t) &(EXTI->PR)) + (((EXTI_Line) >> 5 ) * 0x20) )) & (uint32_
 563              		.loc 1 310 0
 564 0450 019B     		ldr	r3, [sp, #4]
 565 0452 4FEA5313 		lsr	r3, r3, #5
 566 0456 4FEA4312 		lsl	r2, r3, #5
 567 045a 40F21443 		movw	r3, #1044
 568 045e C4F20103 		movt	r3, 16385
 569 0462 D318     		adds	r3, r2, r3
 570 0464 1A68     		ldr	r2, [r3, #0]
 571 0466 019B     		ldr	r3, [sp, #4]
 572 0468 03F01F03 		and	r3, r3, #31
 573 046c 4FF00101 		mov	r1, #1
 574 0470 01FA03F3 		lsl	r3, r1, r3
 575 0474 1340     		ands	r3, r3, r2
 576 0476 002B     		cmp	r3, #0
 577 0478 07D0     		beq	.L13
 578              		.loc 1 310 0 is_stmt 0 discriminator 1
 579 047a 029B     		ldr	r3, [sp, #8]
 580 047c 002B     		cmp	r3, #0
 581 047e 04D0     		beq	.L13
 311:../Libraries/STM32F30x_StdPeriph_Driver/src/stm32f30x_exti.c ****   {
 312:../Libraries/STM32F30x_StdPeriph_Driver/src/stm32f30x_exti.c ****     bitstatus = SET;
 582              		.loc 1 312 0 is_stmt 1
 583 0480 4FF00103 		mov	r3, #1
 584 0484 8DF80F30 		strb	r3, [sp, #15]
 585 0488 03E0     		b	.L14
 586              	.L13:
 313:../Libraries/STM32F30x_StdPeriph_Driver/src/stm32f30x_exti.c ****   }
 314:../Libraries/STM32F30x_StdPeriph_Driver/src/stm32f30x_exti.c ****   else
 315:../Libraries/STM32F30x_StdPeriph_Driver/src/stm32f30x_exti.c ****   {
 316:../Libraries/STM32F30x_StdPeriph_Driver/src/stm32f30x_exti.c ****     bitstatus = RESET;
 587              		.loc 1 316 0
 588 048a 4FF00003 		mov	r3, #0
 589 048e 8DF80F30 		strb	r3, [sp, #15]
 590              	.L14:
 317:../Libraries/STM32F30x_StdPeriph_Driver/src/stm32f30x_exti.c ****   }
 318:../Libraries/STM32F30x_StdPeriph_Driver/src/stm32f30x_exti.c ****   return bitstatus;
 591              		.loc 1 318 0
 592 0492 9DF80F30 		ldrb	r3, [sp, #15]	@ zero_extendqisi2
 319:../Libraries/STM32F30x_StdPeriph_Driver/src/stm32f30x_exti.c ****   
 320:../Libraries/STM32F30x_StdPeriph_Driver/src/stm32f30x_exti.c **** }
 593              		.loc 1 320 0
 594 0496 1846     		mov	r0, r3
 595 0498 04B0     		add	sp, sp, #16
 596 049a 7047     		bx	lr
 597              		.cfi_endproc
 598              	.LFE117:
 600              		.align	2
 601              		.global	EXTI_ClearITPendingBit
 602              		.thumb
 603              		.thumb_func
 605              	EXTI_ClearITPendingBit:
 606              	.LFB118:
 321:../Libraries/STM32F30x_StdPeriph_Driver/src/stm32f30x_exti.c **** 
 322:../Libraries/STM32F30x_StdPeriph_Driver/src/stm32f30x_exti.c **** /**
 323:../Libraries/STM32F30x_StdPeriph_Driver/src/stm32f30x_exti.c ****   * @brief  Clears the EXTI's line pending bits.
 324:../Libraries/STM32F30x_StdPeriph_Driver/src/stm32f30x_exti.c ****   * @param  EXTI_Line: specifies the EXTI lines to clear.
 325:../Libraries/STM32F30x_StdPeriph_Driver/src/stm32f30x_exti.c ****   *   This parameter can be any combination of EXTI_Linex where x can be (0..20).
 326:../Libraries/STM32F30x_StdPeriph_Driver/src/stm32f30x_exti.c ****   * @retval None
 327:../Libraries/STM32F30x_StdPeriph_Driver/src/stm32f30x_exti.c ****   */
 328:../Libraries/STM32F30x_StdPeriph_Driver/src/stm32f30x_exti.c **** void EXTI_ClearITPendingBit(uint32_t EXTI_Line)
 329:../Libraries/STM32F30x_StdPeriph_Driver/src/stm32f30x_exti.c **** {
 607              		.loc 1 329 0
 608              		.cfi_startproc
 609              		@ args = 0, pretend = 0, frame = 8
 610              		@ frame_needed = 0, uses_anonymous_args = 0
 611              		@ link register save eliminated.
 612 049c 82B0     		sub	sp, sp, #8
 613              	.LCFI6:
 614              		.cfi_def_cfa_offset 8
 615 049e 0190     		str	r0, [sp, #4]
 330:../Libraries/STM32F30x_StdPeriph_Driver/src/stm32f30x_exti.c ****   /* Check the parameters */
 331:../Libraries/STM32F30x_StdPeriph_Driver/src/stm32f30x_exti.c ****   assert_param(IS_EXTI_LINE_EXT(EXTI_Line));
 332:../Libraries/STM32F30x_StdPeriph_Driver/src/stm32f30x_exti.c ****   
 333:../Libraries/STM32F30x_StdPeriph_Driver/src/stm32f30x_exti.c ****   *(__IO uint32_t *) (((uint32_t) &(EXTI->PR)) + ((EXTI_Line) >> 5 ) * 0x20) = (1 << (EXTI_Line & 0
 616              		.loc 1 333 0
 617 04a0 019B     		ldr	r3, [sp, #4]
 618 04a2 4FEA5313 		lsr	r3, r3, #5
 619 04a6 4FEA4312 		lsl	r2, r3, #5
 620 04aa 40F21443 		movw	r3, #1044
 621 04ae C4F20103 		movt	r3, 16385
 622 04b2 D318     		adds	r3, r2, r3
 623 04b4 019A     		ldr	r2, [sp, #4]
 624 04b6 02F01F02 		and	r2, r2, #31
 625 04ba 4FF00101 		mov	r1, #1
 626 04be 01FA02F2 		lsl	r2, r1, r2
 627 04c2 1A60     		str	r2, [r3, #0]
 334:../Libraries/STM32F30x_StdPeriph_Driver/src/stm32f30x_exti.c **** }
 628              		.loc 1 334 0
 629 04c4 02B0     		add	sp, sp, #8
 630 04c6 7047     		bx	lr
 631              		.cfi_endproc
 632              	.LFE118:
 634              	.Letext0:
 635              		.file 2 "c:\\program files\\codesourcery\\sourcery_codebench_lite_for_arm_eabi\\bin\\../lib/gcc/ar
 636              		.file 3 "D:\\Documents and Settings\\e722209\\Desktop\\workspace\\aq32Plus_F3\\Libraries\\Device\\
 637              		.file 4 "D:\\Documents and Settings\\e722209\\Desktop\\workspace\\aq32Plus_F3\\Libraries\\STM32F30
 638              		.file 5 "D:\\Documents and Settings\\e722209\\Desktop\\workspace\\aq32Plus_F3\\Libraries\\CMSIS\\I