   1              		.syntax unified
   2              		.cpu cortex-m4
   3              		.eabi_attribute 27, 3
   4              		.fpu fpv4-sp-d16
   5              		.eabi_attribute 20, 1
   6              		.eabi_attribute 21, 1
   7              		.eabi_attribute 23, 3
   8              		.eabi_attribute 24, 1
   9              		.eabi_attribute 25, 1
  10              		.eabi_attribute 26, 1
  11              		.eabi_attribute 30, 6
  12              		.eabi_attribute 34, 1
  13              		.eabi_attribute 18, 4
  14              		.thumb
  15              		.file	"stm32f30x_rtc.c"
  16              		.text
  17              	.Ltext0:
  18              		.cfi_sections	.debug_frame
  19              		.align	2
  20              		.global	RTC_DeInit
  21              		.thumb
  22              		.thumb_func
  24              	RTC_DeInit:
  25              	.LFB111:
  26              		.file 1 "../Libraries/STM32F30x_StdPeriph_Driver/src/stm32f30x_rtc.c"
   1:../Libraries/STM32F30x_StdPeriph_Driver/src/stm32f30x_rtc.c **** /**
   2:../Libraries/STM32F30x_StdPeriph_Driver/src/stm32f30x_rtc.c ****   ******************************************************************************
   3:../Libraries/STM32F30x_StdPeriph_Driver/src/stm32f30x_rtc.c ****   * @file    stm32f30x_rtc.c
   4:../Libraries/STM32F30x_StdPeriph_Driver/src/stm32f30x_rtc.c ****   * @author  MCD Application Team
   5:../Libraries/STM32F30x_StdPeriph_Driver/src/stm32f30x_rtc.c ****   * @version V1.0.1
   6:../Libraries/STM32F30x_StdPeriph_Driver/src/stm32f30x_rtc.c ****   * @date    23-October-2012
   7:../Libraries/STM32F30x_StdPeriph_Driver/src/stm32f30x_rtc.c ****   * @brief   This file provides firmware functions to manage the following 
   8:../Libraries/STM32F30x_StdPeriph_Driver/src/stm32f30x_rtc.c ****   *          functionalities of the Real-Time Clock (RTC) peripheral:
   9:../Libraries/STM32F30x_StdPeriph_Driver/src/stm32f30x_rtc.c ****   *           + Initialization
  10:../Libraries/STM32F30x_StdPeriph_Driver/src/stm32f30x_rtc.c ****   *           + Calendar (Time and Date) configuration
  11:../Libraries/STM32F30x_StdPeriph_Driver/src/stm32f30x_rtc.c ****   *           + Alarms (Alarm A and Alarm B) configuration
  12:../Libraries/STM32F30x_StdPeriph_Driver/src/stm32f30x_rtc.c ****   *           + WakeUp Timer configuration
  13:../Libraries/STM32F30x_StdPeriph_Driver/src/stm32f30x_rtc.c ****   *           + Daylight Saving configuration
  14:../Libraries/STM32F30x_StdPeriph_Driver/src/stm32f30x_rtc.c ****   *           + Output pin Configuration
  15:../Libraries/STM32F30x_StdPeriph_Driver/src/stm32f30x_rtc.c ****   *           + Smooth digital Calibration configuration
  16:../Libraries/STM32F30x_StdPeriph_Driver/src/stm32f30x_rtc.c ****   *           + TimeStamp configuration
  17:../Libraries/STM32F30x_StdPeriph_Driver/src/stm32f30x_rtc.c ****   *           + Tampers configuration
  18:../Libraries/STM32F30x_StdPeriph_Driver/src/stm32f30x_rtc.c ****   *           + Backup Data Registers configuration
  19:../Libraries/STM32F30x_StdPeriph_Driver/src/stm32f30x_rtc.c ****   *           + Output Type Config configuration
  20:../Libraries/STM32F30x_StdPeriph_Driver/src/stm32f30x_rtc.c ****   *           + Shift control synchronisation  
  21:../Libraries/STM32F30x_StdPeriph_Driver/src/stm32f30x_rtc.c ****   *           + Interrupts and flags management       
  22:../Libraries/STM32F30x_StdPeriph_Driver/src/stm32f30x_rtc.c ****   *                     
  23:../Libraries/STM32F30x_StdPeriph_Driver/src/stm32f30x_rtc.c ****   @verbatim
  24:../Libraries/STM32F30x_StdPeriph_Driver/src/stm32f30x_rtc.c ****        
  25:../Libraries/STM32F30x_StdPeriph_Driver/src/stm32f30x_rtc.c ****  ===============================================================================     
  26:../Libraries/STM32F30x_StdPeriph_Driver/src/stm32f30x_rtc.c ****                           ##### RTC Operating Condition #####
  27:../Libraries/STM32F30x_StdPeriph_Driver/src/stm32f30x_rtc.c ****  ===============================================================================
  28:../Libraries/STM32F30x_StdPeriph_Driver/src/stm32f30x_rtc.c ****     [..] The real-time clock (RTC) and the RTC backup registers can be powered
  29:../Libraries/STM32F30x_StdPeriph_Driver/src/stm32f30x_rtc.c ****          from the VBAT voltage when the main VDD supply is powered off.
  30:../Libraries/STM32F30x_StdPeriph_Driver/src/stm32f30x_rtc.c ****          To retain the content of the RTC backup registers and supply the RTC 
  31:../Libraries/STM32F30x_StdPeriph_Driver/src/stm32f30x_rtc.c ****          when VDD is turned off, VBAT pin can be connected to an optional
  32:../Libraries/STM32F30x_StdPeriph_Driver/src/stm32f30x_rtc.c ****          standby voltage supplied by a battery or by another source.
  33:../Libraries/STM32F30x_StdPeriph_Driver/src/stm32f30x_rtc.c ****   
  34:../Libraries/STM32F30x_StdPeriph_Driver/src/stm32f30x_rtc.c ****     [..] To allow the RTC to operate even when the main digital supply (VDD) 
  35:../Libraries/STM32F30x_StdPeriph_Driver/src/stm32f30x_rtc.c ****          is turned off, the VBAT pin powers the following blocks:
  36:../Libraries/STM32F30x_StdPeriph_Driver/src/stm32f30x_rtc.c ****            (#) The RTC
  37:../Libraries/STM32F30x_StdPeriph_Driver/src/stm32f30x_rtc.c ****            (#) The LSE oscillator
  38:../Libraries/STM32F30x_StdPeriph_Driver/src/stm32f30x_rtc.c ****            (#) PC13 to PC15 I/Os (when available)
  39:../Libraries/STM32F30x_StdPeriph_Driver/src/stm32f30x_rtc.c ****   
  40:../Libraries/STM32F30x_StdPeriph_Driver/src/stm32f30x_rtc.c ****     [..] When the backup domain is supplied by VDD (analog switch connected 
  41:../Libraries/STM32F30x_StdPeriph_Driver/src/stm32f30x_rtc.c ****          to VDD), the following functions are available:
  42:../Libraries/STM32F30x_StdPeriph_Driver/src/stm32f30x_rtc.c ****            (#) PC14 and PC15 can be used as either GPIO or LSE pins
  43:../Libraries/STM32F30x_StdPeriph_Driver/src/stm32f30x_rtc.c ****            (#) PC13 can be used as a GPIO or as the RTC_AF pin
  44:../Libraries/STM32F30x_StdPeriph_Driver/src/stm32f30x_rtc.c ****   
  45:../Libraries/STM32F30x_StdPeriph_Driver/src/stm32f30x_rtc.c ****     [..] When the backup domain is supplied by VBAT (analog switch connected 
  46:../Libraries/STM32F30x_StdPeriph_Driver/src/stm32f30x_rtc.c ****          to VBAT because VDD is not present), the following functions are available:
  47:../Libraries/STM32F30x_StdPeriph_Driver/src/stm32f30x_rtc.c ****            (#) PC14 and PC15 can be used as LSE pins only
  48:../Libraries/STM32F30x_StdPeriph_Driver/src/stm32f30x_rtc.c ****            (#) PC13 can be used as the RTC_AF pin 
  49:../Libraries/STM32F30x_StdPeriph_Driver/src/stm32f30x_rtc.c **** 
  50:../Libraries/STM32F30x_StdPeriph_Driver/src/stm32f30x_rtc.c ****                         ##### Backup Domain Reset #####
  51:../Libraries/STM32F30x_StdPeriph_Driver/src/stm32f30x_rtc.c ****  ===============================================================================
  52:../Libraries/STM32F30x_StdPeriph_Driver/src/stm32f30x_rtc.c ****     [..] The backup domain reset sets all RTC registers and the RCC_BDCR 
  53:../Libraries/STM32F30x_StdPeriph_Driver/src/stm32f30x_rtc.c ****          register to their reset values. 
  54:../Libraries/STM32F30x_StdPeriph_Driver/src/stm32f30x_rtc.c ****          A backup domain reset is generated when one of the following events
  55:../Libraries/STM32F30x_StdPeriph_Driver/src/stm32f30x_rtc.c ****          occurs:
  56:../Libraries/STM32F30x_StdPeriph_Driver/src/stm32f30x_rtc.c ****            (#) Software reset, triggered by setting the BDRST bit in the 
  57:../Libraries/STM32F30x_StdPeriph_Driver/src/stm32f30x_rtc.c ****                RCC Backup domain control register (RCC_BDCR). You can use the
  58:../Libraries/STM32F30x_StdPeriph_Driver/src/stm32f30x_rtc.c ****                RCC_BackupResetCmd().
  59:../Libraries/STM32F30x_StdPeriph_Driver/src/stm32f30x_rtc.c ****            (#) VDD or VBAT power on, if both supplies have previously been
  60:../Libraries/STM32F30x_StdPeriph_Driver/src/stm32f30x_rtc.c ****                powered off.
  61:../Libraries/STM32F30x_StdPeriph_Driver/src/stm32f30x_rtc.c ****                          
  62:../Libraries/STM32F30x_StdPeriph_Driver/src/stm32f30x_rtc.c ****                         ##### Backup Domain Access #####
  63:../Libraries/STM32F30x_StdPeriph_Driver/src/stm32f30x_rtc.c ****  ===============================================================================
  64:../Libraries/STM32F30x_StdPeriph_Driver/src/stm32f30x_rtc.c ****     [..] After reset, the backup domain (RTC registers and RTC backup data 
  65:../Libraries/STM32F30x_StdPeriph_Driver/src/stm32f30x_rtc.c ****          registers) is protected against possible unwanted write accesses. 
  66:../Libraries/STM32F30x_StdPeriph_Driver/src/stm32f30x_rtc.c ****     [..] To enable access to the Backup Domain and RTC registers, proceed as follows:
  67:../Libraries/STM32F30x_StdPeriph_Driver/src/stm32f30x_rtc.c ****          (#) Enable the Power Controller (PWR) APB1 interface clock using the
  68:../Libraries/STM32F30x_StdPeriph_Driver/src/stm32f30x_rtc.c ****              RCC_APB1PeriphClockCmd() function.
  69:../Libraries/STM32F30x_StdPeriph_Driver/src/stm32f30x_rtc.c ****          (#) Enable access to Backup domain using the PWR_BackupAccessCmd() function.
  70:../Libraries/STM32F30x_StdPeriph_Driver/src/stm32f30x_rtc.c ****          (#) Select the RTC clock source using the RCC_RTCCLKConfig() function.
  71:../Libraries/STM32F30x_StdPeriph_Driver/src/stm32f30x_rtc.c ****          (#) Enable RTC Clock using the RCC_RTCCLKCmd() function.
  72:../Libraries/STM32F30x_StdPeriph_Driver/src/stm32f30x_rtc.c ****               
  73:../Libraries/STM32F30x_StdPeriph_Driver/src/stm32f30x_rtc.c ****                          ##### How to use this driver #####
  74:../Libraries/STM32F30x_StdPeriph_Driver/src/stm32f30x_rtc.c ****  ===============================================================================
  75:../Libraries/STM32F30x_StdPeriph_Driver/src/stm32f30x_rtc.c ****     [..]     
  76:../Libraries/STM32F30x_StdPeriph_Driver/src/stm32f30x_rtc.c ****         (+) Enable the backup domain access (see description in the section above)
  77:../Libraries/STM32F30x_StdPeriph_Driver/src/stm32f30x_rtc.c ****          (+) Configure the RTC Prescaler (Asynchronous and Synchronous) and
  78:../Libraries/STM32F30x_StdPeriph_Driver/src/stm32f30x_rtc.c ****              RTC hour format using the RTC_Init() function.
  79:../Libraries/STM32F30x_StdPeriph_Driver/src/stm32f30x_rtc.c ****                 
  80:../Libraries/STM32F30x_StdPeriph_Driver/src/stm32f30x_rtc.c ****     *** Time and Date configuration ***
  81:../Libraries/STM32F30x_StdPeriph_Driver/src/stm32f30x_rtc.c ****     ===================================    
  82:../Libraries/STM32F30x_StdPeriph_Driver/src/stm32f30x_rtc.c ****     [..]     
  83:../Libraries/STM32F30x_StdPeriph_Driver/src/stm32f30x_rtc.c ****          (+) To configure the RTC Calendar (Time and Date) use the RTC_SetTime()
  84:../Libraries/STM32F30x_StdPeriph_Driver/src/stm32f30x_rtc.c ****              and RTC_SetDate() functions.
  85:../Libraries/STM32F30x_StdPeriph_Driver/src/stm32f30x_rtc.c ****          (+) To read the RTC Calendar, use the RTC_GetTime() and RTC_GetDate()
  86:../Libraries/STM32F30x_StdPeriph_Driver/src/stm32f30x_rtc.c ****              functions.
  87:../Libraries/STM32F30x_StdPeriph_Driver/src/stm32f30x_rtc.c ****          (+) To read the RTC subsecond, use the RTC_GetSubSecond() function.
  88:../Libraries/STM32F30x_StdPeriph_Driver/src/stm32f30x_rtc.c ****          (+) Use the RTC_DayLightSavingConfig() function to add or sub one
  89:../Libraries/STM32F30x_StdPeriph_Driver/src/stm32f30x_rtc.c ****              hour to the RTC Calendar.    
  90:../Libraries/STM32F30x_StdPeriph_Driver/src/stm32f30x_rtc.c ****                 
  91:../Libraries/STM32F30x_StdPeriph_Driver/src/stm32f30x_rtc.c ****     *** Alarm configuration ***
  92:../Libraries/STM32F30x_StdPeriph_Driver/src/stm32f30x_rtc.c ****     ===========================    
  93:../Libraries/STM32F30x_StdPeriph_Driver/src/stm32f30x_rtc.c ****     [..]
  94:../Libraries/STM32F30x_StdPeriph_Driver/src/stm32f30x_rtc.c ****          (+) To configure the RTC Alarm use the RTC_SetAlarm() function.
  95:../Libraries/STM32F30x_StdPeriph_Driver/src/stm32f30x_rtc.c ****          (+) Enable the selected RTC Alarm using the RTC_AlarmCmd() function.
  96:../Libraries/STM32F30x_StdPeriph_Driver/src/stm32f30x_rtc.c ****          (+) To read the RTC Alarm, use the RTC_GetAlarm() function.
  97:../Libraries/STM32F30x_StdPeriph_Driver/src/stm32f30x_rtc.c ****          (+) To read the RTC alarm SubSecond, use the RTC_GetAlarmSubSecond() function.
  98:../Libraries/STM32F30x_StdPeriph_Driver/src/stm32f30x_rtc.c ****               
  99:../Libraries/STM32F30x_StdPeriph_Driver/src/stm32f30x_rtc.c ****     *** RTC Wakeup configuration ***
 100:../Libraries/STM32F30x_StdPeriph_Driver/src/stm32f30x_rtc.c ****     ================================    
 101:../Libraries/STM32F30x_StdPeriph_Driver/src/stm32f30x_rtc.c ****     [..]
 102:../Libraries/STM32F30x_StdPeriph_Driver/src/stm32f30x_rtc.c ****          (+) Configure the RTC Wakeup Clock source use the RTC_WakeUpClockConfig()
 103:../Libraries/STM32F30x_StdPeriph_Driver/src/stm32f30x_rtc.c ****              function.
 104:../Libraries/STM32F30x_StdPeriph_Driver/src/stm32f30x_rtc.c ****          (+) Configure the RTC WakeUp Counter using the RTC_SetWakeUpCounter() 
 105:../Libraries/STM32F30x_StdPeriph_Driver/src/stm32f30x_rtc.c ****              function  
 106:../Libraries/STM32F30x_StdPeriph_Driver/src/stm32f30x_rtc.c ****          (+) Enable the RTC WakeUp using the RTC_WakeUpCmd() function  
 107:../Libraries/STM32F30x_StdPeriph_Driver/src/stm32f30x_rtc.c ****          (+) To read the RTC WakeUp Counter register, use the RTC_GetWakeUpCounter() 
 108:../Libraries/STM32F30x_StdPeriph_Driver/src/stm32f30x_rtc.c ****              function.
 109:../Libraries/STM32F30x_StdPeriph_Driver/src/stm32f30x_rtc.c ****                 
 110:../Libraries/STM32F30x_StdPeriph_Driver/src/stm32f30x_rtc.c ****     *** Outputs configuration ***
 111:../Libraries/STM32F30x_StdPeriph_Driver/src/stm32f30x_rtc.c ****     =============================  
 112:../Libraries/STM32F30x_StdPeriph_Driver/src/stm32f30x_rtc.c ****     [..] The RTC has 2 different outputs:
 113:../Libraries/STM32F30x_StdPeriph_Driver/src/stm32f30x_rtc.c ****          (+) AFO_ALARM: this output is used to manage the RTC Alarm A, Alarm B
 114:../Libraries/STM32F30x_StdPeriph_Driver/src/stm32f30x_rtc.c ****              and WaKeUp signals.          
 115:../Libraries/STM32F30x_StdPeriph_Driver/src/stm32f30x_rtc.c ****              To output the selected RTC signal on RTC_AF pin, use the 
 116:../Libraries/STM32F30x_StdPeriph_Driver/src/stm32f30x_rtc.c ****              RTC_OutputConfig() function.                
 117:../Libraries/STM32F30x_StdPeriph_Driver/src/stm32f30x_rtc.c ****          (+) AFO_CALIB: this output is 512Hz signal or 1Hz .
 118:../Libraries/STM32F30x_StdPeriph_Driver/src/stm32f30x_rtc.c ****              To output the RTC Clock on RTC_AF pin, use the RTC_CalibOutputCmd()
 119:../Libraries/STM32F30x_StdPeriph_Driver/src/stm32f30x_rtc.c ****              function.                
 120:../Libraries/STM32F30x_StdPeriph_Driver/src/stm32f30x_rtc.c ****                 
 121:../Libraries/STM32F30x_StdPeriph_Driver/src/stm32f30x_rtc.c ****     *** Smooth digital Calibration configuration ***
 122:../Libraries/STM32F30x_StdPeriph_Driver/src/stm32f30x_rtc.c ****     ================================================    
 123:../Libraries/STM32F30x_StdPeriph_Driver/src/stm32f30x_rtc.c ****     [..]
 124:../Libraries/STM32F30x_StdPeriph_Driver/src/stm32f30x_rtc.c ****          (+) Configure the RTC Original Digital Calibration Value and the corresponding
 125:../Libraries/STM32F30x_StdPeriph_Driver/src/stm32f30x_rtc.c ****              calibration cycle period (32s,16s and 8s) using the RTC_SmoothCalibConfig() 
 126:../Libraries/STM32F30x_StdPeriph_Driver/src/stm32f30x_rtc.c ****              function.                                                       
 127:../Libraries/STM32F30x_StdPeriph_Driver/src/stm32f30x_rtc.c ****                 
 128:../Libraries/STM32F30x_StdPeriph_Driver/src/stm32f30x_rtc.c ****     *** TimeStamp configuration ***
 129:../Libraries/STM32F30x_StdPeriph_Driver/src/stm32f30x_rtc.c ****     ===============================    
 130:../Libraries/STM32F30x_StdPeriph_Driver/src/stm32f30x_rtc.c ****     [..]
 131:../Libraries/STM32F30x_StdPeriph_Driver/src/stm32f30x_rtc.c ****          (+) Configure the RTC_AF trigger and enables the RTC TimeStamp 
 132:../Libraries/STM32F30x_StdPeriph_Driver/src/stm32f30x_rtc.c ****              using the RTC_TimeStampCmd() function.
 133:../Libraries/STM32F30x_StdPeriph_Driver/src/stm32f30x_rtc.c ****          (+) To read the RTC TimeStamp Time and Date register, use the 
 134:../Libraries/STM32F30x_StdPeriph_Driver/src/stm32f30x_rtc.c ****              RTC_GetTimeStamp() function.
 135:../Libraries/STM32F30x_StdPeriph_Driver/src/stm32f30x_rtc.c ****          (+) To read the RTC TimeStamp SubSecond register, use the 
 136:../Libraries/STM32F30x_StdPeriph_Driver/src/stm32f30x_rtc.c ****              RTC_GetTimeStampSubSecond() function.    
 137:../Libraries/STM32F30x_StdPeriph_Driver/src/stm32f30x_rtc.c **** 
 138:../Libraries/STM32F30x_StdPeriph_Driver/src/stm32f30x_rtc.c ****     *** Tamper configuration ***
 139:../Libraries/STM32F30x_StdPeriph_Driver/src/stm32f30x_rtc.c ****     ============================    
 140:../Libraries/STM32F30x_StdPeriph_Driver/src/stm32f30x_rtc.c ****     [..]
 141:../Libraries/STM32F30x_StdPeriph_Driver/src/stm32f30x_rtc.c ****          (+) Configure the Tamper filter count using RTC_TamperFilterConfig()
 142:../Libraries/STM32F30x_StdPeriph_Driver/src/stm32f30x_rtc.c ****              function. 
 143:../Libraries/STM32F30x_StdPeriph_Driver/src/stm32f30x_rtc.c ****          (+) Configure the RTC Tamper trigger Edge or Level according to the Tamper 
 144:../Libraries/STM32F30x_StdPeriph_Driver/src/stm32f30x_rtc.c ****              filter (if equal to 0 Edge else Level) value using the RTC_TamperConfig() function.
 145:../Libraries/STM32F30x_StdPeriph_Driver/src/stm32f30x_rtc.c ****          (+) Configure the Tamper sampling frequency using RTC_TamperSamplingFreqConfig()
 146:../Libraries/STM32F30x_StdPeriph_Driver/src/stm32f30x_rtc.c ****              function.
 147:../Libraries/STM32F30x_StdPeriph_Driver/src/stm32f30x_rtc.c ****          (+) Configure the Tamper precharge or discharge duration using 
 148:../Libraries/STM32F30x_StdPeriph_Driver/src/stm32f30x_rtc.c ****              RTC_TamperPinsPrechargeDuration() function.
 149:../Libraries/STM32F30x_StdPeriph_Driver/src/stm32f30x_rtc.c ****          (+) Enable the Tamper Pull-UP using RTC_TamperPullUpDisableCmd() function.
 150:../Libraries/STM32F30x_StdPeriph_Driver/src/stm32f30x_rtc.c ****          (+) Enable the RTC Tamper using the RTC_TamperCmd() function.
 151:../Libraries/STM32F30x_StdPeriph_Driver/src/stm32f30x_rtc.c ****          (+) Enable the Time stamp on Tamper detection event using  
 152:../Libraries/STM32F30x_StdPeriph_Driver/src/stm32f30x_rtc.c ****              RTC_TSOnTamperDetecCmd() function.     
 153:../Libraries/STM32F30x_StdPeriph_Driver/src/stm32f30x_rtc.c **** 
 154:../Libraries/STM32F30x_StdPeriph_Driver/src/stm32f30x_rtc.c ****     *** Backup Data Registers configuration ***
 155:../Libraries/STM32F30x_StdPeriph_Driver/src/stm32f30x_rtc.c ****     ===========================================    
 156:../Libraries/STM32F30x_StdPeriph_Driver/src/stm32f30x_rtc.c ****     [..]
 157:../Libraries/STM32F30x_StdPeriph_Driver/src/stm32f30x_rtc.c ****          (+) To write to the RTC Backup Data registers, use the RTC_WriteBackupRegister()
 158:../Libraries/STM32F30x_StdPeriph_Driver/src/stm32f30x_rtc.c ****              function.  
 159:../Libraries/STM32F30x_StdPeriph_Driver/src/stm32f30x_rtc.c ****          (+) To read the RTC Backup Data registers, use the RTC_ReadBackupRegister()
 160:../Libraries/STM32F30x_StdPeriph_Driver/src/stm32f30x_rtc.c ****              function.  
 161:../Libraries/STM32F30x_StdPeriph_Driver/src/stm32f30x_rtc.c ****                                   
 162:../Libraries/STM32F30x_StdPeriph_Driver/src/stm32f30x_rtc.c ****                          ##### RTC and low power modes #####
 163:../Libraries/STM32F30x_StdPeriph_Driver/src/stm32f30x_rtc.c ****  =============================================================================== 
 164:../Libraries/STM32F30x_StdPeriph_Driver/src/stm32f30x_rtc.c ****     [..] The MCU can be woken up from a low power mode by an RTC alternate 
 165:../Libraries/STM32F30x_StdPeriph_Driver/src/stm32f30x_rtc.c ****          function.
 166:../Libraries/STM32F30x_StdPeriph_Driver/src/stm32f30x_rtc.c ****     [..] The RTC alternate functions are the RTC alarms (Alarm A and Alarm B), 
 167:../Libraries/STM32F30x_StdPeriph_Driver/src/stm32f30x_rtc.c ****          RTC wakeup, RTC tamper event detection and RTC time stamp event detection.
 168:../Libraries/STM32F30x_StdPeriph_Driver/src/stm32f30x_rtc.c ****          These RTC alternate functions can wake up the system from the Stop 
 169:../Libraries/STM32F30x_StdPeriph_Driver/src/stm32f30x_rtc.c ****          and Standby lowpower modes.
 170:../Libraries/STM32F30x_StdPeriph_Driver/src/stm32f30x_rtc.c ****          The system can also wake up from low power modes without depending 
 171:../Libraries/STM32F30x_StdPeriph_Driver/src/stm32f30x_rtc.c ****          on an external interrupt (Auto-wakeup mode), by using the RTC alarm 
 172:../Libraries/STM32F30x_StdPeriph_Driver/src/stm32f30x_rtc.c ****          or the RTC wakeup events.
 173:../Libraries/STM32F30x_StdPeriph_Driver/src/stm32f30x_rtc.c ****     [..] The RTC provides a programmable time base for waking up from the 
 174:../Libraries/STM32F30x_StdPeriph_Driver/src/stm32f30x_rtc.c ****          Stop or Standby mode at regular intervals.
 175:../Libraries/STM32F30x_StdPeriph_Driver/src/stm32f30x_rtc.c ****          Wakeup from STOP and Standby modes is possible only when the RTC 
 176:../Libraries/STM32F30x_StdPeriph_Driver/src/stm32f30x_rtc.c ****          clock source is LSE or LSI.
 177:../Libraries/STM32F30x_StdPeriph_Driver/src/stm32f30x_rtc.c ****            
 178:../Libraries/STM32F30x_StdPeriph_Driver/src/stm32f30x_rtc.c ****                 ##### Selection of RTC_AF alternate functions #####
 179:../Libraries/STM32F30x_StdPeriph_Driver/src/stm32f30x_rtc.c ****  ===============================================================================
 180:../Libraries/STM32F30x_StdPeriph_Driver/src/stm32f30x_rtc.c ****     [..] The RTC_AF pin (PC13) can be used for the following purposes:
 181:../Libraries/STM32F30x_StdPeriph_Driver/src/stm32f30x_rtc.c ****          (+) Wakeup pin 2 (WKUP2) using the PWR_WakeUpPinCmd() function.
 182:../Libraries/STM32F30x_StdPeriph_Driver/src/stm32f30x_rtc.c ****          (+) AFO_ALARM output      
 183:../Libraries/STM32F30x_StdPeriph_Driver/src/stm32f30x_rtc.c ****          (+) AFO_CALIB output
 184:../Libraries/STM32F30x_StdPeriph_Driver/src/stm32f30x_rtc.c ****          (+) AFI_TAMPER
 185:../Libraries/STM32F30x_StdPeriph_Driver/src/stm32f30x_rtc.c ****          (+) AFI_TIMESTAMP
 186:../Libraries/STM32F30x_StdPeriph_Driver/src/stm32f30x_rtc.c ****                          
 187:../Libraries/STM32F30x_StdPeriph_Driver/src/stm32f30x_rtc.c ****  +------------------------------------------------------------------------------------------+
 188:../Libraries/STM32F30x_StdPeriph_Driver/src/stm32f30x_rtc.c ****  |     Pin         |RTC ALARM |RTC CALIB |RTC TAMPER |RTC TIMESTAMP |PC13MODE|  PC13VALUE   |
 189:../Libraries/STM32F30x_StdPeriph_Driver/src/stm32f30x_rtc.c ****  |  configuration  | OUTPUT   | OUTPUT   |  INPUT    |    INPUT     |  bit   |     bit      |
 190:../Libraries/STM32F30x_StdPeriph_Driver/src/stm32f30x_rtc.c ****  |  and function   | ENABLED  | ENABLED  | ENABLED   |   ENABLED    |        |              |
 191:../Libraries/STM32F30x_StdPeriph_Driver/src/stm32f30x_rtc.c ****  |-----------------|----------|----------|-----------|--------------|--------|--------------|
 192:../Libraries/STM32F30x_StdPeriph_Driver/src/stm32f30x_rtc.c ****  |   Alarm out     |          |          |           |              | Don't  |              |
 193:../Libraries/STM32F30x_StdPeriph_Driver/src/stm32f30x_rtc.c ****  |   output OD     |     1    |Don't care|Don't care | Don't care   | care   |      0       |
 194:../Libraries/STM32F30x_StdPeriph_Driver/src/stm32f30x_rtc.c ****  |-----------------|----------|----------|-----------|--------------|--------|--------------|
 195:../Libraries/STM32F30x_StdPeriph_Driver/src/stm32f30x_rtc.c ****  |   Alarm out     |          |          |           |              | Don't  |              |
 196:../Libraries/STM32F30x_StdPeriph_Driver/src/stm32f30x_rtc.c ****  |   output PP     |     1    |Don't care|Don't care | Don't care   | care   |      1       |
 197:../Libraries/STM32F30x_StdPeriph_Driver/src/stm32f30x_rtc.c ****  |-----------------|----------|----------|-----------|--------------|--------|--------------|
 198:../Libraries/STM32F30x_StdPeriph_Driver/src/stm32f30x_rtc.c ****  | Calibration out |          |          |           |              | Don't  |              |
 199:../Libraries/STM32F30x_StdPeriph_Driver/src/stm32f30x_rtc.c ****  |   output PP     |     0    |    1     |Don't care | Don't care   | care   |  Don't care  |
 200:../Libraries/STM32F30x_StdPeriph_Driver/src/stm32f30x_rtc.c ****  |-----------------|----------|----------|-----------|--------------|--------|--------------|
 201:../Libraries/STM32F30x_StdPeriph_Driver/src/stm32f30x_rtc.c ****  |  TAMPER input   |          |          |           |              | Don't  |              |
 202:../Libraries/STM32F30x_StdPeriph_Driver/src/stm32f30x_rtc.c ****  |   floating      |     0    |    0     |     1     |      0       | care   |  Don't care  |
 203:../Libraries/STM32F30x_StdPeriph_Driver/src/stm32f30x_rtc.c ****  |-----------------|----------|----------|-----------|--------------|--------|--------------|
 204:../Libraries/STM32F30x_StdPeriph_Driver/src/stm32f30x_rtc.c ****  |  TIMESTAMP and  |          |          |           |              | Don't  |              |
 205:../Libraries/STM32F30x_StdPeriph_Driver/src/stm32f30x_rtc.c ****  |  TAMPER input   |     0    |    0     |     1     |      1       | care   |  Don't care  |
 206:../Libraries/STM32F30x_StdPeriph_Driver/src/stm32f30x_rtc.c ****  |   floating      |          |          |           |              |        |              |
 207:../Libraries/STM32F30x_StdPeriph_Driver/src/stm32f30x_rtc.c ****  |-----------------|----------|----------|-----------|--------------|--------|--------------|
 208:../Libraries/STM32F30x_StdPeriph_Driver/src/stm32f30x_rtc.c ****  | TIMESTAMP input |          |          |           |              | Don't  |              |
 209:../Libraries/STM32F30x_StdPeriph_Driver/src/stm32f30x_rtc.c ****  |    floating     |     0    |    0     |     0     |      1       | care   |  Don't care  |
 210:../Libraries/STM32F30x_StdPeriph_Driver/src/stm32f30x_rtc.c ****  |-----------------|----------|----------|-----------|--------------|--------|--------------|
 211:../Libraries/STM32F30x_StdPeriph_Driver/src/stm32f30x_rtc.c ****  |   Output PP     |     0    |    0     |     0     |      0       |   1    | PC13 output  |
 212:../Libraries/STM32F30x_StdPeriph_Driver/src/stm32f30x_rtc.c ****  |    Forced       |          |          |           |              |        |              |
 213:../Libraries/STM32F30x_StdPeriph_Driver/src/stm32f30x_rtc.c ****  |-----------------|----------|----------|-----------|--------------|--------|--------------|
 214:../Libraries/STM32F30x_StdPeriph_Driver/src/stm32f30x_rtc.c ****  |  Wakeup Pin or  |     0    |    0     |     0     |      0       |   0    | Don't care   |
 215:../Libraries/STM32F30x_StdPeriph_Driver/src/stm32f30x_rtc.c ****  |  Standard GPIO  |          |          |           |              |        |              |
 216:../Libraries/STM32F30x_StdPeriph_Driver/src/stm32f30x_rtc.c ****  +------------------------------------------------------------------------------------------+
 217:../Libraries/STM32F30x_StdPeriph_Driver/src/stm32f30x_rtc.c ****     
 218:../Libraries/STM32F30x_StdPeriph_Driver/src/stm32f30x_rtc.c ****   @endverbatim
 219:../Libraries/STM32F30x_StdPeriph_Driver/src/stm32f30x_rtc.c ****                       
 220:../Libraries/STM32F30x_StdPeriph_Driver/src/stm32f30x_rtc.c ****   ******************************************************************************
 221:../Libraries/STM32F30x_StdPeriph_Driver/src/stm32f30x_rtc.c ****   * @attention
 222:../Libraries/STM32F30x_StdPeriph_Driver/src/stm32f30x_rtc.c ****   *
 223:../Libraries/STM32F30x_StdPeriph_Driver/src/stm32f30x_rtc.c ****   * <h2><center>&copy; COPYRIGHT 2012 STMicroelectronics</center></h2>
 224:../Libraries/STM32F30x_StdPeriph_Driver/src/stm32f30x_rtc.c ****   *
 225:../Libraries/STM32F30x_StdPeriph_Driver/src/stm32f30x_rtc.c ****   * Licensed under MCD-ST Liberty SW License Agreement V2, (the "License");
 226:../Libraries/STM32F30x_StdPeriph_Driver/src/stm32f30x_rtc.c ****   * You may not use this file except in compliance with the License.
 227:../Libraries/STM32F30x_StdPeriph_Driver/src/stm32f30x_rtc.c ****   * You may obtain a copy of the License at:
 228:../Libraries/STM32F30x_StdPeriph_Driver/src/stm32f30x_rtc.c ****   *
 229:../Libraries/STM32F30x_StdPeriph_Driver/src/stm32f30x_rtc.c ****   *        http://www.st.com/software_license_agreement_liberty_v2
 230:../Libraries/STM32F30x_StdPeriph_Driver/src/stm32f30x_rtc.c ****   *
 231:../Libraries/STM32F30x_StdPeriph_Driver/src/stm32f30x_rtc.c ****   * Unless required by applicable law or agreed to in writing, software 
 232:../Libraries/STM32F30x_StdPeriph_Driver/src/stm32f30x_rtc.c ****   * distributed under the License is distributed on an "AS IS" BASIS, 
 233:../Libraries/STM32F30x_StdPeriph_Driver/src/stm32f30x_rtc.c ****   * WITHOUT WARRANTIES OR CONDITIONS OF ANY KIND, either express or implied.
 234:../Libraries/STM32F30x_StdPeriph_Driver/src/stm32f30x_rtc.c ****   * See the License for the specific language governing permissions and
 235:../Libraries/STM32F30x_StdPeriph_Driver/src/stm32f30x_rtc.c ****   * limitations under the License.
 236:../Libraries/STM32F30x_StdPeriph_Driver/src/stm32f30x_rtc.c ****   *
 237:../Libraries/STM32F30x_StdPeriph_Driver/src/stm32f30x_rtc.c ****   ******************************************************************************
 238:../Libraries/STM32F30x_StdPeriph_Driver/src/stm32f30x_rtc.c ****   */ 
 239:../Libraries/STM32F30x_StdPeriph_Driver/src/stm32f30x_rtc.c **** 
 240:../Libraries/STM32F30x_StdPeriph_Driver/src/stm32f30x_rtc.c **** /* Includes ------------------------------------------------------------------*/
 241:../Libraries/STM32F30x_StdPeriph_Driver/src/stm32f30x_rtc.c **** #include "stm32f30x_rtc.h"
 242:../Libraries/STM32F30x_StdPeriph_Driver/src/stm32f30x_rtc.c **** #include "stm32f30x_rcc.h"
 243:../Libraries/STM32F30x_StdPeriph_Driver/src/stm32f30x_rtc.c **** 
 244:../Libraries/STM32F30x_StdPeriph_Driver/src/stm32f30x_rtc.c **** /** @addtogroup STM32F30x_StdPeriph_Driver
 245:../Libraries/STM32F30x_StdPeriph_Driver/src/stm32f30x_rtc.c ****   * @{
 246:../Libraries/STM32F30x_StdPeriph_Driver/src/stm32f30x_rtc.c ****   */
 247:../Libraries/STM32F30x_StdPeriph_Driver/src/stm32f30x_rtc.c **** 
 248:../Libraries/STM32F30x_StdPeriph_Driver/src/stm32f30x_rtc.c **** /** @defgroup RTC 
 249:../Libraries/STM32F30x_StdPeriph_Driver/src/stm32f30x_rtc.c ****   * @brief RTC driver modules
 250:../Libraries/STM32F30x_StdPeriph_Driver/src/stm32f30x_rtc.c ****   * @{
 251:../Libraries/STM32F30x_StdPeriph_Driver/src/stm32f30x_rtc.c ****   */
 252:../Libraries/STM32F30x_StdPeriph_Driver/src/stm32f30x_rtc.c **** 
 253:../Libraries/STM32F30x_StdPeriph_Driver/src/stm32f30x_rtc.c **** /* Private typedef -----------------------------------------------------------*/
 254:../Libraries/STM32F30x_StdPeriph_Driver/src/stm32f30x_rtc.c **** /* Private define ------------------------------------------------------------*/
 255:../Libraries/STM32F30x_StdPeriph_Driver/src/stm32f30x_rtc.c **** 
 256:../Libraries/STM32F30x_StdPeriph_Driver/src/stm32f30x_rtc.c **** /* Masks Definition */
 257:../Libraries/STM32F30x_StdPeriph_Driver/src/stm32f30x_rtc.c **** #define RTC_TR_RESERVED_MASK    ((uint32_t)0x007F7F7F)
 258:../Libraries/STM32F30x_StdPeriph_Driver/src/stm32f30x_rtc.c **** #define RTC_DR_RESERVED_MASK    ((uint32_t)0x00FFFF3F) 
 259:../Libraries/STM32F30x_StdPeriph_Driver/src/stm32f30x_rtc.c **** #define RTC_INIT_MASK           ((uint32_t)0xFFFFFFFF)  
 260:../Libraries/STM32F30x_StdPeriph_Driver/src/stm32f30x_rtc.c **** #define RTC_RSF_MASK            ((uint32_t)0xFFFFFF5F)
 261:../Libraries/STM32F30x_StdPeriph_Driver/src/stm32f30x_rtc.c **** #define RTC_FLAGS_MASK          ((uint32_t)(RTC_FLAG_TSOVF | RTC_FLAG_TSF | RTC_FLAG_WUTF | \
 262:../Libraries/STM32F30x_StdPeriph_Driver/src/stm32f30x_rtc.c ****                                             RTC_FLAG_ALRBF | RTC_FLAG_ALRAF | RTC_FLAG_INITF | \
 263:../Libraries/STM32F30x_StdPeriph_Driver/src/stm32f30x_rtc.c ****                                             RTC_FLAG_RSF | RTC_FLAG_INITS | RTC_FLAG_WUTWF | \
 264:../Libraries/STM32F30x_StdPeriph_Driver/src/stm32f30x_rtc.c ****                                             RTC_FLAG_ALRBWF | RTC_FLAG_ALRAWF | RTC_FLAG_TAMP1F | \
 265:../Libraries/STM32F30x_StdPeriph_Driver/src/stm32f30x_rtc.c ****                                             RTC_FLAG_TAMP2F | RTC_FLAG_TAMP3F | RTC_FLAG_RECALPF | 
 266:../Libraries/STM32F30x_StdPeriph_Driver/src/stm32f30x_rtc.c ****                                             RTC_FLAG_SHPF))
 267:../Libraries/STM32F30x_StdPeriph_Driver/src/stm32f30x_rtc.c **** 
 268:../Libraries/STM32F30x_StdPeriph_Driver/src/stm32f30x_rtc.c **** #define INITMODE_TIMEOUT         ((uint32_t) 0x00002000)
 269:../Libraries/STM32F30x_StdPeriph_Driver/src/stm32f30x_rtc.c **** #define SYNCHRO_TIMEOUT          ((uint32_t) 0x00008000)
 270:../Libraries/STM32F30x_StdPeriph_Driver/src/stm32f30x_rtc.c **** #define RECALPF_TIMEOUT          ((uint32_t) 0x00001000)
 271:../Libraries/STM32F30x_StdPeriph_Driver/src/stm32f30x_rtc.c **** #define SHPF_TIMEOUT             ((uint32_t) 0x00002000)
 272:../Libraries/STM32F30x_StdPeriph_Driver/src/stm32f30x_rtc.c **** 
 273:../Libraries/STM32F30x_StdPeriph_Driver/src/stm32f30x_rtc.c **** /* Private macro -------------------------------------------------------------*/
 274:../Libraries/STM32F30x_StdPeriph_Driver/src/stm32f30x_rtc.c **** /* Private variables ---------------------------------------------------------*/
 275:../Libraries/STM32F30x_StdPeriph_Driver/src/stm32f30x_rtc.c **** /* Private function prototypes -----------------------------------------------*/
 276:../Libraries/STM32F30x_StdPeriph_Driver/src/stm32f30x_rtc.c **** static uint8_t RTC_ByteToBcd2(uint8_t Value);
 277:../Libraries/STM32F30x_StdPeriph_Driver/src/stm32f30x_rtc.c **** static uint8_t RTC_Bcd2ToByte(uint8_t Value);
 278:../Libraries/STM32F30x_StdPeriph_Driver/src/stm32f30x_rtc.c **** 
 279:../Libraries/STM32F30x_StdPeriph_Driver/src/stm32f30x_rtc.c **** /* Private functions ---------------------------------------------------------*/
 280:../Libraries/STM32F30x_StdPeriph_Driver/src/stm32f30x_rtc.c **** 
 281:../Libraries/STM32F30x_StdPeriph_Driver/src/stm32f30x_rtc.c **** /** @defgroup RTC_Private_Functions
 282:../Libraries/STM32F30x_StdPeriph_Driver/src/stm32f30x_rtc.c ****   * @{
 283:../Libraries/STM32F30x_StdPeriph_Driver/src/stm32f30x_rtc.c ****   */ 
 284:../Libraries/STM32F30x_StdPeriph_Driver/src/stm32f30x_rtc.c **** 
 285:../Libraries/STM32F30x_StdPeriph_Driver/src/stm32f30x_rtc.c **** /** @defgroup RTC_Group1 Initialization and Configuration functions
 286:../Libraries/STM32F30x_StdPeriph_Driver/src/stm32f30x_rtc.c ****  *  @brief   Initialization and Configuration functions 
 287:../Libraries/STM32F30x_StdPeriph_Driver/src/stm32f30x_rtc.c ****  *
 288:../Libraries/STM32F30x_StdPeriph_Driver/src/stm32f30x_rtc.c **** @verbatim   
 289:../Libraries/STM32F30x_StdPeriph_Driver/src/stm32f30x_rtc.c ****  ===============================================================================
 290:../Libraries/STM32F30x_StdPeriph_Driver/src/stm32f30x_rtc.c ****             ##### Initialization and Configuration functions #####
 291:../Libraries/STM32F30x_StdPeriph_Driver/src/stm32f30x_rtc.c ****  ===============================================================================  
 292:../Libraries/STM32F30x_StdPeriph_Driver/src/stm32f30x_rtc.c ****     [..] This section provide functions allowing to initialize and configure the RTC
 293:../Libraries/STM32F30x_StdPeriph_Driver/src/stm32f30x_rtc.c ****          Prescaler (Synchronous and Asynchronous), RTC Hour format, disable RTC registers
 294:../Libraries/STM32F30x_StdPeriph_Driver/src/stm32f30x_rtc.c ****          Write protection, enter and exit the RTC initialization mode, RTC registers
 295:../Libraries/STM32F30x_StdPeriph_Driver/src/stm32f30x_rtc.c ****          synchronization check and reference clock detection enable.
 296:../Libraries/STM32F30x_StdPeriph_Driver/src/stm32f30x_rtc.c ****          (#) The RTC Prescaler is programmed to generate the RTC 1Hz time base. It is
 297:../Libraries/STM32F30x_StdPeriph_Driver/src/stm32f30x_rtc.c ****              split into 2 programmable prescalers to minimize power consumption.
 298:../Libraries/STM32F30x_StdPeriph_Driver/src/stm32f30x_rtc.c ****              (++) A 7-bit asynchronous prescaler and A 13-bit synchronous prescaler.
 299:../Libraries/STM32F30x_StdPeriph_Driver/src/stm32f30x_rtc.c ****              (++) When both prescalers are used, it is recommended to configure the 
 300:../Libraries/STM32F30x_StdPeriph_Driver/src/stm32f30x_rtc.c ****                   asynchronous prescaler to a high value to minimize consumption.
 301:../Libraries/STM32F30x_StdPeriph_Driver/src/stm32f30x_rtc.c ****          (#) All RTC registers are Write protected. Writing to the RTC registers
 302:../Libraries/STM32F30x_StdPeriph_Driver/src/stm32f30x_rtc.c ****              is enabled by writing a key into the Write Protection register, RTC_WPR.
 303:../Libraries/STM32F30x_StdPeriph_Driver/src/stm32f30x_rtc.c ****          (#) To Configure the RTC Calendar, user application should enter initialization
 304:../Libraries/STM32F30x_StdPeriph_Driver/src/stm32f30x_rtc.c ****              mode. In this mode, the calendar counter is stopped and its value 
 305:../Libraries/STM32F30x_StdPeriph_Driver/src/stm32f30x_rtc.c ****              can be updated. When the initialization sequence is complete, the 
 306:../Libraries/STM32F30x_StdPeriph_Driver/src/stm32f30x_rtc.c ****              calendar restarts counting after 4 RTCCLK cycles.
 307:../Libraries/STM32F30x_StdPeriph_Driver/src/stm32f30x_rtc.c ****          (#) To read the calendar through the shadow registers after Calendar 
 308:../Libraries/STM32F30x_StdPeriph_Driver/src/stm32f30x_rtc.c ****              initialization, calendar update or after wakeup from low power modes 
 309:../Libraries/STM32F30x_StdPeriph_Driver/src/stm32f30x_rtc.c ****              the software must first clear the RSF flag. The software must then 
 310:../Libraries/STM32F30x_StdPeriph_Driver/src/stm32f30x_rtc.c ****              wait until it is set again before reading the calendar, which means 
 311:../Libraries/STM32F30x_StdPeriph_Driver/src/stm32f30x_rtc.c ****              that the calendar registers have been correctly copied into the RTC_TR 
 312:../Libraries/STM32F30x_StdPeriph_Driver/src/stm32f30x_rtc.c ****              and RTC_DR shadow registers. The RTC_WaitForSynchro() function 
 313:../Libraries/STM32F30x_StdPeriph_Driver/src/stm32f30x_rtc.c ****              implements the above software sequence (RSF clear and RSF check).
 314:../Libraries/STM32F30x_StdPeriph_Driver/src/stm32f30x_rtc.c **** 
 315:../Libraries/STM32F30x_StdPeriph_Driver/src/stm32f30x_rtc.c **** @endverbatim
 316:../Libraries/STM32F30x_StdPeriph_Driver/src/stm32f30x_rtc.c ****   * @{
 317:../Libraries/STM32F30x_StdPeriph_Driver/src/stm32f30x_rtc.c ****   */
 318:../Libraries/STM32F30x_StdPeriph_Driver/src/stm32f30x_rtc.c **** 
 319:../Libraries/STM32F30x_StdPeriph_Driver/src/stm32f30x_rtc.c **** /**
 320:../Libraries/STM32F30x_StdPeriph_Driver/src/stm32f30x_rtc.c ****   * @brief  Deinitializes the RTC registers to their default reset values.
 321:../Libraries/STM32F30x_StdPeriph_Driver/src/stm32f30x_rtc.c ****   * @note   This function doesn't reset the RTC Clock source and RTC Backup Data
 322:../Libraries/STM32F30x_StdPeriph_Driver/src/stm32f30x_rtc.c ****   *         registers.       
 323:../Libraries/STM32F30x_StdPeriph_Driver/src/stm32f30x_rtc.c ****   * @param  None
 324:../Libraries/STM32F30x_StdPeriph_Driver/src/stm32f30x_rtc.c ****   * @retval An ErrorStatus enumeration value:
 325:../Libraries/STM32F30x_StdPeriph_Driver/src/stm32f30x_rtc.c ****   *          - SUCCESS: RTC registers are deinitialized
 326:../Libraries/STM32F30x_StdPeriph_Driver/src/stm32f30x_rtc.c ****   *          - ERROR: RTC registers are not deinitialized
 327:../Libraries/STM32F30x_StdPeriph_Driver/src/stm32f30x_rtc.c ****   */
 328:../Libraries/STM32F30x_StdPeriph_Driver/src/stm32f30x_rtc.c **** ErrorStatus RTC_DeInit(void)
 329:../Libraries/STM32F30x_StdPeriph_Driver/src/stm32f30x_rtc.c **** {
  27              		.loc 1 329 0
  28              		.cfi_startproc
  29              		@ args = 0, pretend = 0, frame = 16
  30              		@ frame_needed = 0, uses_anonymous_args = 0
  31 0000 00B5     		push	{lr}
  32              	.LCFI0:
  33              		.cfi_def_cfa_offset 4
  34              		.cfi_offset 14, -4
  35 0002 85B0     		sub	sp, sp, #20
  36              	.LCFI1:
  37              		.cfi_def_cfa_offset 24
 330:../Libraries/STM32F30x_StdPeriph_Driver/src/stm32f30x_rtc.c ****   __IO uint32_t wutcounter = 0x00;
  38              		.loc 1 330 0
  39 0004 4FF00003 		mov	r3, #0
  40 0008 0193     		str	r3, [sp, #4]
 331:../Libraries/STM32F30x_StdPeriph_Driver/src/stm32f30x_rtc.c ****   uint32_t wutwfstatus = 0x00;
  41              		.loc 1 331 0
  42 000a 4FF00003 		mov	r3, #0
  43 000e 0293     		str	r3, [sp, #8]
 332:../Libraries/STM32F30x_StdPeriph_Driver/src/stm32f30x_rtc.c ****   ErrorStatus status = ERROR;
  44              		.loc 1 332 0
  45 0010 4FF00003 		mov	r3, #0
  46 0014 8DF80F30 		strb	r3, [sp, #15]
 333:../Libraries/STM32F30x_StdPeriph_Driver/src/stm32f30x_rtc.c ****   
 334:../Libraries/STM32F30x_StdPeriph_Driver/src/stm32f30x_rtc.c ****   /* Disable the write protection for RTC registers */
 335:../Libraries/STM32F30x_StdPeriph_Driver/src/stm32f30x_rtc.c ****   RTC->WPR = 0xCA;
  47              		.loc 1 335 0
  48 0018 4FF42053 		mov	r3, #10240
  49 001c C4F20003 		movt	r3, 16384
  50 0020 4FF0CA02 		mov	r2, #202
  51 0024 5A62     		str	r2, [r3, #36]
 336:../Libraries/STM32F30x_StdPeriph_Driver/src/stm32f30x_rtc.c ****   RTC->WPR = 0x53;
  52              		.loc 1 336 0
  53 0026 4FF42053 		mov	r3, #10240
  54 002a C4F20003 		movt	r3, 16384
  55 002e 4FF05302 		mov	r2, #83
  56 0032 5A62     		str	r2, [r3, #36]
 337:../Libraries/STM32F30x_StdPeriph_Driver/src/stm32f30x_rtc.c **** 
 338:../Libraries/STM32F30x_StdPeriph_Driver/src/stm32f30x_rtc.c ****   /* Set Initialization mode */
 339:../Libraries/STM32F30x_StdPeriph_Driver/src/stm32f30x_rtc.c ****   if (RTC_EnterInitMode() == ERROR)
  57              		.loc 1 339 0
  58 0034 FFF7FEFF 		bl	RTC_EnterInitMode
  59 0038 0346     		mov	r3, r0
  60 003a 002B     		cmp	r3, #0
  61 003c 04D1     		bne	.L2
 340:../Libraries/STM32F30x_StdPeriph_Driver/src/stm32f30x_rtc.c ****   {
 341:../Libraries/STM32F30x_StdPeriph_Driver/src/stm32f30x_rtc.c ****     status = ERROR;
  62              		.loc 1 341 0
  63 003e 4FF00003 		mov	r3, #0
  64 0042 8DF80F30 		strb	r3, [sp, #15]
  65 0046 9CE0     		b	.L3
  66              	.L2:
 342:../Libraries/STM32F30x_StdPeriph_Driver/src/stm32f30x_rtc.c ****   }  
 343:../Libraries/STM32F30x_StdPeriph_Driver/src/stm32f30x_rtc.c ****   else
 344:../Libraries/STM32F30x_StdPeriph_Driver/src/stm32f30x_rtc.c ****   {
 345:../Libraries/STM32F30x_StdPeriph_Driver/src/stm32f30x_rtc.c ****     /* Reset TR, DR and CR registers */
 346:../Libraries/STM32F30x_StdPeriph_Driver/src/stm32f30x_rtc.c ****     RTC->TR = (uint32_t)0x00000000;
  67              		.loc 1 346 0
  68 0048 4FF42053 		mov	r3, #10240
  69 004c C4F20003 		movt	r3, 16384
  70 0050 4FF00002 		mov	r2, #0
  71 0054 1A60     		str	r2, [r3, #0]
 347:../Libraries/STM32F30x_StdPeriph_Driver/src/stm32f30x_rtc.c ****     RTC->DR = (uint32_t)0x00002101;
  72              		.loc 1 347 0
  73 0056 4FF42053 		mov	r3, #10240
  74 005a C4F20003 		movt	r3, 16384
  75 005e 42F20112 		movw	r2, #8449
  76 0062 5A60     		str	r2, [r3, #4]
 348:../Libraries/STM32F30x_StdPeriph_Driver/src/stm32f30x_rtc.c ****     
 349:../Libraries/STM32F30x_StdPeriph_Driver/src/stm32f30x_rtc.c ****     /* Reset All CR bits except CR[2:0] */
 350:../Libraries/STM32F30x_StdPeriph_Driver/src/stm32f30x_rtc.c ****     RTC->CR &= (uint32_t)0x00000007;
  77              		.loc 1 350 0
  78 0064 4FF42053 		mov	r3, #10240
  79 0068 C4F20003 		movt	r3, 16384
  80 006c 4FF42052 		mov	r2, #10240
  81 0070 C4F20002 		movt	r2, 16384
  82 0074 9268     		ldr	r2, [r2, #8]
  83 0076 02F00702 		and	r2, r2, #7
  84 007a 9A60     		str	r2, [r3, #8]
  85              	.L5:
 351:../Libraries/STM32F30x_StdPeriph_Driver/src/stm32f30x_rtc.c ****   
 352:../Libraries/STM32F30x_StdPeriph_Driver/src/stm32f30x_rtc.c ****     /* Wait till RTC WUTWF flag is set and if Time out is reached exit */
 353:../Libraries/STM32F30x_StdPeriph_Driver/src/stm32f30x_rtc.c ****     do
 354:../Libraries/STM32F30x_StdPeriph_Driver/src/stm32f30x_rtc.c ****     {
 355:../Libraries/STM32F30x_StdPeriph_Driver/src/stm32f30x_rtc.c ****       wutwfstatus = RTC->ISR & RTC_ISR_WUTWF;
  86              		.loc 1 355 0 discriminator 1
  87 007c 4FF42053 		mov	r3, #10240
  88 0080 C4F20003 		movt	r3, 16384
  89 0084 DB68     		ldr	r3, [r3, #12]
  90 0086 03F00403 		and	r3, r3, #4
  91 008a 0293     		str	r3, [sp, #8]
 356:../Libraries/STM32F30x_StdPeriph_Driver/src/stm32f30x_rtc.c ****       wutcounter++;  
  92              		.loc 1 356 0 discriminator 1
  93 008c 019B     		ldr	r3, [sp, #4]
  94 008e 03F10103 		add	r3, r3, #1
  95 0092 0193     		str	r3, [sp, #4]
 357:../Libraries/STM32F30x_StdPeriph_Driver/src/stm32f30x_rtc.c ****     } while((wutcounter != INITMODE_TIMEOUT) && (wutwfstatus == 0x00));
  96              		.loc 1 357 0 discriminator 1
  97 0094 019B     		ldr	r3, [sp, #4]
  98 0096 B3F5005F 		cmp	r3, #8192
  99 009a 02D0     		beq	.L4
 100 009c 029B     		ldr	r3, [sp, #8]
 101 009e 002B     		cmp	r3, #0
 102 00a0 ECD0     		beq	.L5
 103              	.L4:
 358:../Libraries/STM32F30x_StdPeriph_Driver/src/stm32f30x_rtc.c ****     
 359:../Libraries/STM32F30x_StdPeriph_Driver/src/stm32f30x_rtc.c ****     if ((RTC->ISR & RTC_ISR_WUTWF) == RESET)
 104              		.loc 1 359 0
 105 00a2 4FF42053 		mov	r3, #10240
 106 00a6 C4F20003 		movt	r3, 16384
 107 00aa DB68     		ldr	r3, [r3, #12]
 108 00ac 03F00403 		and	r3, r3, #4
 109 00b0 002B     		cmp	r3, #0
 110 00b2 04D1     		bne	.L6
 360:../Libraries/STM32F30x_StdPeriph_Driver/src/stm32f30x_rtc.c ****     {
 361:../Libraries/STM32F30x_StdPeriph_Driver/src/stm32f30x_rtc.c ****       status = ERROR;
 111              		.loc 1 361 0
 112 00b4 4FF00003 		mov	r3, #0
 113 00b8 8DF80F30 		strb	r3, [sp, #15]
 114 00bc 61E0     		b	.L3
 115              	.L6:
 362:../Libraries/STM32F30x_StdPeriph_Driver/src/stm32f30x_rtc.c ****     }
 363:../Libraries/STM32F30x_StdPeriph_Driver/src/stm32f30x_rtc.c ****     else
 364:../Libraries/STM32F30x_StdPeriph_Driver/src/stm32f30x_rtc.c ****     {
 365:../Libraries/STM32F30x_StdPeriph_Driver/src/stm32f30x_rtc.c ****       /* Reset all RTC CR register bits */
 366:../Libraries/STM32F30x_StdPeriph_Driver/src/stm32f30x_rtc.c ****       RTC->CR        &= (uint32_t)0x00000000;
 116              		.loc 1 366 0
 117 00be 4FF42053 		mov	r3, #10240
 118 00c2 C4F20003 		movt	r3, 16384
 119 00c6 9B68     		ldr	r3, [r3, #8]
 120 00c8 4FF42053 		mov	r3, #10240
 121 00cc C4F20003 		movt	r3, 16384
 122 00d0 4FF00002 		mov	r2, #0
 123 00d4 9A60     		str	r2, [r3, #8]
 367:../Libraries/STM32F30x_StdPeriph_Driver/src/stm32f30x_rtc.c ****       RTC->WUTR      = (uint32_t)0x0000FFFF;
 124              		.loc 1 367 0
 125 00d6 4FF42053 		mov	r3, #10240
 126 00da C4F20003 		movt	r3, 16384
 127 00de 4FF6FF72 		movw	r2, #65535
 128 00e2 5A61     		str	r2, [r3, #20]
 368:../Libraries/STM32F30x_StdPeriph_Driver/src/stm32f30x_rtc.c ****       RTC->PRER      = (uint32_t)0x007F00FF;
 129              		.loc 1 368 0
 130 00e4 4FF42053 		mov	r3, #10240
 131 00e8 C4F20003 		movt	r3, 16384
 132 00ec 4FF0FF02 		mov	r2, #255
 133 00f0 C0F27F02 		movt	r2, 127
 134 00f4 1A61     		str	r2, [r3, #16]
 369:../Libraries/STM32F30x_StdPeriph_Driver/src/stm32f30x_rtc.c ****       RTC->ALRMAR    = (uint32_t)0x00000000;
 135              		.loc 1 369 0
 136 00f6 4FF42053 		mov	r3, #10240
 137 00fa C4F20003 		movt	r3, 16384
 138 00fe 4FF00002 		mov	r2, #0
 139 0102 DA61     		str	r2, [r3, #28]
 370:../Libraries/STM32F30x_StdPeriph_Driver/src/stm32f30x_rtc.c ****       RTC->ALRMBR    = (uint32_t)0x00000000;
 140              		.loc 1 370 0
 141 0104 4FF42053 		mov	r3, #10240
 142 0108 C4F20003 		movt	r3, 16384
 143 010c 4FF00002 		mov	r2, #0
 144 0110 1A62     		str	r2, [r3, #32]
 371:../Libraries/STM32F30x_StdPeriph_Driver/src/stm32f30x_rtc.c ****       RTC->SHIFTR    = (uint32_t)0x00000000;
 145              		.loc 1 371 0
 146 0112 4FF42053 		mov	r3, #10240
 147 0116 C4F20003 		movt	r3, 16384
 148 011a 4FF00002 		mov	r2, #0
 149 011e DA62     		str	r2, [r3, #44]
 372:../Libraries/STM32F30x_StdPeriph_Driver/src/stm32f30x_rtc.c ****       RTC->CALR       = (uint32_t)0x00000000;
 150              		.loc 1 372 0
 151 0120 4FF42053 		mov	r3, #10240
 152 0124 C4F20003 		movt	r3, 16384
 153 0128 4FF00002 		mov	r2, #0
 154 012c DA63     		str	r2, [r3, #60]
 373:../Libraries/STM32F30x_StdPeriph_Driver/src/stm32f30x_rtc.c ****       RTC->ALRMASSR  = (uint32_t)0x00000000;
 155              		.loc 1 373 0
 156 012e 4FF42053 		mov	r3, #10240
 157 0132 C4F20003 		movt	r3, 16384
 158 0136 4FF00002 		mov	r2, #0
 159 013a 5A64     		str	r2, [r3, #68]
 374:../Libraries/STM32F30x_StdPeriph_Driver/src/stm32f30x_rtc.c ****       RTC->ALRMBSSR  = (uint32_t)0x00000000;
 160              		.loc 1 374 0
 161 013c 4FF42053 		mov	r3, #10240
 162 0140 C4F20003 		movt	r3, 16384
 163 0144 4FF00002 		mov	r2, #0
 164 0148 9A64     		str	r2, [r3, #72]
 375:../Libraries/STM32F30x_StdPeriph_Driver/src/stm32f30x_rtc.c **** 
 376:../Libraries/STM32F30x_StdPeriph_Driver/src/stm32f30x_rtc.c ****       /* Reset ISR register and exit initialization mode */
 377:../Libraries/STM32F30x_StdPeriph_Driver/src/stm32f30x_rtc.c ****       RTC->ISR = (uint32_t)0x00000000;
 165              		.loc 1 377 0
 166 014a 4FF42053 		mov	r3, #10240
 167 014e C4F20003 		movt	r3, 16384
 168 0152 4FF00002 		mov	r2, #0
 169 0156 DA60     		str	r2, [r3, #12]
 378:../Libraries/STM32F30x_StdPeriph_Driver/src/stm32f30x_rtc.c ****       
 379:../Libraries/STM32F30x_StdPeriph_Driver/src/stm32f30x_rtc.c ****       /* Reset Tamper and alternate functions configuration register */
 380:../Libraries/STM32F30x_StdPeriph_Driver/src/stm32f30x_rtc.c ****       RTC->TAFCR = 0x00000000;
 170              		.loc 1 380 0
 171 0158 4FF42053 		mov	r3, #10240
 172 015c C4F20003 		movt	r3, 16384
 173 0160 4FF00002 		mov	r2, #0
 174 0164 1A64     		str	r2, [r3, #64]
 381:../Libraries/STM32F30x_StdPeriph_Driver/src/stm32f30x_rtc.c ****       
 382:../Libraries/STM32F30x_StdPeriph_Driver/src/stm32f30x_rtc.c ****       /* Wait till the RTC RSF flag is set */
 383:../Libraries/STM32F30x_StdPeriph_Driver/src/stm32f30x_rtc.c ****       if (RTC_WaitForSynchro() == ERROR)
 175              		.loc 1 383 0
 176 0166 FFF7FEFF 		bl	RTC_WaitForSynchro
 177 016a 0346     		mov	r3, r0
 178 016c 002B     		cmp	r3, #0
 179 016e 04D1     		bne	.L7
 384:../Libraries/STM32F30x_StdPeriph_Driver/src/stm32f30x_rtc.c ****       {
 385:../Libraries/STM32F30x_StdPeriph_Driver/src/stm32f30x_rtc.c ****         status = ERROR;
 180              		.loc 1 385 0
 181 0170 4FF00003 		mov	r3, #0
 182 0174 8DF80F30 		strb	r3, [sp, #15]
 183 0178 03E0     		b	.L3
 184              	.L7:
 386:../Libraries/STM32F30x_StdPeriph_Driver/src/stm32f30x_rtc.c ****       }
 387:../Libraries/STM32F30x_StdPeriph_Driver/src/stm32f30x_rtc.c ****       else
 388:../Libraries/STM32F30x_StdPeriph_Driver/src/stm32f30x_rtc.c ****       {
 389:../Libraries/STM32F30x_StdPeriph_Driver/src/stm32f30x_rtc.c ****         status = SUCCESS;
 185              		.loc 1 389 0
 186 017a 4FF00103 		mov	r3, #1
 187 017e 8DF80F30 		strb	r3, [sp, #15]
 188              	.L3:
 390:../Libraries/STM32F30x_StdPeriph_Driver/src/stm32f30x_rtc.c ****       }
 391:../Libraries/STM32F30x_StdPeriph_Driver/src/stm32f30x_rtc.c ****     }
 392:../Libraries/STM32F30x_StdPeriph_Driver/src/stm32f30x_rtc.c ****   }
 393:../Libraries/STM32F30x_StdPeriph_Driver/src/stm32f30x_rtc.c ****   
 394:../Libraries/STM32F30x_StdPeriph_Driver/src/stm32f30x_rtc.c ****   /* Enable the write protection for RTC registers */
 395:../Libraries/STM32F30x_StdPeriph_Driver/src/stm32f30x_rtc.c ****   RTC->WPR = 0xFF;  
 189              		.loc 1 395 0
 190 0182 4FF42053 		mov	r3, #10240
 191 0186 C4F20003 		movt	r3, 16384
 192 018a 4FF0FF02 		mov	r2, #255
 193 018e 5A62     		str	r2, [r3, #36]
 396:../Libraries/STM32F30x_StdPeriph_Driver/src/stm32f30x_rtc.c ****   
 397:../Libraries/STM32F30x_StdPeriph_Driver/src/stm32f30x_rtc.c ****   return status;
 194              		.loc 1 397 0
 195 0190 9DF80F30 		ldrb	r3, [sp, #15]	@ zero_extendqisi2
 398:../Libraries/STM32F30x_StdPeriph_Driver/src/stm32f30x_rtc.c **** }
 196              		.loc 1 398 0
 197 0194 1846     		mov	r0, r3
 198 0196 05B0     		add	sp, sp, #20
 199 0198 00BD     		pop	{pc}
 200              		.cfi_endproc
 201              	.LFE111:
 203 019a 00BF     		.align	2
 204              		.global	RTC_Init
 205              		.thumb
 206              		.thumb_func
 208              	RTC_Init:
 209              	.LFB112:
 399:../Libraries/STM32F30x_StdPeriph_Driver/src/stm32f30x_rtc.c **** 
 400:../Libraries/STM32F30x_StdPeriph_Driver/src/stm32f30x_rtc.c **** /**
 401:../Libraries/STM32F30x_StdPeriph_Driver/src/stm32f30x_rtc.c ****   * @brief  Initializes the RTC registers according to the specified parameters 
 402:../Libraries/STM32F30x_StdPeriph_Driver/src/stm32f30x_rtc.c ****   *         in RTC_InitStruct.
 403:../Libraries/STM32F30x_StdPeriph_Driver/src/stm32f30x_rtc.c ****   * @param  RTC_InitStruct: pointer to a RTC_InitTypeDef structure that contains 
 404:../Libraries/STM32F30x_StdPeriph_Driver/src/stm32f30x_rtc.c ****   *         the configuration information for the RTC peripheral.
 405:../Libraries/STM32F30x_StdPeriph_Driver/src/stm32f30x_rtc.c ****   * @note   The RTC Prescaler register is write protected and can be written in 
 406:../Libraries/STM32F30x_StdPeriph_Driver/src/stm32f30x_rtc.c ****   *         initialization mode only.  
 407:../Libraries/STM32F30x_StdPeriph_Driver/src/stm32f30x_rtc.c ****   * @retval An ErrorStatus enumeration value:
 408:../Libraries/STM32F30x_StdPeriph_Driver/src/stm32f30x_rtc.c ****   *          - SUCCESS: RTC registers are initialized
 409:../Libraries/STM32F30x_StdPeriph_Driver/src/stm32f30x_rtc.c ****   *          - ERROR: RTC registers are not initialized  
 410:../Libraries/STM32F30x_StdPeriph_Driver/src/stm32f30x_rtc.c ****   */
 411:../Libraries/STM32F30x_StdPeriph_Driver/src/stm32f30x_rtc.c **** ErrorStatus RTC_Init(RTC_InitTypeDef* RTC_InitStruct)
 412:../Libraries/STM32F30x_StdPeriph_Driver/src/stm32f30x_rtc.c **** {
 210              		.loc 1 412 0
 211              		.cfi_startproc
 212              		@ args = 0, pretend = 0, frame = 16
 213              		@ frame_needed = 0, uses_anonymous_args = 0
 214 019c 00B5     		push	{lr}
 215              	.LCFI2:
 216              		.cfi_def_cfa_offset 4
 217              		.cfi_offset 14, -4
 218 019e 85B0     		sub	sp, sp, #20
 219              	.LCFI3:
 220              		.cfi_def_cfa_offset 24
 221 01a0 0190     		str	r0, [sp, #4]
 413:../Libraries/STM32F30x_StdPeriph_Driver/src/stm32f30x_rtc.c ****   ErrorStatus status = ERROR;
 222              		.loc 1 413 0
 223 01a2 4FF00003 		mov	r3, #0
 224 01a6 8DF80F30 		strb	r3, [sp, #15]
 414:../Libraries/STM32F30x_StdPeriph_Driver/src/stm32f30x_rtc.c ****   
 415:../Libraries/STM32F30x_StdPeriph_Driver/src/stm32f30x_rtc.c ****   /* Check the parameters */
 416:../Libraries/STM32F30x_StdPeriph_Driver/src/stm32f30x_rtc.c ****   assert_param(IS_RTC_HOUR_FORMAT(RTC_InitStruct->RTC_HourFormat));
 417:../Libraries/STM32F30x_StdPeriph_Driver/src/stm32f30x_rtc.c ****   assert_param(IS_RTC_ASYNCH_PREDIV(RTC_InitStruct->RTC_AsynchPrediv));
 418:../Libraries/STM32F30x_StdPeriph_Driver/src/stm32f30x_rtc.c ****   assert_param(IS_RTC_SYNCH_PREDIV(RTC_InitStruct->RTC_SynchPrediv));
 419:../Libraries/STM32F30x_StdPeriph_Driver/src/stm32f30x_rtc.c **** 
 420:../Libraries/STM32F30x_StdPeriph_Driver/src/stm32f30x_rtc.c ****   /* Disable the write protection for RTC registers */
 421:../Libraries/STM32F30x_StdPeriph_Driver/src/stm32f30x_rtc.c ****   RTC->WPR = 0xCA;
 225              		.loc 1 421 0
 226 01aa 4FF42053 		mov	r3, #10240
 227 01ae C4F20003 		movt	r3, 16384
 228 01b2 4FF0CA02 		mov	r2, #202
 229 01b6 5A62     		str	r2, [r3, #36]
 422:../Libraries/STM32F30x_StdPeriph_Driver/src/stm32f30x_rtc.c ****   RTC->WPR = 0x53;
 230              		.loc 1 422 0
 231 01b8 4FF42053 		mov	r3, #10240
 232 01bc C4F20003 		movt	r3, 16384
 233 01c0 4FF05302 		mov	r2, #83
 234 01c4 5A62     		str	r2, [r3, #36]
 423:../Libraries/STM32F30x_StdPeriph_Driver/src/stm32f30x_rtc.c **** 
 424:../Libraries/STM32F30x_StdPeriph_Driver/src/stm32f30x_rtc.c ****   /* Set Initialization mode */
 425:../Libraries/STM32F30x_StdPeriph_Driver/src/stm32f30x_rtc.c ****   if (RTC_EnterInitMode() == ERROR)
 235              		.loc 1 425 0
 236 01c6 FFF7FEFF 		bl	RTC_EnterInitMode
 237 01ca 0346     		mov	r3, r0
 238 01cc 002B     		cmp	r3, #0
 239 01ce 04D1     		bne	.L9
 426:../Libraries/STM32F30x_StdPeriph_Driver/src/stm32f30x_rtc.c ****   {
 427:../Libraries/STM32F30x_StdPeriph_Driver/src/stm32f30x_rtc.c ****     status = ERROR;
 240              		.loc 1 427 0
 241 01d0 4FF00003 		mov	r3, #0
 242 01d4 8DF80F30 		strb	r3, [sp, #15]
 243 01d8 34E0     		b	.L10
 244              	.L9:
 428:../Libraries/STM32F30x_StdPeriph_Driver/src/stm32f30x_rtc.c ****   } 
 429:../Libraries/STM32F30x_StdPeriph_Driver/src/stm32f30x_rtc.c ****   else
 430:../Libraries/STM32F30x_StdPeriph_Driver/src/stm32f30x_rtc.c ****   {
 431:../Libraries/STM32F30x_StdPeriph_Driver/src/stm32f30x_rtc.c ****     /* Clear RTC CR FMT Bit */
 432:../Libraries/STM32F30x_StdPeriph_Driver/src/stm32f30x_rtc.c ****     RTC->CR &= ((uint32_t)~(RTC_CR_FMT));
 245              		.loc 1 432 0
 246 01da 4FF42053 		mov	r3, #10240
 247 01de C4F20003 		movt	r3, 16384
 248 01e2 4FF42052 		mov	r2, #10240
 249 01e6 C4F20002 		movt	r2, 16384
 250 01ea 9268     		ldr	r2, [r2, #8]
 251 01ec 22F04002 		bic	r2, r2, #64
 252 01f0 9A60     		str	r2, [r3, #8]
 433:../Libraries/STM32F30x_StdPeriph_Driver/src/stm32f30x_rtc.c ****     /* Set RTC_CR register */
 434:../Libraries/STM32F30x_StdPeriph_Driver/src/stm32f30x_rtc.c ****     RTC->CR |=  ((uint32_t)(RTC_InitStruct->RTC_HourFormat));
 253              		.loc 1 434 0
 254 01f2 4FF42053 		mov	r3, #10240
 255 01f6 C4F20003 		movt	r3, 16384
 256 01fa 4FF42052 		mov	r2, #10240
 257 01fe C4F20002 		movt	r2, 16384
 258 0202 9168     		ldr	r1, [r2, #8]
 259 0204 019A     		ldr	r2, [sp, #4]
 260 0206 1268     		ldr	r2, [r2, #0]
 261 0208 0A43     		orrs	r2, r2, r1
 262 020a 9A60     		str	r2, [r3, #8]
 435:../Libraries/STM32F30x_StdPeriph_Driver/src/stm32f30x_rtc.c ****   
 436:../Libraries/STM32F30x_StdPeriph_Driver/src/stm32f30x_rtc.c ****     /* Configure the RTC PRER */
 437:../Libraries/STM32F30x_StdPeriph_Driver/src/stm32f30x_rtc.c ****     RTC->PRER = (uint32_t)(RTC_InitStruct->RTC_SynchPrediv);
 263              		.loc 1 437 0
 264 020c 4FF42053 		mov	r3, #10240
 265 0210 C4F20003 		movt	r3, 16384
 266 0214 019A     		ldr	r2, [sp, #4]
 267 0216 9268     		ldr	r2, [r2, #8]
 268 0218 1A61     		str	r2, [r3, #16]
 438:../Libraries/STM32F30x_StdPeriph_Driver/src/stm32f30x_rtc.c ****     RTC->PRER |= (uint32_t)(RTC_InitStruct->RTC_AsynchPrediv << 16);
 269              		.loc 1 438 0
 270 021a 4FF42053 		mov	r3, #10240
 271 021e C4F20003 		movt	r3, 16384
 272 0222 4FF42052 		mov	r2, #10240
 273 0226 C4F20002 		movt	r2, 16384
 274 022a 1169     		ldr	r1, [r2, #16]
 275 022c 019A     		ldr	r2, [sp, #4]
 276 022e 5268     		ldr	r2, [r2, #4]
 277 0230 4FEA0242 		lsl	r2, r2, #16
 278 0234 0A43     		orrs	r2, r2, r1
 279 0236 1A61     		str	r2, [r3, #16]
 439:../Libraries/STM32F30x_StdPeriph_Driver/src/stm32f30x_rtc.c **** 
 440:../Libraries/STM32F30x_StdPeriph_Driver/src/stm32f30x_rtc.c ****     /* Exit Initialization mode */
 441:../Libraries/STM32F30x_StdPeriph_Driver/src/stm32f30x_rtc.c ****     RTC_ExitInitMode();
 280              		.loc 1 441 0
 281 0238 FFF7FEFF 		bl	RTC_ExitInitMode
 442:../Libraries/STM32F30x_StdPeriph_Driver/src/stm32f30x_rtc.c **** 
 443:../Libraries/STM32F30x_StdPeriph_Driver/src/stm32f30x_rtc.c ****     status = SUCCESS;    
 282              		.loc 1 443 0
 283 023c 4FF00103 		mov	r3, #1
 284 0240 8DF80F30 		strb	r3, [sp, #15]
 285              	.L10:
 444:../Libraries/STM32F30x_StdPeriph_Driver/src/stm32f30x_rtc.c ****   }
 445:../Libraries/STM32F30x_StdPeriph_Driver/src/stm32f30x_rtc.c ****   /* Enable the write protection for RTC registers */
 446:../Libraries/STM32F30x_StdPeriph_Driver/src/stm32f30x_rtc.c ****   RTC->WPR = 0xFF; 
 286              		.loc 1 446 0
 287 0244 4FF42053 		mov	r3, #10240
 288 0248 C4F20003 		movt	r3, 16384
 289 024c 4FF0FF02 		mov	r2, #255
 290 0250 5A62     		str	r2, [r3, #36]
 447:../Libraries/STM32F30x_StdPeriph_Driver/src/stm32f30x_rtc.c ****   
 448:../Libraries/STM32F30x_StdPeriph_Driver/src/stm32f30x_rtc.c ****   return status;
 291              		.loc 1 448 0
 292 0252 9DF80F30 		ldrb	r3, [sp, #15]	@ zero_extendqisi2
 449:../Libraries/STM32F30x_StdPeriph_Driver/src/stm32f30x_rtc.c **** }
 293              		.loc 1 449 0
 294 0256 1846     		mov	r0, r3
 295 0258 05B0     		add	sp, sp, #20
 296 025a 00BD     		pop	{pc}
 297              		.cfi_endproc
 298              	.LFE112:
 300              		.align	2
 301              		.global	RTC_StructInit
 302              		.thumb
 303              		.thumb_func
 305              	RTC_StructInit:
 306              	.LFB113:
 450:../Libraries/STM32F30x_StdPeriph_Driver/src/stm32f30x_rtc.c **** 
 451:../Libraries/STM32F30x_StdPeriph_Driver/src/stm32f30x_rtc.c **** /**
 452:../Libraries/STM32F30x_StdPeriph_Driver/src/stm32f30x_rtc.c ****   * @brief  Fills each RTC_InitStruct member with its default value.
 453:../Libraries/STM32F30x_StdPeriph_Driver/src/stm32f30x_rtc.c ****   * @param  RTC_InitStruct: pointer to a RTC_InitTypeDef structure which will be 
 454:../Libraries/STM32F30x_StdPeriph_Driver/src/stm32f30x_rtc.c ****   *         initialized.
 455:../Libraries/STM32F30x_StdPeriph_Driver/src/stm32f30x_rtc.c ****   * @retval None
 456:../Libraries/STM32F30x_StdPeriph_Driver/src/stm32f30x_rtc.c ****   */
 457:../Libraries/STM32F30x_StdPeriph_Driver/src/stm32f30x_rtc.c **** void RTC_StructInit(RTC_InitTypeDef* RTC_InitStruct)
 458:../Libraries/STM32F30x_StdPeriph_Driver/src/stm32f30x_rtc.c **** {
 307              		.loc 1 458 0
 308              		.cfi_startproc
 309              		@ args = 0, pretend = 0, frame = 8
 310              		@ frame_needed = 0, uses_anonymous_args = 0
 311              		@ link register save eliminated.
 312 025c 82B0     		sub	sp, sp, #8
 313              	.LCFI4:
 314              		.cfi_def_cfa_offset 8
 315 025e 0190     		str	r0, [sp, #4]
 459:../Libraries/STM32F30x_StdPeriph_Driver/src/stm32f30x_rtc.c ****   /* Initialize the RTC_HourFormat member */
 460:../Libraries/STM32F30x_StdPeriph_Driver/src/stm32f30x_rtc.c ****   RTC_InitStruct->RTC_HourFormat = RTC_HourFormat_24;
 316              		.loc 1 460 0
 317 0260 019B     		ldr	r3, [sp, #4]
 318 0262 4FF00002 		mov	r2, #0
 319 0266 1A60     		str	r2, [r3, #0]
 461:../Libraries/STM32F30x_StdPeriph_Driver/src/stm32f30x_rtc.c ****     
 462:../Libraries/STM32F30x_StdPeriph_Driver/src/stm32f30x_rtc.c ****   /* Initialize the RTC_AsynchPrediv member */
 463:../Libraries/STM32F30x_StdPeriph_Driver/src/stm32f30x_rtc.c ****   RTC_InitStruct->RTC_AsynchPrediv = (uint32_t)0x7F;
 320              		.loc 1 463 0
 321 0268 019B     		ldr	r3, [sp, #4]
 322 026a 4FF07F02 		mov	r2, #127
 323 026e 5A60     		str	r2, [r3, #4]
 464:../Libraries/STM32F30x_StdPeriph_Driver/src/stm32f30x_rtc.c **** 
 465:../Libraries/STM32F30x_StdPeriph_Driver/src/stm32f30x_rtc.c ****   /* Initialize the RTC_SynchPrediv member */
 466:../Libraries/STM32F30x_StdPeriph_Driver/src/stm32f30x_rtc.c ****   RTC_InitStruct->RTC_SynchPrediv = (uint32_t)0xFF; 
 324              		.loc 1 466 0
 325 0270 019B     		ldr	r3, [sp, #4]
 326 0272 4FF0FF02 		mov	r2, #255
 327 0276 9A60     		str	r2, [r3, #8]
 467:../Libraries/STM32F30x_StdPeriph_Driver/src/stm32f30x_rtc.c **** }
 328              		.loc 1 467 0
 329 0278 02B0     		add	sp, sp, #8
 330 027a 7047     		bx	lr
 331              		.cfi_endproc
 332              	.LFE113:
 334              		.align	2
 335              		.global	RTC_WriteProtectionCmd
 336              		.thumb
 337              		.thumb_func
 339              	RTC_WriteProtectionCmd:
 340              	.LFB114:
 468:../Libraries/STM32F30x_StdPeriph_Driver/src/stm32f30x_rtc.c **** 
 469:../Libraries/STM32F30x_StdPeriph_Driver/src/stm32f30x_rtc.c **** /**
 470:../Libraries/STM32F30x_StdPeriph_Driver/src/stm32f30x_rtc.c ****   * @brief  Enables or disables the RTC registers write protection.
 471:../Libraries/STM32F30x_StdPeriph_Driver/src/stm32f30x_rtc.c ****   * @note   All the RTC registers are write protected except for RTC_ISR[13:8], 
 472:../Libraries/STM32F30x_StdPeriph_Driver/src/stm32f30x_rtc.c ****   *         RTC_TAFCR and RTC_BKPxR.
 473:../Libraries/STM32F30x_StdPeriph_Driver/src/stm32f30x_rtc.c ****   * @note   Writing a wrong key reactivates the write protection.
 474:../Libraries/STM32F30x_StdPeriph_Driver/src/stm32f30x_rtc.c ****   * @note   The protection mechanism is not affected by system reset.  
 475:../Libraries/STM32F30x_StdPeriph_Driver/src/stm32f30x_rtc.c ****   * @param  NewState: new state of the write protection.
 476:../Libraries/STM32F30x_StdPeriph_Driver/src/stm32f30x_rtc.c ****   *   This parameter can be: ENABLE or DISABLE.
 477:../Libraries/STM32F30x_StdPeriph_Driver/src/stm32f30x_rtc.c ****   * @retval None
 478:../Libraries/STM32F30x_StdPeriph_Driver/src/stm32f30x_rtc.c ****   */
 479:../Libraries/STM32F30x_StdPeriph_Driver/src/stm32f30x_rtc.c **** void RTC_WriteProtectionCmd(FunctionalState NewState)
 480:../Libraries/STM32F30x_StdPeriph_Driver/src/stm32f30x_rtc.c **** {
 341              		.loc 1 480 0
 342              		.cfi_startproc
 343              		@ args = 0, pretend = 0, frame = 8
 344              		@ frame_needed = 0, uses_anonymous_args = 0
 345              		@ link register save eliminated.
 346 027c 82B0     		sub	sp, sp, #8
 347              	.LCFI5:
 348              		.cfi_def_cfa_offset 8
 349 027e 0346     		mov	r3, r0
 350 0280 8DF80730 		strb	r3, [sp, #7]
 481:../Libraries/STM32F30x_StdPeriph_Driver/src/stm32f30x_rtc.c ****   /* Check the parameters */
 482:../Libraries/STM32F30x_StdPeriph_Driver/src/stm32f30x_rtc.c ****   assert_param(IS_FUNCTIONAL_STATE(NewState));
 483:../Libraries/STM32F30x_StdPeriph_Driver/src/stm32f30x_rtc.c ****     
 484:../Libraries/STM32F30x_StdPeriph_Driver/src/stm32f30x_rtc.c ****   if (NewState != DISABLE)
 351              		.loc 1 484 0
 352 0284 9DF80730 		ldrb	r3, [sp, #7]	@ zero_extendqisi2
 353 0288 002B     		cmp	r3, #0
 354 028a 07D0     		beq	.L13
 485:../Libraries/STM32F30x_StdPeriph_Driver/src/stm32f30x_rtc.c ****   {
 486:../Libraries/STM32F30x_StdPeriph_Driver/src/stm32f30x_rtc.c ****     /* Enable the write protection for RTC registers */
 487:../Libraries/STM32F30x_StdPeriph_Driver/src/stm32f30x_rtc.c ****     RTC->WPR = 0xFF;   
 355              		.loc 1 487 0
 356 028c 4FF42053 		mov	r3, #10240
 357 0290 C4F20003 		movt	r3, 16384
 358 0294 4FF0FF02 		mov	r2, #255
 359 0298 5A62     		str	r2, [r3, #36]
 360 029a 0DE0     		b	.L12
 361              	.L13:
 488:../Libraries/STM32F30x_StdPeriph_Driver/src/stm32f30x_rtc.c ****   }
 489:../Libraries/STM32F30x_StdPeriph_Driver/src/stm32f30x_rtc.c ****   else
 490:../Libraries/STM32F30x_StdPeriph_Driver/src/stm32f30x_rtc.c ****   {
 491:../Libraries/STM32F30x_StdPeriph_Driver/src/stm32f30x_rtc.c ****     /* Disable the write protection for RTC registers */
 492:../Libraries/STM32F30x_StdPeriph_Driver/src/stm32f30x_rtc.c ****     RTC->WPR = 0xCA;
 362              		.loc 1 492 0
 363 029c 4FF42053 		mov	r3, #10240
 364 02a0 C4F20003 		movt	r3, 16384
 365 02a4 4FF0CA02 		mov	r2, #202
 366 02a8 5A62     		str	r2, [r3, #36]
 493:../Libraries/STM32F30x_StdPeriph_Driver/src/stm32f30x_rtc.c ****     RTC->WPR = 0x53;    
 367              		.loc 1 493 0
 368 02aa 4FF42053 		mov	r3, #10240
 369 02ae C4F20003 		movt	r3, 16384
 370 02b2 4FF05302 		mov	r2, #83
 371 02b6 5A62     		str	r2, [r3, #36]
 372              	.L12:
 494:../Libraries/STM32F30x_StdPeriph_Driver/src/stm32f30x_rtc.c ****   }
 495:../Libraries/STM32F30x_StdPeriph_Driver/src/stm32f30x_rtc.c **** }
 373              		.loc 1 495 0
 374 02b8 02B0     		add	sp, sp, #8
 375 02ba 7047     		bx	lr
 376              		.cfi_endproc
 377              	.LFE114:
 379              		.align	2
 380              		.global	RTC_EnterInitMode
 381              		.thumb
 382              		.thumb_func
 384              	RTC_EnterInitMode:
 385              	.LFB115:
 496:../Libraries/STM32F30x_StdPeriph_Driver/src/stm32f30x_rtc.c **** 
 497:../Libraries/STM32F30x_StdPeriph_Driver/src/stm32f30x_rtc.c **** /**
 498:../Libraries/STM32F30x_StdPeriph_Driver/src/stm32f30x_rtc.c ****   * @brief  Enters the RTC Initialization mode.
 499:../Libraries/STM32F30x_StdPeriph_Driver/src/stm32f30x_rtc.c ****   * @note   The RTC Initialization mode is write protected, use the 
 500:../Libraries/STM32F30x_StdPeriph_Driver/src/stm32f30x_rtc.c ****   *         RTC_WriteProtectionCmd(DISABLE) before calling this function.    
 501:../Libraries/STM32F30x_StdPeriph_Driver/src/stm32f30x_rtc.c ****   * @param  None
 502:../Libraries/STM32F30x_StdPeriph_Driver/src/stm32f30x_rtc.c ****   * @retval An ErrorStatus enumeration value:
 503:../Libraries/STM32F30x_StdPeriph_Driver/src/stm32f30x_rtc.c ****   *          - SUCCESS: RTC is in Init mode
 504:../Libraries/STM32F30x_StdPeriph_Driver/src/stm32f30x_rtc.c ****   *          - ERROR: RTC is not in Init mode  
 505:../Libraries/STM32F30x_StdPeriph_Driver/src/stm32f30x_rtc.c ****   */
 506:../Libraries/STM32F30x_StdPeriph_Driver/src/stm32f30x_rtc.c **** ErrorStatus RTC_EnterInitMode(void)
 507:../Libraries/STM32F30x_StdPeriph_Driver/src/stm32f30x_rtc.c **** {
 386              		.loc 1 507 0
 387              		.cfi_startproc
 388              		@ args = 0, pretend = 0, frame = 16
 389              		@ frame_needed = 0, uses_anonymous_args = 0
 390              		@ link register save eliminated.
 391 02bc 84B0     		sub	sp, sp, #16
 392              	.LCFI6:
 393              		.cfi_def_cfa_offset 16
 508:../Libraries/STM32F30x_StdPeriph_Driver/src/stm32f30x_rtc.c ****   __IO uint32_t initcounter = 0x00;
 394              		.loc 1 508 0
 395 02be 4FF00003 		mov	r3, #0
 396 02c2 0193     		str	r3, [sp, #4]
 509:../Libraries/STM32F30x_StdPeriph_Driver/src/stm32f30x_rtc.c ****   ErrorStatus status = ERROR;
 397              		.loc 1 509 0
 398 02c4 4FF00003 		mov	r3, #0
 399 02c8 8DF80F30 		strb	r3, [sp, #15]
 510:../Libraries/STM32F30x_StdPeriph_Driver/src/stm32f30x_rtc.c ****   uint32_t initstatus = 0x00;
 400              		.loc 1 510 0
 401 02cc 4FF00003 		mov	r3, #0
 402 02d0 0293     		str	r3, [sp, #8]
 511:../Libraries/STM32F30x_StdPeriph_Driver/src/stm32f30x_rtc.c ****      
 512:../Libraries/STM32F30x_StdPeriph_Driver/src/stm32f30x_rtc.c ****   /* Check if the Initialization mode is set */
 513:../Libraries/STM32F30x_StdPeriph_Driver/src/stm32f30x_rtc.c ****   if ((RTC->ISR & RTC_ISR_INITF) == (uint32_t)RESET)
 403              		.loc 1 513 0
 404 02d2 4FF42053 		mov	r3, #10240
 405 02d6 C4F20003 		movt	r3, 16384
 406 02da DB68     		ldr	r3, [r3, #12]
 407 02dc 03F04003 		and	r3, r3, #64
 408 02e0 002B     		cmp	r3, #0
 409 02e2 2CD1     		bne	.L16
 514:../Libraries/STM32F30x_StdPeriph_Driver/src/stm32f30x_rtc.c ****   {
 515:../Libraries/STM32F30x_StdPeriph_Driver/src/stm32f30x_rtc.c ****     /* Set the Initialization mode */
 516:../Libraries/STM32F30x_StdPeriph_Driver/src/stm32f30x_rtc.c ****     RTC->ISR = (uint32_t)RTC_INIT_MASK;
 410              		.loc 1 516 0
 411 02e4 4FF42053 		mov	r3, #10240
 412 02e8 C4F20003 		movt	r3, 16384
 413 02ec 4FF0FF32 		mov	r2, #-1
 414 02f0 DA60     		str	r2, [r3, #12]
 415              	.L18:
 517:../Libraries/STM32F30x_StdPeriph_Driver/src/stm32f30x_rtc.c ****     
 518:../Libraries/STM32F30x_StdPeriph_Driver/src/stm32f30x_rtc.c ****     /* Wait till RTC is in INIT state and if Time out is reached exit */
 519:../Libraries/STM32F30x_StdPeriph_Driver/src/stm32f30x_rtc.c ****     do
 520:../Libraries/STM32F30x_StdPeriph_Driver/src/stm32f30x_rtc.c ****     {
 521:../Libraries/STM32F30x_StdPeriph_Driver/src/stm32f30x_rtc.c ****       initstatus = RTC->ISR & RTC_ISR_INITF;
 416              		.loc 1 521 0 discriminator 1
 417 02f2 4FF42053 		mov	r3, #10240
 418 02f6 C4F20003 		movt	r3, 16384
 419 02fa DB68     		ldr	r3, [r3, #12]
 420 02fc 03F04003 		and	r3, r3, #64
 421 0300 0293     		str	r3, [sp, #8]
 522:../Libraries/STM32F30x_StdPeriph_Driver/src/stm32f30x_rtc.c ****       initcounter++;  
 422              		.loc 1 522 0 discriminator 1
 423 0302 019B     		ldr	r3, [sp, #4]
 424 0304 03F10103 		add	r3, r3, #1
 425 0308 0193     		str	r3, [sp, #4]
 523:../Libraries/STM32F30x_StdPeriph_Driver/src/stm32f30x_rtc.c ****     } while((initcounter != INITMODE_TIMEOUT) && (initstatus == 0x00));
 426              		.loc 1 523 0 discriminator 1
 427 030a 019B     		ldr	r3, [sp, #4]
 428 030c B3F5005F 		cmp	r3, #8192
 429 0310 02D0     		beq	.L17
 430 0312 029B     		ldr	r3, [sp, #8]
 431 0314 002B     		cmp	r3, #0
 432 0316 ECD0     		beq	.L18
 433              	.L17:
 524:../Libraries/STM32F30x_StdPeriph_Driver/src/stm32f30x_rtc.c ****     
 525:../Libraries/STM32F30x_StdPeriph_Driver/src/stm32f30x_rtc.c ****     if ((RTC->ISR & RTC_ISR_INITF) != RESET)
 434              		.loc 1 525 0
 435 0318 4FF42053 		mov	r3, #10240
 436 031c C4F20003 		movt	r3, 16384
 437 0320 DB68     		ldr	r3, [r3, #12]
 438 0322 03F04003 		and	r3, r3, #64
 439 0326 002B     		cmp	r3, #0
 440 0328 04D0     		beq	.L19
 526:../Libraries/STM32F30x_StdPeriph_Driver/src/stm32f30x_rtc.c ****     {
 527:../Libraries/STM32F30x_StdPeriph_Driver/src/stm32f30x_rtc.c ****       status = SUCCESS;
 441              		.loc 1 527 0
 442 032a 4FF00103 		mov	r3, #1
 443 032e 8DF80F30 		strb	r3, [sp, #15]
 444 0332 08E0     		b	.L20
 445              	.L19:
 528:../Libraries/STM32F30x_StdPeriph_Driver/src/stm32f30x_rtc.c ****     }
 529:../Libraries/STM32F30x_StdPeriph_Driver/src/stm32f30x_rtc.c ****     else
 530:../Libraries/STM32F30x_StdPeriph_Driver/src/stm32f30x_rtc.c ****     {
 531:../Libraries/STM32F30x_StdPeriph_Driver/src/stm32f30x_rtc.c ****       status = ERROR;
 446              		.loc 1 531 0
 447 0334 4FF00003 		mov	r3, #0
 448 0338 8DF80F30 		strb	r3, [sp, #15]
 449 033c 03E0     		b	.L20
 450              	.L16:
 532:../Libraries/STM32F30x_StdPeriph_Driver/src/stm32f30x_rtc.c ****     }        
 533:../Libraries/STM32F30x_StdPeriph_Driver/src/stm32f30x_rtc.c ****   }
 534:../Libraries/STM32F30x_StdPeriph_Driver/src/stm32f30x_rtc.c ****   else
 535:../Libraries/STM32F30x_StdPeriph_Driver/src/stm32f30x_rtc.c ****   {
 536:../Libraries/STM32F30x_StdPeriph_Driver/src/stm32f30x_rtc.c ****     status = SUCCESS;  
 451              		.loc 1 536 0
 452 033e 4FF00103 		mov	r3, #1
 453 0342 8DF80F30 		strb	r3, [sp, #15]
 454              	.L20:
 537:../Libraries/STM32F30x_StdPeriph_Driver/src/stm32f30x_rtc.c ****   } 
 538:../Libraries/STM32F30x_StdPeriph_Driver/src/stm32f30x_rtc.c ****     
 539:../Libraries/STM32F30x_StdPeriph_Driver/src/stm32f30x_rtc.c ****   return (status);  
 455              		.loc 1 539 0
 456 0346 9DF80F30 		ldrb	r3, [sp, #15]	@ zero_extendqisi2
 540:../Libraries/STM32F30x_StdPeriph_Driver/src/stm32f30x_rtc.c **** }
 457              		.loc 1 540 0
 458 034a 1846     		mov	r0, r3
 459 034c 04B0     		add	sp, sp, #16
 460 034e 7047     		bx	lr
 461              		.cfi_endproc
 462              	.LFE115:
 464              		.align	2
 465              		.global	RTC_ExitInitMode
 466              		.thumb
 467              		.thumb_func
 469              	RTC_ExitInitMode:
 470              	.LFB116:
 541:../Libraries/STM32F30x_StdPeriph_Driver/src/stm32f30x_rtc.c **** 
 542:../Libraries/STM32F30x_StdPeriph_Driver/src/stm32f30x_rtc.c **** /**
 543:../Libraries/STM32F30x_StdPeriph_Driver/src/stm32f30x_rtc.c ****   * @brief  Exits the RTC Initialization mode.
 544:../Libraries/STM32F30x_StdPeriph_Driver/src/stm32f30x_rtc.c ****   * @note   When the initialization sequence is complete, the calendar restarts 
 545:../Libraries/STM32F30x_StdPeriph_Driver/src/stm32f30x_rtc.c ****   *         counting after 4 RTCCLK cycles.  
 546:../Libraries/STM32F30x_StdPeriph_Driver/src/stm32f30x_rtc.c ****   * @note   The RTC Initialization mode is write protected, use the 
 547:../Libraries/STM32F30x_StdPeriph_Driver/src/stm32f30x_rtc.c ****   *         RTC_WriteProtectionCmd(DISABLE) before calling this function.      
 548:../Libraries/STM32F30x_StdPeriph_Driver/src/stm32f30x_rtc.c ****   * @param  None
 549:../Libraries/STM32F30x_StdPeriph_Driver/src/stm32f30x_rtc.c ****   * @retval None
 550:../Libraries/STM32F30x_StdPeriph_Driver/src/stm32f30x_rtc.c ****   */
 551:../Libraries/STM32F30x_StdPeriph_Driver/src/stm32f30x_rtc.c **** void RTC_ExitInitMode(void)
 552:../Libraries/STM32F30x_StdPeriph_Driver/src/stm32f30x_rtc.c **** {
 471              		.loc 1 552 0
 472              		.cfi_startproc
 473              		@ args = 0, pretend = 0, frame = 0
 474              		@ frame_needed = 0, uses_anonymous_args = 0
 475              		@ link register save eliminated.
 553:../Libraries/STM32F30x_StdPeriph_Driver/src/stm32f30x_rtc.c ****   /* Exit Initialization mode */
 554:../Libraries/STM32F30x_StdPeriph_Driver/src/stm32f30x_rtc.c ****   RTC->ISR &= (uint32_t)~RTC_ISR_INIT;
 476              		.loc 1 554 0
 477 0350 4FF42053 		mov	r3, #10240
 478 0354 C4F20003 		movt	r3, 16384
 479 0358 4FF42052 		mov	r2, #10240
 480 035c C4F20002 		movt	r2, 16384
 481 0360 D268     		ldr	r2, [r2, #12]
 482 0362 22F08002 		bic	r2, r2, #128
 483 0366 DA60     		str	r2, [r3, #12]
 555:../Libraries/STM32F30x_StdPeriph_Driver/src/stm32f30x_rtc.c **** }
 484              		.loc 1 555 0
 485 0368 7047     		bx	lr
 486              		.cfi_endproc
 487              	.LFE116:
 489 036a 00BF     		.align	2
 490              		.global	RTC_WaitForSynchro
 491              		.thumb
 492              		.thumb_func
 494              	RTC_WaitForSynchro:
 495              	.LFB117:
 556:../Libraries/STM32F30x_StdPeriph_Driver/src/stm32f30x_rtc.c **** 
 557:../Libraries/STM32F30x_StdPeriph_Driver/src/stm32f30x_rtc.c **** /**
 558:../Libraries/STM32F30x_StdPeriph_Driver/src/stm32f30x_rtc.c ****   * @brief  Waits until the RTC Time and Date registers (RTC_TR and RTC_DR) are 
 559:../Libraries/STM32F30x_StdPeriph_Driver/src/stm32f30x_rtc.c ****   *         synchronized with RTC APB clock.
 560:../Libraries/STM32F30x_StdPeriph_Driver/src/stm32f30x_rtc.c ****   * @note   The RTC Resynchronization mode is write protected, use the 
 561:../Libraries/STM32F30x_StdPeriph_Driver/src/stm32f30x_rtc.c ****   *         RTC_WriteProtectionCmd(DISABLE) before calling this function. 
 562:../Libraries/STM32F30x_StdPeriph_Driver/src/stm32f30x_rtc.c ****   * @note   To read the calendar through the shadow registers after Calendar 
 563:../Libraries/STM32F30x_StdPeriph_Driver/src/stm32f30x_rtc.c ****   *         initialization, calendar update or after wakeup from low power modes 
 564:../Libraries/STM32F30x_StdPeriph_Driver/src/stm32f30x_rtc.c ****   *         the software must first clear the RSF flag. 
 565:../Libraries/STM32F30x_StdPeriph_Driver/src/stm32f30x_rtc.c ****   *         The software must then wait until it is set again before reading 
 566:../Libraries/STM32F30x_StdPeriph_Driver/src/stm32f30x_rtc.c ****   *         the calendar, which means that the calendar registers have been 
 567:../Libraries/STM32F30x_StdPeriph_Driver/src/stm32f30x_rtc.c ****   *         correctly copied into the RTC_TR and RTC_DR shadow registers.   
 568:../Libraries/STM32F30x_StdPeriph_Driver/src/stm32f30x_rtc.c ****   * @param  None
 569:../Libraries/STM32F30x_StdPeriph_Driver/src/stm32f30x_rtc.c ****   * @retval An ErrorStatus enumeration value:
 570:../Libraries/STM32F30x_StdPeriph_Driver/src/stm32f30x_rtc.c ****   *          - SUCCESS: RTC registers are synchronised
 571:../Libraries/STM32F30x_StdPeriph_Driver/src/stm32f30x_rtc.c ****   *          - ERROR: RTC registers are not synchronised
 572:../Libraries/STM32F30x_StdPeriph_Driver/src/stm32f30x_rtc.c ****   */
 573:../Libraries/STM32F30x_StdPeriph_Driver/src/stm32f30x_rtc.c **** ErrorStatus RTC_WaitForSynchro(void)
 574:../Libraries/STM32F30x_StdPeriph_Driver/src/stm32f30x_rtc.c **** {
 496              		.loc 1 574 0
 497              		.cfi_startproc
 498              		@ args = 0, pretend = 0, frame = 16
 499              		@ frame_needed = 0, uses_anonymous_args = 0
 500              		@ link register save eliminated.
 501 036c 84B0     		sub	sp, sp, #16
 502              	.LCFI7:
 503              		.cfi_def_cfa_offset 16
 575:../Libraries/STM32F30x_StdPeriph_Driver/src/stm32f30x_rtc.c ****   __IO uint32_t synchrocounter = 0;
 504              		.loc 1 575 0
 505 036e 4FF00003 		mov	r3, #0
 506 0372 0193     		str	r3, [sp, #4]
 576:../Libraries/STM32F30x_StdPeriph_Driver/src/stm32f30x_rtc.c ****   ErrorStatus status = ERROR;
 507              		.loc 1 576 0
 508 0374 4FF00003 		mov	r3, #0
 509 0378 8DF80F30 		strb	r3, [sp, #15]
 577:../Libraries/STM32F30x_StdPeriph_Driver/src/stm32f30x_rtc.c ****   uint32_t synchrostatus = 0x00;
 510              		.loc 1 577 0
 511 037c 4FF00003 		mov	r3, #0
 512 0380 0293     		str	r3, [sp, #8]
 578:../Libraries/STM32F30x_StdPeriph_Driver/src/stm32f30x_rtc.c **** 
 579:../Libraries/STM32F30x_StdPeriph_Driver/src/stm32f30x_rtc.c ****   if ((RTC->CR & RTC_CR_BYPSHAD) != RESET)
 513              		.loc 1 579 0
 514 0382 4FF42053 		mov	r3, #10240
 515 0386 C4F20003 		movt	r3, 16384
 516 038a 9B68     		ldr	r3, [r3, #8]
 517 038c 03F02003 		and	r3, r3, #32
 518 0390 002B     		cmp	r3, #0
 519 0392 04D0     		beq	.L23
 580:../Libraries/STM32F30x_StdPeriph_Driver/src/stm32f30x_rtc.c ****   {
 581:../Libraries/STM32F30x_StdPeriph_Driver/src/stm32f30x_rtc.c ****     /* Bypass shadow mode */
 582:../Libraries/STM32F30x_StdPeriph_Driver/src/stm32f30x_rtc.c ****     status = SUCCESS;
 520              		.loc 1 582 0
 521 0394 4FF00103 		mov	r3, #1
 522 0398 8DF80F30 		strb	r3, [sp, #15]
 523 039c 45E0     		b	.L24
 524              	.L23:
 583:../Libraries/STM32F30x_StdPeriph_Driver/src/stm32f30x_rtc.c ****   }
 584:../Libraries/STM32F30x_StdPeriph_Driver/src/stm32f30x_rtc.c ****   else
 585:../Libraries/STM32F30x_StdPeriph_Driver/src/stm32f30x_rtc.c ****   {
 586:../Libraries/STM32F30x_StdPeriph_Driver/src/stm32f30x_rtc.c ****     /* Disable the write protection for RTC registers */
 587:../Libraries/STM32F30x_StdPeriph_Driver/src/stm32f30x_rtc.c ****     RTC->WPR = 0xCA;
 525              		.loc 1 587 0
 526 039e 4FF42053 		mov	r3, #10240
 527 03a2 C4F20003 		movt	r3, 16384
 528 03a6 4FF0CA02 		mov	r2, #202
 529 03aa 5A62     		str	r2, [r3, #36]
 588:../Libraries/STM32F30x_StdPeriph_Driver/src/stm32f30x_rtc.c ****     RTC->WPR = 0x53;
 530              		.loc 1 588 0
 531 03ac 4FF42053 		mov	r3, #10240
 532 03b0 C4F20003 		movt	r3, 16384
 533 03b4 4FF05302 		mov	r2, #83
 534 03b8 5A62     		str	r2, [r3, #36]
 589:../Libraries/STM32F30x_StdPeriph_Driver/src/stm32f30x_rtc.c ****     
 590:../Libraries/STM32F30x_StdPeriph_Driver/src/stm32f30x_rtc.c ****     /* Clear RSF flag */
 591:../Libraries/STM32F30x_StdPeriph_Driver/src/stm32f30x_rtc.c ****     RTC->ISR &= (uint32_t)RTC_RSF_MASK;
 535              		.loc 1 591 0
 536 03ba 4FF42053 		mov	r3, #10240
 537 03be C4F20003 		movt	r3, 16384
 538 03c2 4FF42052 		mov	r2, #10240
 539 03c6 C4F20002 		movt	r2, 16384
 540 03ca D268     		ldr	r2, [r2, #12]
 541 03cc 22F0A002 		bic	r2, r2, #160
 542 03d0 DA60     		str	r2, [r3, #12]
 543              	.L26:
 592:../Libraries/STM32F30x_StdPeriph_Driver/src/stm32f30x_rtc.c ****     
 593:../Libraries/STM32F30x_StdPeriph_Driver/src/stm32f30x_rtc.c ****     /* Wait the registers to be synchronised */
 594:../Libraries/STM32F30x_StdPeriph_Driver/src/stm32f30x_rtc.c ****     do
 595:../Libraries/STM32F30x_StdPeriph_Driver/src/stm32f30x_rtc.c ****     {
 596:../Libraries/STM32F30x_StdPeriph_Driver/src/stm32f30x_rtc.c ****       synchrostatus = RTC->ISR & RTC_ISR_RSF;
 544              		.loc 1 596 0 discriminator 1
 545 03d2 4FF42053 		mov	r3, #10240
 546 03d6 C4F20003 		movt	r3, 16384
 547 03da DB68     		ldr	r3, [r3, #12]
 548 03dc 03F02003 		and	r3, r3, #32
 549 03e0 0293     		str	r3, [sp, #8]
 597:../Libraries/STM32F30x_StdPeriph_Driver/src/stm32f30x_rtc.c ****       synchrocounter++;  
 550              		.loc 1 597 0 discriminator 1
 551 03e2 019B     		ldr	r3, [sp, #4]
 552 03e4 03F10103 		add	r3, r3, #1
 553 03e8 0193     		str	r3, [sp, #4]
 598:../Libraries/STM32F30x_StdPeriph_Driver/src/stm32f30x_rtc.c ****     } while((synchrocounter != SYNCHRO_TIMEOUT) && (synchrostatus == 0x00));
 554              		.loc 1 598 0 discriminator 1
 555 03ea 019B     		ldr	r3, [sp, #4]
 556 03ec B3F5004F 		cmp	r3, #32768
 557 03f0 02D0     		beq	.L25
 558 03f2 029B     		ldr	r3, [sp, #8]
 559 03f4 002B     		cmp	r3, #0
 560 03f6 ECD0     		beq	.L26
 561              	.L25:
 599:../Libraries/STM32F30x_StdPeriph_Driver/src/stm32f30x_rtc.c ****     
 600:../Libraries/STM32F30x_StdPeriph_Driver/src/stm32f30x_rtc.c ****     if ((RTC->ISR & RTC_ISR_RSF) != RESET)
 562              		.loc 1 600 0
 563 03f8 4FF42053 		mov	r3, #10240
 564 03fc C4F20003 		movt	r3, 16384
 565 0400 DB68     		ldr	r3, [r3, #12]
 566 0402 03F02003 		and	r3, r3, #32
 567 0406 002B     		cmp	r3, #0
 568 0408 04D0     		beq	.L27
 601:../Libraries/STM32F30x_StdPeriph_Driver/src/stm32f30x_rtc.c ****     {
 602:../Libraries/STM32F30x_StdPeriph_Driver/src/stm32f30x_rtc.c ****       status = SUCCESS;
 569              		.loc 1 602 0
 570 040a 4FF00103 		mov	r3, #1
 571 040e 8DF80F30 		strb	r3, [sp, #15]
 572 0412 03E0     		b	.L28
 573              	.L27:
 603:../Libraries/STM32F30x_StdPeriph_Driver/src/stm32f30x_rtc.c ****     }
 604:../Libraries/STM32F30x_StdPeriph_Driver/src/stm32f30x_rtc.c ****     else
 605:../Libraries/STM32F30x_StdPeriph_Driver/src/stm32f30x_rtc.c ****     {
 606:../Libraries/STM32F30x_StdPeriph_Driver/src/stm32f30x_rtc.c ****       status = ERROR;
 574              		.loc 1 606 0
 575 0414 4FF00003 		mov	r3, #0
 576 0418 8DF80F30 		strb	r3, [sp, #15]
 577              	.L28:
 607:../Libraries/STM32F30x_StdPeriph_Driver/src/stm32f30x_rtc.c ****     }
 608:../Libraries/STM32F30x_StdPeriph_Driver/src/stm32f30x_rtc.c **** 
 609:../Libraries/STM32F30x_StdPeriph_Driver/src/stm32f30x_rtc.c ****     /* Enable the write protection for RTC registers */
 610:../Libraries/STM32F30x_StdPeriph_Driver/src/stm32f30x_rtc.c ****     RTC->WPR = 0xFF;
 578              		.loc 1 610 0
 579 041c 4FF42053 		mov	r3, #10240
 580 0420 C4F20003 		movt	r3, 16384
 581 0424 4FF0FF02 		mov	r2, #255
 582 0428 5A62     		str	r2, [r3, #36]
 583              	.L24:
 611:../Libraries/STM32F30x_StdPeriph_Driver/src/stm32f30x_rtc.c ****   } 
 612:../Libraries/STM32F30x_StdPeriph_Driver/src/stm32f30x_rtc.c ****   
 613:../Libraries/STM32F30x_StdPeriph_Driver/src/stm32f30x_rtc.c ****   return (status);
 584              		.loc 1 613 0
 585 042a 9DF80F30 		ldrb	r3, [sp, #15]	@ zero_extendqisi2
 614:../Libraries/STM32F30x_StdPeriph_Driver/src/stm32f30x_rtc.c **** }
 586              		.loc 1 614 0
 587 042e 1846     		mov	r0, r3
 588 0430 04B0     		add	sp, sp, #16
 589 0432 7047     		bx	lr
 590              		.cfi_endproc
 591              	.LFE117:
 593              		.align	2
 594              		.global	RTC_RefClockCmd
 595              		.thumb
 596              		.thumb_func
 598              	RTC_RefClockCmd:
 599              	.LFB118:
 615:../Libraries/STM32F30x_StdPeriph_Driver/src/stm32f30x_rtc.c **** 
 616:../Libraries/STM32F30x_StdPeriph_Driver/src/stm32f30x_rtc.c **** /**
 617:../Libraries/STM32F30x_StdPeriph_Driver/src/stm32f30x_rtc.c ****   * @brief  Enables or disables the RTC reference clock detection.
 618:../Libraries/STM32F30x_StdPeriph_Driver/src/stm32f30x_rtc.c ****   * @param  NewState: new state of the RTC reference clock.
 619:../Libraries/STM32F30x_StdPeriph_Driver/src/stm32f30x_rtc.c ****   *   This parameter can be: ENABLE or DISABLE.
 620:../Libraries/STM32F30x_StdPeriph_Driver/src/stm32f30x_rtc.c ****   * @retval An ErrorStatus enumeration value:
 621:../Libraries/STM32F30x_StdPeriph_Driver/src/stm32f30x_rtc.c ****   *          - SUCCESS: RTC reference clock detection is enabled
 622:../Libraries/STM32F30x_StdPeriph_Driver/src/stm32f30x_rtc.c ****   *          - ERROR: RTC reference clock detection is disabled  
 623:../Libraries/STM32F30x_StdPeriph_Driver/src/stm32f30x_rtc.c ****   */
 624:../Libraries/STM32F30x_StdPeriph_Driver/src/stm32f30x_rtc.c **** ErrorStatus RTC_RefClockCmd(FunctionalState NewState)
 625:../Libraries/STM32F30x_StdPeriph_Driver/src/stm32f30x_rtc.c **** {
 600              		.loc 1 625 0
 601              		.cfi_startproc
 602              		@ args = 0, pretend = 0, frame = 16
 603              		@ frame_needed = 0, uses_anonymous_args = 0
 604 0434 00B5     		push	{lr}
 605              	.LCFI8:
 606              		.cfi_def_cfa_offset 4
 607              		.cfi_offset 14, -4
 608 0436 85B0     		sub	sp, sp, #20
 609              	.LCFI9:
 610              		.cfi_def_cfa_offset 24
 611 0438 0346     		mov	r3, r0
 612 043a 8DF80730 		strb	r3, [sp, #7]
 626:../Libraries/STM32F30x_StdPeriph_Driver/src/stm32f30x_rtc.c ****   ErrorStatus status = ERROR;
 613              		.loc 1 626 0
 614 043e 4FF00003 		mov	r3, #0
 615 0442 8DF80F30 		strb	r3, [sp, #15]
 627:../Libraries/STM32F30x_StdPeriph_Driver/src/stm32f30x_rtc.c **** 
 628:../Libraries/STM32F30x_StdPeriph_Driver/src/stm32f30x_rtc.c ****   /* Check the parameters */
 629:../Libraries/STM32F30x_StdPeriph_Driver/src/stm32f30x_rtc.c ****   assert_param(IS_FUNCTIONAL_STATE(NewState));
 630:../Libraries/STM32F30x_StdPeriph_Driver/src/stm32f30x_rtc.c **** 
 631:../Libraries/STM32F30x_StdPeriph_Driver/src/stm32f30x_rtc.c ****   /* Disable the write protection for RTC registers */
 632:../Libraries/STM32F30x_StdPeriph_Driver/src/stm32f30x_rtc.c ****   RTC->WPR = 0xCA;
 616              		.loc 1 632 0
 617 0446 4FF42053 		mov	r3, #10240
 618 044a C4F20003 		movt	r3, 16384
 619 044e 4FF0CA02 		mov	r2, #202
 620 0452 5A62     		str	r2, [r3, #36]
 633:../Libraries/STM32F30x_StdPeriph_Driver/src/stm32f30x_rtc.c ****   RTC->WPR = 0x53;
 621              		.loc 1 633 0
 622 0454 4FF42053 		mov	r3, #10240
 623 0458 C4F20003 		movt	r3, 16384
 624 045c 4FF05302 		mov	r2, #83
 625 0460 5A62     		str	r2, [r3, #36]
 634:../Libraries/STM32F30x_StdPeriph_Driver/src/stm32f30x_rtc.c **** 
 635:../Libraries/STM32F30x_StdPeriph_Driver/src/stm32f30x_rtc.c ****   /* Set Initialization mode */
 636:../Libraries/STM32F30x_StdPeriph_Driver/src/stm32f30x_rtc.c ****   if (RTC_EnterInitMode() == ERROR)
 626              		.loc 1 636 0
 627 0462 FFF7FEFF 		bl	RTC_EnterInitMode
 628 0466 0346     		mov	r3, r0
 629 0468 002B     		cmp	r3, #0
 630 046a 04D1     		bne	.L30
 637:../Libraries/STM32F30x_StdPeriph_Driver/src/stm32f30x_rtc.c ****   {
 638:../Libraries/STM32F30x_StdPeriph_Driver/src/stm32f30x_rtc.c ****     status = ERROR;
 631              		.loc 1 638 0
 632 046c 4FF00003 		mov	r3, #0
 633 0470 8DF80F30 		strb	r3, [sp, #15]
 634 0474 22E0     		b	.L31
 635              	.L30:
 639:../Libraries/STM32F30x_StdPeriph_Driver/src/stm32f30x_rtc.c ****   }
 640:../Libraries/STM32F30x_StdPeriph_Driver/src/stm32f30x_rtc.c ****   else
 641:../Libraries/STM32F30x_StdPeriph_Driver/src/stm32f30x_rtc.c ****   {
 642:../Libraries/STM32F30x_StdPeriph_Driver/src/stm32f30x_rtc.c ****     if (NewState != DISABLE)
 636              		.loc 1 642 0
 637 0476 9DF80730 		ldrb	r3, [sp, #7]	@ zero_extendqisi2
 638 047a 002B     		cmp	r3, #0
 639 047c 0CD0     		beq	.L32
 643:../Libraries/STM32F30x_StdPeriph_Driver/src/stm32f30x_rtc.c ****     {
 644:../Libraries/STM32F30x_StdPeriph_Driver/src/stm32f30x_rtc.c ****       /* Enable the RTC reference clock detection */
 645:../Libraries/STM32F30x_StdPeriph_Driver/src/stm32f30x_rtc.c ****       RTC->CR |= RTC_CR_REFCKON;   
 640              		.loc 1 645 0
 641 047e 4FF42053 		mov	r3, #10240
 642 0482 C4F20003 		movt	r3, 16384
 643 0486 4FF42052 		mov	r2, #10240
 644 048a C4F20002 		movt	r2, 16384
 645 048e 9268     		ldr	r2, [r2, #8]
 646 0490 42F01002 		orr	r2, r2, #16
 647 0494 9A60     		str	r2, [r3, #8]
 648 0496 0BE0     		b	.L33
 649              	.L32:
 646:../Libraries/STM32F30x_StdPeriph_Driver/src/stm32f30x_rtc.c ****     }
 647:../Libraries/STM32F30x_StdPeriph_Driver/src/stm32f30x_rtc.c ****     else
 648:../Libraries/STM32F30x_StdPeriph_Driver/src/stm32f30x_rtc.c ****     {
 649:../Libraries/STM32F30x_StdPeriph_Driver/src/stm32f30x_rtc.c ****       /* Disable the RTC reference clock detection */
 650:../Libraries/STM32F30x_StdPeriph_Driver/src/stm32f30x_rtc.c ****       RTC->CR &= ~RTC_CR_REFCKON;    
 650              		.loc 1 650 0
 651 0498 4FF42053 		mov	r3, #10240
 652 049c C4F20003 		movt	r3, 16384
 653 04a0 4FF42052 		mov	r2, #10240
 654 04a4 C4F20002 		movt	r2, 16384
 655 04a8 9268     		ldr	r2, [r2, #8]
 656 04aa 22F01002 		bic	r2, r2, #16
 657 04ae 9A60     		str	r2, [r3, #8]
 658              	.L33:
 651:../Libraries/STM32F30x_StdPeriph_Driver/src/stm32f30x_rtc.c ****     }
 652:../Libraries/STM32F30x_StdPeriph_Driver/src/stm32f30x_rtc.c ****     /* Exit Initialization mode */
 653:../Libraries/STM32F30x_StdPeriph_Driver/src/stm32f30x_rtc.c ****     RTC_ExitInitMode();
 659              		.loc 1 653 0
 660 04b0 FFF7FEFF 		bl	RTC_ExitInitMode
 654:../Libraries/STM32F30x_StdPeriph_Driver/src/stm32f30x_rtc.c **** 
 655:../Libraries/STM32F30x_StdPeriph_Driver/src/stm32f30x_rtc.c ****     status = SUCCESS;
 661              		.loc 1 655 0
 662 04b4 4FF00103 		mov	r3, #1
 663 04b8 8DF80F30 		strb	r3, [sp, #15]
 664              	.L31:
 656:../Libraries/STM32F30x_StdPeriph_Driver/src/stm32f30x_rtc.c ****   }
 657:../Libraries/STM32F30x_StdPeriph_Driver/src/stm32f30x_rtc.c **** 
 658:../Libraries/STM32F30x_StdPeriph_Driver/src/stm32f30x_rtc.c ****   /* Enable the write protection for RTC registers */
 659:../Libraries/STM32F30x_StdPeriph_Driver/src/stm32f30x_rtc.c ****   RTC->WPR = 0xFF;
 665              		.loc 1 659 0
 666 04bc 4FF42053 		mov	r3, #10240
 667 04c0 C4F20003 		movt	r3, 16384
 668 04c4 4FF0FF02 		mov	r2, #255
 669 04c8 5A62     		str	r2, [r3, #36]
 660:../Libraries/STM32F30x_StdPeriph_Driver/src/stm32f30x_rtc.c **** 
 661:../Libraries/STM32F30x_StdPeriph_Driver/src/stm32f30x_rtc.c ****   return status;
 670              		.loc 1 661 0
 671 04ca 9DF80F30 		ldrb	r3, [sp, #15]	@ zero_extendqisi2
 662:../Libraries/STM32F30x_StdPeriph_Driver/src/stm32f30x_rtc.c **** }
 672              		.loc 1 662 0
 673 04ce 1846     		mov	r0, r3
 674 04d0 05B0     		add	sp, sp, #20
 675 04d2 00BD     		pop	{pc}
 676              		.cfi_endproc
 677              	.LFE118:
 679              		.align	2
 680              		.global	RTC_BypassShadowCmd
 681              		.thumb
 682              		.thumb_func
 684              	RTC_BypassShadowCmd:
 685              	.LFB119:
 663:../Libraries/STM32F30x_StdPeriph_Driver/src/stm32f30x_rtc.c **** 
 664:../Libraries/STM32F30x_StdPeriph_Driver/src/stm32f30x_rtc.c **** /**
 665:../Libraries/STM32F30x_StdPeriph_Driver/src/stm32f30x_rtc.c ****   * @brief  Enables or Disables the Bypass Shadow feature.
 666:../Libraries/STM32F30x_StdPeriph_Driver/src/stm32f30x_rtc.c ****   * @note   When the Bypass Shadow is enabled the calendar value are taken 
 667:../Libraries/STM32F30x_StdPeriph_Driver/src/stm32f30x_rtc.c ****   *         directly from the Calendar counter.
 668:../Libraries/STM32F30x_StdPeriph_Driver/src/stm32f30x_rtc.c ****   * @param  NewState: new state of the Bypass Shadow feature.
 669:../Libraries/STM32F30x_StdPeriph_Driver/src/stm32f30x_rtc.c ****   *         This parameter can be: ENABLE or DISABLE.
 670:../Libraries/STM32F30x_StdPeriph_Driver/src/stm32f30x_rtc.c ****   * @retval None
 671:../Libraries/STM32F30x_StdPeriph_Driver/src/stm32f30x_rtc.c **** */
 672:../Libraries/STM32F30x_StdPeriph_Driver/src/stm32f30x_rtc.c **** void RTC_BypassShadowCmd(FunctionalState NewState)
 673:../Libraries/STM32F30x_StdPeriph_Driver/src/stm32f30x_rtc.c **** {
 686              		.loc 1 673 0
 687              		.cfi_startproc
 688              		@ args = 0, pretend = 0, frame = 8
 689              		@ frame_needed = 0, uses_anonymous_args = 0
 690              		@ link register save eliminated.
 691 04d4 82B0     		sub	sp, sp, #8
 692              	.LCFI10:
 693              		.cfi_def_cfa_offset 8
 694 04d6 0346     		mov	r3, r0
 695 04d8 8DF80730 		strb	r3, [sp, #7]
 674:../Libraries/STM32F30x_StdPeriph_Driver/src/stm32f30x_rtc.c ****   /* Check the parameters */
 675:../Libraries/STM32F30x_StdPeriph_Driver/src/stm32f30x_rtc.c ****   assert_param(IS_FUNCTIONAL_STATE(NewState));
 676:../Libraries/STM32F30x_StdPeriph_Driver/src/stm32f30x_rtc.c **** 
 677:../Libraries/STM32F30x_StdPeriph_Driver/src/stm32f30x_rtc.c ****   /* Disable the write protection for RTC registers */
 678:../Libraries/STM32F30x_StdPeriph_Driver/src/stm32f30x_rtc.c ****   RTC->WPR = 0xCA;
 696              		.loc 1 678 0
 697 04dc 4FF42053 		mov	r3, #10240
 698 04e0 C4F20003 		movt	r3, 16384
 699 04e4 4FF0CA02 		mov	r2, #202
 700 04e8 5A62     		str	r2, [r3, #36]
 679:../Libraries/STM32F30x_StdPeriph_Driver/src/stm32f30x_rtc.c ****   RTC->WPR = 0x53;
 701              		.loc 1 679 0
 702 04ea 4FF42053 		mov	r3, #10240
 703 04ee C4F20003 		movt	r3, 16384
 704 04f2 4FF05302 		mov	r2, #83
 705 04f6 5A62     		str	r2, [r3, #36]
 680:../Libraries/STM32F30x_StdPeriph_Driver/src/stm32f30x_rtc.c ****   
 681:../Libraries/STM32F30x_StdPeriph_Driver/src/stm32f30x_rtc.c ****   if (NewState != DISABLE)
 706              		.loc 1 681 0
 707 04f8 9DF80730 		ldrb	r3, [sp, #7]	@ zero_extendqisi2
 708 04fc 002B     		cmp	r3, #0
 709 04fe 0CD0     		beq	.L35
 682:../Libraries/STM32F30x_StdPeriph_Driver/src/stm32f30x_rtc.c ****   {
 683:../Libraries/STM32F30x_StdPeriph_Driver/src/stm32f30x_rtc.c ****     /* Set the BYPSHAD bit */
 684:../Libraries/STM32F30x_StdPeriph_Driver/src/stm32f30x_rtc.c ****     RTC->CR |= (uint8_t)RTC_CR_BYPSHAD;
 710              		.loc 1 684 0
 711 0500 4FF42053 		mov	r3, #10240
 712 0504 C4F20003 		movt	r3, 16384
 713 0508 4FF42052 		mov	r2, #10240
 714 050c C4F20002 		movt	r2, 16384
 715 0510 9268     		ldr	r2, [r2, #8]
 716 0512 42F02002 		orr	r2, r2, #32
 717 0516 9A60     		str	r2, [r3, #8]
 718 0518 0BE0     		b	.L36
 719              	.L35:
 685:../Libraries/STM32F30x_StdPeriph_Driver/src/stm32f30x_rtc.c ****   }
 686:../Libraries/STM32F30x_StdPeriph_Driver/src/stm32f30x_rtc.c ****   else
 687:../Libraries/STM32F30x_StdPeriph_Driver/src/stm32f30x_rtc.c ****   {
 688:../Libraries/STM32F30x_StdPeriph_Driver/src/stm32f30x_rtc.c ****     /* Reset the BYPSHAD bit */
 689:../Libraries/STM32F30x_StdPeriph_Driver/src/stm32f30x_rtc.c ****     RTC->CR &= (uint8_t)~RTC_CR_BYPSHAD;
 720              		.loc 1 689 0
 721 051a 4FF42053 		mov	r3, #10240
 722 051e C4F20003 		movt	r3, 16384
 723 0522 4FF42052 		mov	r2, #10240
 724 0526 C4F20002 		movt	r2, 16384
 725 052a 9268     		ldr	r2, [r2, #8]
 726 052c 02F0DF02 		and	r2, r2, #223
 727 0530 9A60     		str	r2, [r3, #8]
 728              	.L36:
 690:../Libraries/STM32F30x_StdPeriph_Driver/src/stm32f30x_rtc.c ****   }
 691:../Libraries/STM32F30x_StdPeriph_Driver/src/stm32f30x_rtc.c **** 
 692:../Libraries/STM32F30x_StdPeriph_Driver/src/stm32f30x_rtc.c ****   /* Enable the write protection for RTC registers */
 693:../Libraries/STM32F30x_StdPeriph_Driver/src/stm32f30x_rtc.c ****   RTC->WPR = 0xFF;
 729              		.loc 1 693 0
 730 0532 4FF42053 		mov	r3, #10240
 731 0536 C4F20003 		movt	r3, 16384
 732 053a 4FF0FF02 		mov	r2, #255
 733 053e 5A62     		str	r2, [r3, #36]
 694:../Libraries/STM32F30x_StdPeriph_Driver/src/stm32f30x_rtc.c **** }
 734              		.loc 1 694 0
 735 0540 02B0     		add	sp, sp, #8
 736 0542 7047     		bx	lr
 737              		.cfi_endproc
 738              	.LFE119:
 740              		.align	2
 741              		.global	RTC_SetTime
 742              		.thumb
 743              		.thumb_func
 745              	RTC_SetTime:
 746              	.LFB120:
 695:../Libraries/STM32F30x_StdPeriph_Driver/src/stm32f30x_rtc.c **** 
 696:../Libraries/STM32F30x_StdPeriph_Driver/src/stm32f30x_rtc.c **** /**
 697:../Libraries/STM32F30x_StdPeriph_Driver/src/stm32f30x_rtc.c ****   * @}
 698:../Libraries/STM32F30x_StdPeriph_Driver/src/stm32f30x_rtc.c ****   */
 699:../Libraries/STM32F30x_StdPeriph_Driver/src/stm32f30x_rtc.c **** 
 700:../Libraries/STM32F30x_StdPeriph_Driver/src/stm32f30x_rtc.c **** /** @defgroup RTC_Group2 Time and Date configuration functions
 701:../Libraries/STM32F30x_StdPeriph_Driver/src/stm32f30x_rtc.c ****  *  @brief   Time and Date configuration functions 
 702:../Libraries/STM32F30x_StdPeriph_Driver/src/stm32f30x_rtc.c ****  *
 703:../Libraries/STM32F30x_StdPeriph_Driver/src/stm32f30x_rtc.c **** @verbatim   
 704:../Libraries/STM32F30x_StdPeriph_Driver/src/stm32f30x_rtc.c ****  ===============================================================================
 705:../Libraries/STM32F30x_StdPeriph_Driver/src/stm32f30x_rtc.c ****                ##### Time and Date configuration functions #####
 706:../Libraries/STM32F30x_StdPeriph_Driver/src/stm32f30x_rtc.c ****  ===============================================================================  
 707:../Libraries/STM32F30x_StdPeriph_Driver/src/stm32f30x_rtc.c ****     [..] This section provide functions allowing to program and read the RTC Calendar
 708:../Libraries/STM32F30x_StdPeriph_Driver/src/stm32f30x_rtc.c ****          (Time and Date).
 709:../Libraries/STM32F30x_StdPeriph_Driver/src/stm32f30x_rtc.c **** 
 710:../Libraries/STM32F30x_StdPeriph_Driver/src/stm32f30x_rtc.c **** @endverbatim
 711:../Libraries/STM32F30x_StdPeriph_Driver/src/stm32f30x_rtc.c ****   * @{
 712:../Libraries/STM32F30x_StdPeriph_Driver/src/stm32f30x_rtc.c ****   */
 713:../Libraries/STM32F30x_StdPeriph_Driver/src/stm32f30x_rtc.c **** 
 714:../Libraries/STM32F30x_StdPeriph_Driver/src/stm32f30x_rtc.c **** /**
 715:../Libraries/STM32F30x_StdPeriph_Driver/src/stm32f30x_rtc.c ****   * @brief  Set the RTC current time.
 716:../Libraries/STM32F30x_StdPeriph_Driver/src/stm32f30x_rtc.c ****   * @param  RTC_Format: specifies the format of the entered parameters.
 717:../Libraries/STM32F30x_StdPeriph_Driver/src/stm32f30x_rtc.c ****   *   This parameter can be  one of the following values:
 718:../Libraries/STM32F30x_StdPeriph_Driver/src/stm32f30x_rtc.c ****   *     @arg RTC_Format_BIN:  Binary data format 
 719:../Libraries/STM32F30x_StdPeriph_Driver/src/stm32f30x_rtc.c ****   *     @arg RTC_Format_BCD:  BCD data format
 720:../Libraries/STM32F30x_StdPeriph_Driver/src/stm32f30x_rtc.c ****   * @param  RTC_TimeStruct: pointer to a RTC_TimeTypeDef structure that contains 
 721:../Libraries/STM32F30x_StdPeriph_Driver/src/stm32f30x_rtc.c ****   *                        the time configuration information for the RTC.     
 722:../Libraries/STM32F30x_StdPeriph_Driver/src/stm32f30x_rtc.c ****   * @retval An ErrorStatus enumeration value:
 723:../Libraries/STM32F30x_StdPeriph_Driver/src/stm32f30x_rtc.c ****   *          - SUCCESS: RTC Time register is configured
 724:../Libraries/STM32F30x_StdPeriph_Driver/src/stm32f30x_rtc.c ****   *          - ERROR: RTC Time register is not configured
 725:../Libraries/STM32F30x_StdPeriph_Driver/src/stm32f30x_rtc.c ****   */
 726:../Libraries/STM32F30x_StdPeriph_Driver/src/stm32f30x_rtc.c **** ErrorStatus RTC_SetTime(uint32_t RTC_Format, RTC_TimeTypeDef* RTC_TimeStruct)
 727:../Libraries/STM32F30x_StdPeriph_Driver/src/stm32f30x_rtc.c **** {
 747              		.loc 1 727 0
 748              		.cfi_startproc
 749              		@ args = 0, pretend = 0, frame = 16
 750              		@ frame_needed = 0, uses_anonymous_args = 0
 751 0544 10B5     		push	{r4, lr}
 752              	.LCFI11:
 753              		.cfi_def_cfa_offset 8
 754              		.cfi_offset 14, -4
 755              		.cfi_offset 4, -8
 756 0546 84B0     		sub	sp, sp, #16
 757              	.LCFI12:
 758              		.cfi_def_cfa_offset 24
 759 0548 0190     		str	r0, [sp, #4]
 760 054a 0091     		str	r1, [sp, #0]
 728:../Libraries/STM32F30x_StdPeriph_Driver/src/stm32f30x_rtc.c ****   uint32_t tmpreg = 0;
 761              		.loc 1 728 0
 762 054c 4FF00003 		mov	r3, #0
 763 0550 0393     		str	r3, [sp, #12]
 729:../Libraries/STM32F30x_StdPeriph_Driver/src/stm32f30x_rtc.c ****   ErrorStatus status = ERROR;
 764              		.loc 1 729 0
 765 0552 4FF00003 		mov	r3, #0
 766 0556 8DF80B30 		strb	r3, [sp, #11]
 730:../Libraries/STM32F30x_StdPeriph_Driver/src/stm32f30x_rtc.c ****     
 731:../Libraries/STM32F30x_StdPeriph_Driver/src/stm32f30x_rtc.c ****   /* Check the parameters */
 732:../Libraries/STM32F30x_StdPeriph_Driver/src/stm32f30x_rtc.c ****   assert_param(IS_RTC_FORMAT(RTC_Format));
 733:../Libraries/STM32F30x_StdPeriph_Driver/src/stm32f30x_rtc.c ****   
 734:../Libraries/STM32F30x_StdPeriph_Driver/src/stm32f30x_rtc.c ****   if (RTC_Format == RTC_Format_BIN)
 767              		.loc 1 734 0
 768 055a 019B     		ldr	r3, [sp, #4]
 769 055c 002B     		cmp	r3, #0
 770 055e 0DD1     		bne	.L38
 735:../Libraries/STM32F30x_StdPeriph_Driver/src/stm32f30x_rtc.c ****   {
 736:../Libraries/STM32F30x_StdPeriph_Driver/src/stm32f30x_rtc.c ****     if ((RTC->CR & RTC_CR_FMT) != (uint32_t)RESET)
 771              		.loc 1 736 0
 772 0560 4FF42053 		mov	r3, #10240
 773 0564 C4F20003 		movt	r3, 16384
 774 0568 9B68     		ldr	r3, [r3, #8]
 775 056a 03F04003 		and	r3, r3, #64
 776 056e 002B     		cmp	r3, #0
 777 0570 19D1     		bne	.L39
 737:../Libraries/STM32F30x_StdPeriph_Driver/src/stm32f30x_rtc.c ****     {
 738:../Libraries/STM32F30x_StdPeriph_Driver/src/stm32f30x_rtc.c ****       assert_param(IS_RTC_HOUR12(RTC_TimeStruct->RTC_Hours));
 739:../Libraries/STM32F30x_StdPeriph_Driver/src/stm32f30x_rtc.c ****       assert_param(IS_RTC_H12(RTC_TimeStruct->RTC_H12));
 740:../Libraries/STM32F30x_StdPeriph_Driver/src/stm32f30x_rtc.c ****     } 
 741:../Libraries/STM32F30x_StdPeriph_Driver/src/stm32f30x_rtc.c ****     else
 742:../Libraries/STM32F30x_StdPeriph_Driver/src/stm32f30x_rtc.c ****     {
 743:../Libraries/STM32F30x_StdPeriph_Driver/src/stm32f30x_rtc.c ****       RTC_TimeStruct->RTC_H12 = 0x00;
 778              		.loc 1 743 0
 779 0572 009B     		ldr	r3, [sp, #0]
 780 0574 4FF00002 		mov	r2, #0
 781 0578 DA70     		strb	r2, [r3, #3]
 782 057a 14E0     		b	.L39
 783              	.L38:
 744:../Libraries/STM32F30x_StdPeriph_Driver/src/stm32f30x_rtc.c ****       assert_param(IS_RTC_HOUR24(RTC_TimeStruct->RTC_Hours));
 745:../Libraries/STM32F30x_StdPeriph_Driver/src/stm32f30x_rtc.c ****     }
 746:../Libraries/STM32F30x_StdPeriph_Driver/src/stm32f30x_rtc.c ****     assert_param(IS_RTC_MINUTES(RTC_TimeStruct->RTC_Minutes));
 747:../Libraries/STM32F30x_StdPeriph_Driver/src/stm32f30x_rtc.c ****     assert_param(IS_RTC_SECONDS(RTC_TimeStruct->RTC_Seconds));
 748:../Libraries/STM32F30x_StdPeriph_Driver/src/stm32f30x_rtc.c ****   }
 749:../Libraries/STM32F30x_StdPeriph_Driver/src/stm32f30x_rtc.c ****   else
 750:../Libraries/STM32F30x_StdPeriph_Driver/src/stm32f30x_rtc.c ****   {
 751:../Libraries/STM32F30x_StdPeriph_Driver/src/stm32f30x_rtc.c ****     if ((RTC->CR & RTC_CR_FMT) != (uint32_t)RESET)
 784              		.loc 1 751 0
 785 057c 4FF42053 		mov	r3, #10240
 786 0580 C4F20003 		movt	r3, 16384
 787 0584 9B68     		ldr	r3, [r3, #8]
 788 0586 03F04003 		and	r3, r3, #64
 789 058a 002B     		cmp	r3, #0
 790 058c 07D0     		beq	.L40
 752:../Libraries/STM32F30x_StdPeriph_Driver/src/stm32f30x_rtc.c ****     {
 753:../Libraries/STM32F30x_StdPeriph_Driver/src/stm32f30x_rtc.c ****       tmpreg = RTC_Bcd2ToByte(RTC_TimeStruct->RTC_Hours);
 791              		.loc 1 753 0
 792 058e 009B     		ldr	r3, [sp, #0]
 793 0590 1B78     		ldrb	r3, [r3, #0]	@ zero_extendqisi2
 794 0592 1846     		mov	r0, r3
 795 0594 01F0EEF9 		bl	RTC_Bcd2ToByte
 796 0598 0346     		mov	r3, r0
 797 059a 0393     		str	r3, [sp, #12]
 798 059c 03E0     		b	.L39
 799              	.L40:
 754:../Libraries/STM32F30x_StdPeriph_Driver/src/stm32f30x_rtc.c ****       assert_param(IS_RTC_HOUR12(tmpreg));
 755:../Libraries/STM32F30x_StdPeriph_Driver/src/stm32f30x_rtc.c ****       assert_param(IS_RTC_H12(RTC_TimeStruct->RTC_H12)); 
 756:../Libraries/STM32F30x_StdPeriph_Driver/src/stm32f30x_rtc.c ****     } 
 757:../Libraries/STM32F30x_StdPeriph_Driver/src/stm32f30x_rtc.c ****     else
 758:../Libraries/STM32F30x_StdPeriph_Driver/src/stm32f30x_rtc.c ****     {
 759:../Libraries/STM32F30x_StdPeriph_Driver/src/stm32f30x_rtc.c ****       RTC_TimeStruct->RTC_H12 = 0x00;
 800              		.loc 1 759 0
 801 059e 009B     		ldr	r3, [sp, #0]
 802 05a0 4FF00002 		mov	r2, #0
 803 05a4 DA70     		strb	r2, [r3, #3]
 804              	.L39:
 760:../Libraries/STM32F30x_StdPeriph_Driver/src/stm32f30x_rtc.c ****       assert_param(IS_RTC_HOUR24(RTC_Bcd2ToByte(RTC_TimeStruct->RTC_Hours)));
 761:../Libraries/STM32F30x_StdPeriph_Driver/src/stm32f30x_rtc.c ****     }
 762:../Libraries/STM32F30x_StdPeriph_Driver/src/stm32f30x_rtc.c ****     assert_param(IS_RTC_MINUTES(RTC_Bcd2ToByte(RTC_TimeStruct->RTC_Minutes)));
 763:../Libraries/STM32F30x_StdPeriph_Driver/src/stm32f30x_rtc.c ****     assert_param(IS_RTC_SECONDS(RTC_Bcd2ToByte(RTC_TimeStruct->RTC_Seconds)));
 764:../Libraries/STM32F30x_StdPeriph_Driver/src/stm32f30x_rtc.c ****   }
 765:../Libraries/STM32F30x_StdPeriph_Driver/src/stm32f30x_rtc.c ****   
 766:../Libraries/STM32F30x_StdPeriph_Driver/src/stm32f30x_rtc.c ****   /* Check the input parameters format */
 767:../Libraries/STM32F30x_StdPeriph_Driver/src/stm32f30x_rtc.c ****   if (RTC_Format != RTC_Format_BIN)
 805              		.loc 1 767 0
 806 05a6 019B     		ldr	r3, [sp, #4]
 807 05a8 002B     		cmp	r3, #0
 808 05aa 12D0     		beq	.L41
 768:../Libraries/STM32F30x_StdPeriph_Driver/src/stm32f30x_rtc.c ****   {
 769:../Libraries/STM32F30x_StdPeriph_Driver/src/stm32f30x_rtc.c ****     tmpreg = (((uint32_t)(RTC_TimeStruct->RTC_Hours) << 16) | \
 809              		.loc 1 769 0
 810 05ac 009B     		ldr	r3, [sp, #0]
 811 05ae 1B78     		ldrb	r3, [r3, #0]	@ zero_extendqisi2
 812 05b0 4FEA0342 		lsl	r2, r3, #16
 770:../Libraries/STM32F30x_StdPeriph_Driver/src/stm32f30x_rtc.c ****              ((uint32_t)(RTC_TimeStruct->RTC_Minutes) << 8) | \
 813              		.loc 1 770 0
 814 05b4 009B     		ldr	r3, [sp, #0]
 815 05b6 5B78     		ldrb	r3, [r3, #1]	@ zero_extendqisi2
 816 05b8 4FEA0323 		lsl	r3, r3, #8
 769:../Libraries/STM32F30x_StdPeriph_Driver/src/stm32f30x_rtc.c ****     tmpreg = (((uint32_t)(RTC_TimeStruct->RTC_Hours) << 16) | \
 817              		.loc 1 769 0
 818 05bc 1A43     		orrs	r2, r2, r3
 771:../Libraries/STM32F30x_StdPeriph_Driver/src/stm32f30x_rtc.c ****              ((uint32_t)RTC_TimeStruct->RTC_Seconds) | \
 819              		.loc 1 771 0
 820 05be 009B     		ldr	r3, [sp, #0]
 821 05c0 9B78     		ldrb	r3, [r3, #2]	@ zero_extendqisi2
 770:../Libraries/STM32F30x_StdPeriph_Driver/src/stm32f30x_rtc.c ****              ((uint32_t)(RTC_TimeStruct->RTC_Minutes) << 8) | \
 822              		.loc 1 770 0
 823 05c2 1A43     		orrs	r2, r2, r3
 772:../Libraries/STM32F30x_StdPeriph_Driver/src/stm32f30x_rtc.c ****              ((uint32_t)(RTC_TimeStruct->RTC_H12) << 16)); 
 824              		.loc 1 772 0
 825 05c4 009B     		ldr	r3, [sp, #0]
 826 05c6 DB78     		ldrb	r3, [r3, #3]	@ zero_extendqisi2
 827 05c8 4FEA0343 		lsl	r3, r3, #16
 769:../Libraries/STM32F30x_StdPeriph_Driver/src/stm32f30x_rtc.c ****     tmpreg = (((uint32_t)(RTC_TimeStruct->RTC_Hours) << 16) | \
 828              		.loc 1 769 0
 829 05cc 1343     		orrs	r3, r3, r2
 830 05ce 0393     		str	r3, [sp, #12]
 831 05d0 1EE0     		b	.L42
 832              	.L41:
 773:../Libraries/STM32F30x_StdPeriph_Driver/src/stm32f30x_rtc.c ****   }  
 774:../Libraries/STM32F30x_StdPeriph_Driver/src/stm32f30x_rtc.c ****   else
 775:../Libraries/STM32F30x_StdPeriph_Driver/src/stm32f30x_rtc.c ****   {
 776:../Libraries/STM32F30x_StdPeriph_Driver/src/stm32f30x_rtc.c ****     tmpreg = (uint32_t)(((uint32_t)RTC_ByteToBcd2(RTC_TimeStruct->RTC_Hours) << 16) | \
 833              		.loc 1 776 0
 834 05d2 009B     		ldr	r3, [sp, #0]
 835 05d4 1B78     		ldrb	r3, [r3, #0]	@ zero_extendqisi2
 836 05d6 1846     		mov	r0, r3
 837 05d8 01F0A6F9 		bl	RTC_ByteToBcd2
 838 05dc 0346     		mov	r3, r0
 839 05de 4FEA0344 		lsl	r4, r3, #16
 777:../Libraries/STM32F30x_StdPeriph_Driver/src/stm32f30x_rtc.c ****                    ((uint32_t)RTC_ByteToBcd2(RTC_TimeStruct->RTC_Minutes) << 8) | \
 840              		.loc 1 777 0
 841 05e2 009B     		ldr	r3, [sp, #0]
 842 05e4 5B78     		ldrb	r3, [r3, #1]	@ zero_extendqisi2
 843 05e6 1846     		mov	r0, r3
 844 05e8 01F09EF9 		bl	RTC_ByteToBcd2
 845 05ec 0346     		mov	r3, r0
 846 05ee 4FEA0323 		lsl	r3, r3, #8
 776:../Libraries/STM32F30x_StdPeriph_Driver/src/stm32f30x_rtc.c ****     tmpreg = (uint32_t)(((uint32_t)RTC_ByteToBcd2(RTC_TimeStruct->RTC_Hours) << 16) | \
 847              		.loc 1 776 0
 848 05f2 1C43     		orrs	r4, r4, r3
 778:../Libraries/STM32F30x_StdPeriph_Driver/src/stm32f30x_rtc.c ****                    ((uint32_t)RTC_ByteToBcd2(RTC_TimeStruct->RTC_Seconds)) | \
 849              		.loc 1 778 0
 850 05f4 009B     		ldr	r3, [sp, #0]
 851 05f6 9B78     		ldrb	r3, [r3, #2]	@ zero_extendqisi2
 852 05f8 1846     		mov	r0, r3
 853 05fa 01F095F9 		bl	RTC_ByteToBcd2
 854 05fe 0346     		mov	r3, r0
 777:../Libraries/STM32F30x_StdPeriph_Driver/src/stm32f30x_rtc.c ****                    ((uint32_t)RTC_ByteToBcd2(RTC_TimeStruct->RTC_Minutes) << 8) | \
 855              		.loc 1 777 0
 856 0600 44EA0302 		orr	r2, r4, r3
 779:../Libraries/STM32F30x_StdPeriph_Driver/src/stm32f30x_rtc.c ****                    (((uint32_t)RTC_TimeStruct->RTC_H12) << 16));
 857              		.loc 1 779 0
 858 0604 009B     		ldr	r3, [sp, #0]
 859 0606 DB78     		ldrb	r3, [r3, #3]	@ zero_extendqisi2
 860 0608 4FEA0343 		lsl	r3, r3, #16
 776:../Libraries/STM32F30x_StdPeriph_Driver/src/stm32f30x_rtc.c ****     tmpreg = (uint32_t)(((uint32_t)RTC_ByteToBcd2(RTC_TimeStruct->RTC_Hours) << 16) | \
 861              		.loc 1 776 0
 862 060c 1343     		orrs	r3, r3, r2
 863 060e 0393     		str	r3, [sp, #12]
 864              	.L42:
 780:../Libraries/STM32F30x_StdPeriph_Driver/src/stm32f30x_rtc.c ****   }  
 781:../Libraries/STM32F30x_StdPeriph_Driver/src/stm32f30x_rtc.c **** 
 782:../Libraries/STM32F30x_StdPeriph_Driver/src/stm32f30x_rtc.c ****   /* Disable the write protection for RTC registers */
 783:../Libraries/STM32F30x_StdPeriph_Driver/src/stm32f30x_rtc.c ****   RTC->WPR = 0xCA;
 865              		.loc 1 783 0
 866 0610 4FF42053 		mov	r3, #10240
 867 0614 C4F20003 		movt	r3, 16384
 868 0618 4FF0CA02 		mov	r2, #202
 869 061c 5A62     		str	r2, [r3, #36]
 784:../Libraries/STM32F30x_StdPeriph_Driver/src/stm32f30x_rtc.c ****   RTC->WPR = 0x53;
 870              		.loc 1 784 0
 871 061e 4FF42053 		mov	r3, #10240
 872 0622 C4F20003 		movt	r3, 16384
 873 0626 4FF05302 		mov	r2, #83
 874 062a 5A62     		str	r2, [r3, #36]
 785:../Libraries/STM32F30x_StdPeriph_Driver/src/stm32f30x_rtc.c **** 
 786:../Libraries/STM32F30x_StdPeriph_Driver/src/stm32f30x_rtc.c ****   /* Set Initialization mode */
 787:../Libraries/STM32F30x_StdPeriph_Driver/src/stm32f30x_rtc.c ****   if (RTC_EnterInitMode() == ERROR)
 875              		.loc 1 787 0
 876 062c FFF7FEFF 		bl	RTC_EnterInitMode
 877 0630 0346     		mov	r3, r0
 878 0632 002B     		cmp	r3, #0
 879 0634 04D1     		bne	.L43
 788:../Libraries/STM32F30x_StdPeriph_Driver/src/stm32f30x_rtc.c ****   {
 789:../Libraries/STM32F30x_StdPeriph_Driver/src/stm32f30x_rtc.c ****     status = ERROR;
 880              		.loc 1 789 0
 881 0636 4FF00003 		mov	r3, #0
 882 063a 8DF80B30 		strb	r3, [sp, #11]
 883 063e 28E0     		b	.L44
 884              	.L43:
 790:../Libraries/STM32F30x_StdPeriph_Driver/src/stm32f30x_rtc.c ****   } 
 791:../Libraries/STM32F30x_StdPeriph_Driver/src/stm32f30x_rtc.c ****   else
 792:../Libraries/STM32F30x_StdPeriph_Driver/src/stm32f30x_rtc.c ****   {
 793:../Libraries/STM32F30x_StdPeriph_Driver/src/stm32f30x_rtc.c ****     /* Set the RTC_TR register */
 794:../Libraries/STM32F30x_StdPeriph_Driver/src/stm32f30x_rtc.c ****     RTC->TR = (uint32_t)(tmpreg & RTC_TR_RESERVED_MASK);
 885              		.loc 1 794 0
 886 0640 4FF42052 		mov	r2, #10240
 887 0644 C4F20002 		movt	r2, 16384
 888 0648 0399     		ldr	r1, [sp, #12]
 889 064a 47F67F73 		movw	r3, #32639
 890 064e C0F27F03 		movt	r3, 127
 891 0652 0B40     		ands	r3, r3, r1
 892 0654 1360     		str	r3, [r2, #0]
 795:../Libraries/STM32F30x_StdPeriph_Driver/src/stm32f30x_rtc.c **** 
 796:../Libraries/STM32F30x_StdPeriph_Driver/src/stm32f30x_rtc.c ****     /* Exit Initialization mode */
 797:../Libraries/STM32F30x_StdPeriph_Driver/src/stm32f30x_rtc.c ****     RTC_ExitInitMode(); 
 893              		.loc 1 797 0
 894 0656 FFF7FEFF 		bl	RTC_ExitInitMode
 798:../Libraries/STM32F30x_StdPeriph_Driver/src/stm32f30x_rtc.c **** 
 799:../Libraries/STM32F30x_StdPeriph_Driver/src/stm32f30x_rtc.c ****     /* If  RTC_CR_BYPSHAD bit = 0, wait for synchro else this check is not needed */
 800:../Libraries/STM32F30x_StdPeriph_Driver/src/stm32f30x_rtc.c ****     if ((RTC->CR & RTC_CR_BYPSHAD) == RESET)
 895              		.loc 1 800 0
 896 065a 4FF42053 		mov	r3, #10240
 897 065e C4F20003 		movt	r3, 16384
 898 0662 9B68     		ldr	r3, [r3, #8]
 899 0664 03F02003 		and	r3, r3, #32
 900 0668 002B     		cmp	r3, #0
 901 066a 0ED1     		bne	.L45
 801:../Libraries/STM32F30x_StdPeriph_Driver/src/stm32f30x_rtc.c ****     {
 802:../Libraries/STM32F30x_StdPeriph_Driver/src/stm32f30x_rtc.c ****       if (RTC_WaitForSynchro() == ERROR)
 902              		.loc 1 802 0
 903 066c FFF7FEFF 		bl	RTC_WaitForSynchro
 904 0670 0346     		mov	r3, r0
 905 0672 002B     		cmp	r3, #0
 906 0674 04D1     		bne	.L46
 803:../Libraries/STM32F30x_StdPeriph_Driver/src/stm32f30x_rtc.c ****       {
 804:../Libraries/STM32F30x_StdPeriph_Driver/src/stm32f30x_rtc.c ****         status = ERROR;
 907              		.loc 1 804 0
 908 0676 4FF00003 		mov	r3, #0
 909 067a 8DF80B30 		strb	r3, [sp, #11]
 910 067e 08E0     		b	.L44
 911              	.L46:
 805:../Libraries/STM32F30x_StdPeriph_Driver/src/stm32f30x_rtc.c ****       }
 806:../Libraries/STM32F30x_StdPeriph_Driver/src/stm32f30x_rtc.c ****       else
 807:../Libraries/STM32F30x_StdPeriph_Driver/src/stm32f30x_rtc.c ****       {
 808:../Libraries/STM32F30x_StdPeriph_Driver/src/stm32f30x_rtc.c ****         status = SUCCESS;
 912              		.loc 1 808 0
 913 0680 4FF00103 		mov	r3, #1
 914 0684 8DF80B30 		strb	r3, [sp, #11]
 915 0688 03E0     		b	.L44
 916              	.L45:
 809:../Libraries/STM32F30x_StdPeriph_Driver/src/stm32f30x_rtc.c ****       }
 810:../Libraries/STM32F30x_StdPeriph_Driver/src/stm32f30x_rtc.c ****     }
 811:../Libraries/STM32F30x_StdPeriph_Driver/src/stm32f30x_rtc.c ****     else
 812:../Libraries/STM32F30x_StdPeriph_Driver/src/stm32f30x_rtc.c ****     {
 813:../Libraries/STM32F30x_StdPeriph_Driver/src/stm32f30x_rtc.c ****       status = SUCCESS;
 917              		.loc 1 813 0
 918 068a 4FF00103 		mov	r3, #1
 919 068e 8DF80B30 		strb	r3, [sp, #11]
 920              	.L44:
 814:../Libraries/STM32F30x_StdPeriph_Driver/src/stm32f30x_rtc.c ****     }
 815:../Libraries/STM32F30x_StdPeriph_Driver/src/stm32f30x_rtc.c ****   
 816:../Libraries/STM32F30x_StdPeriph_Driver/src/stm32f30x_rtc.c ****   }
 817:../Libraries/STM32F30x_StdPeriph_Driver/src/stm32f30x_rtc.c ****   /* Enable the write protection for RTC registers */
 818:../Libraries/STM32F30x_StdPeriph_Driver/src/stm32f30x_rtc.c ****   RTC->WPR = 0xFF;
 921              		.loc 1 818 0
 922 0692 4FF42053 		mov	r3, #10240
 923 0696 C4F20003 		movt	r3, 16384
 924 069a 4FF0FF02 		mov	r2, #255
 925 069e 5A62     		str	r2, [r3, #36]
 819:../Libraries/STM32F30x_StdPeriph_Driver/src/stm32f30x_rtc.c ****     
 820:../Libraries/STM32F30x_StdPeriph_Driver/src/stm32f30x_rtc.c ****   return status;
 926              		.loc 1 820 0
 927 06a0 9DF80B30 		ldrb	r3, [sp, #11]	@ zero_extendqisi2
 821:../Libraries/STM32F30x_StdPeriph_Driver/src/stm32f30x_rtc.c **** }
 928              		.loc 1 821 0
 929 06a4 1846     		mov	r0, r3
 930 06a6 04B0     		add	sp, sp, #16
 931 06a8 10BD     		pop	{r4, pc}
 932              		.cfi_endproc
 933              	.LFE120:
 935 06aa 00BF     		.align	2
 936              		.global	RTC_TimeStructInit
 937              		.thumb
 938              		.thumb_func
 940              	RTC_TimeStructInit:
 941              	.LFB121:
 822:../Libraries/STM32F30x_StdPeriph_Driver/src/stm32f30x_rtc.c **** 
 823:../Libraries/STM32F30x_StdPeriph_Driver/src/stm32f30x_rtc.c **** /**
 824:../Libraries/STM32F30x_StdPeriph_Driver/src/stm32f30x_rtc.c ****   * @brief  Fills each RTC_TimeStruct member with its default value
 825:../Libraries/STM32F30x_StdPeriph_Driver/src/stm32f30x_rtc.c ****   *         (Time = 00h:00min:00sec).
 826:../Libraries/STM32F30x_StdPeriph_Driver/src/stm32f30x_rtc.c ****   * @param  RTC_TimeStruct: pointer to a RTC_TimeTypeDef structure which will be 
 827:../Libraries/STM32F30x_StdPeriph_Driver/src/stm32f30x_rtc.c ****   *         initialized.
 828:../Libraries/STM32F30x_StdPeriph_Driver/src/stm32f30x_rtc.c ****   * @retval None
 829:../Libraries/STM32F30x_StdPeriph_Driver/src/stm32f30x_rtc.c ****   */
 830:../Libraries/STM32F30x_StdPeriph_Driver/src/stm32f30x_rtc.c **** void RTC_TimeStructInit(RTC_TimeTypeDef* RTC_TimeStruct)
 831:../Libraries/STM32F30x_StdPeriph_Driver/src/stm32f30x_rtc.c **** {
 942              		.loc 1 831 0
 943              		.cfi_startproc
 944              		@ args = 0, pretend = 0, frame = 8
 945              		@ frame_needed = 0, uses_anonymous_args = 0
 946              		@ link register save eliminated.
 947 06ac 82B0     		sub	sp, sp, #8
 948              	.LCFI13:
 949              		.cfi_def_cfa_offset 8
 950 06ae 0190     		str	r0, [sp, #4]
 832:../Libraries/STM32F30x_StdPeriph_Driver/src/stm32f30x_rtc.c ****   /* Time = 00h:00min:00sec */
 833:../Libraries/STM32F30x_StdPeriph_Driver/src/stm32f30x_rtc.c ****   RTC_TimeStruct->RTC_H12 = RTC_H12_AM;
 951              		.loc 1 833 0
 952 06b0 019B     		ldr	r3, [sp, #4]
 953 06b2 4FF00002 		mov	r2, #0
 954 06b6 DA70     		strb	r2, [r3, #3]
 834:../Libraries/STM32F30x_StdPeriph_Driver/src/stm32f30x_rtc.c ****   RTC_TimeStruct->RTC_Hours = 0;
 955              		.loc 1 834 0
 956 06b8 019B     		ldr	r3, [sp, #4]
 957 06ba 4FF00002 		mov	r2, #0
 958 06be 1A70     		strb	r2, [r3, #0]
 835:../Libraries/STM32F30x_StdPeriph_Driver/src/stm32f30x_rtc.c ****   RTC_TimeStruct->RTC_Minutes = 0;
 959              		.loc 1 835 0
 960 06c0 019B     		ldr	r3, [sp, #4]
 961 06c2 4FF00002 		mov	r2, #0
 962 06c6 5A70     		strb	r2, [r3, #1]
 836:../Libraries/STM32F30x_StdPeriph_Driver/src/stm32f30x_rtc.c ****   RTC_TimeStruct->RTC_Seconds = 0; 
 963              		.loc 1 836 0
 964 06c8 019B     		ldr	r3, [sp, #4]
 965 06ca 4FF00002 		mov	r2, #0
 966 06ce 9A70     		strb	r2, [r3, #2]
 837:../Libraries/STM32F30x_StdPeriph_Driver/src/stm32f30x_rtc.c **** }
 967              		.loc 1 837 0
 968 06d0 02B0     		add	sp, sp, #8
 969 06d2 7047     		bx	lr
 970              		.cfi_endproc
 971              	.LFE121:
 973              		.align	2
 974              		.global	RTC_GetTime
 975              		.thumb
 976              		.thumb_func
 978              	RTC_GetTime:
 979              	.LFB122:
 838:../Libraries/STM32F30x_StdPeriph_Driver/src/stm32f30x_rtc.c **** 
 839:../Libraries/STM32F30x_StdPeriph_Driver/src/stm32f30x_rtc.c **** /**
 840:../Libraries/STM32F30x_StdPeriph_Driver/src/stm32f30x_rtc.c ****   * @brief  Get the RTC current Time.
 841:../Libraries/STM32F30x_StdPeriph_Driver/src/stm32f30x_rtc.c ****   * @param  RTC_Format: specifies the format of the returned parameters.
 842:../Libraries/STM32F30x_StdPeriph_Driver/src/stm32f30x_rtc.c ****   *   This parameter can be  one of the following values:
 843:../Libraries/STM32F30x_StdPeriph_Driver/src/stm32f30x_rtc.c ****   *     @arg RTC_Format_BIN:  Binary data format 
 844:../Libraries/STM32F30x_StdPeriph_Driver/src/stm32f30x_rtc.c ****   *     @arg RTC_Format_BCD:  BCD data format
 845:../Libraries/STM32F30x_StdPeriph_Driver/src/stm32f30x_rtc.c ****   * @param RTC_TimeStruct: pointer to a RTC_TimeTypeDef structure that will 
 846:../Libraries/STM32F30x_StdPeriph_Driver/src/stm32f30x_rtc.c ****   *                        contain the returned current time configuration.     
 847:../Libraries/STM32F30x_StdPeriph_Driver/src/stm32f30x_rtc.c ****   * @retval None
 848:../Libraries/STM32F30x_StdPeriph_Driver/src/stm32f30x_rtc.c ****   */
 849:../Libraries/STM32F30x_StdPeriph_Driver/src/stm32f30x_rtc.c **** void RTC_GetTime(uint32_t RTC_Format, RTC_TimeTypeDef* RTC_TimeStruct)
 850:../Libraries/STM32F30x_StdPeriph_Driver/src/stm32f30x_rtc.c **** {
 980              		.loc 1 850 0
 981              		.cfi_startproc
 982              		@ args = 0, pretend = 0, frame = 16
 983              		@ frame_needed = 0, uses_anonymous_args = 0
 984 06d4 00B5     		push	{lr}
 985              	.LCFI14:
 986              		.cfi_def_cfa_offset 4
 987              		.cfi_offset 14, -4
 988 06d6 85B0     		sub	sp, sp, #20
 989              	.LCFI15:
 990              		.cfi_def_cfa_offset 24
 991 06d8 0190     		str	r0, [sp, #4]
 992 06da 0091     		str	r1, [sp, #0]
 851:../Libraries/STM32F30x_StdPeriph_Driver/src/stm32f30x_rtc.c ****   uint32_t tmpreg = 0;
 993              		.loc 1 851 0
 994 06dc 4FF00003 		mov	r3, #0
 995 06e0 0393     		str	r3, [sp, #12]
 852:../Libraries/STM32F30x_StdPeriph_Driver/src/stm32f30x_rtc.c **** 
 853:../Libraries/STM32F30x_StdPeriph_Driver/src/stm32f30x_rtc.c ****   /* Check the parameters */
 854:../Libraries/STM32F30x_StdPeriph_Driver/src/stm32f30x_rtc.c ****   assert_param(IS_RTC_FORMAT(RTC_Format));
 855:../Libraries/STM32F30x_StdPeriph_Driver/src/stm32f30x_rtc.c **** 
 856:../Libraries/STM32F30x_StdPeriph_Driver/src/stm32f30x_rtc.c ****   /* Get the RTC_TR register */
 857:../Libraries/STM32F30x_StdPeriph_Driver/src/stm32f30x_rtc.c ****   tmpreg = (uint32_t)(RTC->TR & RTC_TR_RESERVED_MASK); 
 996              		.loc 1 857 0
 997 06e2 4FF42053 		mov	r3, #10240
 998 06e6 C4F20003 		movt	r3, 16384
 999 06ea 1A68     		ldr	r2, [r3, #0]
 1000 06ec 47F67F73 		movw	r3, #32639
 1001 06f0 C0F27F03 		movt	r3, 127
 1002 06f4 1340     		ands	r3, r3, r2
 1003 06f6 0393     		str	r3, [sp, #12]
 858:../Libraries/STM32F30x_StdPeriph_Driver/src/stm32f30x_rtc.c ****   
 859:../Libraries/STM32F30x_StdPeriph_Driver/src/stm32f30x_rtc.c ****   /* Fill the structure fields with the read parameters */
 860:../Libraries/STM32F30x_StdPeriph_Driver/src/stm32f30x_rtc.c ****   RTC_TimeStruct->RTC_Hours = (uint8_t)((tmpreg & (RTC_TR_HT | RTC_TR_HU)) >> 16);
 1004              		.loc 1 860 0
 1005 06f8 039B     		ldr	r3, [sp, #12]
 1006 06fa 03F47C13 		and	r3, r3, #4128768
 1007 06fe 4FEA1343 		lsr	r3, r3, #16
 1008 0702 DAB2     		uxtb	r2, r3
 1009 0704 009B     		ldr	r3, [sp, #0]
 1010 0706 1A70     		strb	r2, [r3, #0]
 861:../Libraries/STM32F30x_StdPeriph_Driver/src/stm32f30x_rtc.c ****   RTC_TimeStruct->RTC_Minutes = (uint8_t)((tmpreg & (RTC_TR_MNT | RTC_TR_MNU)) >>8);
 1011              		.loc 1 861 0
 1012 0708 039B     		ldr	r3, [sp, #12]
 1013 070a 03F4FE43 		and	r3, r3, #32512
 1014 070e 4FEA1323 		lsr	r3, r3, #8
 1015 0712 DAB2     		uxtb	r2, r3
 1016 0714 009B     		ldr	r3, [sp, #0]
 1017 0716 5A70     		strb	r2, [r3, #1]
 862:../Libraries/STM32F30x_StdPeriph_Driver/src/stm32f30x_rtc.c ****   RTC_TimeStruct->RTC_Seconds = (uint8_t)(tmpreg & (RTC_TR_ST | RTC_TR_SU));
 1018              		.loc 1 862 0
 1019 0718 039B     		ldr	r3, [sp, #12]
 1020 071a DBB2     		uxtb	r3, r3
 1021 071c 03F07F03 		and	r3, r3, #127
 1022 0720 DAB2     		uxtb	r2, r3
 1023 0722 009B     		ldr	r3, [sp, #0]
 1024 0724 9A70     		strb	r2, [r3, #2]
 863:../Libraries/STM32F30x_StdPeriph_Driver/src/stm32f30x_rtc.c ****   RTC_TimeStruct->RTC_H12 = (uint8_t)((tmpreg & (RTC_TR_PM)) >> 16);  
 1025              		.loc 1 863 0
 1026 0726 039B     		ldr	r3, [sp, #12]
 1027 0728 03F48003 		and	r3, r3, #4194304
 1028 072c 4FEA1343 		lsr	r3, r3, #16
 1029 0730 DAB2     		uxtb	r2, r3
 1030 0732 009B     		ldr	r3, [sp, #0]
 1031 0734 DA70     		strb	r2, [r3, #3]
 864:../Libraries/STM32F30x_StdPeriph_Driver/src/stm32f30x_rtc.c **** 
 865:../Libraries/STM32F30x_StdPeriph_Driver/src/stm32f30x_rtc.c ****   /* Check the input parameters format */
 866:../Libraries/STM32F30x_StdPeriph_Driver/src/stm32f30x_rtc.c ****   if (RTC_Format == RTC_Format_BIN)
 1032              		.loc 1 866 0
 1033 0736 019B     		ldr	r3, [sp, #4]
 1034 0738 002B     		cmp	r3, #0
 1035 073a 1AD1     		bne	.L48
 867:../Libraries/STM32F30x_StdPeriph_Driver/src/stm32f30x_rtc.c ****   {
 868:../Libraries/STM32F30x_StdPeriph_Driver/src/stm32f30x_rtc.c ****     /* Convert the structure parameters to Binary format */
 869:../Libraries/STM32F30x_StdPeriph_Driver/src/stm32f30x_rtc.c ****     RTC_TimeStruct->RTC_Hours = (uint8_t)RTC_Bcd2ToByte(RTC_TimeStruct->RTC_Hours);
 1036              		.loc 1 869 0
 1037 073c 009B     		ldr	r3, [sp, #0]
 1038 073e 1B78     		ldrb	r3, [r3, #0]	@ zero_extendqisi2
 1039 0740 1846     		mov	r0, r3
 1040 0742 01F017F9 		bl	RTC_Bcd2ToByte
 1041 0746 0346     		mov	r3, r0
 1042 0748 1A46     		mov	r2, r3
 1043 074a 009B     		ldr	r3, [sp, #0]
 1044 074c 1A70     		strb	r2, [r3, #0]
 870:../Libraries/STM32F30x_StdPeriph_Driver/src/stm32f30x_rtc.c ****     RTC_TimeStruct->RTC_Minutes = (uint8_t)RTC_Bcd2ToByte(RTC_TimeStruct->RTC_Minutes);
 1045              		.loc 1 870 0
 1046 074e 009B     		ldr	r3, [sp, #0]
 1047 0750 5B78     		ldrb	r3, [r3, #1]	@ zero_extendqisi2
 1048 0752 1846     		mov	r0, r3
 1049 0754 01F00EF9 		bl	RTC_Bcd2ToByte
 1050 0758 0346     		mov	r3, r0
 1051 075a 1A46     		mov	r2, r3
 1052 075c 009B     		ldr	r3, [sp, #0]
 1053 075e 5A70     		strb	r2, [r3, #1]
 871:../Libraries/STM32F30x_StdPeriph_Driver/src/stm32f30x_rtc.c ****     RTC_TimeStruct->RTC_Seconds = (uint8_t)RTC_Bcd2ToByte(RTC_TimeStruct->RTC_Seconds);   
 1054              		.loc 1 871 0
 1055 0760 009B     		ldr	r3, [sp, #0]
 1056 0762 9B78     		ldrb	r3, [r3, #2]	@ zero_extendqisi2
 1057 0764 1846     		mov	r0, r3
 1058 0766 01F005F9 		bl	RTC_Bcd2ToByte
 1059 076a 0346     		mov	r3, r0
 1060 076c 1A46     		mov	r2, r3
 1061 076e 009B     		ldr	r3, [sp, #0]
 1062 0770 9A70     		strb	r2, [r3, #2]
 1063              	.L48:
 872:../Libraries/STM32F30x_StdPeriph_Driver/src/stm32f30x_rtc.c ****   }
 873:../Libraries/STM32F30x_StdPeriph_Driver/src/stm32f30x_rtc.c **** }
 1064              		.loc 1 873 0
 1065 0772 05B0     		add	sp, sp, #20
 1066 0774 00BD     		pop	{pc}
 1067              		.cfi_endproc
 1068              	.LFE122:
 1070 0776 00BF     		.align	2
 1071              		.global	RTC_GetSubSecond
 1072              		.thumb
 1073              		.thumb_func
 1075              	RTC_GetSubSecond:
 1076              	.LFB123:
 874:../Libraries/STM32F30x_StdPeriph_Driver/src/stm32f30x_rtc.c **** 
 875:../Libraries/STM32F30x_StdPeriph_Driver/src/stm32f30x_rtc.c **** /**
 876:../Libraries/STM32F30x_StdPeriph_Driver/src/stm32f30x_rtc.c ****   * @brief  Gets the RTC current Calendar Subseconds value.
 877:../Libraries/STM32F30x_StdPeriph_Driver/src/stm32f30x_rtc.c ****   * @note   This function freeze the Time and Date registers after reading the 
 878:../Libraries/STM32F30x_StdPeriph_Driver/src/stm32f30x_rtc.c ****   *         SSR register.
 879:../Libraries/STM32F30x_StdPeriph_Driver/src/stm32f30x_rtc.c ****   * @param  None
 880:../Libraries/STM32F30x_StdPeriph_Driver/src/stm32f30x_rtc.c ****   * @retval RTC current Calendar Subseconds value.
 881:../Libraries/STM32F30x_StdPeriph_Driver/src/stm32f30x_rtc.c ****   */
 882:../Libraries/STM32F30x_StdPeriph_Driver/src/stm32f30x_rtc.c **** uint32_t RTC_GetSubSecond(void)
 883:../Libraries/STM32F30x_StdPeriph_Driver/src/stm32f30x_rtc.c **** {
 1077              		.loc 1 883 0
 1078              		.cfi_startproc
 1079              		@ args = 0, pretend = 0, frame = 8
 1080              		@ frame_needed = 0, uses_anonymous_args = 0
 1081              		@ link register save eliminated.
 1082 0778 82B0     		sub	sp, sp, #8
 1083              	.LCFI16:
 1084              		.cfi_def_cfa_offset 8
 884:../Libraries/STM32F30x_StdPeriph_Driver/src/stm32f30x_rtc.c ****   uint32_t tmpreg = 0;
 1085              		.loc 1 884 0
 1086 077a 4FF00003 		mov	r3, #0
 1087 077e 0193     		str	r3, [sp, #4]
 885:../Libraries/STM32F30x_StdPeriph_Driver/src/stm32f30x_rtc.c ****   
 886:../Libraries/STM32F30x_StdPeriph_Driver/src/stm32f30x_rtc.c ****   /* Get subseconds values from the correspondent registers*/
 887:../Libraries/STM32F30x_StdPeriph_Driver/src/stm32f30x_rtc.c ****   tmpreg = (uint32_t)(RTC->SSR);
 1088              		.loc 1 887 0
 1089 0780 4FF42053 		mov	r3, #10240
 1090 0784 C4F20003 		movt	r3, 16384
 1091 0788 9B6A     		ldr	r3, [r3, #40]
 1092 078a 0193     		str	r3, [sp, #4]
 888:../Libraries/STM32F30x_StdPeriph_Driver/src/stm32f30x_rtc.c ****   
 889:../Libraries/STM32F30x_StdPeriph_Driver/src/stm32f30x_rtc.c ****   /* Read DR register to unfroze calendar registers */
 890:../Libraries/STM32F30x_StdPeriph_Driver/src/stm32f30x_rtc.c ****   (void) (RTC->DR);
 1093              		.loc 1 890 0
 1094 078c 4FF42053 		mov	r3, #10240
 1095 0790 C4F20003 		movt	r3, 16384
 1096 0794 5B68     		ldr	r3, [r3, #4]
 891:../Libraries/STM32F30x_StdPeriph_Driver/src/stm32f30x_rtc.c ****   
 892:../Libraries/STM32F30x_StdPeriph_Driver/src/stm32f30x_rtc.c ****   return (tmpreg);
 1097              		.loc 1 892 0
 1098 0796 019B     		ldr	r3, [sp, #4]
 893:../Libraries/STM32F30x_StdPeriph_Driver/src/stm32f30x_rtc.c **** }
 1099              		.loc 1 893 0
 1100 0798 1846     		mov	r0, r3
 1101 079a 02B0     		add	sp, sp, #8
 1102 079c 7047     		bx	lr
 1103              		.cfi_endproc
 1104              	.LFE123:
 1106 079e 00BF     		.align	2
 1107              		.global	RTC_SetDate
 1108              		.thumb
 1109              		.thumb_func
 1111              	RTC_SetDate:
 1112              	.LFB124:
 894:../Libraries/STM32F30x_StdPeriph_Driver/src/stm32f30x_rtc.c **** 
 895:../Libraries/STM32F30x_StdPeriph_Driver/src/stm32f30x_rtc.c **** /**
 896:../Libraries/STM32F30x_StdPeriph_Driver/src/stm32f30x_rtc.c ****   * @brief  Set the RTC current date.
 897:../Libraries/STM32F30x_StdPeriph_Driver/src/stm32f30x_rtc.c ****   * @param  RTC_Format: specifies the format of the entered parameters.
 898:../Libraries/STM32F30x_StdPeriph_Driver/src/stm32f30x_rtc.c ****   *   This parameter can be  one of the following values:
 899:../Libraries/STM32F30x_StdPeriph_Driver/src/stm32f30x_rtc.c ****   *     @arg RTC_Format_BIN:  Binary data format 
 900:../Libraries/STM32F30x_StdPeriph_Driver/src/stm32f30x_rtc.c ****   *     @arg RTC_Format_BCD:  BCD data format
 901:../Libraries/STM32F30x_StdPeriph_Driver/src/stm32f30x_rtc.c ****   * @param  RTC_DateStruct: pointer to a RTC_DateTypeDef structure that contains 
 902:../Libraries/STM32F30x_StdPeriph_Driver/src/stm32f30x_rtc.c ****   *                         the date configuration information for the RTC.
 903:../Libraries/STM32F30x_StdPeriph_Driver/src/stm32f30x_rtc.c ****   * @retval An ErrorStatus enumeration value:
 904:../Libraries/STM32F30x_StdPeriph_Driver/src/stm32f30x_rtc.c ****   *          - SUCCESS: RTC Date register is configured
 905:../Libraries/STM32F30x_StdPeriph_Driver/src/stm32f30x_rtc.c ****   *          - ERROR: RTC Date register is not configured
 906:../Libraries/STM32F30x_StdPeriph_Driver/src/stm32f30x_rtc.c ****   */
 907:../Libraries/STM32F30x_StdPeriph_Driver/src/stm32f30x_rtc.c **** ErrorStatus RTC_SetDate(uint32_t RTC_Format, RTC_DateTypeDef* RTC_DateStruct)
 908:../Libraries/STM32F30x_StdPeriph_Driver/src/stm32f30x_rtc.c **** {
 1113              		.loc 1 908 0
 1114              		.cfi_startproc
 1115              		@ args = 0, pretend = 0, frame = 16
 1116              		@ frame_needed = 0, uses_anonymous_args = 0
 1117 07a0 10B5     		push	{r4, lr}
 1118              	.LCFI17:
 1119              		.cfi_def_cfa_offset 8
 1120              		.cfi_offset 14, -4
 1121              		.cfi_offset 4, -8
 1122 07a2 84B0     		sub	sp, sp, #16
 1123              	.LCFI18:
 1124              		.cfi_def_cfa_offset 24
 1125 07a4 0190     		str	r0, [sp, #4]
 1126 07a6 0091     		str	r1, [sp, #0]
 909:../Libraries/STM32F30x_StdPeriph_Driver/src/stm32f30x_rtc.c ****   uint32_t tmpreg = 0;
 1127              		.loc 1 909 0
 1128 07a8 4FF00003 		mov	r3, #0
 1129 07ac 0393     		str	r3, [sp, #12]
 910:../Libraries/STM32F30x_StdPeriph_Driver/src/stm32f30x_rtc.c ****   ErrorStatus status = ERROR;
 1130              		.loc 1 910 0
 1131 07ae 4FF00003 		mov	r3, #0
 1132 07b2 8DF80B30 		strb	r3, [sp, #11]
 911:../Libraries/STM32F30x_StdPeriph_Driver/src/stm32f30x_rtc.c ****   
 912:../Libraries/STM32F30x_StdPeriph_Driver/src/stm32f30x_rtc.c ****   /* Check the parameters */
 913:../Libraries/STM32F30x_StdPeriph_Driver/src/stm32f30x_rtc.c ****   assert_param(IS_RTC_FORMAT(RTC_Format));
 914:../Libraries/STM32F30x_StdPeriph_Driver/src/stm32f30x_rtc.c **** 
 915:../Libraries/STM32F30x_StdPeriph_Driver/src/stm32f30x_rtc.c ****   if ((RTC_Format == RTC_Format_BIN) && ((RTC_DateStruct->RTC_Month & 0x10) == 0x10))
 1133              		.loc 1 915 0
 1134 07b6 019B     		ldr	r3, [sp, #4]
 1135 07b8 002B     		cmp	r3, #0
 1136 07ba 0FD1     		bne	.L52
 1137              		.loc 1 915 0 is_stmt 0 discriminator 1
 1138 07bc 009B     		ldr	r3, [sp, #0]
 1139 07be 5B78     		ldrb	r3, [r3, #1]	@ zero_extendqisi2
 1140 07c0 03F01003 		and	r3, r3, #16
 1141 07c4 002B     		cmp	r3, #0
 1142 07c6 09D0     		beq	.L52
 916:../Libraries/STM32F30x_StdPeriph_Driver/src/stm32f30x_rtc.c ****   {
 917:../Libraries/STM32F30x_StdPeriph_Driver/src/stm32f30x_rtc.c ****     RTC_DateStruct->RTC_Month = (RTC_DateStruct->RTC_Month & (uint32_t)~(0x10)) + 0x0A;
 1143              		.loc 1 917 0 is_stmt 1
 1144 07c8 009B     		ldr	r3, [sp, #0]
 1145 07ca 5B78     		ldrb	r3, [r3, #1]	@ zero_extendqisi2
 1146 07cc 23F01003 		bic	r3, r3, #16
 1147 07d0 DBB2     		uxtb	r3, r3
 1148 07d2 03F10A03 		add	r3, r3, #10
 1149 07d6 DAB2     		uxtb	r2, r3
 1150 07d8 009B     		ldr	r3, [sp, #0]
 1151 07da 5A70     		strb	r2, [r3, #1]
 1152              	.L52:
 918:../Libraries/STM32F30x_StdPeriph_Driver/src/stm32f30x_rtc.c ****   }  
 919:../Libraries/STM32F30x_StdPeriph_Driver/src/stm32f30x_rtc.c ****   if (RTC_Format == RTC_Format_BIN)
 1153              		.loc 1 919 0
 1154 07dc 019B     		ldr	r3, [sp, #4]
 1155 07de 002B     		cmp	r3, #0
 1156 07e0 0DD0     		beq	.L53
 920:../Libraries/STM32F30x_StdPeriph_Driver/src/stm32f30x_rtc.c ****   {
 921:../Libraries/STM32F30x_StdPeriph_Driver/src/stm32f30x_rtc.c ****     assert_param(IS_RTC_YEAR(RTC_DateStruct->RTC_Year));
 922:../Libraries/STM32F30x_StdPeriph_Driver/src/stm32f30x_rtc.c ****     assert_param(IS_RTC_MONTH(RTC_DateStruct->RTC_Month));
 923:../Libraries/STM32F30x_StdPeriph_Driver/src/stm32f30x_rtc.c ****     assert_param(IS_RTC_DATE(RTC_DateStruct->RTC_Date));
 924:../Libraries/STM32F30x_StdPeriph_Driver/src/stm32f30x_rtc.c ****   }
 925:../Libraries/STM32F30x_StdPeriph_Driver/src/stm32f30x_rtc.c ****   else
 926:../Libraries/STM32F30x_StdPeriph_Driver/src/stm32f30x_rtc.c ****   {
 927:../Libraries/STM32F30x_StdPeriph_Driver/src/stm32f30x_rtc.c ****     assert_param(IS_RTC_YEAR(RTC_Bcd2ToByte(RTC_DateStruct->RTC_Year)));
 928:../Libraries/STM32F30x_StdPeriph_Driver/src/stm32f30x_rtc.c ****     tmpreg = RTC_Bcd2ToByte(RTC_DateStruct->RTC_Month);
 1157              		.loc 1 928 0
 1158 07e2 009B     		ldr	r3, [sp, #0]
 1159 07e4 5B78     		ldrb	r3, [r3, #1]	@ zero_extendqisi2
 1160 07e6 1846     		mov	r0, r3
 1161 07e8 01F0C4F8 		bl	RTC_Bcd2ToByte
 1162 07ec 0346     		mov	r3, r0
 1163 07ee 0393     		str	r3, [sp, #12]
 929:../Libraries/STM32F30x_StdPeriph_Driver/src/stm32f30x_rtc.c ****     assert_param(IS_RTC_MONTH(tmpreg));
 930:../Libraries/STM32F30x_StdPeriph_Driver/src/stm32f30x_rtc.c ****     tmpreg = RTC_Bcd2ToByte(RTC_DateStruct->RTC_Date);
 1164              		.loc 1 930 0
 1165 07f0 009B     		ldr	r3, [sp, #0]
 1166 07f2 9B78     		ldrb	r3, [r3, #2]	@ zero_extendqisi2
 1167 07f4 1846     		mov	r0, r3
 1168 07f6 01F0BDF8 		bl	RTC_Bcd2ToByte
 1169 07fa 0346     		mov	r3, r0
 1170 07fc 0393     		str	r3, [sp, #12]
 1171              	.L53:
 931:../Libraries/STM32F30x_StdPeriph_Driver/src/stm32f30x_rtc.c ****     assert_param(IS_RTC_DATE(tmpreg));
 932:../Libraries/STM32F30x_StdPeriph_Driver/src/stm32f30x_rtc.c ****   }
 933:../Libraries/STM32F30x_StdPeriph_Driver/src/stm32f30x_rtc.c ****   assert_param(IS_RTC_WEEKDAY(RTC_DateStruct->RTC_WeekDay));
 934:../Libraries/STM32F30x_StdPeriph_Driver/src/stm32f30x_rtc.c **** 
 935:../Libraries/STM32F30x_StdPeriph_Driver/src/stm32f30x_rtc.c ****   /* Check the input parameters format */
 936:../Libraries/STM32F30x_StdPeriph_Driver/src/stm32f30x_rtc.c ****   if (RTC_Format != RTC_Format_BIN)
 1172              		.loc 1 936 0
 1173 07fe 019B     		ldr	r3, [sp, #4]
 1174 0800 002B     		cmp	r3, #0
 1175 0802 12D0     		beq	.L54
 937:../Libraries/STM32F30x_StdPeriph_Driver/src/stm32f30x_rtc.c ****   {
 938:../Libraries/STM32F30x_StdPeriph_Driver/src/stm32f30x_rtc.c ****     tmpreg = ((((uint32_t)RTC_DateStruct->RTC_Year) << 16) | \
 1176              		.loc 1 938 0
 1177 0804 009B     		ldr	r3, [sp, #0]
 1178 0806 DB78     		ldrb	r3, [r3, #3]	@ zero_extendqisi2
 1179 0808 4FEA0342 		lsl	r2, r3, #16
 939:../Libraries/STM32F30x_StdPeriph_Driver/src/stm32f30x_rtc.c ****               (((uint32_t)RTC_DateStruct->RTC_Month) << 8) | \
 1180              		.loc 1 939 0
 1181 080c 009B     		ldr	r3, [sp, #0]
 1182 080e 5B78     		ldrb	r3, [r3, #1]	@ zero_extendqisi2
 1183 0810 4FEA0323 		lsl	r3, r3, #8
 938:../Libraries/STM32F30x_StdPeriph_Driver/src/stm32f30x_rtc.c ****     tmpreg = ((((uint32_t)RTC_DateStruct->RTC_Year) << 16) | \
 1184              		.loc 1 938 0
 1185 0814 1A43     		orrs	r2, r2, r3
 940:../Libraries/STM32F30x_StdPeriph_Driver/src/stm32f30x_rtc.c ****               ((uint32_t)RTC_DateStruct->RTC_Date) | \
 1186              		.loc 1 940 0
 1187 0816 009B     		ldr	r3, [sp, #0]
 1188 0818 9B78     		ldrb	r3, [r3, #2]	@ zero_extendqisi2
 939:../Libraries/STM32F30x_StdPeriph_Driver/src/stm32f30x_rtc.c ****               (((uint32_t)RTC_DateStruct->RTC_Month) << 8) | \
 1189              		.loc 1 939 0
 1190 081a 1A43     		orrs	r2, r2, r3
 941:../Libraries/STM32F30x_StdPeriph_Driver/src/stm32f30x_rtc.c ****               (((uint32_t)RTC_DateStruct->RTC_WeekDay) << 13)); 
 1191              		.loc 1 941 0
 1192 081c 009B     		ldr	r3, [sp, #0]
 1193 081e 1B78     		ldrb	r3, [r3, #0]	@ zero_extendqisi2
 1194 0820 4FEA4333 		lsl	r3, r3, #13
 938:../Libraries/STM32F30x_StdPeriph_Driver/src/stm32f30x_rtc.c ****     tmpreg = ((((uint32_t)RTC_DateStruct->RTC_Year) << 16) | \
 1195              		.loc 1 938 0
 1196 0824 1343     		orrs	r3, r3, r2
 1197 0826 0393     		str	r3, [sp, #12]
 1198 0828 1EE0     		b	.L55
 1199              	.L54:
 942:../Libraries/STM32F30x_StdPeriph_Driver/src/stm32f30x_rtc.c ****   }  
 943:../Libraries/STM32F30x_StdPeriph_Driver/src/stm32f30x_rtc.c ****   else
 944:../Libraries/STM32F30x_StdPeriph_Driver/src/stm32f30x_rtc.c ****   {
 945:../Libraries/STM32F30x_StdPeriph_Driver/src/stm32f30x_rtc.c ****     tmpreg = (((uint32_t)RTC_ByteToBcd2(RTC_DateStruct->RTC_Year) << 16) | \
 1200              		.loc 1 945 0
 1201 082a 009B     		ldr	r3, [sp, #0]
 1202 082c DB78     		ldrb	r3, [r3, #3]	@ zero_extendqisi2
 1203 082e 1846     		mov	r0, r3
 1204 0830 01F07AF8 		bl	RTC_ByteToBcd2
 1205 0834 0346     		mov	r3, r0
 1206 0836 4FEA0344 		lsl	r4, r3, #16
 946:../Libraries/STM32F30x_StdPeriph_Driver/src/stm32f30x_rtc.c ****               ((uint32_t)RTC_ByteToBcd2(RTC_DateStruct->RTC_Month) << 8) | \
 1207              		.loc 1 946 0
 1208 083a 009B     		ldr	r3, [sp, #0]
 1209 083c 5B78     		ldrb	r3, [r3, #1]	@ zero_extendqisi2
 1210 083e 1846     		mov	r0, r3
 1211 0840 01F072F8 		bl	RTC_ByteToBcd2
 1212 0844 0346     		mov	r3, r0
 1213 0846 4FEA0323 		lsl	r3, r3, #8
 945:../Libraries/STM32F30x_StdPeriph_Driver/src/stm32f30x_rtc.c ****     tmpreg = (((uint32_t)RTC_ByteToBcd2(RTC_DateStruct->RTC_Year) << 16) | \
 1214              		.loc 1 945 0
 1215 084a 1C43     		orrs	r4, r4, r3
 947:../Libraries/STM32F30x_StdPeriph_Driver/src/stm32f30x_rtc.c ****               ((uint32_t)RTC_ByteToBcd2(RTC_DateStruct->RTC_Date)) | \
 1216              		.loc 1 947 0
 1217 084c 009B     		ldr	r3, [sp, #0]
 1218 084e 9B78     		ldrb	r3, [r3, #2]	@ zero_extendqisi2
 1219 0850 1846     		mov	r0, r3
 1220 0852 01F069F8 		bl	RTC_ByteToBcd2
 1221 0856 0346     		mov	r3, r0
 946:../Libraries/STM32F30x_StdPeriph_Driver/src/stm32f30x_rtc.c ****               ((uint32_t)RTC_ByteToBcd2(RTC_DateStruct->RTC_Month) << 8) | \
 1222              		.loc 1 946 0
 1223 0858 44EA0302 		orr	r2, r4, r3
 948:../Libraries/STM32F30x_StdPeriph_Driver/src/stm32f30x_rtc.c ****               ((uint32_t)RTC_DateStruct->RTC_WeekDay << 13));
 1224              		.loc 1 948 0
 1225 085c 009B     		ldr	r3, [sp, #0]
 1226 085e 1B78     		ldrb	r3, [r3, #0]	@ zero_extendqisi2
 1227 0860 4FEA4333 		lsl	r3, r3, #13
 945:../Libraries/STM32F30x_StdPeriph_Driver/src/stm32f30x_rtc.c ****     tmpreg = (((uint32_t)RTC_ByteToBcd2(RTC_DateStruct->RTC_Year) << 16) | \
 1228              		.loc 1 945 0
 1229 0864 1343     		orrs	r3, r3, r2
 1230 0866 0393     		str	r3, [sp, #12]
 1231              	.L55:
 949:../Libraries/STM32F30x_StdPeriph_Driver/src/stm32f30x_rtc.c ****   }
 950:../Libraries/STM32F30x_StdPeriph_Driver/src/stm32f30x_rtc.c **** 
 951:../Libraries/STM32F30x_StdPeriph_Driver/src/stm32f30x_rtc.c ****   /* Disable the write protection for RTC registers */
 952:../Libraries/STM32F30x_StdPeriph_Driver/src/stm32f30x_rtc.c ****   RTC->WPR = 0xCA;
 1232              		.loc 1 952 0
 1233 0868 4FF42053 		mov	r3, #10240
 1234 086c C4F20003 		movt	r3, 16384
 1235 0870 4FF0CA02 		mov	r2, #202
 1236 0874 5A62     		str	r2, [r3, #36]
 953:../Libraries/STM32F30x_StdPeriph_Driver/src/stm32f30x_rtc.c ****   RTC->WPR = 0x53;
 1237              		.loc 1 953 0
 1238 0876 4FF42053 		mov	r3, #10240
 1239 087a C4F20003 		movt	r3, 16384
 1240 087e 4FF05302 		mov	r2, #83
 1241 0882 5A62     		str	r2, [r3, #36]
 954:../Libraries/STM32F30x_StdPeriph_Driver/src/stm32f30x_rtc.c **** 
 955:../Libraries/STM32F30x_StdPeriph_Driver/src/stm32f30x_rtc.c ****   /* Set Initialization mode */
 956:../Libraries/STM32F30x_StdPeriph_Driver/src/stm32f30x_rtc.c ****   if (RTC_EnterInitMode() == ERROR)
 1242              		.loc 1 956 0
 1243 0884 FFF7FEFF 		bl	RTC_EnterInitMode
 1244 0888 0346     		mov	r3, r0
 1245 088a 002B     		cmp	r3, #0
 1246 088c 04D1     		bne	.L56
 957:../Libraries/STM32F30x_StdPeriph_Driver/src/stm32f30x_rtc.c ****   {
 958:../Libraries/STM32F30x_StdPeriph_Driver/src/stm32f30x_rtc.c ****     status = ERROR;
 1247              		.loc 1 958 0
 1248 088e 4FF00003 		mov	r3, #0
 1249 0892 8DF80B30 		strb	r3, [sp, #11]
 1250 0896 27E0     		b	.L57
 1251              	.L56:
 959:../Libraries/STM32F30x_StdPeriph_Driver/src/stm32f30x_rtc.c ****   } 
 960:../Libraries/STM32F30x_StdPeriph_Driver/src/stm32f30x_rtc.c ****   else
 961:../Libraries/STM32F30x_StdPeriph_Driver/src/stm32f30x_rtc.c ****   {
 962:../Libraries/STM32F30x_StdPeriph_Driver/src/stm32f30x_rtc.c ****     /* Set the RTC_DR register */
 963:../Libraries/STM32F30x_StdPeriph_Driver/src/stm32f30x_rtc.c ****     RTC->DR = (uint32_t)(tmpreg & RTC_DR_RESERVED_MASK);
 1252              		.loc 1 963 0
 1253 0898 4FF42053 		mov	r3, #10240
 1254 089c C4F20003 		movt	r3, 16384
 1255 08a0 039A     		ldr	r2, [sp, #12]
 1256 08a2 22F07F42 		bic	r2, r2, #-16777216
 1257 08a6 22F0C002 		bic	r2, r2, #192
 1258 08aa 5A60     		str	r2, [r3, #4]
 964:../Libraries/STM32F30x_StdPeriph_Driver/src/stm32f30x_rtc.c **** 
 965:../Libraries/STM32F30x_StdPeriph_Driver/src/stm32f30x_rtc.c ****     /* Exit Initialization mode */
 966:../Libraries/STM32F30x_StdPeriph_Driver/src/stm32f30x_rtc.c ****     RTC_ExitInitMode(); 
 1259              		.loc 1 966 0
 1260 08ac FFF7FEFF 		bl	RTC_ExitInitMode
 967:../Libraries/STM32F30x_StdPeriph_Driver/src/stm32f30x_rtc.c **** 
 968:../Libraries/STM32F30x_StdPeriph_Driver/src/stm32f30x_rtc.c ****     /* If  RTC_CR_BYPSHAD bit = 0, wait for synchro else this check is not needed */
 969:../Libraries/STM32F30x_StdPeriph_Driver/src/stm32f30x_rtc.c ****     if ((RTC->CR & RTC_CR_BYPSHAD) == RESET)
 1261              		.loc 1 969 0
 1262 08b0 4FF42053 		mov	r3, #10240
 1263 08b4 C4F20003 		movt	r3, 16384
 1264 08b8 9B68     		ldr	r3, [r3, #8]
 1265 08ba 03F02003 		and	r3, r3, #32
 1266 08be 002B     		cmp	r3, #0
 1267 08c0 0ED1     		bne	.L58
 970:../Libraries/STM32F30x_StdPeriph_Driver/src/stm32f30x_rtc.c ****     {
 971:../Libraries/STM32F30x_StdPeriph_Driver/src/stm32f30x_rtc.c ****       if (RTC_WaitForSynchro() == ERROR)
 1268              		.loc 1 971 0
 1269 08c2 FFF7FEFF 		bl	RTC_WaitForSynchro
 1270 08c6 0346     		mov	r3, r0
 1271 08c8 002B     		cmp	r3, #0
 1272 08ca 04D1     		bne	.L59
 972:../Libraries/STM32F30x_StdPeriph_Driver/src/stm32f30x_rtc.c ****       {
 973:../Libraries/STM32F30x_StdPeriph_Driver/src/stm32f30x_rtc.c ****         status = ERROR;
 1273              		.loc 1 973 0
 1274 08cc 4FF00003 		mov	r3, #0
 1275 08d0 8DF80B30 		strb	r3, [sp, #11]
 1276 08d4 08E0     		b	.L57
 1277              	.L59:
 974:../Libraries/STM32F30x_StdPeriph_Driver/src/stm32f30x_rtc.c ****       }
 975:../Libraries/STM32F30x_StdPeriph_Driver/src/stm32f30x_rtc.c ****       else
 976:../Libraries/STM32F30x_StdPeriph_Driver/src/stm32f30x_rtc.c ****       {
 977:../Libraries/STM32F30x_StdPeriph_Driver/src/stm32f30x_rtc.c ****         status = SUCCESS;
 1278              		.loc 1 977 0
 1279 08d6 4FF00103 		mov	r3, #1
 1280 08da 8DF80B30 		strb	r3, [sp, #11]
 1281 08de 03E0     		b	.L57
 1282              	.L58:
 978:../Libraries/STM32F30x_StdPeriph_Driver/src/stm32f30x_rtc.c ****       }
 979:../Libraries/STM32F30x_StdPeriph_Driver/src/stm32f30x_rtc.c ****     }
 980:../Libraries/STM32F30x_StdPeriph_Driver/src/stm32f30x_rtc.c ****     else
 981:../Libraries/STM32F30x_StdPeriph_Driver/src/stm32f30x_rtc.c ****     {
 982:../Libraries/STM32F30x_StdPeriph_Driver/src/stm32f30x_rtc.c ****       status = SUCCESS;
 1283              		.loc 1 982 0
 1284 08e0 4FF00103 		mov	r3, #1
 1285 08e4 8DF80B30 		strb	r3, [sp, #11]
 1286              	.L57:
 983:../Libraries/STM32F30x_StdPeriph_Driver/src/stm32f30x_rtc.c ****     }
 984:../Libraries/STM32F30x_StdPeriph_Driver/src/stm32f30x_rtc.c ****   }
 985:../Libraries/STM32F30x_StdPeriph_Driver/src/stm32f30x_rtc.c ****   /* Enable the write protection for RTC registers */
 986:../Libraries/STM32F30x_StdPeriph_Driver/src/stm32f30x_rtc.c ****   RTC->WPR = 0xFF;
 1287              		.loc 1 986 0
 1288 08e8 4FF42053 		mov	r3, #10240
 1289 08ec C4F20003 		movt	r3, 16384
 1290 08f0 4FF0FF02 		mov	r2, #255
 1291 08f4 5A62     		str	r2, [r3, #36]
 987:../Libraries/STM32F30x_StdPeriph_Driver/src/stm32f30x_rtc.c ****   
 988:../Libraries/STM32F30x_StdPeriph_Driver/src/stm32f30x_rtc.c ****   return status;
 1292              		.loc 1 988 0
 1293 08f6 9DF80B30 		ldrb	r3, [sp, #11]	@ zero_extendqisi2
 989:../Libraries/STM32F30x_StdPeriph_Driver/src/stm32f30x_rtc.c **** }
 1294              		.loc 1 989 0
 1295 08fa 1846     		mov	r0, r3
 1296 08fc 04B0     		add	sp, sp, #16
 1297 08fe 10BD     		pop	{r4, pc}
 1298              		.cfi_endproc
 1299              	.LFE124:
 1301              		.align	2
 1302              		.global	RTC_DateStructInit
 1303              		.thumb
 1304              		.thumb_func
 1306              	RTC_DateStructInit:
 1307              	.LFB125:
 990:../Libraries/STM32F30x_StdPeriph_Driver/src/stm32f30x_rtc.c **** 
 991:../Libraries/STM32F30x_StdPeriph_Driver/src/stm32f30x_rtc.c **** /**
 992:../Libraries/STM32F30x_StdPeriph_Driver/src/stm32f30x_rtc.c ****   * @brief  Fills each RTC_DateStruct member with its default value
 993:../Libraries/STM32F30x_StdPeriph_Driver/src/stm32f30x_rtc.c ****   *         (Monday, January 01 xx00).
 994:../Libraries/STM32F30x_StdPeriph_Driver/src/stm32f30x_rtc.c ****   * @param  RTC_DateStruct: pointer to a RTC_DateTypeDef structure which will be 
 995:../Libraries/STM32F30x_StdPeriph_Driver/src/stm32f30x_rtc.c ****   *         initialized.
 996:../Libraries/STM32F30x_StdPeriph_Driver/src/stm32f30x_rtc.c ****   * @retval None
 997:../Libraries/STM32F30x_StdPeriph_Driver/src/stm32f30x_rtc.c ****   */
 998:../Libraries/STM32F30x_StdPeriph_Driver/src/stm32f30x_rtc.c **** void RTC_DateStructInit(RTC_DateTypeDef* RTC_DateStruct)
 999:../Libraries/STM32F30x_StdPeriph_Driver/src/stm32f30x_rtc.c **** {
 1308              		.loc 1 999 0
 1309              		.cfi_startproc
 1310              		@ args = 0, pretend = 0, frame = 8
 1311              		@ frame_needed = 0, uses_anonymous_args = 0
 1312              		@ link register save eliminated.
 1313 0900 82B0     		sub	sp, sp, #8
 1314              	.LCFI19:
 1315              		.cfi_def_cfa_offset 8
 1316 0902 0190     		str	r0, [sp, #4]
1000:../Libraries/STM32F30x_StdPeriph_Driver/src/stm32f30x_rtc.c ****   /* Monday, January 01 xx00 */
1001:../Libraries/STM32F30x_StdPeriph_Driver/src/stm32f30x_rtc.c ****   RTC_DateStruct->RTC_WeekDay = RTC_Weekday_Monday;
 1317              		.loc 1 1001 0
 1318 0904 019B     		ldr	r3, [sp, #4]
 1319 0906 4FF00102 		mov	r2, #1
 1320 090a 1A70     		strb	r2, [r3, #0]
1002:../Libraries/STM32F30x_StdPeriph_Driver/src/stm32f30x_rtc.c ****   RTC_DateStruct->RTC_Date = 1;
 1321              		.loc 1 1002 0
 1322 090c 019B     		ldr	r3, [sp, #4]
 1323 090e 4FF00102 		mov	r2, #1
 1324 0912 9A70     		strb	r2, [r3, #2]
1003:../Libraries/STM32F30x_StdPeriph_Driver/src/stm32f30x_rtc.c ****   RTC_DateStruct->RTC_Month = RTC_Month_January;
 1325              		.loc 1 1003 0
 1326 0914 019B     		ldr	r3, [sp, #4]
 1327 0916 4FF00102 		mov	r2, #1
 1328 091a 5A70     		strb	r2, [r3, #1]
1004:../Libraries/STM32F30x_StdPeriph_Driver/src/stm32f30x_rtc.c ****   RTC_DateStruct->RTC_Year = 0;
 1329              		.loc 1 1004 0
 1330 091c 019B     		ldr	r3, [sp, #4]
 1331 091e 4FF00002 		mov	r2, #0
 1332 0922 DA70     		strb	r2, [r3, #3]
1005:../Libraries/STM32F30x_StdPeriph_Driver/src/stm32f30x_rtc.c **** }
 1333              		.loc 1 1005 0
 1334 0924 02B0     		add	sp, sp, #8
 1335 0926 7047     		bx	lr
 1336              		.cfi_endproc
 1337              	.LFE125:
 1339              		.align	2
 1340              		.global	RTC_GetDate
 1341              		.thumb
 1342              		.thumb_func
 1344              	RTC_GetDate:
 1345              	.LFB126:
1006:../Libraries/STM32F30x_StdPeriph_Driver/src/stm32f30x_rtc.c **** 
1007:../Libraries/STM32F30x_StdPeriph_Driver/src/stm32f30x_rtc.c **** /**
1008:../Libraries/STM32F30x_StdPeriph_Driver/src/stm32f30x_rtc.c ****   * @brief  Get the RTC current date.
1009:../Libraries/STM32F30x_StdPeriph_Driver/src/stm32f30x_rtc.c ****   * @param  RTC_Format: specifies the format of the returned parameters.
1010:../Libraries/STM32F30x_StdPeriph_Driver/src/stm32f30x_rtc.c ****   *   This parameter can be one of the following values:
1011:../Libraries/STM32F30x_StdPeriph_Driver/src/stm32f30x_rtc.c ****   *     @arg RTC_Format_BIN: Binary data format 
1012:../Libraries/STM32F30x_StdPeriph_Driver/src/stm32f30x_rtc.c ****   *     @arg RTC_Format_BCD: BCD data format
1013:../Libraries/STM32F30x_StdPeriph_Driver/src/stm32f30x_rtc.c ****   * @param RTC_DateStruct: pointer to a RTC_DateTypeDef structure that will 
1014:../Libraries/STM32F30x_StdPeriph_Driver/src/stm32f30x_rtc.c ****   *                        contain the returned current date configuration.
1015:../Libraries/STM32F30x_StdPeriph_Driver/src/stm32f30x_rtc.c ****   * @retval None
1016:../Libraries/STM32F30x_StdPeriph_Driver/src/stm32f30x_rtc.c ****   */
1017:../Libraries/STM32F30x_StdPeriph_Driver/src/stm32f30x_rtc.c **** void RTC_GetDate(uint32_t RTC_Format, RTC_DateTypeDef* RTC_DateStruct)
1018:../Libraries/STM32F30x_StdPeriph_Driver/src/stm32f30x_rtc.c **** {
 1346              		.loc 1 1018 0
 1347              		.cfi_startproc
 1348              		@ args = 0, pretend = 0, frame = 16
 1349              		@ frame_needed = 0, uses_anonymous_args = 0
 1350 0928 00B5     		push	{lr}
 1351              	.LCFI20:
 1352              		.cfi_def_cfa_offset 4
 1353              		.cfi_offset 14, -4
 1354 092a 85B0     		sub	sp, sp, #20
 1355              	.LCFI21:
 1356              		.cfi_def_cfa_offset 24
 1357 092c 0190     		str	r0, [sp, #4]
 1358 092e 0091     		str	r1, [sp, #0]
1019:../Libraries/STM32F30x_StdPeriph_Driver/src/stm32f30x_rtc.c ****   uint32_t tmpreg = 0;
 1359              		.loc 1 1019 0
 1360 0930 4FF00003 		mov	r3, #0
 1361 0934 0393     		str	r3, [sp, #12]
1020:../Libraries/STM32F30x_StdPeriph_Driver/src/stm32f30x_rtc.c **** 
1021:../Libraries/STM32F30x_StdPeriph_Driver/src/stm32f30x_rtc.c ****   /* Check the parameters */
1022:../Libraries/STM32F30x_StdPeriph_Driver/src/stm32f30x_rtc.c ****   assert_param(IS_RTC_FORMAT(RTC_Format));
1023:../Libraries/STM32F30x_StdPeriph_Driver/src/stm32f30x_rtc.c ****   
1024:../Libraries/STM32F30x_StdPeriph_Driver/src/stm32f30x_rtc.c ****   /* Get the RTC_TR register */
1025:../Libraries/STM32F30x_StdPeriph_Driver/src/stm32f30x_rtc.c ****   tmpreg = (uint32_t)(RTC->DR & RTC_DR_RESERVED_MASK); 
 1362              		.loc 1 1025 0
 1363 0936 4FF42053 		mov	r3, #10240
 1364 093a C4F20003 		movt	r3, 16384
 1365 093e 5B68     		ldr	r3, [r3, #4]
 1366 0940 23F07F43 		bic	r3, r3, #-16777216
 1367 0944 23F0C003 		bic	r3, r3, #192
 1368 0948 0393     		str	r3, [sp, #12]
1026:../Libraries/STM32F30x_StdPeriph_Driver/src/stm32f30x_rtc.c **** 
1027:../Libraries/STM32F30x_StdPeriph_Driver/src/stm32f30x_rtc.c ****   /* Fill the structure fields with the read parameters */
1028:../Libraries/STM32F30x_StdPeriph_Driver/src/stm32f30x_rtc.c ****   RTC_DateStruct->RTC_Year = (uint8_t)((tmpreg & (RTC_DR_YT | RTC_DR_YU)) >> 16);
 1369              		.loc 1 1028 0
 1370 094a 039B     		ldr	r3, [sp, #12]
 1371 094c 03F47F03 		and	r3, r3, #16711680
 1372 0950 4FEA1343 		lsr	r3, r3, #16
 1373 0954 DAB2     		uxtb	r2, r3
 1374 0956 009B     		ldr	r3, [sp, #0]
 1375 0958 DA70     		strb	r2, [r3, #3]
1029:../Libraries/STM32F30x_StdPeriph_Driver/src/stm32f30x_rtc.c ****   RTC_DateStruct->RTC_Month = (uint8_t)((tmpreg & (RTC_DR_MT | RTC_DR_MU)) >> 8);
 1376              		.loc 1 1029 0
 1377 095a 039B     		ldr	r3, [sp, #12]
 1378 095c 03F4F853 		and	r3, r3, #7936
 1379 0960 4FEA1323 		lsr	r3, r3, #8
 1380 0964 DAB2     		uxtb	r2, r3
 1381 0966 009B     		ldr	r3, [sp, #0]
 1382 0968 5A70     		strb	r2, [r3, #1]
1030:../Libraries/STM32F30x_StdPeriph_Driver/src/stm32f30x_rtc.c ****   RTC_DateStruct->RTC_Date = (uint8_t)(tmpreg & (RTC_DR_DT | RTC_DR_DU));
 1383              		.loc 1 1030 0
 1384 096a 039B     		ldr	r3, [sp, #12]
 1385 096c DBB2     		uxtb	r3, r3
 1386 096e 03F03F03 		and	r3, r3, #63
 1387 0972 DAB2     		uxtb	r2, r3
 1388 0974 009B     		ldr	r3, [sp, #0]
 1389 0976 9A70     		strb	r2, [r3, #2]
1031:../Libraries/STM32F30x_StdPeriph_Driver/src/stm32f30x_rtc.c ****   RTC_DateStruct->RTC_WeekDay = (uint8_t)((tmpreg & (RTC_DR_WDU)) >> 13);  
 1390              		.loc 1 1031 0
 1391 0978 039B     		ldr	r3, [sp, #12]
 1392 097a 03F46043 		and	r3, r3, #57344
 1393 097e 4FEA5333 		lsr	r3, r3, #13
 1394 0982 DAB2     		uxtb	r2, r3
 1395 0984 009B     		ldr	r3, [sp, #0]
 1396 0986 1A70     		strb	r2, [r3, #0]
1032:../Libraries/STM32F30x_StdPeriph_Driver/src/stm32f30x_rtc.c **** 
1033:../Libraries/STM32F30x_StdPeriph_Driver/src/stm32f30x_rtc.c ****   /* Check the input parameters format */
1034:../Libraries/STM32F30x_StdPeriph_Driver/src/stm32f30x_rtc.c ****   if (RTC_Format == RTC_Format_BIN)
 1397              		.loc 1 1034 0
 1398 0988 019B     		ldr	r3, [sp, #4]
 1399 098a 002B     		cmp	r3, #0
 1400 098c 1ED1     		bne	.L61
1035:../Libraries/STM32F30x_StdPeriph_Driver/src/stm32f30x_rtc.c ****   {
1036:../Libraries/STM32F30x_StdPeriph_Driver/src/stm32f30x_rtc.c ****     /* Convert the structure parameters to Binary format */
1037:../Libraries/STM32F30x_StdPeriph_Driver/src/stm32f30x_rtc.c ****     RTC_DateStruct->RTC_Year = (uint8_t)RTC_Bcd2ToByte(RTC_DateStruct->RTC_Year);
 1401              		.loc 1 1037 0
 1402 098e 009B     		ldr	r3, [sp, #0]
 1403 0990 DB78     		ldrb	r3, [r3, #3]	@ zero_extendqisi2
 1404 0992 1846     		mov	r0, r3
 1405 0994 00F0EEFF 		bl	RTC_Bcd2ToByte
 1406 0998 0346     		mov	r3, r0
 1407 099a 1A46     		mov	r2, r3
 1408 099c 009B     		ldr	r3, [sp, #0]
 1409 099e DA70     		strb	r2, [r3, #3]
1038:../Libraries/STM32F30x_StdPeriph_Driver/src/stm32f30x_rtc.c ****     RTC_DateStruct->RTC_Month = (uint8_t)RTC_Bcd2ToByte(RTC_DateStruct->RTC_Month);
 1410              		.loc 1 1038 0
 1411 09a0 009B     		ldr	r3, [sp, #0]
 1412 09a2 5B78     		ldrb	r3, [r3, #1]	@ zero_extendqisi2
 1413 09a4 1846     		mov	r0, r3
 1414 09a6 00F0E5FF 		bl	RTC_Bcd2ToByte
 1415 09aa 0346     		mov	r3, r0
 1416 09ac 1A46     		mov	r2, r3
 1417 09ae 009B     		ldr	r3, [sp, #0]
 1418 09b0 5A70     		strb	r2, [r3, #1]
1039:../Libraries/STM32F30x_StdPeriph_Driver/src/stm32f30x_rtc.c ****     RTC_DateStruct->RTC_Date = (uint8_t)RTC_Bcd2ToByte(RTC_DateStruct->RTC_Date);
 1419              		.loc 1 1039 0
 1420 09b2 009B     		ldr	r3, [sp, #0]
 1421 09b4 9B78     		ldrb	r3, [r3, #2]	@ zero_extendqisi2
 1422 09b6 1846     		mov	r0, r3
 1423 09b8 00F0DCFF 		bl	RTC_Bcd2ToByte
 1424 09bc 0346     		mov	r3, r0
 1425 09be 1A46     		mov	r2, r3
 1426 09c0 009B     		ldr	r3, [sp, #0]
 1427 09c2 9A70     		strb	r2, [r3, #2]
1040:../Libraries/STM32F30x_StdPeriph_Driver/src/stm32f30x_rtc.c ****     RTC_DateStruct->RTC_WeekDay = (uint8_t)(RTC_DateStruct->RTC_WeekDay);   
 1428              		.loc 1 1040 0
 1429 09c4 009B     		ldr	r3, [sp, #0]
 1430 09c6 1A78     		ldrb	r2, [r3, #0]	@ zero_extendqisi2
 1431 09c8 009B     		ldr	r3, [sp, #0]
 1432 09ca 1A70     		strb	r2, [r3, #0]
 1433              	.L61:
1041:../Libraries/STM32F30x_StdPeriph_Driver/src/stm32f30x_rtc.c ****   }
1042:../Libraries/STM32F30x_StdPeriph_Driver/src/stm32f30x_rtc.c **** }
 1434              		.loc 1 1042 0
 1435 09cc 05B0     		add	sp, sp, #20
 1436 09ce 00BD     		pop	{pc}
 1437              		.cfi_endproc
 1438              	.LFE126:
 1440              		.align	2
 1441              		.global	RTC_SetAlarm
 1442              		.thumb
 1443              		.thumb_func
 1445              	RTC_SetAlarm:
 1446              	.LFB127:
1043:../Libraries/STM32F30x_StdPeriph_Driver/src/stm32f30x_rtc.c **** 
1044:../Libraries/STM32F30x_StdPeriph_Driver/src/stm32f30x_rtc.c **** /**
1045:../Libraries/STM32F30x_StdPeriph_Driver/src/stm32f30x_rtc.c ****   * @}
1046:../Libraries/STM32F30x_StdPeriph_Driver/src/stm32f30x_rtc.c ****   */
1047:../Libraries/STM32F30x_StdPeriph_Driver/src/stm32f30x_rtc.c **** 
1048:../Libraries/STM32F30x_StdPeriph_Driver/src/stm32f30x_rtc.c **** /** @defgroup RTC_Group3 Alarms configuration functions
1049:../Libraries/STM32F30x_StdPeriph_Driver/src/stm32f30x_rtc.c ****  *  @brief   Alarms (Alarm A and Alarm B) configuration functions 
1050:../Libraries/STM32F30x_StdPeriph_Driver/src/stm32f30x_rtc.c ****  *
1051:../Libraries/STM32F30x_StdPeriph_Driver/src/stm32f30x_rtc.c **** @verbatim   
1052:../Libraries/STM32F30x_StdPeriph_Driver/src/stm32f30x_rtc.c ****  ===============================================================================
1053:../Libraries/STM32F30x_StdPeriph_Driver/src/stm32f30x_rtc.c ****         ##### Alarms (Alarm A and Alarm B) configuration functions #####
1054:../Libraries/STM32F30x_StdPeriph_Driver/src/stm32f30x_rtc.c ****  ===============================================================================  
1055:../Libraries/STM32F30x_StdPeriph_Driver/src/stm32f30x_rtc.c ****     [..] This section provides functions allowing to program and read the RTC Alarms.
1056:../Libraries/STM32F30x_StdPeriph_Driver/src/stm32f30x_rtc.c **** 
1057:../Libraries/STM32F30x_StdPeriph_Driver/src/stm32f30x_rtc.c **** @endverbatim
1058:../Libraries/STM32F30x_StdPeriph_Driver/src/stm32f30x_rtc.c ****   * @{
1059:../Libraries/STM32F30x_StdPeriph_Driver/src/stm32f30x_rtc.c ****   */
1060:../Libraries/STM32F30x_StdPeriph_Driver/src/stm32f30x_rtc.c **** 
1061:../Libraries/STM32F30x_StdPeriph_Driver/src/stm32f30x_rtc.c **** /**
1062:../Libraries/STM32F30x_StdPeriph_Driver/src/stm32f30x_rtc.c ****   * @brief  Set the specified RTC Alarm.
1063:../Libraries/STM32F30x_StdPeriph_Driver/src/stm32f30x_rtc.c ****   * @note   The Alarm register can only be written when the corresponding Alarm
1064:../Libraries/STM32F30x_StdPeriph_Driver/src/stm32f30x_rtc.c ****   *         is disabled (Use the RTC_AlarmCmd(DISABLE)).    
1065:../Libraries/STM32F30x_StdPeriph_Driver/src/stm32f30x_rtc.c ****   * @param  RTC_Format: specifies the format of the returned parameters.
1066:../Libraries/STM32F30x_StdPeriph_Driver/src/stm32f30x_rtc.c ****   *   This parameter can be one of the following values:
1067:../Libraries/STM32F30x_StdPeriph_Driver/src/stm32f30x_rtc.c ****   *     @arg RTC_Format_BIN: Binary data format 
1068:../Libraries/STM32F30x_StdPeriph_Driver/src/stm32f30x_rtc.c ****   *     @arg RTC_Format_BCD: BCD data format
1069:../Libraries/STM32F30x_StdPeriph_Driver/src/stm32f30x_rtc.c ****   * @param  RTC_Alarm: specifies the alarm to be configured.
1070:../Libraries/STM32F30x_StdPeriph_Driver/src/stm32f30x_rtc.c ****   *   This parameter can be one of the following values:
1071:../Libraries/STM32F30x_StdPeriph_Driver/src/stm32f30x_rtc.c ****   *     @arg RTC_Alarm_A: to select Alarm A
1072:../Libraries/STM32F30x_StdPeriph_Driver/src/stm32f30x_rtc.c ****   *     @arg RTC_Alarm_B: to select Alarm B  
1073:../Libraries/STM32F30x_StdPeriph_Driver/src/stm32f30x_rtc.c ****   * @param  RTC_AlarmStruct: pointer to a RTC_AlarmTypeDef structure that 
1074:../Libraries/STM32F30x_StdPeriph_Driver/src/stm32f30x_rtc.c ****   *                          contains the alarm configuration parameters.     
1075:../Libraries/STM32F30x_StdPeriph_Driver/src/stm32f30x_rtc.c ****   * @retval None
1076:../Libraries/STM32F30x_StdPeriph_Driver/src/stm32f30x_rtc.c ****   */
1077:../Libraries/STM32F30x_StdPeriph_Driver/src/stm32f30x_rtc.c **** void RTC_SetAlarm(uint32_t RTC_Format, uint32_t RTC_Alarm, RTC_AlarmTypeDef* RTC_AlarmStruct)
1078:../Libraries/STM32F30x_StdPeriph_Driver/src/stm32f30x_rtc.c **** {
 1447              		.loc 1 1078 0
 1448              		.cfi_startproc
 1449              		@ args = 0, pretend = 0, frame = 24
 1450              		@ frame_needed = 0, uses_anonymous_args = 0
 1451 09d0 10B5     		push	{r4, lr}
 1452              	.LCFI22:
 1453              		.cfi_def_cfa_offset 8
 1454              		.cfi_offset 14, -4
 1455              		.cfi_offset 4, -8
 1456 09d2 86B0     		sub	sp, sp, #24
 1457              	.LCFI23:
 1458              		.cfi_def_cfa_offset 32
 1459 09d4 0390     		str	r0, [sp, #12]
 1460 09d6 0291     		str	r1, [sp, #8]
 1461 09d8 0192     		str	r2, [sp, #4]
1079:../Libraries/STM32F30x_StdPeriph_Driver/src/stm32f30x_rtc.c ****   uint32_t tmpreg = 0;
 1462              		.loc 1 1079 0
 1463 09da 4FF00003 		mov	r3, #0
 1464 09de 0593     		str	r3, [sp, #20]
1080:../Libraries/STM32F30x_StdPeriph_Driver/src/stm32f30x_rtc.c ****   
1081:../Libraries/STM32F30x_StdPeriph_Driver/src/stm32f30x_rtc.c ****   /* Check the parameters */
1082:../Libraries/STM32F30x_StdPeriph_Driver/src/stm32f30x_rtc.c ****   assert_param(IS_RTC_FORMAT(RTC_Format));
1083:../Libraries/STM32F30x_StdPeriph_Driver/src/stm32f30x_rtc.c ****   assert_param(IS_RTC_ALARM(RTC_Alarm));
1084:../Libraries/STM32F30x_StdPeriph_Driver/src/stm32f30x_rtc.c ****   assert_param(IS_ALARM_MASK(RTC_AlarmStruct->RTC_AlarmMask));
1085:../Libraries/STM32F30x_StdPeriph_Driver/src/stm32f30x_rtc.c ****   assert_param(IS_RTC_ALARM_DATE_WEEKDAY_SEL(RTC_AlarmStruct->RTC_AlarmDateWeekDaySel));
1086:../Libraries/STM32F30x_StdPeriph_Driver/src/stm32f30x_rtc.c **** 
1087:../Libraries/STM32F30x_StdPeriph_Driver/src/stm32f30x_rtc.c ****   if (RTC_Format == RTC_Format_BIN)
 1465              		.loc 1 1087 0
 1466 09e0 039B     		ldr	r3, [sp, #12]
 1467 09e2 002B     		cmp	r3, #0
 1468 09e4 0DD1     		bne	.L64
1088:../Libraries/STM32F30x_StdPeriph_Driver/src/stm32f30x_rtc.c ****   {
1089:../Libraries/STM32F30x_StdPeriph_Driver/src/stm32f30x_rtc.c ****     if ((RTC->CR & RTC_CR_FMT) != (uint32_t)RESET)
 1469              		.loc 1 1089 0
 1470 09e6 4FF42053 		mov	r3, #10240
 1471 09ea C4F20003 		movt	r3, 16384
 1472 09ee 9B68     		ldr	r3, [r3, #8]
 1473 09f0 03F04003 		and	r3, r3, #64
 1474 09f4 002B     		cmp	r3, #0
 1475 09f6 2CD1     		bne	.L66
1090:../Libraries/STM32F30x_StdPeriph_Driver/src/stm32f30x_rtc.c ****     {
1091:../Libraries/STM32F30x_StdPeriph_Driver/src/stm32f30x_rtc.c ****       assert_param(IS_RTC_HOUR12(RTC_AlarmStruct->RTC_AlarmTime.RTC_Hours));
1092:../Libraries/STM32F30x_StdPeriph_Driver/src/stm32f30x_rtc.c ****       assert_param(IS_RTC_H12(RTC_AlarmStruct->RTC_AlarmTime.RTC_H12));
1093:../Libraries/STM32F30x_StdPeriph_Driver/src/stm32f30x_rtc.c ****     } 
1094:../Libraries/STM32F30x_StdPeriph_Driver/src/stm32f30x_rtc.c ****     else
1095:../Libraries/STM32F30x_StdPeriph_Driver/src/stm32f30x_rtc.c ****     {
1096:../Libraries/STM32F30x_StdPeriph_Driver/src/stm32f30x_rtc.c ****       RTC_AlarmStruct->RTC_AlarmTime.RTC_H12 = 0x00;
 1476              		.loc 1 1096 0
 1477 09f8 019B     		ldr	r3, [sp, #4]
 1478 09fa 4FF00002 		mov	r2, #0
 1479 09fe DA70     		strb	r2, [r3, #3]
 1480 0a00 27E0     		b	.L66
 1481              	.L64:
1097:../Libraries/STM32F30x_StdPeriph_Driver/src/stm32f30x_rtc.c ****       assert_param(IS_RTC_HOUR24(RTC_AlarmStruct->RTC_AlarmTime.RTC_Hours));
1098:../Libraries/STM32F30x_StdPeriph_Driver/src/stm32f30x_rtc.c ****     }
1099:../Libraries/STM32F30x_StdPeriph_Driver/src/stm32f30x_rtc.c ****     assert_param(IS_RTC_MINUTES(RTC_AlarmStruct->RTC_AlarmTime.RTC_Minutes));
1100:../Libraries/STM32F30x_StdPeriph_Driver/src/stm32f30x_rtc.c ****     assert_param(IS_RTC_SECONDS(RTC_AlarmStruct->RTC_AlarmTime.RTC_Seconds));
1101:../Libraries/STM32F30x_StdPeriph_Driver/src/stm32f30x_rtc.c ****     
1102:../Libraries/STM32F30x_StdPeriph_Driver/src/stm32f30x_rtc.c ****     if(RTC_AlarmStruct->RTC_AlarmDateWeekDaySel == RTC_AlarmDateWeekDaySel_Date)
1103:../Libraries/STM32F30x_StdPeriph_Driver/src/stm32f30x_rtc.c ****     {
1104:../Libraries/STM32F30x_StdPeriph_Driver/src/stm32f30x_rtc.c ****       assert_param(IS_RTC_ALARM_DATE_WEEKDAY_DATE(RTC_AlarmStruct->RTC_AlarmDateWeekDay));
1105:../Libraries/STM32F30x_StdPeriph_Driver/src/stm32f30x_rtc.c ****     }
1106:../Libraries/STM32F30x_StdPeriph_Driver/src/stm32f30x_rtc.c ****     else
1107:../Libraries/STM32F30x_StdPeriph_Driver/src/stm32f30x_rtc.c ****     {
1108:../Libraries/STM32F30x_StdPeriph_Driver/src/stm32f30x_rtc.c ****       assert_param(IS_RTC_ALARM_DATE_WEEKDAY_WEEKDAY(RTC_AlarmStruct->RTC_AlarmDateWeekDay));
1109:../Libraries/STM32F30x_StdPeriph_Driver/src/stm32f30x_rtc.c ****     }
1110:../Libraries/STM32F30x_StdPeriph_Driver/src/stm32f30x_rtc.c ****   }
1111:../Libraries/STM32F30x_StdPeriph_Driver/src/stm32f30x_rtc.c ****   else
1112:../Libraries/STM32F30x_StdPeriph_Driver/src/stm32f30x_rtc.c ****   {
1113:../Libraries/STM32F30x_StdPeriph_Driver/src/stm32f30x_rtc.c ****     if ((RTC->CR & RTC_CR_FMT) != (uint32_t)RESET)
 1482              		.loc 1 1113 0
 1483 0a02 4FF42053 		mov	r3, #10240
 1484 0a06 C4F20003 		movt	r3, 16384
 1485 0a0a 9B68     		ldr	r3, [r3, #8]
 1486 0a0c 03F04003 		and	r3, r3, #64
 1487 0a10 002B     		cmp	r3, #0
 1488 0a12 07D0     		beq	.L67
1114:../Libraries/STM32F30x_StdPeriph_Driver/src/stm32f30x_rtc.c ****     {
1115:../Libraries/STM32F30x_StdPeriph_Driver/src/stm32f30x_rtc.c ****       tmpreg = RTC_Bcd2ToByte(RTC_AlarmStruct->RTC_AlarmTime.RTC_Hours);
 1489              		.loc 1 1115 0
 1490 0a14 019B     		ldr	r3, [sp, #4]
 1491 0a16 1B78     		ldrb	r3, [r3, #0]	@ zero_extendqisi2
 1492 0a18 1846     		mov	r0, r3
 1493 0a1a 00F0ABFF 		bl	RTC_Bcd2ToByte
 1494 0a1e 0346     		mov	r3, r0
 1495 0a20 0593     		str	r3, [sp, #20]
 1496 0a22 03E0     		b	.L68
 1497              	.L67:
1116:../Libraries/STM32F30x_StdPeriph_Driver/src/stm32f30x_rtc.c ****       assert_param(IS_RTC_HOUR12(tmpreg));
1117:../Libraries/STM32F30x_StdPeriph_Driver/src/stm32f30x_rtc.c ****       assert_param(IS_RTC_H12(RTC_AlarmStruct->RTC_AlarmTime.RTC_H12));
1118:../Libraries/STM32F30x_StdPeriph_Driver/src/stm32f30x_rtc.c ****     } 
1119:../Libraries/STM32F30x_StdPeriph_Driver/src/stm32f30x_rtc.c ****     else
1120:../Libraries/STM32F30x_StdPeriph_Driver/src/stm32f30x_rtc.c ****     {
1121:../Libraries/STM32F30x_StdPeriph_Driver/src/stm32f30x_rtc.c ****       RTC_AlarmStruct->RTC_AlarmTime.RTC_H12 = 0x00;
 1498              		.loc 1 1121 0
 1499 0a24 019B     		ldr	r3, [sp, #4]
 1500 0a26 4FF00002 		mov	r2, #0
 1501 0a2a DA70     		strb	r2, [r3, #3]
 1502              	.L68:
1122:../Libraries/STM32F30x_StdPeriph_Driver/src/stm32f30x_rtc.c ****       assert_param(IS_RTC_HOUR24(RTC_Bcd2ToByte(RTC_AlarmStruct->RTC_AlarmTime.RTC_Hours)));
1123:../Libraries/STM32F30x_StdPeriph_Driver/src/stm32f30x_rtc.c ****     }
1124:../Libraries/STM32F30x_StdPeriph_Driver/src/stm32f30x_rtc.c ****     
1125:../Libraries/STM32F30x_StdPeriph_Driver/src/stm32f30x_rtc.c ****     assert_param(IS_RTC_MINUTES(RTC_Bcd2ToByte(RTC_AlarmStruct->RTC_AlarmTime.RTC_Minutes)));
1126:../Libraries/STM32F30x_StdPeriph_Driver/src/stm32f30x_rtc.c ****     assert_param(IS_RTC_SECONDS(RTC_Bcd2ToByte(RTC_AlarmStruct->RTC_AlarmTime.RTC_Seconds)));
1127:../Libraries/STM32F30x_StdPeriph_Driver/src/stm32f30x_rtc.c ****     
1128:../Libraries/STM32F30x_StdPeriph_Driver/src/stm32f30x_rtc.c ****     if(RTC_AlarmStruct->RTC_AlarmDateWeekDaySel == RTC_AlarmDateWeekDaySel_Date)
 1503              		.loc 1 1128 0
 1504 0a2c 019B     		ldr	r3, [sp, #4]
 1505 0a2e 9B68     		ldr	r3, [r3, #8]
 1506 0a30 002B     		cmp	r3, #0
 1507 0a32 07D1     		bne	.L69
1129:../Libraries/STM32F30x_StdPeriph_Driver/src/stm32f30x_rtc.c ****     {
1130:../Libraries/STM32F30x_StdPeriph_Driver/src/stm32f30x_rtc.c ****       tmpreg = RTC_Bcd2ToByte(RTC_AlarmStruct->RTC_AlarmDateWeekDay);
 1508              		.loc 1 1130 0
 1509 0a34 019B     		ldr	r3, [sp, #4]
 1510 0a36 1B7B     		ldrb	r3, [r3, #12]	@ zero_extendqisi2
 1511 0a38 1846     		mov	r0, r3
 1512 0a3a 00F09BFF 		bl	RTC_Bcd2ToByte
 1513 0a3e 0346     		mov	r3, r0
 1514 0a40 0593     		str	r3, [sp, #20]
 1515 0a42 06E0     		b	.L66
 1516              	.L69:
1131:../Libraries/STM32F30x_StdPeriph_Driver/src/stm32f30x_rtc.c ****       assert_param(IS_RTC_ALARM_DATE_WEEKDAY_DATE(tmpreg));    
1132:../Libraries/STM32F30x_StdPeriph_Driver/src/stm32f30x_rtc.c ****     }
1133:../Libraries/STM32F30x_StdPeriph_Driver/src/stm32f30x_rtc.c ****     else
1134:../Libraries/STM32F30x_StdPeriph_Driver/src/stm32f30x_rtc.c ****     {
1135:../Libraries/STM32F30x_StdPeriph_Driver/src/stm32f30x_rtc.c ****       tmpreg = RTC_Bcd2ToByte(RTC_AlarmStruct->RTC_AlarmDateWeekDay);
 1517              		.loc 1 1135 0
 1518 0a44 019B     		ldr	r3, [sp, #4]
 1519 0a46 1B7B     		ldrb	r3, [r3, #12]	@ zero_extendqisi2
 1520 0a48 1846     		mov	r0, r3
 1521 0a4a 00F093FF 		bl	RTC_Bcd2ToByte
 1522 0a4e 0346     		mov	r3, r0
 1523 0a50 0593     		str	r3, [sp, #20]
 1524              	.L66:
1136:../Libraries/STM32F30x_StdPeriph_Driver/src/stm32f30x_rtc.c ****       assert_param(IS_RTC_ALARM_DATE_WEEKDAY_WEEKDAY(tmpreg));      
1137:../Libraries/STM32F30x_StdPeriph_Driver/src/stm32f30x_rtc.c ****     }    
1138:../Libraries/STM32F30x_StdPeriph_Driver/src/stm32f30x_rtc.c ****   }
1139:../Libraries/STM32F30x_StdPeriph_Driver/src/stm32f30x_rtc.c **** 
1140:../Libraries/STM32F30x_StdPeriph_Driver/src/stm32f30x_rtc.c ****   /* Check the input parameters format */
1141:../Libraries/STM32F30x_StdPeriph_Driver/src/stm32f30x_rtc.c ****   if (RTC_Format != RTC_Format_BIN)
 1525              		.loc 1 1141 0
 1526 0a52 039B     		ldr	r3, [sp, #12]
 1527 0a54 002B     		cmp	r3, #0
 1528 0a56 1DD0     		beq	.L70
1142:../Libraries/STM32F30x_StdPeriph_Driver/src/stm32f30x_rtc.c ****   {
1143:../Libraries/STM32F30x_StdPeriph_Driver/src/stm32f30x_rtc.c ****     tmpreg = (((uint32_t)(RTC_AlarmStruct->RTC_AlarmTime.RTC_Hours) << 16) | \
 1529              		.loc 1 1143 0
 1530 0a58 019B     		ldr	r3, [sp, #4]
 1531 0a5a 1B78     		ldrb	r3, [r3, #0]	@ zero_extendqisi2
 1532 0a5c 4FEA0342 		lsl	r2, r3, #16
1144:../Libraries/STM32F30x_StdPeriph_Driver/src/stm32f30x_rtc.c ****               ((uint32_t)(RTC_AlarmStruct->RTC_AlarmTime.RTC_Minutes) << 8) | \
 1533              		.loc 1 1144 0
 1534 0a60 019B     		ldr	r3, [sp, #4]
 1535 0a62 5B78     		ldrb	r3, [r3, #1]	@ zero_extendqisi2
 1536 0a64 4FEA0323 		lsl	r3, r3, #8
1143:../Libraries/STM32F30x_StdPeriph_Driver/src/stm32f30x_rtc.c ****     tmpreg = (((uint32_t)(RTC_AlarmStruct->RTC_AlarmTime.RTC_Hours) << 16) | \
 1537              		.loc 1 1143 0
 1538 0a68 1A43     		orrs	r2, r2, r3
1145:../Libraries/STM32F30x_StdPeriph_Driver/src/stm32f30x_rtc.c ****               ((uint32_t)RTC_AlarmStruct->RTC_AlarmTime.RTC_Seconds) | \
 1539              		.loc 1 1145 0
 1540 0a6a 019B     		ldr	r3, [sp, #4]
 1541 0a6c 9B78     		ldrb	r3, [r3, #2]	@ zero_extendqisi2
1144:../Libraries/STM32F30x_StdPeriph_Driver/src/stm32f30x_rtc.c ****               ((uint32_t)(RTC_AlarmStruct->RTC_AlarmTime.RTC_Minutes) << 8) | \
 1542              		.loc 1 1144 0
 1543 0a6e 1A43     		orrs	r2, r2, r3
1146:../Libraries/STM32F30x_StdPeriph_Driver/src/stm32f30x_rtc.c ****               ((uint32_t)(RTC_AlarmStruct->RTC_AlarmTime.RTC_H12) << 16) | \
 1544              		.loc 1 1146 0
 1545 0a70 019B     		ldr	r3, [sp, #4]
 1546 0a72 DB78     		ldrb	r3, [r3, #3]	@ zero_extendqisi2
 1547 0a74 4FEA0343 		lsl	r3, r3, #16
1145:../Libraries/STM32F30x_StdPeriph_Driver/src/stm32f30x_rtc.c ****               ((uint32_t)RTC_AlarmStruct->RTC_AlarmTime.RTC_Seconds) | \
 1548              		.loc 1 1145 0
 1549 0a78 1A43     		orrs	r2, r2, r3
1147:../Libraries/STM32F30x_StdPeriph_Driver/src/stm32f30x_rtc.c ****               ((uint32_t)(RTC_AlarmStruct->RTC_AlarmDateWeekDay) << 24) | \
 1550              		.loc 1 1147 0
 1551 0a7a 019B     		ldr	r3, [sp, #4]
 1552 0a7c 1B7B     		ldrb	r3, [r3, #12]	@ zero_extendqisi2
 1553 0a7e 4FEA0363 		lsl	r3, r3, #24
1146:../Libraries/STM32F30x_StdPeriph_Driver/src/stm32f30x_rtc.c ****               ((uint32_t)(RTC_AlarmStruct->RTC_AlarmTime.RTC_H12) << 16) | \
 1554              		.loc 1 1146 0
 1555 0a82 1A43     		orrs	r2, r2, r3
1148:../Libraries/STM32F30x_StdPeriph_Driver/src/stm32f30x_rtc.c ****               ((uint32_t)RTC_AlarmStruct->RTC_AlarmDateWeekDaySel) | \
 1556              		.loc 1 1148 0
 1557 0a84 019B     		ldr	r3, [sp, #4]
 1558 0a86 9B68     		ldr	r3, [r3, #8]
1147:../Libraries/STM32F30x_StdPeriph_Driver/src/stm32f30x_rtc.c ****               ((uint32_t)(RTC_AlarmStruct->RTC_AlarmDateWeekDay) << 24) | \
 1559              		.loc 1 1147 0
 1560 0a88 1A43     		orrs	r2, r2, r3
1149:../Libraries/STM32F30x_StdPeriph_Driver/src/stm32f30x_rtc.c ****               ((uint32_t)RTC_AlarmStruct->RTC_AlarmMask)); 
 1561              		.loc 1 1149 0
 1562 0a8a 019B     		ldr	r3, [sp, #4]
 1563 0a8c 5B68     		ldr	r3, [r3, #4]
1143:../Libraries/STM32F30x_StdPeriph_Driver/src/stm32f30x_rtc.c ****     tmpreg = (((uint32_t)(RTC_AlarmStruct->RTC_AlarmTime.RTC_Hours) << 16) | \
 1564              		.loc 1 1143 0
 1565 0a8e 1343     		orrs	r3, r3, r2
 1566 0a90 0593     		str	r3, [sp, #20]
 1567 0a92 2FE0     		b	.L71
 1568              	.L70:
1150:../Libraries/STM32F30x_StdPeriph_Driver/src/stm32f30x_rtc.c ****   }  
1151:../Libraries/STM32F30x_StdPeriph_Driver/src/stm32f30x_rtc.c ****   else
1152:../Libraries/STM32F30x_StdPeriph_Driver/src/stm32f30x_rtc.c ****   {
1153:../Libraries/STM32F30x_StdPeriph_Driver/src/stm32f30x_rtc.c ****     tmpreg = (((uint32_t)RTC_ByteToBcd2(RTC_AlarmStruct->RTC_AlarmTime.RTC_Hours) << 16) | \
 1569              		.loc 1 1153 0
 1570 0a94 019B     		ldr	r3, [sp, #4]
 1571 0a96 1B78     		ldrb	r3, [r3, #0]	@ zero_extendqisi2
 1572 0a98 1846     		mov	r0, r3
 1573 0a9a 00F045FF 		bl	RTC_ByteToBcd2
 1574 0a9e 0346     		mov	r3, r0
 1575 0aa0 4FEA0344 		lsl	r4, r3, #16
1154:../Libraries/STM32F30x_StdPeriph_Driver/src/stm32f30x_rtc.c ****               ((uint32_t)RTC_ByteToBcd2(RTC_AlarmStruct->RTC_AlarmTime.RTC_Minutes) << 8) | \
 1576              		.loc 1 1154 0
 1577 0aa4 019B     		ldr	r3, [sp, #4]
 1578 0aa6 5B78     		ldrb	r3, [r3, #1]	@ zero_extendqisi2
 1579 0aa8 1846     		mov	r0, r3
 1580 0aaa 00F03DFF 		bl	RTC_ByteToBcd2
 1581 0aae 0346     		mov	r3, r0
 1582 0ab0 4FEA0323 		lsl	r3, r3, #8
1153:../Libraries/STM32F30x_StdPeriph_Driver/src/stm32f30x_rtc.c ****     tmpreg = (((uint32_t)RTC_ByteToBcd2(RTC_AlarmStruct->RTC_AlarmTime.RTC_Hours) << 16) | \
 1583              		.loc 1 1153 0
 1584 0ab4 1C43     		orrs	r4, r4, r3
1155:../Libraries/STM32F30x_StdPeriph_Driver/src/stm32f30x_rtc.c ****               ((uint32_t)RTC_ByteToBcd2(RTC_AlarmStruct->RTC_AlarmTime.RTC_Seconds)) | \
 1585              		.loc 1 1155 0
 1586 0ab6 019B     		ldr	r3, [sp, #4]
 1587 0ab8 9B78     		ldrb	r3, [r3, #2]	@ zero_extendqisi2
 1588 0aba 1846     		mov	r0, r3
 1589 0abc 00F034FF 		bl	RTC_ByteToBcd2
 1590 0ac0 0346     		mov	r3, r0
1154:../Libraries/STM32F30x_StdPeriph_Driver/src/stm32f30x_rtc.c ****               ((uint32_t)RTC_ByteToBcd2(RTC_AlarmStruct->RTC_AlarmTime.RTC_Minutes) << 8) | \
 1591              		.loc 1 1154 0
 1592 0ac2 44EA0302 		orr	r2, r4, r3
1156:../Libraries/STM32F30x_StdPeriph_Driver/src/stm32f30x_rtc.c ****               ((uint32_t)(RTC_AlarmStruct->RTC_AlarmTime.RTC_H12) << 16) | \
 1593              		.loc 1 1156 0
 1594 0ac6 019B     		ldr	r3, [sp, #4]
 1595 0ac8 DB78     		ldrb	r3, [r3, #3]	@ zero_extendqisi2
 1596 0aca 4FEA0343 		lsl	r3, r3, #16
1155:../Libraries/STM32F30x_StdPeriph_Driver/src/stm32f30x_rtc.c ****               ((uint32_t)RTC_ByteToBcd2(RTC_AlarmStruct->RTC_AlarmTime.RTC_Seconds)) | \
 1597              		.loc 1 1155 0
 1598 0ace 42EA0304 		orr	r4, r2, r3
1157:../Libraries/STM32F30x_StdPeriph_Driver/src/stm32f30x_rtc.c ****               ((uint32_t)RTC_ByteToBcd2(RTC_AlarmStruct->RTC_AlarmDateWeekDay) << 24) | \
 1599              		.loc 1 1157 0
 1600 0ad2 019B     		ldr	r3, [sp, #4]
 1601 0ad4 1B7B     		ldrb	r3, [r3, #12]	@ zero_extendqisi2
 1602 0ad6 1846     		mov	r0, r3
 1603 0ad8 00F026FF 		bl	RTC_ByteToBcd2
 1604 0adc 0346     		mov	r3, r0
 1605 0ade 4FEA0363 		lsl	r3, r3, #24
1156:../Libraries/STM32F30x_StdPeriph_Driver/src/stm32f30x_rtc.c ****               ((uint32_t)(RTC_AlarmStruct->RTC_AlarmTime.RTC_H12) << 16) | \
 1606              		.loc 1 1156 0
 1607 0ae2 44EA0302 		orr	r2, r4, r3
1158:../Libraries/STM32F30x_StdPeriph_Driver/src/stm32f30x_rtc.c ****               ((uint32_t)RTC_AlarmStruct->RTC_AlarmDateWeekDaySel) | \
 1608              		.loc 1 1158 0
 1609 0ae6 019B     		ldr	r3, [sp, #4]
 1610 0ae8 9B68     		ldr	r3, [r3, #8]
1157:../Libraries/STM32F30x_StdPeriph_Driver/src/stm32f30x_rtc.c ****               ((uint32_t)RTC_ByteToBcd2(RTC_AlarmStruct->RTC_AlarmDateWeekDay) << 24) | \
 1611              		.loc 1 1157 0
 1612 0aea 1A43     		orrs	r2, r2, r3
1159:../Libraries/STM32F30x_StdPeriph_Driver/src/stm32f30x_rtc.c ****               ((uint32_t)RTC_AlarmStruct->RTC_AlarmMask)); 
 1613              		.loc 1 1159 0
 1614 0aec 019B     		ldr	r3, [sp, #4]
 1615 0aee 5B68     		ldr	r3, [r3, #4]
1153:../Libraries/STM32F30x_StdPeriph_Driver/src/stm32f30x_rtc.c ****     tmpreg = (((uint32_t)RTC_ByteToBcd2(RTC_AlarmStruct->RTC_AlarmTime.RTC_Hours) << 16) | \
 1616              		.loc 1 1153 0
 1617 0af0 1343     		orrs	r3, r3, r2
 1618 0af2 0593     		str	r3, [sp, #20]
 1619              	.L71:
1160:../Libraries/STM32F30x_StdPeriph_Driver/src/stm32f30x_rtc.c ****   } 
1161:../Libraries/STM32F30x_StdPeriph_Driver/src/stm32f30x_rtc.c **** 
1162:../Libraries/STM32F30x_StdPeriph_Driver/src/stm32f30x_rtc.c ****   /* Disable the write protection for RTC registers */
1163:../Libraries/STM32F30x_StdPeriph_Driver/src/stm32f30x_rtc.c ****   RTC->WPR = 0xCA;
 1620              		.loc 1 1163 0
 1621 0af4 4FF42053 		mov	r3, #10240
 1622 0af8 C4F20003 		movt	r3, 16384
 1623 0afc 4FF0CA02 		mov	r2, #202
 1624 0b00 5A62     		str	r2, [r3, #36]
1164:../Libraries/STM32F30x_StdPeriph_Driver/src/stm32f30x_rtc.c ****   RTC->WPR = 0x53;
 1625              		.loc 1 1164 0
 1626 0b02 4FF42053 		mov	r3, #10240
 1627 0b06 C4F20003 		movt	r3, 16384
 1628 0b0a 4FF05302 		mov	r2, #83
 1629 0b0e 5A62     		str	r2, [r3, #36]
1165:../Libraries/STM32F30x_StdPeriph_Driver/src/stm32f30x_rtc.c **** 
1166:../Libraries/STM32F30x_StdPeriph_Driver/src/stm32f30x_rtc.c ****   /* Configure the Alarm register */
1167:../Libraries/STM32F30x_StdPeriph_Driver/src/stm32f30x_rtc.c ****   if (RTC_Alarm == RTC_Alarm_A)
 1630              		.loc 1 1167 0
 1631 0b10 029B     		ldr	r3, [sp, #8]
 1632 0b12 B3F5807F 		cmp	r3, #256
 1633 0b16 06D1     		bne	.L72
1168:../Libraries/STM32F30x_StdPeriph_Driver/src/stm32f30x_rtc.c ****   {
1169:../Libraries/STM32F30x_StdPeriph_Driver/src/stm32f30x_rtc.c ****     RTC->ALRMAR = (uint32_t)tmpreg;
 1634              		.loc 1 1169 0
 1635 0b18 4FF42053 		mov	r3, #10240
 1636 0b1c C4F20003 		movt	r3, 16384
 1637 0b20 059A     		ldr	r2, [sp, #20]
 1638 0b22 DA61     		str	r2, [r3, #28]
 1639 0b24 05E0     		b	.L73
 1640              	.L72:
1170:../Libraries/STM32F30x_StdPeriph_Driver/src/stm32f30x_rtc.c ****   }
1171:../Libraries/STM32F30x_StdPeriph_Driver/src/stm32f30x_rtc.c ****   else
1172:../Libraries/STM32F30x_StdPeriph_Driver/src/stm32f30x_rtc.c ****   {
1173:../Libraries/STM32F30x_StdPeriph_Driver/src/stm32f30x_rtc.c ****     RTC->ALRMBR = (uint32_t)tmpreg;
 1641              		.loc 1 1173 0
 1642 0b26 4FF42053 		mov	r3, #10240
 1643 0b2a C4F20003 		movt	r3, 16384
 1644 0b2e 059A     		ldr	r2, [sp, #20]
 1645 0b30 1A62     		str	r2, [r3, #32]
 1646              	.L73:
1174:../Libraries/STM32F30x_StdPeriph_Driver/src/stm32f30x_rtc.c ****   }
1175:../Libraries/STM32F30x_StdPeriph_Driver/src/stm32f30x_rtc.c **** 
1176:../Libraries/STM32F30x_StdPeriph_Driver/src/stm32f30x_rtc.c ****   /* Enable the write protection for RTC registers */
1177:../Libraries/STM32F30x_StdPeriph_Driver/src/stm32f30x_rtc.c ****   RTC->WPR = 0xFF;   
 1647              		.loc 1 1177 0
 1648 0b32 4FF42053 		mov	r3, #10240
 1649 0b36 C4F20003 		movt	r3, 16384
 1650 0b3a 4FF0FF02 		mov	r2, #255
 1651 0b3e 5A62     		str	r2, [r3, #36]
1178:../Libraries/STM32F30x_StdPeriph_Driver/src/stm32f30x_rtc.c **** }
 1652              		.loc 1 1178 0
 1653 0b40 06B0     		add	sp, sp, #24
 1654 0b42 10BD     		pop	{r4, pc}
 1655              		.cfi_endproc
 1656              	.LFE127:
 1658              		.align	2
 1659              		.global	RTC_AlarmStructInit
 1660              		.thumb
 1661              		.thumb_func
 1663              	RTC_AlarmStructInit:
 1664              	.LFB128:
1179:../Libraries/STM32F30x_StdPeriph_Driver/src/stm32f30x_rtc.c **** 
1180:../Libraries/STM32F30x_StdPeriph_Driver/src/stm32f30x_rtc.c **** /**
1181:../Libraries/STM32F30x_StdPeriph_Driver/src/stm32f30x_rtc.c ****   * @brief  Fills each RTC_AlarmStruct member with its default value
1182:../Libraries/STM32F30x_StdPeriph_Driver/src/stm32f30x_rtc.c ****   *         (Time = 00h:00mn:00sec / Date = 1st day of the month/Mask =
1183:../Libraries/STM32F30x_StdPeriph_Driver/src/stm32f30x_rtc.c ****   *         all fields are masked).
1184:../Libraries/STM32F30x_StdPeriph_Driver/src/stm32f30x_rtc.c ****   * @param  RTC_AlarmStruct: pointer to a @ref RTC_AlarmTypeDef structure which
1185:../Libraries/STM32F30x_StdPeriph_Driver/src/stm32f30x_rtc.c ****   *         will be initialized.
1186:../Libraries/STM32F30x_StdPeriph_Driver/src/stm32f30x_rtc.c ****   * @retval None
1187:../Libraries/STM32F30x_StdPeriph_Driver/src/stm32f30x_rtc.c ****   */
1188:../Libraries/STM32F30x_StdPeriph_Driver/src/stm32f30x_rtc.c **** void RTC_AlarmStructInit(RTC_AlarmTypeDef* RTC_AlarmStruct)
1189:../Libraries/STM32F30x_StdPeriph_Driver/src/stm32f30x_rtc.c **** {
 1665              		.loc 1 1189 0
 1666              		.cfi_startproc
 1667              		@ args = 0, pretend = 0, frame = 8
 1668              		@ frame_needed = 0, uses_anonymous_args = 0
 1669              		@ link register save eliminated.
 1670 0b44 82B0     		sub	sp, sp, #8
 1671              	.LCFI24:
 1672              		.cfi_def_cfa_offset 8
 1673 0b46 0190     		str	r0, [sp, #4]
1190:../Libraries/STM32F30x_StdPeriph_Driver/src/stm32f30x_rtc.c ****   /* Alarm Time Settings : Time = 00h:00mn:00sec */
1191:../Libraries/STM32F30x_StdPeriph_Driver/src/stm32f30x_rtc.c ****   RTC_AlarmStruct->RTC_AlarmTime.RTC_H12 = RTC_H12_AM;
 1674              		.loc 1 1191 0
 1675 0b48 019B     		ldr	r3, [sp, #4]
 1676 0b4a 4FF00002 		mov	r2, #0
 1677 0b4e DA70     		strb	r2, [r3, #3]
1192:../Libraries/STM32F30x_StdPeriph_Driver/src/stm32f30x_rtc.c ****   RTC_AlarmStruct->RTC_AlarmTime.RTC_Hours = 0;
 1678              		.loc 1 1192 0
 1679 0b50 019B     		ldr	r3, [sp, #4]
 1680 0b52 4FF00002 		mov	r2, #0
 1681 0b56 1A70     		strb	r2, [r3, #0]
1193:../Libraries/STM32F30x_StdPeriph_Driver/src/stm32f30x_rtc.c ****   RTC_AlarmStruct->RTC_AlarmTime.RTC_Minutes = 0;
 1682              		.loc 1 1193 0
 1683 0b58 019B     		ldr	r3, [sp, #4]
 1684 0b5a 4FF00002 		mov	r2, #0
 1685 0b5e 5A70     		strb	r2, [r3, #1]
1194:../Libraries/STM32F30x_StdPeriph_Driver/src/stm32f30x_rtc.c ****   RTC_AlarmStruct->RTC_AlarmTime.RTC_Seconds = 0;
 1686              		.loc 1 1194 0
 1687 0b60 019B     		ldr	r3, [sp, #4]
 1688 0b62 4FF00002 		mov	r2, #0
 1689 0b66 9A70     		strb	r2, [r3, #2]
1195:../Libraries/STM32F30x_StdPeriph_Driver/src/stm32f30x_rtc.c **** 
1196:../Libraries/STM32F30x_StdPeriph_Driver/src/stm32f30x_rtc.c ****   /* Alarm Date Settings : Date = 1st day of the month */
1197:../Libraries/STM32F30x_StdPeriph_Driver/src/stm32f30x_rtc.c ****   RTC_AlarmStruct->RTC_AlarmDateWeekDaySel = RTC_AlarmDateWeekDaySel_Date;
 1690              		.loc 1 1197 0
 1691 0b68 019B     		ldr	r3, [sp, #4]
 1692 0b6a 4FF00002 		mov	r2, #0
 1693 0b6e 9A60     		str	r2, [r3, #8]
1198:../Libraries/STM32F30x_StdPeriph_Driver/src/stm32f30x_rtc.c ****   RTC_AlarmStruct->RTC_AlarmDateWeekDay = 1;
 1694              		.loc 1 1198 0
 1695 0b70 019B     		ldr	r3, [sp, #4]
 1696 0b72 4FF00102 		mov	r2, #1
 1697 0b76 1A73     		strb	r2, [r3, #12]
1199:../Libraries/STM32F30x_StdPeriph_Driver/src/stm32f30x_rtc.c **** 
1200:../Libraries/STM32F30x_StdPeriph_Driver/src/stm32f30x_rtc.c ****   /* Alarm Masks Settings : Mask =  all fields are not masked */
1201:../Libraries/STM32F30x_StdPeriph_Driver/src/stm32f30x_rtc.c ****   RTC_AlarmStruct->RTC_AlarmMask = RTC_AlarmMask_None;
 1698              		.loc 1 1201 0
 1699 0b78 019B     		ldr	r3, [sp, #4]
 1700 0b7a 4FF00002 		mov	r2, #0
 1701 0b7e 5A60     		str	r2, [r3, #4]
1202:../Libraries/STM32F30x_StdPeriph_Driver/src/stm32f30x_rtc.c **** }
 1702              		.loc 1 1202 0
 1703 0b80 02B0     		add	sp, sp, #8
 1704 0b82 7047     		bx	lr
 1705              		.cfi_endproc
 1706              	.LFE128:
 1708              		.align	2
 1709              		.global	RTC_GetAlarm
 1710              		.thumb
 1711              		.thumb_func
 1713              	RTC_GetAlarm:
 1714              	.LFB129:
1203:../Libraries/STM32F30x_StdPeriph_Driver/src/stm32f30x_rtc.c **** 
1204:../Libraries/STM32F30x_StdPeriph_Driver/src/stm32f30x_rtc.c **** /**
1205:../Libraries/STM32F30x_StdPeriph_Driver/src/stm32f30x_rtc.c ****   * @brief  Get the RTC Alarm value and masks.
1206:../Libraries/STM32F30x_StdPeriph_Driver/src/stm32f30x_rtc.c ****   * @param  RTC_Format: specifies the format of the output parameters.
1207:../Libraries/STM32F30x_StdPeriph_Driver/src/stm32f30x_rtc.c ****   *   This parameter can be one of the following values:
1208:../Libraries/STM32F30x_StdPeriph_Driver/src/stm32f30x_rtc.c ****   *     @arg RTC_Format_BIN: Binary data format 
1209:../Libraries/STM32F30x_StdPeriph_Driver/src/stm32f30x_rtc.c ****   *     @arg RTC_Format_BCD: BCD data format
1210:../Libraries/STM32F30x_StdPeriph_Driver/src/stm32f30x_rtc.c ****   * @param  RTC_Alarm: specifies the alarm to be read.
1211:../Libraries/STM32F30x_StdPeriph_Driver/src/stm32f30x_rtc.c ****   *   This parameter can be one of the following values:
1212:../Libraries/STM32F30x_StdPeriph_Driver/src/stm32f30x_rtc.c ****   *     @arg RTC_Alarm_A: to select Alarm A
1213:../Libraries/STM32F30x_StdPeriph_Driver/src/stm32f30x_rtc.c ****   *     @arg RTC_Alarm_B: to select Alarm B  
1214:../Libraries/STM32F30x_StdPeriph_Driver/src/stm32f30x_rtc.c ****   * @param  RTC_AlarmStruct: pointer to a RTC_AlarmTypeDef structure that will 
1215:../Libraries/STM32F30x_StdPeriph_Driver/src/stm32f30x_rtc.c ****   *                          contains the output alarm configuration values.     
1216:../Libraries/STM32F30x_StdPeriph_Driver/src/stm32f30x_rtc.c ****   * @retval None
1217:../Libraries/STM32F30x_StdPeriph_Driver/src/stm32f30x_rtc.c ****   */
1218:../Libraries/STM32F30x_StdPeriph_Driver/src/stm32f30x_rtc.c **** void RTC_GetAlarm(uint32_t RTC_Format, uint32_t RTC_Alarm, RTC_AlarmTypeDef* RTC_AlarmStruct)
1219:../Libraries/STM32F30x_StdPeriph_Driver/src/stm32f30x_rtc.c **** {
 1715              		.loc 1 1219 0
 1716              		.cfi_startproc
 1717              		@ args = 0, pretend = 0, frame = 24
 1718              		@ frame_needed = 0, uses_anonymous_args = 0
 1719 0b84 00B5     		push	{lr}
 1720              	.LCFI25:
 1721              		.cfi_def_cfa_offset 4
 1722              		.cfi_offset 14, -4
 1723 0b86 87B0     		sub	sp, sp, #28
 1724              	.LCFI26:
 1725              		.cfi_def_cfa_offset 32
 1726 0b88 0390     		str	r0, [sp, #12]
 1727 0b8a 0291     		str	r1, [sp, #8]
 1728 0b8c 0192     		str	r2, [sp, #4]
1220:../Libraries/STM32F30x_StdPeriph_Driver/src/stm32f30x_rtc.c ****   uint32_t tmpreg = 0;
 1729              		.loc 1 1220 0
 1730 0b8e 4FF00003 		mov	r3, #0
 1731 0b92 0593     		str	r3, [sp, #20]
1221:../Libraries/STM32F30x_StdPeriph_Driver/src/stm32f30x_rtc.c **** 
1222:../Libraries/STM32F30x_StdPeriph_Driver/src/stm32f30x_rtc.c ****   /* Check the parameters */
1223:../Libraries/STM32F30x_StdPeriph_Driver/src/stm32f30x_rtc.c ****   assert_param(IS_RTC_FORMAT(RTC_Format));
1224:../Libraries/STM32F30x_StdPeriph_Driver/src/stm32f30x_rtc.c ****   assert_param(IS_RTC_ALARM(RTC_Alarm)); 
1225:../Libraries/STM32F30x_StdPeriph_Driver/src/stm32f30x_rtc.c **** 
1226:../Libraries/STM32F30x_StdPeriph_Driver/src/stm32f30x_rtc.c ****   /* Get the RTC_ALRMxR register */
1227:../Libraries/STM32F30x_StdPeriph_Driver/src/stm32f30x_rtc.c ****   if (RTC_Alarm == RTC_Alarm_A)
 1732              		.loc 1 1227 0
 1733 0b94 029B     		ldr	r3, [sp, #8]
 1734 0b96 B3F5807F 		cmp	r3, #256
 1735 0b9a 06D1     		bne	.L76
1228:../Libraries/STM32F30x_StdPeriph_Driver/src/stm32f30x_rtc.c ****   {
1229:../Libraries/STM32F30x_StdPeriph_Driver/src/stm32f30x_rtc.c ****     tmpreg = (uint32_t)(RTC->ALRMAR);
 1736              		.loc 1 1229 0
 1737 0b9c 4FF42053 		mov	r3, #10240
 1738 0ba0 C4F20003 		movt	r3, 16384
 1739 0ba4 DB69     		ldr	r3, [r3, #28]
 1740 0ba6 0593     		str	r3, [sp, #20]
 1741 0ba8 05E0     		b	.L77
 1742              	.L76:
1230:../Libraries/STM32F30x_StdPeriph_Driver/src/stm32f30x_rtc.c ****   }
1231:../Libraries/STM32F30x_StdPeriph_Driver/src/stm32f30x_rtc.c ****   else
1232:../Libraries/STM32F30x_StdPeriph_Driver/src/stm32f30x_rtc.c ****   {
1233:../Libraries/STM32F30x_StdPeriph_Driver/src/stm32f30x_rtc.c ****     tmpreg = (uint32_t)(RTC->ALRMBR);
 1743              		.loc 1 1233 0
 1744 0baa 4FF42053 		mov	r3, #10240
 1745 0bae C4F20003 		movt	r3, 16384
 1746 0bb2 1B6A     		ldr	r3, [r3, #32]
 1747 0bb4 0593     		str	r3, [sp, #20]
 1748              	.L77:
1234:../Libraries/STM32F30x_StdPeriph_Driver/src/stm32f30x_rtc.c ****   }
1235:../Libraries/STM32F30x_StdPeriph_Driver/src/stm32f30x_rtc.c **** 
1236:../Libraries/STM32F30x_StdPeriph_Driver/src/stm32f30x_rtc.c ****   /* Fill the structure with the read parameters */
1237:../Libraries/STM32F30x_StdPeriph_Driver/src/stm32f30x_rtc.c ****   RTC_AlarmStruct->RTC_AlarmTime.RTC_Hours = (uint32_t)((tmpreg & (RTC_ALRMAR_HT | \
 1749              		.loc 1 1237 0
 1750 0bb6 059B     		ldr	r3, [sp, #20]
 1751 0bb8 03F47C13 		and	r3, r3, #4128768
 1752 0bbc 4FEA1343 		lsr	r3, r3, #16
 1753 0bc0 DAB2     		uxtb	r2, r3
 1754 0bc2 019B     		ldr	r3, [sp, #4]
 1755 0bc4 1A70     		strb	r2, [r3, #0]
1238:../Libraries/STM32F30x_StdPeriph_Driver/src/stm32f30x_rtc.c ****                                                      RTC_ALRMAR_HU)) >> 16);
1239:../Libraries/STM32F30x_StdPeriph_Driver/src/stm32f30x_rtc.c ****   RTC_AlarmStruct->RTC_AlarmTime.RTC_Minutes = (uint32_t)((tmpreg & (RTC_ALRMAR_MNT | \
 1756              		.loc 1 1239 0
 1757 0bc6 059B     		ldr	r3, [sp, #20]
 1758 0bc8 03F4FE43 		and	r3, r3, #32512
 1759 0bcc 4FEA1323 		lsr	r3, r3, #8
 1760 0bd0 DAB2     		uxtb	r2, r3
 1761 0bd2 019B     		ldr	r3, [sp, #4]
 1762 0bd4 5A70     		strb	r2, [r3, #1]
1240:../Libraries/STM32F30x_StdPeriph_Driver/src/stm32f30x_rtc.c ****                                                      RTC_ALRMAR_MNU)) >> 8);
1241:../Libraries/STM32F30x_StdPeriph_Driver/src/stm32f30x_rtc.c ****   RTC_AlarmStruct->RTC_AlarmTime.RTC_Seconds = (uint32_t)(tmpreg & (RTC_ALRMAR_ST | \
 1763              		.loc 1 1241 0
 1764 0bd6 059B     		ldr	r3, [sp, #20]
 1765 0bd8 DBB2     		uxtb	r3, r3
 1766 0bda 03F07F03 		and	r3, r3, #127
 1767 0bde DAB2     		uxtb	r2, r3
 1768 0be0 019B     		ldr	r3, [sp, #4]
 1769 0be2 9A70     		strb	r2, [r3, #2]
1242:../Libraries/STM32F30x_StdPeriph_Driver/src/stm32f30x_rtc.c ****                                                      RTC_ALRMAR_SU));
1243:../Libraries/STM32F30x_StdPeriph_Driver/src/stm32f30x_rtc.c ****   RTC_AlarmStruct->RTC_AlarmTime.RTC_H12 = (uint32_t)((tmpreg & RTC_ALRMAR_PM) >> 16);
 1770              		.loc 1 1243 0
 1771 0be4 059B     		ldr	r3, [sp, #20]
 1772 0be6 03F48003 		and	r3, r3, #4194304
 1773 0bea 4FEA1343 		lsr	r3, r3, #16
 1774 0bee DAB2     		uxtb	r2, r3
 1775 0bf0 019B     		ldr	r3, [sp, #4]
 1776 0bf2 DA70     		strb	r2, [r3, #3]
1244:../Libraries/STM32F30x_StdPeriph_Driver/src/stm32f30x_rtc.c ****   RTC_AlarmStruct->RTC_AlarmDateWeekDay = (uint32_t)((tmpreg & (RTC_ALRMAR_DT | RTC_ALRMAR_DU)) >> 
 1777              		.loc 1 1244 0
 1778 0bf4 059B     		ldr	r3, [sp, #20]
 1779 0bf6 03F07C53 		and	r3, r3, #1056964608
 1780 0bfa 4FEA1363 		lsr	r3, r3, #24
 1781 0bfe DAB2     		uxtb	r2, r3
 1782 0c00 019B     		ldr	r3, [sp, #4]
 1783 0c02 1A73     		strb	r2, [r3, #12]
1245:../Libraries/STM32F30x_StdPeriph_Driver/src/stm32f30x_rtc.c ****   RTC_AlarmStruct->RTC_AlarmDateWeekDaySel = (uint32_t)(tmpreg & RTC_ALRMAR_WDSEL);
 1784              		.loc 1 1245 0
 1785 0c04 059B     		ldr	r3, [sp, #20]
 1786 0c06 03F08042 		and	r2, r3, #1073741824
 1787 0c0a 019B     		ldr	r3, [sp, #4]
 1788 0c0c 9A60     		str	r2, [r3, #8]
1246:../Libraries/STM32F30x_StdPeriph_Driver/src/stm32f30x_rtc.c ****   RTC_AlarmStruct->RTC_AlarmMask = (uint32_t)(tmpreg & RTC_AlarmMask_All);
 1789              		.loc 1 1246 0
 1790 0c0e 059B     		ldr	r3, [sp, #20]
 1791 0c10 03F08032 		and	r2, r3, #-2139062144
 1792 0c14 019B     		ldr	r3, [sp, #4]
 1793 0c16 5A60     		str	r2, [r3, #4]
1247:../Libraries/STM32F30x_StdPeriph_Driver/src/stm32f30x_rtc.c **** 
1248:../Libraries/STM32F30x_StdPeriph_Driver/src/stm32f30x_rtc.c ****   if (RTC_Format == RTC_Format_BIN)
 1794              		.loc 1 1248 0
 1795 0c18 039B     		ldr	r3, [sp, #12]
 1796 0c1a 002B     		cmp	r3, #0
 1797 0c1c 23D1     		bne	.L75
1249:../Libraries/STM32F30x_StdPeriph_Driver/src/stm32f30x_rtc.c ****   {
1250:../Libraries/STM32F30x_StdPeriph_Driver/src/stm32f30x_rtc.c ****     RTC_AlarmStruct->RTC_AlarmTime.RTC_Hours = RTC_Bcd2ToByte(RTC_AlarmStruct-> \
 1798              		.loc 1 1250 0
 1799 0c1e 019B     		ldr	r3, [sp, #4]
 1800 0c20 1B78     		ldrb	r3, [r3, #0]	@ zero_extendqisi2
 1801 0c22 1846     		mov	r0, r3
 1802 0c24 00F0A6FE 		bl	RTC_Bcd2ToByte
 1803 0c28 0346     		mov	r3, r0
 1804 0c2a 1A46     		mov	r2, r3
 1805 0c2c 019B     		ldr	r3, [sp, #4]
 1806 0c2e 1A70     		strb	r2, [r3, #0]
1251:../Libraries/STM32F30x_StdPeriph_Driver/src/stm32f30x_rtc.c ****                                                         RTC_AlarmTime.RTC_Hours);
1252:../Libraries/STM32F30x_StdPeriph_Driver/src/stm32f30x_rtc.c ****     RTC_AlarmStruct->RTC_AlarmTime.RTC_Minutes = RTC_Bcd2ToByte(RTC_AlarmStruct-> \
 1807              		.loc 1 1252 0
 1808 0c30 019B     		ldr	r3, [sp, #4]
 1809 0c32 5B78     		ldrb	r3, [r3, #1]	@ zero_extendqisi2
 1810 0c34 1846     		mov	r0, r3
 1811 0c36 00F09DFE 		bl	RTC_Bcd2ToByte
 1812 0c3a 0346     		mov	r3, r0
 1813 0c3c 1A46     		mov	r2, r3
 1814 0c3e 019B     		ldr	r3, [sp, #4]
 1815 0c40 5A70     		strb	r2, [r3, #1]
1253:../Libraries/STM32F30x_StdPeriph_Driver/src/stm32f30x_rtc.c ****                                                         RTC_AlarmTime.RTC_Minutes);
1254:../Libraries/STM32F30x_StdPeriph_Driver/src/stm32f30x_rtc.c ****     RTC_AlarmStruct->RTC_AlarmTime.RTC_Seconds = RTC_Bcd2ToByte(RTC_AlarmStruct-> \
 1816              		.loc 1 1254 0
 1817 0c42 019B     		ldr	r3, [sp, #4]
 1818 0c44 9B78     		ldrb	r3, [r3, #2]	@ zero_extendqisi2
 1819 0c46 1846     		mov	r0, r3
 1820 0c48 00F094FE 		bl	RTC_Bcd2ToByte
 1821 0c4c 0346     		mov	r3, r0
 1822 0c4e 1A46     		mov	r2, r3
 1823 0c50 019B     		ldr	r3, [sp, #4]
 1824 0c52 9A70     		strb	r2, [r3, #2]
1255:../Libraries/STM32F30x_StdPeriph_Driver/src/stm32f30x_rtc.c ****                                                         RTC_AlarmTime.RTC_Seconds);
1256:../Libraries/STM32F30x_StdPeriph_Driver/src/stm32f30x_rtc.c ****     RTC_AlarmStruct->RTC_AlarmDateWeekDay = RTC_Bcd2ToByte(RTC_AlarmStruct->RTC_AlarmDateWeekDay);
 1825              		.loc 1 1256 0
 1826 0c54 019B     		ldr	r3, [sp, #4]
 1827 0c56 1B7B     		ldrb	r3, [r3, #12]	@ zero_extendqisi2
 1828 0c58 1846     		mov	r0, r3
 1829 0c5a 00F08BFE 		bl	RTC_Bcd2ToByte
 1830 0c5e 0346     		mov	r3, r0
 1831 0c60 1A46     		mov	r2, r3
 1832 0c62 019B     		ldr	r3, [sp, #4]
 1833 0c64 1A73     		strb	r2, [r3, #12]
 1834              	.L75:
1257:../Libraries/STM32F30x_StdPeriph_Driver/src/stm32f30x_rtc.c ****   }  
1258:../Libraries/STM32F30x_StdPeriph_Driver/src/stm32f30x_rtc.c **** }
 1835              		.loc 1 1258 0
 1836 0c66 07B0     		add	sp, sp, #28
 1837 0c68 00BD     		pop	{pc}
 1838              		.cfi_endproc
 1839              	.LFE129:
 1841 0c6a 00BF     		.align	2
 1842              		.global	RTC_AlarmCmd
 1843              		.thumb
 1844              		.thumb_func
 1846              	RTC_AlarmCmd:
 1847              	.LFB130:
1259:../Libraries/STM32F30x_StdPeriph_Driver/src/stm32f30x_rtc.c **** 
1260:../Libraries/STM32F30x_StdPeriph_Driver/src/stm32f30x_rtc.c **** /**
1261:../Libraries/STM32F30x_StdPeriph_Driver/src/stm32f30x_rtc.c ****   * @brief  Enables or disables the specified RTC Alarm.
1262:../Libraries/STM32F30x_StdPeriph_Driver/src/stm32f30x_rtc.c ****   * @param  RTC_Alarm: specifies the alarm to be configured.
1263:../Libraries/STM32F30x_StdPeriph_Driver/src/stm32f30x_rtc.c ****   *   This parameter can be any combination of the following values:
1264:../Libraries/STM32F30x_StdPeriph_Driver/src/stm32f30x_rtc.c ****   *     @arg RTC_Alarm_A: to select Alarm A
1265:../Libraries/STM32F30x_StdPeriph_Driver/src/stm32f30x_rtc.c ****   *     @arg RTC_Alarm_B: to select Alarm B  
1266:../Libraries/STM32F30x_StdPeriph_Driver/src/stm32f30x_rtc.c ****   * @param  NewState: new state of the specified alarm.
1267:../Libraries/STM32F30x_StdPeriph_Driver/src/stm32f30x_rtc.c ****   *   This parameter can be: ENABLE or DISABLE.
1268:../Libraries/STM32F30x_StdPeriph_Driver/src/stm32f30x_rtc.c ****   * @retval An ErrorStatus enumeration value:
1269:../Libraries/STM32F30x_StdPeriph_Driver/src/stm32f30x_rtc.c ****   *          - SUCCESS: RTC Alarm is enabled/disabled
1270:../Libraries/STM32F30x_StdPeriph_Driver/src/stm32f30x_rtc.c ****   *          - ERROR: RTC Alarm is not enabled/disabled  
1271:../Libraries/STM32F30x_StdPeriph_Driver/src/stm32f30x_rtc.c ****   */
1272:../Libraries/STM32F30x_StdPeriph_Driver/src/stm32f30x_rtc.c **** ErrorStatus RTC_AlarmCmd(uint32_t RTC_Alarm, FunctionalState NewState)
1273:../Libraries/STM32F30x_StdPeriph_Driver/src/stm32f30x_rtc.c **** {
 1848              		.loc 1 1273 0
 1849              		.cfi_startproc
 1850              		@ args = 0, pretend = 0, frame = 24
 1851              		@ frame_needed = 0, uses_anonymous_args = 0
 1852              		@ link register save eliminated.
 1853 0c6c 86B0     		sub	sp, sp, #24
 1854              	.LCFI27:
 1855              		.cfi_def_cfa_offset 24
 1856 0c6e 0190     		str	r0, [sp, #4]
 1857 0c70 0B46     		mov	r3, r1
 1858 0c72 8DF80330 		strb	r3, [sp, #3]
1274:../Libraries/STM32F30x_StdPeriph_Driver/src/stm32f30x_rtc.c ****   __IO uint32_t alarmcounter = 0x00;
 1859              		.loc 1 1274 0
 1860 0c76 4FF00003 		mov	r3, #0
 1861 0c7a 0393     		str	r3, [sp, #12]
1275:../Libraries/STM32F30x_StdPeriph_Driver/src/stm32f30x_rtc.c ****   uint32_t alarmstatus = 0x00;
 1862              		.loc 1 1275 0
 1863 0c7c 4FF00003 		mov	r3, #0
 1864 0c80 0493     		str	r3, [sp, #16]
1276:../Libraries/STM32F30x_StdPeriph_Driver/src/stm32f30x_rtc.c ****   ErrorStatus status = ERROR;
 1865              		.loc 1 1276 0
 1866 0c82 4FF00003 		mov	r3, #0
 1867 0c86 8DF81730 		strb	r3, [sp, #23]
1277:../Libraries/STM32F30x_StdPeriph_Driver/src/stm32f30x_rtc.c ****     
1278:../Libraries/STM32F30x_StdPeriph_Driver/src/stm32f30x_rtc.c ****   /* Check the parameters */
1279:../Libraries/STM32F30x_StdPeriph_Driver/src/stm32f30x_rtc.c ****   assert_param(IS_RTC_CMD_ALARM(RTC_Alarm));
1280:../Libraries/STM32F30x_StdPeriph_Driver/src/stm32f30x_rtc.c ****   assert_param(IS_FUNCTIONAL_STATE(NewState));
1281:../Libraries/STM32F30x_StdPeriph_Driver/src/stm32f30x_rtc.c **** 
1282:../Libraries/STM32F30x_StdPeriph_Driver/src/stm32f30x_rtc.c ****   /* Disable the write protection for RTC registers */
1283:../Libraries/STM32F30x_StdPeriph_Driver/src/stm32f30x_rtc.c ****   RTC->WPR = 0xCA;
 1868              		.loc 1 1283 0
 1869 0c8a 4FF42053 		mov	r3, #10240
 1870 0c8e C4F20003 		movt	r3, 16384
 1871 0c92 4FF0CA02 		mov	r2, #202
 1872 0c96 5A62     		str	r2, [r3, #36]
1284:../Libraries/STM32F30x_StdPeriph_Driver/src/stm32f30x_rtc.c ****   RTC->WPR = 0x53;
 1873              		.loc 1 1284 0
 1874 0c98 4FF42053 		mov	r3, #10240
 1875 0c9c C4F20003 		movt	r3, 16384
 1876 0ca0 4FF05302 		mov	r2, #83
 1877 0ca4 5A62     		str	r2, [r3, #36]
1285:../Libraries/STM32F30x_StdPeriph_Driver/src/stm32f30x_rtc.c **** 
1286:../Libraries/STM32F30x_StdPeriph_Driver/src/stm32f30x_rtc.c ****   /* Configure the Alarm state */
1287:../Libraries/STM32F30x_StdPeriph_Driver/src/stm32f30x_rtc.c ****   if (NewState != DISABLE)
 1878              		.loc 1 1287 0
 1879 0ca6 9DF80330 		ldrb	r3, [sp, #3]	@ zero_extendqisi2
 1880 0caa 002B     		cmp	r3, #0
 1881 0cac 10D0     		beq	.L80
1288:../Libraries/STM32F30x_StdPeriph_Driver/src/stm32f30x_rtc.c ****   {
1289:../Libraries/STM32F30x_StdPeriph_Driver/src/stm32f30x_rtc.c ****     RTC->CR |= (uint32_t)RTC_Alarm;
 1882              		.loc 1 1289 0
 1883 0cae 4FF42053 		mov	r3, #10240
 1884 0cb2 C4F20003 		movt	r3, 16384
 1885 0cb6 4FF42052 		mov	r2, #10240
 1886 0cba C4F20002 		movt	r2, 16384
 1887 0cbe 9168     		ldr	r1, [r2, #8]
 1888 0cc0 019A     		ldr	r2, [sp, #4]
 1889 0cc2 0A43     		orrs	r2, r2, r1
 1890 0cc4 9A60     		str	r2, [r3, #8]
1290:../Libraries/STM32F30x_StdPeriph_Driver/src/stm32f30x_rtc.c **** 
1291:../Libraries/STM32F30x_StdPeriph_Driver/src/stm32f30x_rtc.c ****     status = SUCCESS;    
 1891              		.loc 1 1291 0
 1892 0cc6 4FF00103 		mov	r3, #1
 1893 0cca 8DF81730 		strb	r3, [sp, #23]
 1894 0cce 36E0     		b	.L81
 1895              	.L80:
1292:../Libraries/STM32F30x_StdPeriph_Driver/src/stm32f30x_rtc.c ****   }
1293:../Libraries/STM32F30x_StdPeriph_Driver/src/stm32f30x_rtc.c ****   else
1294:../Libraries/STM32F30x_StdPeriph_Driver/src/stm32f30x_rtc.c ****   { 
1295:../Libraries/STM32F30x_StdPeriph_Driver/src/stm32f30x_rtc.c ****     /* Disable the Alarm in RTC_CR register */
1296:../Libraries/STM32F30x_StdPeriph_Driver/src/stm32f30x_rtc.c ****     RTC->CR &= (uint32_t)~RTC_Alarm;
 1896              		.loc 1 1296 0
 1897 0cd0 4FF42053 		mov	r3, #10240
 1898 0cd4 C4F20003 		movt	r3, 16384
 1899 0cd8 4FF42052 		mov	r2, #10240
 1900 0cdc C4F20002 		movt	r2, 16384
 1901 0ce0 9168     		ldr	r1, [r2, #8]
 1902 0ce2 019A     		ldr	r2, [sp, #4]
 1903 0ce4 6FEA0202 		mvn	r2, r2
 1904 0ce8 0A40     		ands	r2, r2, r1
 1905 0cea 9A60     		str	r2, [r3, #8]
 1906              	.L83:
1297:../Libraries/STM32F30x_StdPeriph_Driver/src/stm32f30x_rtc.c ****    
1298:../Libraries/STM32F30x_StdPeriph_Driver/src/stm32f30x_rtc.c ****     /* Wait till RTC ALRxWF flag is set and if Time out is reached exit */
1299:../Libraries/STM32F30x_StdPeriph_Driver/src/stm32f30x_rtc.c ****     do
1300:../Libraries/STM32F30x_StdPeriph_Driver/src/stm32f30x_rtc.c ****     {
1301:../Libraries/STM32F30x_StdPeriph_Driver/src/stm32f30x_rtc.c ****       alarmstatus = RTC->ISR & (RTC_Alarm >> 8);
 1907              		.loc 1 1301 0 discriminator 1
 1908 0cec 4FF42053 		mov	r3, #10240
 1909 0cf0 C4F20003 		movt	r3, 16384
 1910 0cf4 DA68     		ldr	r2, [r3, #12]
 1911 0cf6 019B     		ldr	r3, [sp, #4]
 1912 0cf8 4FEA1323 		lsr	r3, r3, #8
 1913 0cfc 1340     		ands	r3, r3, r2
 1914 0cfe 0493     		str	r3, [sp, #16]
1302:../Libraries/STM32F30x_StdPeriph_Driver/src/stm32f30x_rtc.c ****       alarmcounter++;  
 1915              		.loc 1 1302 0 discriminator 1
 1916 0d00 039B     		ldr	r3, [sp, #12]
 1917 0d02 03F10103 		add	r3, r3, #1
 1918 0d06 0393     		str	r3, [sp, #12]
1303:../Libraries/STM32F30x_StdPeriph_Driver/src/stm32f30x_rtc.c ****     } while((alarmcounter != INITMODE_TIMEOUT) && (alarmstatus == 0x00));
 1919              		.loc 1 1303 0 discriminator 1
 1920 0d08 039B     		ldr	r3, [sp, #12]
 1921 0d0a B3F5005F 		cmp	r3, #8192
 1922 0d0e 02D0     		beq	.L82
 1923 0d10 049B     		ldr	r3, [sp, #16]
 1924 0d12 002B     		cmp	r3, #0
 1925 0d14 EAD0     		beq	.L83
 1926              	.L82:
1304:../Libraries/STM32F30x_StdPeriph_Driver/src/stm32f30x_rtc.c ****     
1305:../Libraries/STM32F30x_StdPeriph_Driver/src/stm32f30x_rtc.c ****     if ((RTC->ISR & (RTC_Alarm >> 8)) == RESET)
 1927              		.loc 1 1305 0
 1928 0d16 4FF42053 		mov	r3, #10240
 1929 0d1a C4F20003 		movt	r3, 16384
 1930 0d1e DA68     		ldr	r2, [r3, #12]
 1931 0d20 019B     		ldr	r3, [sp, #4]
 1932 0d22 4FEA1323 		lsr	r3, r3, #8
 1933 0d26 1340     		ands	r3, r3, r2
 1934 0d28 002B     		cmp	r3, #0
 1935 0d2a 04D1     		bne	.L84
1306:../Libraries/STM32F30x_StdPeriph_Driver/src/stm32f30x_rtc.c ****     {
1307:../Libraries/STM32F30x_StdPeriph_Driver/src/stm32f30x_rtc.c ****       status = ERROR;
 1936              		.loc 1 1307 0
 1937 0d2c 4FF00003 		mov	r3, #0
 1938 0d30 8DF81730 		strb	r3, [sp, #23]
 1939 0d34 03E0     		b	.L81
 1940              	.L84:
1308:../Libraries/STM32F30x_StdPeriph_Driver/src/stm32f30x_rtc.c ****     } 
1309:../Libraries/STM32F30x_StdPeriph_Driver/src/stm32f30x_rtc.c ****     else
1310:../Libraries/STM32F30x_StdPeriph_Driver/src/stm32f30x_rtc.c ****     {
1311:../Libraries/STM32F30x_StdPeriph_Driver/src/stm32f30x_rtc.c ****       status = SUCCESS;
 1941              		.loc 1 1311 0
 1942 0d36 4FF00103 		mov	r3, #1
 1943 0d3a 8DF81730 		strb	r3, [sp, #23]
 1944              	.L81:
1312:../Libraries/STM32F30x_StdPeriph_Driver/src/stm32f30x_rtc.c ****     }        
1313:../Libraries/STM32F30x_StdPeriph_Driver/src/stm32f30x_rtc.c ****   } 
1314:../Libraries/STM32F30x_StdPeriph_Driver/src/stm32f30x_rtc.c **** 
1315:../Libraries/STM32F30x_StdPeriph_Driver/src/stm32f30x_rtc.c ****   /* Enable the write protection for RTC registers */
1316:../Libraries/STM32F30x_StdPeriph_Driver/src/stm32f30x_rtc.c ****   RTC->WPR = 0xFF;
 1945              		.loc 1 1316 0
 1946 0d3e 4FF42053 		mov	r3, #10240
 1947 0d42 C4F20003 		movt	r3, 16384
 1948 0d46 4FF0FF02 		mov	r2, #255
 1949 0d4a 5A62     		str	r2, [r3, #36]
1317:../Libraries/STM32F30x_StdPeriph_Driver/src/stm32f30x_rtc.c ****   
1318:../Libraries/STM32F30x_StdPeriph_Driver/src/stm32f30x_rtc.c ****   return status;
 1950              		.loc 1 1318 0
 1951 0d4c 9DF81730 		ldrb	r3, [sp, #23]	@ zero_extendqisi2
1319:../Libraries/STM32F30x_StdPeriph_Driver/src/stm32f30x_rtc.c **** }
 1952              		.loc 1 1319 0
 1953 0d50 1846     		mov	r0, r3
 1954 0d52 06B0     		add	sp, sp, #24
 1955 0d54 7047     		bx	lr
 1956              		.cfi_endproc
 1957              	.LFE130:
 1959 0d56 00BF     		.align	2
 1960              		.global	RTC_AlarmSubSecondConfig
 1961              		.thumb
 1962              		.thumb_func
 1964              	RTC_AlarmSubSecondConfig:
 1965              	.LFB131:
1320:../Libraries/STM32F30x_StdPeriph_Driver/src/stm32f30x_rtc.c **** 
1321:../Libraries/STM32F30x_StdPeriph_Driver/src/stm32f30x_rtc.c **** /**
1322:../Libraries/STM32F30x_StdPeriph_Driver/src/stm32f30x_rtc.c ****   * @brief  Configures the RTC AlarmA/B Subseconds value and mask.
1323:../Libraries/STM32F30x_StdPeriph_Driver/src/stm32f30x_rtc.c ****   * @note   This function is performed only when the Alarm is disabled. 
1324:../Libraries/STM32F30x_StdPeriph_Driver/src/stm32f30x_rtc.c ****   * @param  RTC_Alarm: specifies the alarm to be configured.
1325:../Libraries/STM32F30x_StdPeriph_Driver/src/stm32f30x_rtc.c ****   *   This parameter can be one of the following values:
1326:../Libraries/STM32F30x_StdPeriph_Driver/src/stm32f30x_rtc.c ****   *     @arg RTC_Alarm_A: to select Alarm A
1327:../Libraries/STM32F30x_StdPeriph_Driver/src/stm32f30x_rtc.c ****   *     @arg RTC_Alarm_B: to select Alarm B
1328:../Libraries/STM32F30x_StdPeriph_Driver/src/stm32f30x_rtc.c ****   * @param  RTC_AlarmSubSecondValue: specifies the Subseconds value.
1329:../Libraries/STM32F30x_StdPeriph_Driver/src/stm32f30x_rtc.c ****   *   This parameter can be a value from 0 to 0x00007FFF.
1330:../Libraries/STM32F30x_StdPeriph_Driver/src/stm32f30x_rtc.c ****   * @param  RTC_AlarmSubSecondMask:  specifies the Subseconds Mask.
1331:../Libraries/STM32F30x_StdPeriph_Driver/src/stm32f30x_rtc.c ****   *   This parameter can be any combination of the following values:
1332:../Libraries/STM32F30x_StdPeriph_Driver/src/stm32f30x_rtc.c ****   *     @arg RTC_AlarmSubSecondMask_All    : All Alarm SS fields are masked.
1333:../Libraries/STM32F30x_StdPeriph_Driver/src/stm32f30x_rtc.c ****   *                                          There is no comparison on sub seconds for Alarm.
1334:../Libraries/STM32F30x_StdPeriph_Driver/src/stm32f30x_rtc.c ****   *     @arg RTC_AlarmSubSecondMask_SS14_1 : SS[14:1] are don't care in Alarm comparison.
1335:../Libraries/STM32F30x_StdPeriph_Driver/src/stm32f30x_rtc.c ****   *                                          Only SS[0] is compared
1336:../Libraries/STM32F30x_StdPeriph_Driver/src/stm32f30x_rtc.c ****   *     @arg RTC_AlarmSubSecondMask_SS14_2 : SS[14:2] are don't care in Alarm comparison.
1337:../Libraries/STM32F30x_StdPeriph_Driver/src/stm32f30x_rtc.c ****   *                                          Only SS[1:0] are compared
1338:../Libraries/STM32F30x_StdPeriph_Driver/src/stm32f30x_rtc.c ****   *     @arg RTC_AlarmSubSecondMask_SS14_3 : SS[14:3] are don't care in Alarm comparison.
1339:../Libraries/STM32F30x_StdPeriph_Driver/src/stm32f30x_rtc.c ****   *                                          Only SS[2:0] are compared
1340:../Libraries/STM32F30x_StdPeriph_Driver/src/stm32f30x_rtc.c ****   *     @arg RTC_AlarmSubSecondMask_SS14_4 : SS[14:4] are don't care in Alarm comparison.
1341:../Libraries/STM32F30x_StdPeriph_Driver/src/stm32f30x_rtc.c ****   *                                          Only SS[3:0] are compared
1342:../Libraries/STM32F30x_StdPeriph_Driver/src/stm32f30x_rtc.c ****   *     @arg RTC_AlarmSubSecondMask_SS14_5 : SS[14:5] are don't care in Alarm comparison.
1343:../Libraries/STM32F30x_StdPeriph_Driver/src/stm32f30x_rtc.c ****   *                                          Only SS[4:0] are compared
1344:../Libraries/STM32F30x_StdPeriph_Driver/src/stm32f30x_rtc.c ****   *     @arg RTC_AlarmSubSecondMask_SS14_6 : SS[14:6] are don't care in Alarm comparison.
1345:../Libraries/STM32F30x_StdPeriph_Driver/src/stm32f30x_rtc.c ****   *                                          Only SS[5:0] are compared
1346:../Libraries/STM32F30x_StdPeriph_Driver/src/stm32f30x_rtc.c ****   *     @arg RTC_AlarmSubSecondMask_SS14_7 : SS[14:7] are don't care in Alarm comparison.
1347:../Libraries/STM32F30x_StdPeriph_Driver/src/stm32f30x_rtc.c ****   *                                          Only SS[6:0] are compared
1348:../Libraries/STM32F30x_StdPeriph_Driver/src/stm32f30x_rtc.c ****   *     @arg RTC_AlarmSubSecondMask_SS14_8 : SS[14:8] are don't care in Alarm comparison.
1349:../Libraries/STM32F30x_StdPeriph_Driver/src/stm32f30x_rtc.c ****   *                                          Only SS[7:0] are compared
1350:../Libraries/STM32F30x_StdPeriph_Driver/src/stm32f30x_rtc.c ****   *     @arg RTC_AlarmSubSecondMask_SS14_9 : SS[14:9] are don't care in Alarm comparison.
1351:../Libraries/STM32F30x_StdPeriph_Driver/src/stm32f30x_rtc.c ****   *                                          Only SS[8:0] are compared
1352:../Libraries/STM32F30x_StdPeriph_Driver/src/stm32f30x_rtc.c ****   *     @arg RTC_AlarmSubSecondMask_SS14_10: SS[14:10] are don't care in Alarm comparison.
1353:../Libraries/STM32F30x_StdPeriph_Driver/src/stm32f30x_rtc.c ****   *                                          Only SS[9:0] are compared
1354:../Libraries/STM32F30x_StdPeriph_Driver/src/stm32f30x_rtc.c ****   *     @arg RTC_AlarmSubSecondMask_SS14_11: SS[14:11] are don't care in Alarm comparison.
1355:../Libraries/STM32F30x_StdPeriph_Driver/src/stm32f30x_rtc.c ****   *                                          Only SS[10:0] are compared
1356:../Libraries/STM32F30x_StdPeriph_Driver/src/stm32f30x_rtc.c ****   *     @arg RTC_AlarmSubSecondMask_SS14_12: SS[14:12] are don't care in Alarm comparison.
1357:../Libraries/STM32F30x_StdPeriph_Driver/src/stm32f30x_rtc.c ****   *                                          Only SS[11:0] are compared
1358:../Libraries/STM32F30x_StdPeriph_Driver/src/stm32f30x_rtc.c ****   *     @arg RTC_AlarmSubSecondMask_SS14_13: SS[14:13] are don't care in Alarm comparison.
1359:../Libraries/STM32F30x_StdPeriph_Driver/src/stm32f30x_rtc.c ****   *                                          Only SS[12:0] are compared
1360:../Libraries/STM32F30x_StdPeriph_Driver/src/stm32f30x_rtc.c ****   *     @arg RTC_AlarmSubSecondMask_SS14   : SS[14] is don't care in Alarm comparison.
1361:../Libraries/STM32F30x_StdPeriph_Driver/src/stm32f30x_rtc.c ****   *                                          Only SS[13:0] are compared
1362:../Libraries/STM32F30x_StdPeriph_Driver/src/stm32f30x_rtc.c ****   *     @arg RTC_AlarmSubSecondMask_None   : SS[14:0] are compared and must match
1363:../Libraries/STM32F30x_StdPeriph_Driver/src/stm32f30x_rtc.c ****   *                                          to activate alarm
1364:../Libraries/STM32F30x_StdPeriph_Driver/src/stm32f30x_rtc.c ****   * @retval None
1365:../Libraries/STM32F30x_StdPeriph_Driver/src/stm32f30x_rtc.c ****   */
1366:../Libraries/STM32F30x_StdPeriph_Driver/src/stm32f30x_rtc.c **** void RTC_AlarmSubSecondConfig(uint32_t RTC_Alarm, uint32_t RTC_AlarmSubSecondValue, uint32_t RTC_Al
1367:../Libraries/STM32F30x_StdPeriph_Driver/src/stm32f30x_rtc.c **** {
 1966              		.loc 1 1367 0
 1967              		.cfi_startproc
 1968              		@ args = 0, pretend = 0, frame = 24
 1969              		@ frame_needed = 0, uses_anonymous_args = 0
 1970              		@ link register save eliminated.
 1971 0d58 86B0     		sub	sp, sp, #24
 1972              	.LCFI28:
 1973              		.cfi_def_cfa_offset 24
 1974 0d5a 0390     		str	r0, [sp, #12]
 1975 0d5c 0291     		str	r1, [sp, #8]
 1976 0d5e 0192     		str	r2, [sp, #4]
1368:../Libraries/STM32F30x_StdPeriph_Driver/src/stm32f30x_rtc.c ****   uint32_t tmpreg = 0;
 1977              		.loc 1 1368 0
 1978 0d60 4FF00003 		mov	r3, #0
 1979 0d64 0593     		str	r3, [sp, #20]
1369:../Libraries/STM32F30x_StdPeriph_Driver/src/stm32f30x_rtc.c **** 
1370:../Libraries/STM32F30x_StdPeriph_Driver/src/stm32f30x_rtc.c ****   /* Check the parameters */
1371:../Libraries/STM32F30x_StdPeriph_Driver/src/stm32f30x_rtc.c ****   assert_param(IS_RTC_ALARM(RTC_Alarm));
1372:../Libraries/STM32F30x_StdPeriph_Driver/src/stm32f30x_rtc.c ****   assert_param(IS_RTC_ALARM_SUB_SECOND_VALUE(RTC_AlarmSubSecondValue));
1373:../Libraries/STM32F30x_StdPeriph_Driver/src/stm32f30x_rtc.c ****   assert_param(IS_RTC_ALARM_SUB_SECOND_MASK(RTC_AlarmSubSecondMask));
1374:../Libraries/STM32F30x_StdPeriph_Driver/src/stm32f30x_rtc.c ****   
1375:../Libraries/STM32F30x_StdPeriph_Driver/src/stm32f30x_rtc.c ****   /* Disable the write protection for RTC registers */
1376:../Libraries/STM32F30x_StdPeriph_Driver/src/stm32f30x_rtc.c ****   RTC->WPR = 0xCA;
 1980              		.loc 1 1376 0
 1981 0d66 4FF42053 		mov	r3, #10240
 1982 0d6a C4F20003 		movt	r3, 16384
 1983 0d6e 4FF0CA02 		mov	r2, #202
 1984 0d72 5A62     		str	r2, [r3, #36]
1377:../Libraries/STM32F30x_StdPeriph_Driver/src/stm32f30x_rtc.c ****   RTC->WPR = 0x53;
 1985              		.loc 1 1377 0
 1986 0d74 4FF42053 		mov	r3, #10240
 1987 0d78 C4F20003 		movt	r3, 16384
 1988 0d7c 4FF05302 		mov	r2, #83
 1989 0d80 5A62     		str	r2, [r3, #36]
1378:../Libraries/STM32F30x_StdPeriph_Driver/src/stm32f30x_rtc.c ****   
1379:../Libraries/STM32F30x_StdPeriph_Driver/src/stm32f30x_rtc.c ****   /* Configure the Alarm A or Alarm B SubSecond registers */
1380:../Libraries/STM32F30x_StdPeriph_Driver/src/stm32f30x_rtc.c ****   tmpreg = (uint32_t) (uint32_t)(RTC_AlarmSubSecondValue) | (uint32_t)(RTC_AlarmSubSecondMask);
 1990              		.loc 1 1380 0
 1991 0d82 029A     		ldr	r2, [sp, #8]
 1992 0d84 019B     		ldr	r3, [sp, #4]
 1993 0d86 1343     		orrs	r3, r3, r2
 1994 0d88 0593     		str	r3, [sp, #20]
1381:../Libraries/STM32F30x_StdPeriph_Driver/src/stm32f30x_rtc.c ****   
1382:../Libraries/STM32F30x_StdPeriph_Driver/src/stm32f30x_rtc.c ****   if (RTC_Alarm == RTC_Alarm_A)
 1995              		.loc 1 1382 0
 1996 0d8a 039B     		ldr	r3, [sp, #12]
 1997 0d8c B3F5807F 		cmp	r3, #256
 1998 0d90 06D1     		bne	.L86
1383:../Libraries/STM32F30x_StdPeriph_Driver/src/stm32f30x_rtc.c ****   {
1384:../Libraries/STM32F30x_StdPeriph_Driver/src/stm32f30x_rtc.c ****     /* Configure the AlarmA SubSecond register */
1385:../Libraries/STM32F30x_StdPeriph_Driver/src/stm32f30x_rtc.c ****     RTC->ALRMASSR = tmpreg;
 1999              		.loc 1 1385 0
 2000 0d92 4FF42053 		mov	r3, #10240
 2001 0d96 C4F20003 		movt	r3, 16384
 2002 0d9a 059A     		ldr	r2, [sp, #20]
 2003 0d9c 5A64     		str	r2, [r3, #68]
 2004 0d9e 05E0     		b	.L87
 2005              	.L86:
1386:../Libraries/STM32F30x_StdPeriph_Driver/src/stm32f30x_rtc.c ****   }
1387:../Libraries/STM32F30x_StdPeriph_Driver/src/stm32f30x_rtc.c ****   else
1388:../Libraries/STM32F30x_StdPeriph_Driver/src/stm32f30x_rtc.c ****   {
1389:../Libraries/STM32F30x_StdPeriph_Driver/src/stm32f30x_rtc.c ****     /* Configure the Alarm B SubSecond register */
1390:../Libraries/STM32F30x_StdPeriph_Driver/src/stm32f30x_rtc.c ****     RTC->ALRMBSSR = tmpreg;
 2006              		.loc 1 1390 0
 2007 0da0 4FF42053 		mov	r3, #10240
 2008 0da4 C4F20003 		movt	r3, 16384
 2009 0da8 059A     		ldr	r2, [sp, #20]
 2010 0daa 9A64     		str	r2, [r3, #72]
 2011              	.L87:
1391:../Libraries/STM32F30x_StdPeriph_Driver/src/stm32f30x_rtc.c ****   }
1392:../Libraries/STM32F30x_StdPeriph_Driver/src/stm32f30x_rtc.c **** 
1393:../Libraries/STM32F30x_StdPeriph_Driver/src/stm32f30x_rtc.c ****   /* Enable the write protection for RTC registers */
1394:../Libraries/STM32F30x_StdPeriph_Driver/src/stm32f30x_rtc.c ****   RTC->WPR = 0xFF;
 2012              		.loc 1 1394 0
 2013 0dac 4FF42053 		mov	r3, #10240
 2014 0db0 C4F20003 		movt	r3, 16384
 2015 0db4 4FF0FF02 		mov	r2, #255
 2016 0db8 5A62     		str	r2, [r3, #36]
1395:../Libraries/STM32F30x_StdPeriph_Driver/src/stm32f30x_rtc.c **** 
1396:../Libraries/STM32F30x_StdPeriph_Driver/src/stm32f30x_rtc.c **** }
 2017              		.loc 1 1396 0
 2018 0dba 06B0     		add	sp, sp, #24
 2019 0dbc 7047     		bx	lr
 2020              		.cfi_endproc
 2021              	.LFE131:
 2023 0dbe 00BF     		.align	2
 2024              		.global	RTC_GetAlarmSubSecond
 2025              		.thumb
 2026              		.thumb_func
 2028              	RTC_GetAlarmSubSecond:
 2029              	.LFB132:
1397:../Libraries/STM32F30x_StdPeriph_Driver/src/stm32f30x_rtc.c **** 
1398:../Libraries/STM32F30x_StdPeriph_Driver/src/stm32f30x_rtc.c **** /**
1399:../Libraries/STM32F30x_StdPeriph_Driver/src/stm32f30x_rtc.c ****   * @brief  Gets the RTC Alarm Subseconds value.
1400:../Libraries/STM32F30x_StdPeriph_Driver/src/stm32f30x_rtc.c ****   * @param  RTC_Alarm: specifies the alarm to be read.
1401:../Libraries/STM32F30x_StdPeriph_Driver/src/stm32f30x_rtc.c ****   *   This parameter can be one of the following values:
1402:../Libraries/STM32F30x_StdPeriph_Driver/src/stm32f30x_rtc.c ****   *     @arg RTC_Alarm_A: to select Alarm A
1403:../Libraries/STM32F30x_StdPeriph_Driver/src/stm32f30x_rtc.c ****   *     @arg RTC_Alarm_B: to select Alarm B
1404:../Libraries/STM32F30x_StdPeriph_Driver/src/stm32f30x_rtc.c ****   * @param  None
1405:../Libraries/STM32F30x_StdPeriph_Driver/src/stm32f30x_rtc.c ****   * @retval RTC Alarm Subseconds value.
1406:../Libraries/STM32F30x_StdPeriph_Driver/src/stm32f30x_rtc.c ****   */
1407:../Libraries/STM32F30x_StdPeriph_Driver/src/stm32f30x_rtc.c **** uint32_t RTC_GetAlarmSubSecond(uint32_t RTC_Alarm)
1408:../Libraries/STM32F30x_StdPeriph_Driver/src/stm32f30x_rtc.c **** {
 2030              		.loc 1 1408 0
 2031              		.cfi_startproc
 2032              		@ args = 0, pretend = 0, frame = 16
 2033              		@ frame_needed = 0, uses_anonymous_args = 0
 2034              		@ link register save eliminated.
 2035 0dc0 84B0     		sub	sp, sp, #16
 2036              	.LCFI29:
 2037              		.cfi_def_cfa_offset 16
 2038 0dc2 0190     		str	r0, [sp, #4]
1409:../Libraries/STM32F30x_StdPeriph_Driver/src/stm32f30x_rtc.c ****   uint32_t tmpreg = 0;
 2039              		.loc 1 1409 0
 2040 0dc4 4FF00003 		mov	r3, #0
 2041 0dc8 0393     		str	r3, [sp, #12]
1410:../Libraries/STM32F30x_StdPeriph_Driver/src/stm32f30x_rtc.c ****   
1411:../Libraries/STM32F30x_StdPeriph_Driver/src/stm32f30x_rtc.c ****   /* Get the RTC_ALRMxR register */
1412:../Libraries/STM32F30x_StdPeriph_Driver/src/stm32f30x_rtc.c ****   if (RTC_Alarm == RTC_Alarm_A)
 2042              		.loc 1 1412 0
 2043 0dca 019B     		ldr	r3, [sp, #4]
 2044 0dcc B3F5807F 		cmp	r3, #256
 2045 0dd0 0AD1     		bne	.L89
1413:../Libraries/STM32F30x_StdPeriph_Driver/src/stm32f30x_rtc.c ****   {
1414:../Libraries/STM32F30x_StdPeriph_Driver/src/stm32f30x_rtc.c ****     tmpreg = (uint32_t)((RTC->ALRMASSR) & RTC_ALRMASSR_SS);
 2046              		.loc 1 1414 0
 2047 0dd2 4FF42053 		mov	r3, #10240
 2048 0dd6 C4F20003 		movt	r3, 16384
 2049 0dda 5B6C     		ldr	r3, [r3, #68]
 2050 0ddc 4FEA4343 		lsl	r3, r3, #17
 2051 0de0 4FEA5343 		lsr	r3, r3, #17
 2052 0de4 0393     		str	r3, [sp, #12]
 2053 0de6 09E0     		b	.L90
 2054              	.L89:
1415:../Libraries/STM32F30x_StdPeriph_Driver/src/stm32f30x_rtc.c ****   }
1416:../Libraries/STM32F30x_StdPeriph_Driver/src/stm32f30x_rtc.c ****   else
1417:../Libraries/STM32F30x_StdPeriph_Driver/src/stm32f30x_rtc.c ****   {
1418:../Libraries/STM32F30x_StdPeriph_Driver/src/stm32f30x_rtc.c ****     tmpreg = (uint32_t)((RTC->ALRMBSSR) & RTC_ALRMBSSR_SS);
 2055              		.loc 1 1418 0
 2056 0de8 4FF42053 		mov	r3, #10240
 2057 0dec C4F20003 		movt	r3, 16384
 2058 0df0 9B6C     		ldr	r3, [r3, #72]
 2059 0df2 4FEA4343 		lsl	r3, r3, #17
 2060 0df6 4FEA5343 		lsr	r3, r3, #17
 2061 0dfa 0393     		str	r3, [sp, #12]
 2062              	.L90:
1419:../Libraries/STM32F30x_StdPeriph_Driver/src/stm32f30x_rtc.c ****   } 
1420:../Libraries/STM32F30x_StdPeriph_Driver/src/stm32f30x_rtc.c ****   
1421:../Libraries/STM32F30x_StdPeriph_Driver/src/stm32f30x_rtc.c ****   return (tmpreg);
 2063              		.loc 1 1421 0
 2064 0dfc 039B     		ldr	r3, [sp, #12]
1422:../Libraries/STM32F30x_StdPeriph_Driver/src/stm32f30x_rtc.c **** }
 2065              		.loc 1 1422 0
 2066 0dfe 1846     		mov	r0, r3
 2067 0e00 04B0     		add	sp, sp, #16
 2068 0e02 7047     		bx	lr
 2069              		.cfi_endproc
 2070              	.LFE132:
 2072              		.align	2
 2073              		.global	RTC_WakeUpClockConfig
 2074              		.thumb
 2075              		.thumb_func
 2077              	RTC_WakeUpClockConfig:
 2078              	.LFB133:
1423:../Libraries/STM32F30x_StdPeriph_Driver/src/stm32f30x_rtc.c **** 
1424:../Libraries/STM32F30x_StdPeriph_Driver/src/stm32f30x_rtc.c **** /**
1425:../Libraries/STM32F30x_StdPeriph_Driver/src/stm32f30x_rtc.c ****   * @}
1426:../Libraries/STM32F30x_StdPeriph_Driver/src/stm32f30x_rtc.c ****   */
1427:../Libraries/STM32F30x_StdPeriph_Driver/src/stm32f30x_rtc.c **** 
1428:../Libraries/STM32F30x_StdPeriph_Driver/src/stm32f30x_rtc.c **** /** @defgroup RTC_Group4 WakeUp Timer configuration functions
1429:../Libraries/STM32F30x_StdPeriph_Driver/src/stm32f30x_rtc.c ****  *  @brief   WakeUp Timer configuration functions 
1430:../Libraries/STM32F30x_StdPeriph_Driver/src/stm32f30x_rtc.c ****  *
1431:../Libraries/STM32F30x_StdPeriph_Driver/src/stm32f30x_rtc.c **** @verbatim   
1432:../Libraries/STM32F30x_StdPeriph_Driver/src/stm32f30x_rtc.c ****  ===============================================================================
1433:../Libraries/STM32F30x_StdPeriph_Driver/src/stm32f30x_rtc.c ****                 ##### WakeUp Timer configuration functions #####
1434:../Libraries/STM32F30x_StdPeriph_Driver/src/stm32f30x_rtc.c ****  ===============================================================================  
1435:../Libraries/STM32F30x_StdPeriph_Driver/src/stm32f30x_rtc.c ****     [..] This section provide functions allowing to program and read the RTC WakeUp.
1436:../Libraries/STM32F30x_StdPeriph_Driver/src/stm32f30x_rtc.c **** 
1437:../Libraries/STM32F30x_StdPeriph_Driver/src/stm32f30x_rtc.c **** @endverbatim
1438:../Libraries/STM32F30x_StdPeriph_Driver/src/stm32f30x_rtc.c ****   * @{
1439:../Libraries/STM32F30x_StdPeriph_Driver/src/stm32f30x_rtc.c ****   */
1440:../Libraries/STM32F30x_StdPeriph_Driver/src/stm32f30x_rtc.c **** 
1441:../Libraries/STM32F30x_StdPeriph_Driver/src/stm32f30x_rtc.c **** /**
1442:../Libraries/STM32F30x_StdPeriph_Driver/src/stm32f30x_rtc.c ****   * @brief  Configures the RTC Wakeup clock source.
1443:../Libraries/STM32F30x_StdPeriph_Driver/src/stm32f30x_rtc.c ****   * @note   The WakeUp Clock source can only be changed when the RTC WakeUp
1444:../Libraries/STM32F30x_StdPeriph_Driver/src/stm32f30x_rtc.c ****   *         is disabled (Use the RTC_WakeUpCmd(DISABLE)).
1445:../Libraries/STM32F30x_StdPeriph_Driver/src/stm32f30x_rtc.c ****   * @param  RTC_WakeUpClock: Wakeup Clock source.
1446:../Libraries/STM32F30x_StdPeriph_Driver/src/stm32f30x_rtc.c ****   *   This parameter can be one of the following values:
1447:../Libraries/STM32F30x_StdPeriph_Driver/src/stm32f30x_rtc.c ****   *     @arg RTC_WakeUpClock_RTCCLK_Div16: RTC Wakeup Counter Clock = RTCCLK/16
1448:../Libraries/STM32F30x_StdPeriph_Driver/src/stm32f30x_rtc.c ****   *     @arg RTC_WakeUpClock_RTCCLK_Div8: RTC Wakeup Counter Clock = RTCCLK/8
1449:../Libraries/STM32F30x_StdPeriph_Driver/src/stm32f30x_rtc.c ****   *     @arg RTC_WakeUpClock_RTCCLK_Div4: RTC Wakeup Counter Clock = RTCCLK/4
1450:../Libraries/STM32F30x_StdPeriph_Driver/src/stm32f30x_rtc.c ****   *     @arg RTC_WakeUpClock_RTCCLK_Div2: RTC Wakeup Counter Clock = RTCCLK/2
1451:../Libraries/STM32F30x_StdPeriph_Driver/src/stm32f30x_rtc.c ****   *     @arg RTC_WakeUpClock_CK_SPRE_16bits: RTC Wakeup Counter Clock = CK_SPRE
1452:../Libraries/STM32F30x_StdPeriph_Driver/src/stm32f30x_rtc.c ****   *     @arg RTC_WakeUpClock_CK_SPRE_17bits: RTC Wakeup Counter Clock = CK_SPRE
1453:../Libraries/STM32F30x_StdPeriph_Driver/src/stm32f30x_rtc.c ****   * @retval None
1454:../Libraries/STM32F30x_StdPeriph_Driver/src/stm32f30x_rtc.c ****   */
1455:../Libraries/STM32F30x_StdPeriph_Driver/src/stm32f30x_rtc.c **** void RTC_WakeUpClockConfig(uint32_t RTC_WakeUpClock)
1456:../Libraries/STM32F30x_StdPeriph_Driver/src/stm32f30x_rtc.c **** {
 2079              		.loc 1 1456 0
 2080              		.cfi_startproc
 2081              		@ args = 0, pretend = 0, frame = 8
 2082              		@ frame_needed = 0, uses_anonymous_args = 0
 2083              		@ link register save eliminated.
 2084 0e04 82B0     		sub	sp, sp, #8
 2085              	.LCFI30:
 2086              		.cfi_def_cfa_offset 8
 2087 0e06 0190     		str	r0, [sp, #4]
1457:../Libraries/STM32F30x_StdPeriph_Driver/src/stm32f30x_rtc.c ****   /* Check the parameters */
1458:../Libraries/STM32F30x_StdPeriph_Driver/src/stm32f30x_rtc.c ****   assert_param(IS_RTC_WAKEUP_CLOCK(RTC_WakeUpClock));
1459:../Libraries/STM32F30x_StdPeriph_Driver/src/stm32f30x_rtc.c **** 
1460:../Libraries/STM32F30x_StdPeriph_Driver/src/stm32f30x_rtc.c ****   /* Disable the write protection for RTC registers */
1461:../Libraries/STM32F30x_StdPeriph_Driver/src/stm32f30x_rtc.c ****   RTC->WPR = 0xCA;
 2088              		.loc 1 1461 0
 2089 0e08 4FF42053 		mov	r3, #10240
 2090 0e0c C4F20003 		movt	r3, 16384
 2091 0e10 4FF0CA02 		mov	r2, #202
 2092 0e14 5A62     		str	r2, [r3, #36]
1462:../Libraries/STM32F30x_StdPeriph_Driver/src/stm32f30x_rtc.c ****   RTC->WPR = 0x53;
 2093              		.loc 1 1462 0
 2094 0e16 4FF42053 		mov	r3, #10240
 2095 0e1a C4F20003 		movt	r3, 16384
 2096 0e1e 4FF05302 		mov	r2, #83
 2097 0e22 5A62     		str	r2, [r3, #36]
1463:../Libraries/STM32F30x_StdPeriph_Driver/src/stm32f30x_rtc.c **** 
1464:../Libraries/STM32F30x_StdPeriph_Driver/src/stm32f30x_rtc.c ****   /* Clear the Wakeup Timer clock source bits in CR register */
1465:../Libraries/STM32F30x_StdPeriph_Driver/src/stm32f30x_rtc.c ****   RTC->CR &= (uint32_t)~RTC_CR_WUCKSEL;
 2098              		.loc 1 1465 0
 2099 0e24 4FF42053 		mov	r3, #10240
 2100 0e28 C4F20003 		movt	r3, 16384
 2101 0e2c 4FF42052 		mov	r2, #10240
 2102 0e30 C4F20002 		movt	r2, 16384
 2103 0e34 9268     		ldr	r2, [r2, #8]
 2104 0e36 22F00702 		bic	r2, r2, #7
 2105 0e3a 9A60     		str	r2, [r3, #8]
1466:../Libraries/STM32F30x_StdPeriph_Driver/src/stm32f30x_rtc.c **** 
1467:../Libraries/STM32F30x_StdPeriph_Driver/src/stm32f30x_rtc.c ****   /* Configure the clock source */
1468:../Libraries/STM32F30x_StdPeriph_Driver/src/stm32f30x_rtc.c ****   RTC->CR |= (uint32_t)RTC_WakeUpClock;
 2106              		.loc 1 1468 0
 2107 0e3c 4FF42053 		mov	r3, #10240
 2108 0e40 C4F20003 		movt	r3, 16384
 2109 0e44 4FF42052 		mov	r2, #10240
 2110 0e48 C4F20002 		movt	r2, 16384
 2111 0e4c 9168     		ldr	r1, [r2, #8]
 2112 0e4e 019A     		ldr	r2, [sp, #4]
 2113 0e50 0A43     		orrs	r2, r2, r1
 2114 0e52 9A60     		str	r2, [r3, #8]
1469:../Libraries/STM32F30x_StdPeriph_Driver/src/stm32f30x_rtc.c ****   
1470:../Libraries/STM32F30x_StdPeriph_Driver/src/stm32f30x_rtc.c ****   /* Enable the write protection for RTC registers */
1471:../Libraries/STM32F30x_StdPeriph_Driver/src/stm32f30x_rtc.c ****   RTC->WPR = 0xFF;
 2115              		.loc 1 1471 0
 2116 0e54 4FF42053 		mov	r3, #10240
 2117 0e58 C4F20003 		movt	r3, 16384
 2118 0e5c 4FF0FF02 		mov	r2, #255
 2119 0e60 5A62     		str	r2, [r3, #36]
1472:../Libraries/STM32F30x_StdPeriph_Driver/src/stm32f30x_rtc.c **** }
 2120              		.loc 1 1472 0
 2121 0e62 02B0     		add	sp, sp, #8
 2122 0e64 7047     		bx	lr
 2123              		.cfi_endproc
 2124              	.LFE133:
 2126 0e66 00BF     		.align	2
 2127              		.global	RTC_SetWakeUpCounter
 2128              		.thumb
 2129              		.thumb_func
 2131              	RTC_SetWakeUpCounter:
 2132              	.LFB134:
1473:../Libraries/STM32F30x_StdPeriph_Driver/src/stm32f30x_rtc.c **** 
1474:../Libraries/STM32F30x_StdPeriph_Driver/src/stm32f30x_rtc.c **** /**
1475:../Libraries/STM32F30x_StdPeriph_Driver/src/stm32f30x_rtc.c ****   * @brief  Configures the RTC Wakeup counter.
1476:../Libraries/STM32F30x_StdPeriph_Driver/src/stm32f30x_rtc.c ****   * @note   The RTC WakeUp counter can only be written when the RTC WakeUp
1477:../Libraries/STM32F30x_StdPeriph_Driver/src/stm32f30x_rtc.c ****   *         is disabled (Use the RTC_WakeUpCmd(DISABLE)).
1478:../Libraries/STM32F30x_StdPeriph_Driver/src/stm32f30x_rtc.c ****   * @param  RTC_WakeUpCounter: specifies the WakeUp counter.
1479:../Libraries/STM32F30x_StdPeriph_Driver/src/stm32f30x_rtc.c ****   *   This parameter can be a value from 0x0000 to 0xFFFF. 
1480:../Libraries/STM32F30x_StdPeriph_Driver/src/stm32f30x_rtc.c ****   * @retval None
1481:../Libraries/STM32F30x_StdPeriph_Driver/src/stm32f30x_rtc.c ****   */
1482:../Libraries/STM32F30x_StdPeriph_Driver/src/stm32f30x_rtc.c **** void RTC_SetWakeUpCounter(uint32_t RTC_WakeUpCounter)
1483:../Libraries/STM32F30x_StdPeriph_Driver/src/stm32f30x_rtc.c **** {
 2133              		.loc 1 1483 0
 2134              		.cfi_startproc
 2135              		@ args = 0, pretend = 0, frame = 8
 2136              		@ frame_needed = 0, uses_anonymous_args = 0
 2137              		@ link register save eliminated.
 2138 0e68 82B0     		sub	sp, sp, #8
 2139              	.LCFI31:
 2140              		.cfi_def_cfa_offset 8
 2141 0e6a 0190     		str	r0, [sp, #4]
1484:../Libraries/STM32F30x_StdPeriph_Driver/src/stm32f30x_rtc.c ****   /* Check the parameters */
1485:../Libraries/STM32F30x_StdPeriph_Driver/src/stm32f30x_rtc.c ****   assert_param(IS_RTC_WAKEUP_COUNTER(RTC_WakeUpCounter));
1486:../Libraries/STM32F30x_StdPeriph_Driver/src/stm32f30x_rtc.c ****   
1487:../Libraries/STM32F30x_StdPeriph_Driver/src/stm32f30x_rtc.c ****   /* Disable the write protection for RTC registers */
1488:../Libraries/STM32F30x_StdPeriph_Driver/src/stm32f30x_rtc.c ****   RTC->WPR = 0xCA;
 2142              		.loc 1 1488 0
 2143 0e6c 4FF42053 		mov	r3, #10240
 2144 0e70 C4F20003 		movt	r3, 16384
 2145 0e74 4FF0CA02 		mov	r2, #202
 2146 0e78 5A62     		str	r2, [r3, #36]
1489:../Libraries/STM32F30x_StdPeriph_Driver/src/stm32f30x_rtc.c ****   RTC->WPR = 0x53;
 2147              		.loc 1 1489 0
 2148 0e7a 4FF42053 		mov	r3, #10240
 2149 0e7e C4F20003 		movt	r3, 16384
 2150 0e82 4FF05302 		mov	r2, #83
 2151 0e86 5A62     		str	r2, [r3, #36]
1490:../Libraries/STM32F30x_StdPeriph_Driver/src/stm32f30x_rtc.c ****   
1491:../Libraries/STM32F30x_StdPeriph_Driver/src/stm32f30x_rtc.c ****   /* Configure the Wakeup Timer counter */
1492:../Libraries/STM32F30x_StdPeriph_Driver/src/stm32f30x_rtc.c ****   RTC->WUTR = (uint32_t)RTC_WakeUpCounter;
 2152              		.loc 1 1492 0
 2153 0e88 4FF42053 		mov	r3, #10240
 2154 0e8c C4F20003 		movt	r3, 16384
 2155 0e90 019A     		ldr	r2, [sp, #4]
 2156 0e92 5A61     		str	r2, [r3, #20]
1493:../Libraries/STM32F30x_StdPeriph_Driver/src/stm32f30x_rtc.c ****   
1494:../Libraries/STM32F30x_StdPeriph_Driver/src/stm32f30x_rtc.c ****   /* Enable the write protection for RTC registers */
1495:../Libraries/STM32F30x_StdPeriph_Driver/src/stm32f30x_rtc.c ****   RTC->WPR = 0xFF;
 2157              		.loc 1 1495 0
 2158 0e94 4FF42053 		mov	r3, #10240
 2159 0e98 C4F20003 		movt	r3, 16384
 2160 0e9c 4FF0FF02 		mov	r2, #255
 2161 0ea0 5A62     		str	r2, [r3, #36]
1496:../Libraries/STM32F30x_StdPeriph_Driver/src/stm32f30x_rtc.c **** }
 2162              		.loc 1 1496 0
 2163 0ea2 02B0     		add	sp, sp, #8
 2164 0ea4 7047     		bx	lr
 2165              		.cfi_endproc
 2166              	.LFE134:
 2168 0ea6 00BF     		.align	2
 2169              		.global	RTC_GetWakeUpCounter
 2170              		.thumb
 2171              		.thumb_func
 2173              	RTC_GetWakeUpCounter:
 2174              	.LFB135:
1497:../Libraries/STM32F30x_StdPeriph_Driver/src/stm32f30x_rtc.c **** 
1498:../Libraries/STM32F30x_StdPeriph_Driver/src/stm32f30x_rtc.c **** /**
1499:../Libraries/STM32F30x_StdPeriph_Driver/src/stm32f30x_rtc.c ****   * @brief  Returns the RTC WakeUp timer counter value.
1500:../Libraries/STM32F30x_StdPeriph_Driver/src/stm32f30x_rtc.c ****   * @param  None
1501:../Libraries/STM32F30x_StdPeriph_Driver/src/stm32f30x_rtc.c ****   * @retval The RTC WakeUp Counter value.
1502:../Libraries/STM32F30x_StdPeriph_Driver/src/stm32f30x_rtc.c ****   */
1503:../Libraries/STM32F30x_StdPeriph_Driver/src/stm32f30x_rtc.c **** uint32_t RTC_GetWakeUpCounter(void)
1504:../Libraries/STM32F30x_StdPeriph_Driver/src/stm32f30x_rtc.c **** {
 2175              		.loc 1 1504 0
 2176              		.cfi_startproc
 2177              		@ args = 0, pretend = 0, frame = 0
 2178              		@ frame_needed = 0, uses_anonymous_args = 0
 2179              		@ link register save eliminated.
1505:../Libraries/STM32F30x_StdPeriph_Driver/src/stm32f30x_rtc.c ****   /* Get the counter value */
1506:../Libraries/STM32F30x_StdPeriph_Driver/src/stm32f30x_rtc.c ****   return ((uint32_t)(RTC->WUTR & RTC_WUTR_WUT));
 2180              		.loc 1 1506 0
 2181 0ea8 4FF42053 		mov	r3, #10240
 2182 0eac C4F20003 		movt	r3, 16384
 2183 0eb0 5B69     		ldr	r3, [r3, #20]
 2184 0eb2 4FEA0343 		lsl	r3, r3, #16
 2185 0eb6 4FEA1343 		lsr	r3, r3, #16
1507:../Libraries/STM32F30x_StdPeriph_Driver/src/stm32f30x_rtc.c **** }
 2186              		.loc 1 1507 0
 2187 0eba 1846     		mov	r0, r3
 2188 0ebc 7047     		bx	lr
 2189              		.cfi_endproc
 2190              	.LFE135:
 2192 0ebe 00BF     		.align	2
 2193              		.global	RTC_WakeUpCmd
 2194              		.thumb
 2195              		.thumb_func
 2197              	RTC_WakeUpCmd:
 2198              	.LFB136:
1508:../Libraries/STM32F30x_StdPeriph_Driver/src/stm32f30x_rtc.c **** 
1509:../Libraries/STM32F30x_StdPeriph_Driver/src/stm32f30x_rtc.c **** /**
1510:../Libraries/STM32F30x_StdPeriph_Driver/src/stm32f30x_rtc.c ****   * @brief  Enables or Disables the RTC WakeUp timer.
1511:../Libraries/STM32F30x_StdPeriph_Driver/src/stm32f30x_rtc.c ****   * @param  NewState: new state of the WakeUp timer.
1512:../Libraries/STM32F30x_StdPeriph_Driver/src/stm32f30x_rtc.c ****   *   This parameter can be: ENABLE or DISABLE.
1513:../Libraries/STM32F30x_StdPeriph_Driver/src/stm32f30x_rtc.c ****   * @retval None
1514:../Libraries/STM32F30x_StdPeriph_Driver/src/stm32f30x_rtc.c ****   */
1515:../Libraries/STM32F30x_StdPeriph_Driver/src/stm32f30x_rtc.c **** ErrorStatus RTC_WakeUpCmd(FunctionalState NewState)
1516:../Libraries/STM32F30x_StdPeriph_Driver/src/stm32f30x_rtc.c **** {
 2199              		.loc 1 1516 0
 2200              		.cfi_startproc
 2201              		@ args = 0, pretend = 0, frame = 24
 2202              		@ frame_needed = 0, uses_anonymous_args = 0
 2203              		@ link register save eliminated.
 2204 0ec0 86B0     		sub	sp, sp, #24
 2205              	.LCFI32:
 2206              		.cfi_def_cfa_offset 24
 2207 0ec2 0346     		mov	r3, r0
 2208 0ec4 8DF80730 		strb	r3, [sp, #7]
1517:../Libraries/STM32F30x_StdPeriph_Driver/src/stm32f30x_rtc.c ****   __IO uint32_t wutcounter = 0x00;
 2209              		.loc 1 1517 0
 2210 0ec8 4FF00003 		mov	r3, #0
 2211 0ecc 0393     		str	r3, [sp, #12]
1518:../Libraries/STM32F30x_StdPeriph_Driver/src/stm32f30x_rtc.c ****   uint32_t wutwfstatus = 0x00;
 2212              		.loc 1 1518 0
 2213 0ece 4FF00003 		mov	r3, #0
 2214 0ed2 0493     		str	r3, [sp, #16]
1519:../Libraries/STM32F30x_StdPeriph_Driver/src/stm32f30x_rtc.c ****   ErrorStatus status = ERROR;
 2215              		.loc 1 1519 0
 2216 0ed4 4FF00003 		mov	r3, #0
 2217 0ed8 8DF81730 		strb	r3, [sp, #23]
1520:../Libraries/STM32F30x_StdPeriph_Driver/src/stm32f30x_rtc.c ****   
1521:../Libraries/STM32F30x_StdPeriph_Driver/src/stm32f30x_rtc.c ****   /* Check the parameters */
1522:../Libraries/STM32F30x_StdPeriph_Driver/src/stm32f30x_rtc.c ****   assert_param(IS_FUNCTIONAL_STATE(NewState));
1523:../Libraries/STM32F30x_StdPeriph_Driver/src/stm32f30x_rtc.c **** 
1524:../Libraries/STM32F30x_StdPeriph_Driver/src/stm32f30x_rtc.c ****   /* Disable the write protection for RTC registers */
1525:../Libraries/STM32F30x_StdPeriph_Driver/src/stm32f30x_rtc.c ****   RTC->WPR = 0xCA;
 2218              		.loc 1 1525 0
 2219 0edc 4FF42053 		mov	r3, #10240
 2220 0ee0 C4F20003 		movt	r3, 16384
 2221 0ee4 4FF0CA02 		mov	r2, #202
 2222 0ee8 5A62     		str	r2, [r3, #36]
1526:../Libraries/STM32F30x_StdPeriph_Driver/src/stm32f30x_rtc.c ****   RTC->WPR = 0x53;
 2223              		.loc 1 1526 0
 2224 0eea 4FF42053 		mov	r3, #10240
 2225 0eee C4F20003 		movt	r3, 16384
 2226 0ef2 4FF05302 		mov	r2, #83
 2227 0ef6 5A62     		str	r2, [r3, #36]
1527:../Libraries/STM32F30x_StdPeriph_Driver/src/stm32f30x_rtc.c **** 
1528:../Libraries/STM32F30x_StdPeriph_Driver/src/stm32f30x_rtc.c ****   if (NewState != DISABLE)
 2228              		.loc 1 1528 0
 2229 0ef8 9DF80730 		ldrb	r3, [sp, #7]	@ zero_extendqisi2
 2230 0efc 002B     		cmp	r3, #0
 2231 0efe 10D0     		beq	.L95
1529:../Libraries/STM32F30x_StdPeriph_Driver/src/stm32f30x_rtc.c ****   {
1530:../Libraries/STM32F30x_StdPeriph_Driver/src/stm32f30x_rtc.c ****     /* Enable the Wakeup Timer */
1531:../Libraries/STM32F30x_StdPeriph_Driver/src/stm32f30x_rtc.c ****     RTC->CR |= (uint32_t)RTC_CR_WUTE;
 2232              		.loc 1 1531 0
 2233 0f00 4FF42053 		mov	r3, #10240
 2234 0f04 C4F20003 		movt	r3, 16384
 2235 0f08 4FF42052 		mov	r2, #10240
 2236 0f0c C4F20002 		movt	r2, 16384
 2237 0f10 9268     		ldr	r2, [r2, #8]
 2238 0f12 42F48062 		orr	r2, r2, #1024
 2239 0f16 9A60     		str	r2, [r3, #8]
1532:../Libraries/STM32F30x_StdPeriph_Driver/src/stm32f30x_rtc.c ****     status = SUCCESS;    
 2240              		.loc 1 1532 0
 2241 0f18 4FF00103 		mov	r3, #1
 2242 0f1c 8DF81730 		strb	r3, [sp, #23]
 2243 0f20 30E0     		b	.L96
 2244              	.L95:
1533:../Libraries/STM32F30x_StdPeriph_Driver/src/stm32f30x_rtc.c ****   }
1534:../Libraries/STM32F30x_StdPeriph_Driver/src/stm32f30x_rtc.c ****   else
1535:../Libraries/STM32F30x_StdPeriph_Driver/src/stm32f30x_rtc.c ****   {
1536:../Libraries/STM32F30x_StdPeriph_Driver/src/stm32f30x_rtc.c ****     /* Disable the Wakeup Timer */
1537:../Libraries/STM32F30x_StdPeriph_Driver/src/stm32f30x_rtc.c ****     RTC->CR &= (uint32_t)~RTC_CR_WUTE;
 2245              		.loc 1 1537 0
 2246 0f22 4FF42053 		mov	r3, #10240
 2247 0f26 C4F20003 		movt	r3, 16384
 2248 0f2a 4FF42052 		mov	r2, #10240
 2249 0f2e C4F20002 		movt	r2, 16384
 2250 0f32 9268     		ldr	r2, [r2, #8]
 2251 0f34 22F48062 		bic	r2, r2, #1024
 2252 0f38 9A60     		str	r2, [r3, #8]
 2253              	.L98:
1538:../Libraries/STM32F30x_StdPeriph_Driver/src/stm32f30x_rtc.c ****     /* Wait till RTC WUTWF flag is set and if Time out is reached exit */
1539:../Libraries/STM32F30x_StdPeriph_Driver/src/stm32f30x_rtc.c ****     do
