   1              		.syntax unified
   2              		.cpu cortex-m4
   3              		.eabi_attribute 27, 3
   4              		.fpu fpv4-sp-d16
   5              		.eabi_attribute 20, 1
   6              		.eabi_attribute 21, 1
   7              		.eabi_attribute 23, 3
   8              		.eabi_attribute 24, 1
   9              		.eabi_attribute 25, 1
  10              		.eabi_attribute 26, 1
  11              		.eabi_attribute 30, 6
  12              		.eabi_attribute 34, 1
  13              		.eabi_attribute 18, 4
  14              		.thumb
  15              		.file	"stm32f30x_iwdg.c"
  16              		.text
  17              	.Ltext0:
  18              		.cfi_sections	.debug_frame
  19              		.align	2
  20              		.global	IWDG_WriteAccessCmd
  21              		.thumb
  22              		.thumb_func
  24              	IWDG_WriteAccessCmd:
  25              	.LFB111:
  26              		.file 1 "../Libraries/STM32F30x_StdPeriph_Driver/src/stm32f30x_iwdg.c"
   1:../Libraries/STM32F30x_StdPeriph_Driver/src/stm32f30x_iwdg.c **** /**
   2:../Libraries/STM32F30x_StdPeriph_Driver/src/stm32f30x_iwdg.c ****   ******************************************************************************
   3:../Libraries/STM32F30x_StdPeriph_Driver/src/stm32f30x_iwdg.c ****   * @file    stm32f30x_iwdg.c
   4:../Libraries/STM32F30x_StdPeriph_Driver/src/stm32f30x_iwdg.c ****   * @author  MCD Application Team
   5:../Libraries/STM32F30x_StdPeriph_Driver/src/stm32f30x_iwdg.c ****   * @version V1.0.1
   6:../Libraries/STM32F30x_StdPeriph_Driver/src/stm32f30x_iwdg.c ****   * @date    23-October-2012
   7:../Libraries/STM32F30x_StdPeriph_Driver/src/stm32f30x_iwdg.c ****   * @brief   This file provides firmware functions to manage the following 
   8:../Libraries/STM32F30x_StdPeriph_Driver/src/stm32f30x_iwdg.c ****   *          functionalities of the Independent watchdog (IWDG) peripheral:           
   9:../Libraries/STM32F30x_StdPeriph_Driver/src/stm32f30x_iwdg.c ****   *           + Prescaler and Counter configuration
  10:../Libraries/STM32F30x_StdPeriph_Driver/src/stm32f30x_iwdg.c ****   *           + IWDG activation
  11:../Libraries/STM32F30x_StdPeriph_Driver/src/stm32f30x_iwdg.c ****   *           + Flag management
  12:../Libraries/STM32F30x_StdPeriph_Driver/src/stm32f30x_iwdg.c ****   *
  13:../Libraries/STM32F30x_StdPeriph_Driver/src/stm32f30x_iwdg.c ****   @verbatim  
  14:../Libraries/STM32F30x_StdPeriph_Driver/src/stm32f30x_iwdg.c ****   
  15:../Libraries/STM32F30x_StdPeriph_Driver/src/stm32f30x_iwdg.c ****  ===============================================================================
  16:../Libraries/STM32F30x_StdPeriph_Driver/src/stm32f30x_iwdg.c ****                           ##### IWDG features #####
  17:../Libraries/STM32F30x_StdPeriph_Driver/src/stm32f30x_iwdg.c ****  ===============================================================================
  18:../Libraries/STM32F30x_StdPeriph_Driver/src/stm32f30x_iwdg.c ****     [..] The IWDG can be started by either software or hardware (configurable
  19:../Libraries/STM32F30x_StdPeriph_Driver/src/stm32f30x_iwdg.c ****          through option byte).
  20:../Libraries/STM32F30x_StdPeriph_Driver/src/stm32f30x_iwdg.c ****     [..] The IWDG is clocked by its own dedicated low-speed clock (LSI) and
  21:../Libraries/STM32F30x_StdPeriph_Driver/src/stm32f30x_iwdg.c ****          thus stays active even if the main clock fails.
  22:../Libraries/STM32F30x_StdPeriph_Driver/src/stm32f30x_iwdg.c ****          Once the IWDG is started, the LSI is forced ON and cannot be disabled
  23:../Libraries/STM32F30x_StdPeriph_Driver/src/stm32f30x_iwdg.c ****          (LSI cannot be disabled too), and the counter starts counting down from 
  24:../Libraries/STM32F30x_StdPeriph_Driver/src/stm32f30x_iwdg.c ****          the reset value of 0xFFF. When it reaches the end of count value (0x000)
  25:../Libraries/STM32F30x_StdPeriph_Driver/src/stm32f30x_iwdg.c ****          a system reset is generated.
  26:../Libraries/STM32F30x_StdPeriph_Driver/src/stm32f30x_iwdg.c ****          The IWDG counter should be reloaded at regular intervals to prevent
  27:../Libraries/STM32F30x_StdPeriph_Driver/src/stm32f30x_iwdg.c ****          an MCU reset.
  28:../Libraries/STM32F30x_StdPeriph_Driver/src/stm32f30x_iwdg.c ****     [..] The IWDG is implemented in the VDD voltage domain that is still functional
  29:../Libraries/STM32F30x_StdPeriph_Driver/src/stm32f30x_iwdg.c ****          in STOP and STANDBY mode (IWDG reset can wake-up from STANDBY).          
  30:../Libraries/STM32F30x_StdPeriph_Driver/src/stm32f30x_iwdg.c ****     [..] IWDGRST flag in RCC_CSR register can be used to inform when a IWDG
  31:../Libraries/STM32F30x_StdPeriph_Driver/src/stm32f30x_iwdg.c ****          reset occurs.
  32:../Libraries/STM32F30x_StdPeriph_Driver/src/stm32f30x_iwdg.c ****     [..] Min-max timeout value @41KHz (LSI): ~0.1ms / ~25.5s
  33:../Libraries/STM32F30x_StdPeriph_Driver/src/stm32f30x_iwdg.c ****          The IWDG timeout may vary due to LSI frequency dispersion. STM32F30x
  34:../Libraries/STM32F30x_StdPeriph_Driver/src/stm32f30x_iwdg.c ****          devices provide the capability to measure the LSI frequency (LSI clock
  35:../Libraries/STM32F30x_StdPeriph_Driver/src/stm32f30x_iwdg.c ****          connected internally to TIM16 CH1 input capture). The measured value
  36:../Libraries/STM32F30x_StdPeriph_Driver/src/stm32f30x_iwdg.c ****          can be used to have an IWDG timeout with an acceptable accuracy. 
  37:../Libraries/STM32F30x_StdPeriph_Driver/src/stm32f30x_iwdg.c ****          For more information, please refer to the STM32F30x Reference manual.
  38:../Libraries/STM32F30x_StdPeriph_Driver/src/stm32f30x_iwdg.c **** 
  39:../Libraries/STM32F30x_StdPeriph_Driver/src/stm32f30x_iwdg.c ****                       ##### How to use this driver #####
  40:../Libraries/STM32F30x_StdPeriph_Driver/src/stm32f30x_iwdg.c ****  ===============================================================================
  41:../Libraries/STM32F30x_StdPeriph_Driver/src/stm32f30x_iwdg.c ****     [..] This driver allows to use IWDG peripheral with either window option enabled
  42:../Libraries/STM32F30x_StdPeriph_Driver/src/stm32f30x_iwdg.c ****          or disabled. To do so follow one of the two procedures below.
  43:../Libraries/STM32F30x_StdPeriph_Driver/src/stm32f30x_iwdg.c ****     (#) Window option is enabled:    
  44:../Libraries/STM32F30x_StdPeriph_Driver/src/stm32f30x_iwdg.c ****         (++) Start the IWDG using IWDG_Enable() function, when the IWDG is used
  45:../Libraries/STM32F30x_StdPeriph_Driver/src/stm32f30x_iwdg.c ****              in software mode (no need to enable the LSI, it will be enabled
  46:../Libraries/STM32F30x_StdPeriph_Driver/src/stm32f30x_iwdg.c ****              by hardware).        
  47:../Libraries/STM32F30x_StdPeriph_Driver/src/stm32f30x_iwdg.c ****         (++) Enable write access to IWDG_PR and IWDG_RLR registers using
  48:../Libraries/STM32F30x_StdPeriph_Driver/src/stm32f30x_iwdg.c ****              IWDG_WriteAccessCmd(IWDG_WriteAccess_Enable) function.
  49:../Libraries/STM32F30x_StdPeriph_Driver/src/stm32f30x_iwdg.c ****         (++) Configure the IWDG prescaler using IWDG_SetPrescaler() function.
  50:../Libraries/STM32F30x_StdPeriph_Driver/src/stm32f30x_iwdg.c ****         (++) Configure the IWDG counter value using IWDG_SetReload() function.
  51:../Libraries/STM32F30x_StdPeriph_Driver/src/stm32f30x_iwdg.c ****              This value will be loaded in the IWDG counter each time the counter
  52:../Libraries/STM32F30x_StdPeriph_Driver/src/stm32f30x_iwdg.c ****              is reloaded, then the IWDG will start counting down from this value.
  53:../Libraries/STM32F30x_StdPeriph_Driver/src/stm32f30x_iwdg.c ****         (++) Wait for the IWDG registers to be updated using IWDG_GetFlagStatus() function.
  54:../Libraries/STM32F30x_StdPeriph_Driver/src/stm32f30x_iwdg.c ****         (++) Configure the IWDG refresh window using IWDG_SetWindowValue() function.
  55:../Libraries/STM32F30x_StdPeriph_Driver/src/stm32f30x_iwdg.c **** 
  56:../Libraries/STM32F30x_StdPeriph_Driver/src/stm32f30x_iwdg.c ****     (#) Window option is disabled:    
  57:../Libraries/STM32F30x_StdPeriph_Driver/src/stm32f30x_iwdg.c ****         (++) Enable write access to IWDG_PR and IWDG_RLR registers using
  58:../Libraries/STM32F30x_StdPeriph_Driver/src/stm32f30x_iwdg.c ****              IWDG_WriteAccessCmd(IWDG_WriteAccess_Enable) function.
  59:../Libraries/STM32F30x_StdPeriph_Driver/src/stm32f30x_iwdg.c ****         (++) Configure the IWDG prescaler using IWDG_SetPrescaler() function.
  60:../Libraries/STM32F30x_StdPeriph_Driver/src/stm32f30x_iwdg.c ****         (++) Configure the IWDG counter value using IWDG_SetReload() function.
  61:../Libraries/STM32F30x_StdPeriph_Driver/src/stm32f30x_iwdg.c ****              This value will be loaded in the IWDG counter each time the counter
  62:../Libraries/STM32F30x_StdPeriph_Driver/src/stm32f30x_iwdg.c ****              is reloaded, then the IWDG will start counting down from this value.
  63:../Libraries/STM32F30x_StdPeriph_Driver/src/stm32f30x_iwdg.c ****         (++) Wait for the IWDG registers to be updated using IWDG_GetFlagStatus() function.
  64:../Libraries/STM32F30x_StdPeriph_Driver/src/stm32f30x_iwdg.c ****         (++) reload the IWDG counter at regular intervals during normal operation 
  65:../Libraries/STM32F30x_StdPeriph_Driver/src/stm32f30x_iwdg.c ****              to prevent an MCU reset, using IWDG_ReloadCounter() function.
  66:../Libraries/STM32F30x_StdPeriph_Driver/src/stm32f30x_iwdg.c ****         (++) Start the IWDG using IWDG_Enable() function, when the IWDG is used
  67:../Libraries/STM32F30x_StdPeriph_Driver/src/stm32f30x_iwdg.c ****              in software mode (no need to enable the LSI, it will be enabled
  68:../Libraries/STM32F30x_StdPeriph_Driver/src/stm32f30x_iwdg.c ****              by hardware).    
  69:../Libraries/STM32F30x_StdPeriph_Driver/src/stm32f30x_iwdg.c ****           
  70:../Libraries/STM32F30x_StdPeriph_Driver/src/stm32f30x_iwdg.c ****   @endverbatim
  71:../Libraries/STM32F30x_StdPeriph_Driver/src/stm32f30x_iwdg.c ****     
  72:../Libraries/STM32F30x_StdPeriph_Driver/src/stm32f30x_iwdg.c ****   ******************************************************************************
  73:../Libraries/STM32F30x_StdPeriph_Driver/src/stm32f30x_iwdg.c ****   * @attention
  74:../Libraries/STM32F30x_StdPeriph_Driver/src/stm32f30x_iwdg.c ****   *
  75:../Libraries/STM32F30x_StdPeriph_Driver/src/stm32f30x_iwdg.c ****   * <h2><center>&copy; COPYRIGHT 2012 STMicroelectronics</center></h2>
  76:../Libraries/STM32F30x_StdPeriph_Driver/src/stm32f30x_iwdg.c ****   *
  77:../Libraries/STM32F30x_StdPeriph_Driver/src/stm32f30x_iwdg.c ****   * Licensed under MCD-ST Liberty SW License Agreement V2, (the "License");
  78:../Libraries/STM32F30x_StdPeriph_Driver/src/stm32f30x_iwdg.c ****   * You may not use this file except in compliance with the License.
  79:../Libraries/STM32F30x_StdPeriph_Driver/src/stm32f30x_iwdg.c ****   * You may obtain a copy of the License at:
  80:../Libraries/STM32F30x_StdPeriph_Driver/src/stm32f30x_iwdg.c ****   *
  81:../Libraries/STM32F30x_StdPeriph_Driver/src/stm32f30x_iwdg.c ****   *        http://www.st.com/software_license_agreement_liberty_v2
  82:../Libraries/STM32F30x_StdPeriph_Driver/src/stm32f30x_iwdg.c ****   *
  83:../Libraries/STM32F30x_StdPeriph_Driver/src/stm32f30x_iwdg.c ****   * Unless required by applicable law or agreed to in writing, software 
  84:../Libraries/STM32F30x_StdPeriph_Driver/src/stm32f30x_iwdg.c ****   * distributed under the License is distributed on an "AS IS" BASIS, 
  85:../Libraries/STM32F30x_StdPeriph_Driver/src/stm32f30x_iwdg.c ****   * WITHOUT WARRANTIES OR CONDITIONS OF ANY KIND, either express or implied.
  86:../Libraries/STM32F30x_StdPeriph_Driver/src/stm32f30x_iwdg.c ****   * See the License for the specific language governing permissions and
  87:../Libraries/STM32F30x_StdPeriph_Driver/src/stm32f30x_iwdg.c ****   * limitations under the License.
  88:../Libraries/STM32F30x_StdPeriph_Driver/src/stm32f30x_iwdg.c ****   *
  89:../Libraries/STM32F30x_StdPeriph_Driver/src/stm32f30x_iwdg.c ****   ******************************************************************************
  90:../Libraries/STM32F30x_StdPeriph_Driver/src/stm32f30x_iwdg.c ****   */
  91:../Libraries/STM32F30x_StdPeriph_Driver/src/stm32f30x_iwdg.c **** 
  92:../Libraries/STM32F30x_StdPeriph_Driver/src/stm32f30x_iwdg.c **** /* Includes ------------------------------------------------------------------*/
  93:../Libraries/STM32F30x_StdPeriph_Driver/src/stm32f30x_iwdg.c **** #include "stm32f30x_iwdg.h"
  94:../Libraries/STM32F30x_StdPeriph_Driver/src/stm32f30x_iwdg.c **** 
  95:../Libraries/STM32F30x_StdPeriph_Driver/src/stm32f30x_iwdg.c **** /** @addtogroup STM32F30x_StdPeriph_Driver
  96:../Libraries/STM32F30x_StdPeriph_Driver/src/stm32f30x_iwdg.c ****   * @{
  97:../Libraries/STM32F30x_StdPeriph_Driver/src/stm32f30x_iwdg.c ****   */
  98:../Libraries/STM32F30x_StdPeriph_Driver/src/stm32f30x_iwdg.c **** 
  99:../Libraries/STM32F30x_StdPeriph_Driver/src/stm32f30x_iwdg.c **** /** @defgroup IWDG 
 100:../Libraries/STM32F30x_StdPeriph_Driver/src/stm32f30x_iwdg.c ****   * @brief IWDG driver modules
 101:../Libraries/STM32F30x_StdPeriph_Driver/src/stm32f30x_iwdg.c ****   * @{
 102:../Libraries/STM32F30x_StdPeriph_Driver/src/stm32f30x_iwdg.c ****   */ 
 103:../Libraries/STM32F30x_StdPeriph_Driver/src/stm32f30x_iwdg.c **** 
 104:../Libraries/STM32F30x_StdPeriph_Driver/src/stm32f30x_iwdg.c **** /* Private typedef -----------------------------------------------------------*/
 105:../Libraries/STM32F30x_StdPeriph_Driver/src/stm32f30x_iwdg.c **** /* Private define ------------------------------------------------------------*/
 106:../Libraries/STM32F30x_StdPeriph_Driver/src/stm32f30x_iwdg.c **** /* ---------------------- IWDG registers bit mask ----------------------------*/
 107:../Libraries/STM32F30x_StdPeriph_Driver/src/stm32f30x_iwdg.c **** /* KR register bit mask */
 108:../Libraries/STM32F30x_StdPeriph_Driver/src/stm32f30x_iwdg.c **** #define KR_KEY_RELOAD    ((uint16_t)0xAAAA)
 109:../Libraries/STM32F30x_StdPeriph_Driver/src/stm32f30x_iwdg.c **** #define KR_KEY_ENABLE    ((uint16_t)0xCCCC)
 110:../Libraries/STM32F30x_StdPeriph_Driver/src/stm32f30x_iwdg.c **** 
 111:../Libraries/STM32F30x_StdPeriph_Driver/src/stm32f30x_iwdg.c **** /* Private macro -------------------------------------------------------------*/
 112:../Libraries/STM32F30x_StdPeriph_Driver/src/stm32f30x_iwdg.c **** /* Private variables ---------------------------------------------------------*/
 113:../Libraries/STM32F30x_StdPeriph_Driver/src/stm32f30x_iwdg.c **** /* Private function prototypes -----------------------------------------------*/
 114:../Libraries/STM32F30x_StdPeriph_Driver/src/stm32f30x_iwdg.c **** /* Private functions ---------------------------------------------------------*/
 115:../Libraries/STM32F30x_StdPeriph_Driver/src/stm32f30x_iwdg.c **** 
 116:../Libraries/STM32F30x_StdPeriph_Driver/src/stm32f30x_iwdg.c **** /** @defgroup IWDG_Private_Functions
 117:../Libraries/STM32F30x_StdPeriph_Driver/src/stm32f30x_iwdg.c ****   * @{
 118:../Libraries/STM32F30x_StdPeriph_Driver/src/stm32f30x_iwdg.c ****   */
 119:../Libraries/STM32F30x_StdPeriph_Driver/src/stm32f30x_iwdg.c **** 
 120:../Libraries/STM32F30x_StdPeriph_Driver/src/stm32f30x_iwdg.c **** /** @defgroup IWDG_Group1 Prescaler and Counter configuration functions
 121:../Libraries/STM32F30x_StdPeriph_Driver/src/stm32f30x_iwdg.c ****  *  @brief   Prescaler and Counter configuration functions
 122:../Libraries/STM32F30x_StdPeriph_Driver/src/stm32f30x_iwdg.c ****  *
 123:../Libraries/STM32F30x_StdPeriph_Driver/src/stm32f30x_iwdg.c **** @verbatim   
 124:../Libraries/STM32F30x_StdPeriph_Driver/src/stm32f30x_iwdg.c ****  ===============================================================================
 125:../Libraries/STM32F30x_StdPeriph_Driver/src/stm32f30x_iwdg.c ****             ##### Prescaler and Counter configuration functions #####
 126:../Libraries/STM32F30x_StdPeriph_Driver/src/stm32f30x_iwdg.c ****  ===============================================================================  
 127:../Libraries/STM32F30x_StdPeriph_Driver/src/stm32f30x_iwdg.c **** 
 128:../Libraries/STM32F30x_StdPeriph_Driver/src/stm32f30x_iwdg.c **** @endverbatim
 129:../Libraries/STM32F30x_StdPeriph_Driver/src/stm32f30x_iwdg.c ****   * @{
 130:../Libraries/STM32F30x_StdPeriph_Driver/src/stm32f30x_iwdg.c ****   */
 131:../Libraries/STM32F30x_StdPeriph_Driver/src/stm32f30x_iwdg.c **** 
 132:../Libraries/STM32F30x_StdPeriph_Driver/src/stm32f30x_iwdg.c **** /**
 133:../Libraries/STM32F30x_StdPeriph_Driver/src/stm32f30x_iwdg.c ****   * @brief  Enables or disables write access to IWDG_PR and IWDG_RLR registers.
 134:../Libraries/STM32F30x_StdPeriph_Driver/src/stm32f30x_iwdg.c ****   * @param  IWDG_WriteAccess: new state of write access to IWDG_PR and IWDG_RLR registers.
 135:../Libraries/STM32F30x_StdPeriph_Driver/src/stm32f30x_iwdg.c ****   *   This parameter can be one of the following values:
 136:../Libraries/STM32F30x_StdPeriph_Driver/src/stm32f30x_iwdg.c ****   *     @arg IWDG_WriteAccess_Enable: Enable write access to IWDG_PR and IWDG_RLR registers
 137:../Libraries/STM32F30x_StdPeriph_Driver/src/stm32f30x_iwdg.c ****   *     @arg IWDG_WriteAccess_Disable: Disable write access to IWDG_PR and IWDG_RLR registers
 138:../Libraries/STM32F30x_StdPeriph_Driver/src/stm32f30x_iwdg.c ****   * @retval None
 139:../Libraries/STM32F30x_StdPeriph_Driver/src/stm32f30x_iwdg.c ****   */
 140:../Libraries/STM32F30x_StdPeriph_Driver/src/stm32f30x_iwdg.c **** void IWDG_WriteAccessCmd(uint16_t IWDG_WriteAccess)
 141:../Libraries/STM32F30x_StdPeriph_Driver/src/stm32f30x_iwdg.c **** {
  27              		.loc 1 141 0
  28              		.cfi_startproc
  29              		@ args = 0, pretend = 0, frame = 8
  30              		@ frame_needed = 0, uses_anonymous_args = 0
  31              		@ link register save eliminated.
  32 0000 82B0     		sub	sp, sp, #8
  33              	.LCFI0:
  34              		.cfi_def_cfa_offset 8
  35 0002 0346     		mov	r3, r0
  36 0004 ADF80630 		strh	r3, [sp, #6]	@ movhi
 142:../Libraries/STM32F30x_StdPeriph_Driver/src/stm32f30x_iwdg.c ****   /* Check the parameters */
 143:../Libraries/STM32F30x_StdPeriph_Driver/src/stm32f30x_iwdg.c ****   assert_param(IS_IWDG_WRITE_ACCESS(IWDG_WriteAccess));
 144:../Libraries/STM32F30x_StdPeriph_Driver/src/stm32f30x_iwdg.c ****   IWDG->KR = IWDG_WriteAccess;
  37              		.loc 1 144 0
  38 0008 4FF44053 		mov	r3, #12288
  39 000c C4F20003 		movt	r3, 16384
  40 0010 BDF80620 		ldrh	r2, [sp, #6]
  41 0014 1A60     		str	r2, [r3, #0]
 145:../Libraries/STM32F30x_StdPeriph_Driver/src/stm32f30x_iwdg.c **** }
  42              		.loc 1 145 0
  43 0016 02B0     		add	sp, sp, #8
  44 0018 7047     		bx	lr
  45              		.cfi_endproc
  46              	.LFE111:
  48 001a 00BF     		.align	2
  49              		.global	IWDG_SetPrescaler
  50              		.thumb
  51              		.thumb_func
  53              	IWDG_SetPrescaler:
  54              	.LFB112:
 146:../Libraries/STM32F30x_StdPeriph_Driver/src/stm32f30x_iwdg.c **** 
 147:../Libraries/STM32F30x_StdPeriph_Driver/src/stm32f30x_iwdg.c **** /**
 148:../Libraries/STM32F30x_StdPeriph_Driver/src/stm32f30x_iwdg.c ****   * @brief  Sets IWDG Prescaler value.
 149:../Libraries/STM32F30x_StdPeriph_Driver/src/stm32f30x_iwdg.c ****   * @param  IWDG_Prescaler: specifies the IWDG Prescaler value.
 150:../Libraries/STM32F30x_StdPeriph_Driver/src/stm32f30x_iwdg.c ****   *   This parameter can be one of the following values:
 151:../Libraries/STM32F30x_StdPeriph_Driver/src/stm32f30x_iwdg.c ****   *     @arg IWDG_Prescaler_4: IWDG prescaler set to 4
 152:../Libraries/STM32F30x_StdPeriph_Driver/src/stm32f30x_iwdg.c ****   *     @arg IWDG_Prescaler_8: IWDG prescaler set to 8
 153:../Libraries/STM32F30x_StdPeriph_Driver/src/stm32f30x_iwdg.c ****   *     @arg IWDG_Prescaler_16: IWDG prescaler set to 16
 154:../Libraries/STM32F30x_StdPeriph_Driver/src/stm32f30x_iwdg.c ****   *     @arg IWDG_Prescaler_32: IWDG prescaler set to 32
 155:../Libraries/STM32F30x_StdPeriph_Driver/src/stm32f30x_iwdg.c ****   *     @arg IWDG_Prescaler_64: IWDG prescaler set to 64
 156:../Libraries/STM32F30x_StdPeriph_Driver/src/stm32f30x_iwdg.c ****   *     @arg IWDG_Prescaler_128: IWDG prescaler set to 128
 157:../Libraries/STM32F30x_StdPeriph_Driver/src/stm32f30x_iwdg.c ****   *     @arg IWDG_Prescaler_256: IWDG prescaler set to 256
 158:../Libraries/STM32F30x_StdPeriph_Driver/src/stm32f30x_iwdg.c ****   * @retval None
 159:../Libraries/STM32F30x_StdPeriph_Driver/src/stm32f30x_iwdg.c ****   */
 160:../Libraries/STM32F30x_StdPeriph_Driver/src/stm32f30x_iwdg.c **** void IWDG_SetPrescaler(uint8_t IWDG_Prescaler)
 161:../Libraries/STM32F30x_StdPeriph_Driver/src/stm32f30x_iwdg.c **** {
  55              		.loc 1 161 0
  56              		.cfi_startproc
  57              		@ args = 0, pretend = 0, frame = 8
  58              		@ frame_needed = 0, uses_anonymous_args = 0
  59              		@ link register save eliminated.
  60 001c 82B0     		sub	sp, sp, #8
  61              	.LCFI1:
  62              		.cfi_def_cfa_offset 8
  63 001e 0346     		mov	r3, r0
  64 0020 8DF80730 		strb	r3, [sp, #7]
 162:../Libraries/STM32F30x_StdPeriph_Driver/src/stm32f30x_iwdg.c ****   /* Check the parameters */
 163:../Libraries/STM32F30x_StdPeriph_Driver/src/stm32f30x_iwdg.c ****   assert_param(IS_IWDG_PRESCALER(IWDG_Prescaler));
 164:../Libraries/STM32F30x_StdPeriph_Driver/src/stm32f30x_iwdg.c ****   IWDG->PR = IWDG_Prescaler;
  65              		.loc 1 164 0
  66 0024 4FF44053 		mov	r3, #12288
  67 0028 C4F20003 		movt	r3, 16384
  68 002c 9DF80720 		ldrb	r2, [sp, #7]	@ zero_extendqisi2
  69 0030 5A60     		str	r2, [r3, #4]
 165:../Libraries/STM32F30x_StdPeriph_Driver/src/stm32f30x_iwdg.c **** }
  70              		.loc 1 165 0
  71 0032 02B0     		add	sp, sp, #8
  72 0034 7047     		bx	lr
  73              		.cfi_endproc
  74              	.LFE112:
  76 0036 00BF     		.align	2
  77              		.global	IWDG_SetReload
  78              		.thumb
  79              		.thumb_func
  81              	IWDG_SetReload:
  82              	.LFB113:
 166:../Libraries/STM32F30x_StdPeriph_Driver/src/stm32f30x_iwdg.c **** 
 167:../Libraries/STM32F30x_StdPeriph_Driver/src/stm32f30x_iwdg.c **** /**
 168:../Libraries/STM32F30x_StdPeriph_Driver/src/stm32f30x_iwdg.c ****   * @brief  Sets IWDG Reload value.
 169:../Libraries/STM32F30x_StdPeriph_Driver/src/stm32f30x_iwdg.c ****   * @param  Reload: specifies the IWDG Reload value.
 170:../Libraries/STM32F30x_StdPeriph_Driver/src/stm32f30x_iwdg.c ****   *   This parameter must be a number between 0 and 0x0FFF.
 171:../Libraries/STM32F30x_StdPeriph_Driver/src/stm32f30x_iwdg.c ****   * @retval None
 172:../Libraries/STM32F30x_StdPeriph_Driver/src/stm32f30x_iwdg.c ****   */
 173:../Libraries/STM32F30x_StdPeriph_Driver/src/stm32f30x_iwdg.c **** void IWDG_SetReload(uint16_t Reload)
 174:../Libraries/STM32F30x_StdPeriph_Driver/src/stm32f30x_iwdg.c **** {
  83              		.loc 1 174 0
  84              		.cfi_startproc
  85              		@ args = 0, pretend = 0, frame = 8
  86              		@ frame_needed = 0, uses_anonymous_args = 0
  87              		@ link register save eliminated.
  88 0038 82B0     		sub	sp, sp, #8
  89              	.LCFI2:
  90              		.cfi_def_cfa_offset 8
  91 003a 0346     		mov	r3, r0
  92 003c ADF80630 		strh	r3, [sp, #6]	@ movhi
 175:../Libraries/STM32F30x_StdPeriph_Driver/src/stm32f30x_iwdg.c ****   /* Check the parameters */
 176:../Libraries/STM32F30x_StdPeriph_Driver/src/stm32f30x_iwdg.c ****   assert_param(IS_IWDG_RELOAD(Reload));
 177:../Libraries/STM32F30x_StdPeriph_Driver/src/stm32f30x_iwdg.c ****   IWDG->RLR = Reload;
  93              		.loc 1 177 0
  94 0040 4FF44053 		mov	r3, #12288
  95 0044 C4F20003 		movt	r3, 16384
  96 0048 BDF80620 		ldrh	r2, [sp, #6]
  97 004c 9A60     		str	r2, [r3, #8]
 178:../Libraries/STM32F30x_StdPeriph_Driver/src/stm32f30x_iwdg.c **** }
  98              		.loc 1 178 0
  99 004e 02B0     		add	sp, sp, #8
 100 0050 7047     		bx	lr
 101              		.cfi_endproc
 102              	.LFE113:
 104 0052 00BF     		.align	2
 105              		.global	IWDG_ReloadCounter
 106              		.thumb
 107              		.thumb_func
 109              	IWDG_ReloadCounter:
 110              	.LFB114:
 179:../Libraries/STM32F30x_StdPeriph_Driver/src/stm32f30x_iwdg.c **** 
 180:../Libraries/STM32F30x_StdPeriph_Driver/src/stm32f30x_iwdg.c **** /**
 181:../Libraries/STM32F30x_StdPeriph_Driver/src/stm32f30x_iwdg.c ****   * @brief  Reloads IWDG counter with value defined in the reload register
 182:../Libraries/STM32F30x_StdPeriph_Driver/src/stm32f30x_iwdg.c ****   *   (write access to IWDG_PR and IWDG_RLR registers disabled).
 183:../Libraries/STM32F30x_StdPeriph_Driver/src/stm32f30x_iwdg.c ****   * @param  None
 184:../Libraries/STM32F30x_StdPeriph_Driver/src/stm32f30x_iwdg.c ****   * @retval None
 185:../Libraries/STM32F30x_StdPeriph_Driver/src/stm32f30x_iwdg.c ****   */
 186:../Libraries/STM32F30x_StdPeriph_Driver/src/stm32f30x_iwdg.c **** void IWDG_ReloadCounter(void)
 187:../Libraries/STM32F30x_StdPeriph_Driver/src/stm32f30x_iwdg.c **** {
 111              		.loc 1 187 0
 112              		.cfi_startproc
 113              		@ args = 0, pretend = 0, frame = 0
 114              		@ frame_needed = 0, uses_anonymous_args = 0
 115              		@ link register save eliminated.
 188:../Libraries/STM32F30x_StdPeriph_Driver/src/stm32f30x_iwdg.c ****   IWDG->KR = KR_KEY_RELOAD;
 116              		.loc 1 188 0
 117 0054 4FF44053 		mov	r3, #12288
 118 0058 C4F20003 		movt	r3, 16384
 119 005c 4AF6AA22 		movw	r2, #43690
 120 0060 1A60     		str	r2, [r3, #0]
 189:../Libraries/STM32F30x_StdPeriph_Driver/src/stm32f30x_iwdg.c **** }
 121              		.loc 1 189 0
 122 0062 7047     		bx	lr
 123              		.cfi_endproc
 124              	.LFE114:
 126              		.align	2
 127              		.global	IWDG_SetWindowValue
 128              		.thumb
 129              		.thumb_func
 131              	IWDG_SetWindowValue:
 132              	.LFB115:
 190:../Libraries/STM32F30x_StdPeriph_Driver/src/stm32f30x_iwdg.c **** 
 191:../Libraries/STM32F30x_StdPeriph_Driver/src/stm32f30x_iwdg.c **** 
 192:../Libraries/STM32F30x_StdPeriph_Driver/src/stm32f30x_iwdg.c **** /**
 193:../Libraries/STM32F30x_StdPeriph_Driver/src/stm32f30x_iwdg.c ****   * @brief  Sets the IWDG window value.
 194:../Libraries/STM32F30x_StdPeriph_Driver/src/stm32f30x_iwdg.c ****   * @param  WindowValue: specifies the window value to be compared to the downcounter.
 195:../Libraries/STM32F30x_StdPeriph_Driver/src/stm32f30x_iwdg.c ****   * @retval None
 196:../Libraries/STM32F30x_StdPeriph_Driver/src/stm32f30x_iwdg.c ****   */
 197:../Libraries/STM32F30x_StdPeriph_Driver/src/stm32f30x_iwdg.c **** void IWDG_SetWindowValue(uint16_t WindowValue)
 198:../Libraries/STM32F30x_StdPeriph_Driver/src/stm32f30x_iwdg.c **** {
 133              		.loc 1 198 0
 134              		.cfi_startproc
 135              		@ args = 0, pretend = 0, frame = 8
 136              		@ frame_needed = 0, uses_anonymous_args = 0
 137              		@ link register save eliminated.
 138 0064 82B0     		sub	sp, sp, #8
 139              	.LCFI3:
 140              		.cfi_def_cfa_offset 8
 141 0066 0346     		mov	r3, r0
 142 0068 ADF80630 		strh	r3, [sp, #6]	@ movhi
 199:../Libraries/STM32F30x_StdPeriph_Driver/src/stm32f30x_iwdg.c ****   /* Check the parameters */
 200:../Libraries/STM32F30x_StdPeriph_Driver/src/stm32f30x_iwdg.c ****   assert_param(IS_IWDG_WINDOW_VALUE(WindowValue));
 201:../Libraries/STM32F30x_StdPeriph_Driver/src/stm32f30x_iwdg.c ****   IWDG->WINR = WindowValue;
 143              		.loc 1 201 0
 144 006c 4FF44053 		mov	r3, #12288
 145 0070 C4F20003 		movt	r3, 16384
 146 0074 BDF80620 		ldrh	r2, [sp, #6]
 147 0078 1A61     		str	r2, [r3, #16]
 202:../Libraries/STM32F30x_StdPeriph_Driver/src/stm32f30x_iwdg.c **** }
 148              		.loc 1 202 0
 149 007a 02B0     		add	sp, sp, #8
 150 007c 7047     		bx	lr
 151              		.cfi_endproc
 152              	.LFE115:
 154 007e 00BF     		.align	2
 155              		.global	IWDG_Enable
 156              		.thumb
 157              		.thumb_func
 159              	IWDG_Enable:
 160              	.LFB116:
 203:../Libraries/STM32F30x_StdPeriph_Driver/src/stm32f30x_iwdg.c **** 
 204:../Libraries/STM32F30x_StdPeriph_Driver/src/stm32f30x_iwdg.c **** /**
 205:../Libraries/STM32F30x_StdPeriph_Driver/src/stm32f30x_iwdg.c ****   * @}
 206:../Libraries/STM32F30x_StdPeriph_Driver/src/stm32f30x_iwdg.c ****   */
 207:../Libraries/STM32F30x_StdPeriph_Driver/src/stm32f30x_iwdg.c **** 
 208:../Libraries/STM32F30x_StdPeriph_Driver/src/stm32f30x_iwdg.c **** /** @defgroup IWDG_Group2 IWDG activation function
 209:../Libraries/STM32F30x_StdPeriph_Driver/src/stm32f30x_iwdg.c ****  *  @brief   IWDG activation function 
 210:../Libraries/STM32F30x_StdPeriph_Driver/src/stm32f30x_iwdg.c ****  *
 211:../Libraries/STM32F30x_StdPeriph_Driver/src/stm32f30x_iwdg.c **** @verbatim   
 212:../Libraries/STM32F30x_StdPeriph_Driver/src/stm32f30x_iwdg.c ****  ===============================================================================
 213:../Libraries/STM32F30x_StdPeriph_Driver/src/stm32f30x_iwdg.c ****                     ##### IWDG activation function #####
 214:../Libraries/STM32F30x_StdPeriph_Driver/src/stm32f30x_iwdg.c ****  ===============================================================================  
 215:../Libraries/STM32F30x_StdPeriph_Driver/src/stm32f30x_iwdg.c **** 
 216:../Libraries/STM32F30x_StdPeriph_Driver/src/stm32f30x_iwdg.c **** @endverbatim
 217:../Libraries/STM32F30x_StdPeriph_Driver/src/stm32f30x_iwdg.c ****   * @{
 218:../Libraries/STM32F30x_StdPeriph_Driver/src/stm32f30x_iwdg.c ****   */
 219:../Libraries/STM32F30x_StdPeriph_Driver/src/stm32f30x_iwdg.c **** 
 220:../Libraries/STM32F30x_StdPeriph_Driver/src/stm32f30x_iwdg.c **** /**
 221:../Libraries/STM32F30x_StdPeriph_Driver/src/stm32f30x_iwdg.c ****   * @brief  Enables IWDG (write access to IWDG_PR and IWDG_RLR registers disabled).
 222:../Libraries/STM32F30x_StdPeriph_Driver/src/stm32f30x_iwdg.c ****   * @param  None
 223:../Libraries/STM32F30x_StdPeriph_Driver/src/stm32f30x_iwdg.c ****   * @retval None
 224:../Libraries/STM32F30x_StdPeriph_Driver/src/stm32f30x_iwdg.c ****   */
 225:../Libraries/STM32F30x_StdPeriph_Driver/src/stm32f30x_iwdg.c **** void IWDG_Enable(void)
 226:../Libraries/STM32F30x_StdPeriph_Driver/src/stm32f30x_iwdg.c **** {
 161              		.loc 1 226 0
 162              		.cfi_startproc
 163              		@ args = 0, pretend = 0, frame = 0
 164              		@ frame_needed = 0, uses_anonymous_args = 0
 165              		@ link register save eliminated.
 227:../Libraries/STM32F30x_StdPeriph_Driver/src/stm32f30x_iwdg.c ****   IWDG->KR = KR_KEY_ENABLE;
 166              		.loc 1 227 0
 167 0080 4FF44053 		mov	r3, #12288
 168 0084 C4F20003 		movt	r3, 16384
 169 0088 4CF6CC42 		movw	r2, #52428
 170 008c 1A60     		str	r2, [r3, #0]
 228:../Libraries/STM32F30x_StdPeriph_Driver/src/stm32f30x_iwdg.c **** }
 171              		.loc 1 228 0
 172 008e 7047     		bx	lr
 173              		.cfi_endproc
 174              	.LFE116:
 176              		.align	2
 177              		.global	IWDG_GetFlagStatus
 178              		.thumb
 179              		.thumb_func
 181              	IWDG_GetFlagStatus:
 182              	.LFB117:
 229:../Libraries/STM32F30x_StdPeriph_Driver/src/stm32f30x_iwdg.c **** 
 230:../Libraries/STM32F30x_StdPeriph_Driver/src/stm32f30x_iwdg.c **** /**
 231:../Libraries/STM32F30x_StdPeriph_Driver/src/stm32f30x_iwdg.c ****   * @}
 232:../Libraries/STM32F30x_StdPeriph_Driver/src/stm32f30x_iwdg.c ****   */
 233:../Libraries/STM32F30x_StdPeriph_Driver/src/stm32f30x_iwdg.c **** 
 234:../Libraries/STM32F30x_StdPeriph_Driver/src/stm32f30x_iwdg.c **** /** @defgroup IWDG_Group3 Flag management function 
 235:../Libraries/STM32F30x_StdPeriph_Driver/src/stm32f30x_iwdg.c ****  *  @brief  Flag management function  
 236:../Libraries/STM32F30x_StdPeriph_Driver/src/stm32f30x_iwdg.c ****  *
 237:../Libraries/STM32F30x_StdPeriph_Driver/src/stm32f30x_iwdg.c **** @verbatim   
 238:../Libraries/STM32F30x_StdPeriph_Driver/src/stm32f30x_iwdg.c ****  ===============================================================================
 239:../Libraries/STM32F30x_StdPeriph_Driver/src/stm32f30x_iwdg.c ****                      ##### Flag management function ##### 
 240:../Libraries/STM32F30x_StdPeriph_Driver/src/stm32f30x_iwdg.c ****  ===============================================================================  
 241:../Libraries/STM32F30x_StdPeriph_Driver/src/stm32f30x_iwdg.c **** 
 242:../Libraries/STM32F30x_StdPeriph_Driver/src/stm32f30x_iwdg.c **** @endverbatim
 243:../Libraries/STM32F30x_StdPeriph_Driver/src/stm32f30x_iwdg.c ****   * @{
 244:../Libraries/STM32F30x_StdPeriph_Driver/src/stm32f30x_iwdg.c ****   */
 245:../Libraries/STM32F30x_StdPeriph_Driver/src/stm32f30x_iwdg.c **** 
 246:../Libraries/STM32F30x_StdPeriph_Driver/src/stm32f30x_iwdg.c **** /**
 247:../Libraries/STM32F30x_StdPeriph_Driver/src/stm32f30x_iwdg.c ****   * @brief  Checks whether the specified IWDG flag is set or not.
 248:../Libraries/STM32F30x_StdPeriph_Driver/src/stm32f30x_iwdg.c ****   * @param  IWDG_FLAG: specifies the flag to check.
 249:../Libraries/STM32F30x_StdPeriph_Driver/src/stm32f30x_iwdg.c ****   *   This parameter can be one of the following values:
 250:../Libraries/STM32F30x_StdPeriph_Driver/src/stm32f30x_iwdg.c ****   *     @arg IWDG_FLAG_PVU: Prescaler Value Update on going
 251:../Libraries/STM32F30x_StdPeriph_Driver/src/stm32f30x_iwdg.c ****   *     @arg IWDG_FLAG_RVU: Reload Value Update on going
 252:../Libraries/STM32F30x_StdPeriph_Driver/src/stm32f30x_iwdg.c ****   *     @arg IWDG_FLAG_WVU: Counter Window Value Update on going
 253:../Libraries/STM32F30x_StdPeriph_Driver/src/stm32f30x_iwdg.c ****   * @retval The new state of IWDG_FLAG (SET or RESET).
 254:../Libraries/STM32F30x_StdPeriph_Driver/src/stm32f30x_iwdg.c ****   */
 255:../Libraries/STM32F30x_StdPeriph_Driver/src/stm32f30x_iwdg.c **** FlagStatus IWDG_GetFlagStatus(uint16_t IWDG_FLAG)
 256:../Libraries/STM32F30x_StdPeriph_Driver/src/stm32f30x_iwdg.c **** {
 183              		.loc 1 256 0
 184              		.cfi_startproc
 185              		@ args = 0, pretend = 0, frame = 16
 186              		@ frame_needed = 0, uses_anonymous_args = 0
 187              		@ link register save eliminated.
 188 0090 84B0     		sub	sp, sp, #16
 189              	.LCFI4:
 190              		.cfi_def_cfa_offset 16
 191 0092 0346     		mov	r3, r0
 192 0094 ADF80630 		strh	r3, [sp, #6]	@ movhi
 257:../Libraries/STM32F30x_StdPeriph_Driver/src/stm32f30x_iwdg.c ****   FlagStatus bitstatus = RESET;
 193              		.loc 1 257 0
 194 0098 4FF00003 		mov	r3, #0
 195 009c 8DF80F30 		strb	r3, [sp, #15]
 258:../Libraries/STM32F30x_StdPeriph_Driver/src/stm32f30x_iwdg.c ****   /* Check the parameters */
 259:../Libraries/STM32F30x_StdPeriph_Driver/src/stm32f30x_iwdg.c ****   assert_param(IS_IWDG_FLAG(IWDG_FLAG));
 260:../Libraries/STM32F30x_StdPeriph_Driver/src/stm32f30x_iwdg.c ****   if ((IWDG->SR & IWDG_FLAG) != (uint32_t)RESET)
 196              		.loc 1 260 0
 197 00a0 4FF44053 		mov	r3, #12288
 198 00a4 C4F20003 		movt	r3, 16384
 199 00a8 DA68     		ldr	r2, [r3, #12]
 200 00aa BDF80630 		ldrh	r3, [sp, #6]
 201 00ae 1340     		ands	r3, r3, r2
 202 00b0 002B     		cmp	r3, #0
 203 00b2 04D0     		beq	.L8
 261:../Libraries/STM32F30x_StdPeriph_Driver/src/stm32f30x_iwdg.c ****   {
 262:../Libraries/STM32F30x_StdPeriph_Driver/src/stm32f30x_iwdg.c ****     bitstatus = SET;
 204              		.loc 1 262 0
 205 00b4 4FF00103 		mov	r3, #1
 206 00b8 8DF80F30 		strb	r3, [sp, #15]
 207 00bc 03E0     		b	.L9
 208              	.L8:
 263:../Libraries/STM32F30x_StdPeriph_Driver/src/stm32f30x_iwdg.c ****   }
 264:../Libraries/STM32F30x_StdPeriph_Driver/src/stm32f30x_iwdg.c ****   else
 265:../Libraries/STM32F30x_StdPeriph_Driver/src/stm32f30x_iwdg.c ****   {
 266:../Libraries/STM32F30x_StdPeriph_Driver/src/stm32f30x_iwdg.c ****     bitstatus = RESET;
 209              		.loc 1 266 0
 210 00be 4FF00003 		mov	r3, #0
 211 00c2 8DF80F30 		strb	r3, [sp, #15]
 212              	.L9:
 267:../Libraries/STM32F30x_StdPeriph_Driver/src/stm32f30x_iwdg.c ****   }
 268:../Libraries/STM32F30x_StdPeriph_Driver/src/stm32f30x_iwdg.c ****   /* Return the flag status */
 269:../Libraries/STM32F30x_StdPeriph_Driver/src/stm32f30x_iwdg.c ****   return bitstatus;
 213              		.loc 1 269 0
 214 00c6 9DF80F30 		ldrb	r3, [sp, #15]	@ zero_extendqisi2
 270:../Libraries/STM32F30x_StdPeriph_Driver/src/stm32f30x_iwdg.c **** }
 215              		.loc 1 270 0
 216 00ca 1846     		mov	r0, r3
 217 00cc 04B0     		add	sp, sp, #16
 218 00ce 7047     		bx	lr
 219              		.cfi_endproc
 220              	.LFE117:
 222              	.Letext0:
 223              		.file 2 "c:\\program files\\codesourcery\\sourcery_codebench_lite_for_arm_eabi\\bin\\../lib/gcc/ar
 224              		.file 3 "D:\\Documents and Settings\\e722209\\Desktop\\workspace\\aq32Plus_F3\\Libraries\\Device\\
 225              		.file 4 "D:\\Documents and Settings\\e722209\\Desktop\\workspace\\aq32Plus_F3\\Libraries\\CMSIS\\I