   1              		.syntax unified
   2              		.cpu cortex-m4
   3              		.eabi_attribute 27, 3
   4              		.fpu fpv4-sp-d16
   5              		.eabi_attribute 20, 1
   6              		.eabi_attribute 21, 1
   7              		.eabi_attribute 23, 3
   8              		.eabi_attribute 24, 1
   9              		.eabi_attribute 25, 1
  10              		.eabi_attribute 26, 1
  11              		.eabi_attribute 30, 6
  12              		.eabi_attribute 34, 1
  13              		.eabi_attribute 18, 4
  14              		.thumb
  15              		.file	"stm32f30x_tim.c"
  16              		.text
  17              	.Ltext0:
  18              		.cfi_sections	.debug_frame
  19              		.align	2
  20              		.global	TIM_DeInit
  21              		.thumb
  22              		.thumb_func
  24              	TIM_DeInit:
  25              	.LFB111:
  26              		.file 1 "../Libraries/STM32F30x_StdPeriph_Driver/src/stm32f30x_tim.c"
   1:../Libraries/STM32F30x_StdPeriph_Driver/src/stm32f30x_tim.c **** /**
   2:../Libraries/STM32F30x_StdPeriph_Driver/src/stm32f30x_tim.c ****   ******************************************************************************
   3:../Libraries/STM32F30x_StdPeriph_Driver/src/stm32f30x_tim.c ****   * @file    stm32f30x_tim.c
   4:../Libraries/STM32F30x_StdPeriph_Driver/src/stm32f30x_tim.c ****   * @author  MCD Application Team
   5:../Libraries/STM32F30x_StdPeriph_Driver/src/stm32f30x_tim.c ****   * @version V1.0.1
   6:../Libraries/STM32F30x_StdPeriph_Driver/src/stm32f30x_tim.c ****   * @date    23-October-2012
   7:../Libraries/STM32F30x_StdPeriph_Driver/src/stm32f30x_tim.c ****   * @brief   This file provides firmware functions to manage the following 
   8:../Libraries/STM32F30x_StdPeriph_Driver/src/stm32f30x_tim.c ****   *          functionalities of the TIM peripheral:
   9:../Libraries/STM32F30x_StdPeriph_Driver/src/stm32f30x_tim.c ****   *            + TimeBase management
  10:../Libraries/STM32F30x_StdPeriph_Driver/src/stm32f30x_tim.c ****   *            + Output Compare management
  11:../Libraries/STM32F30x_StdPeriph_Driver/src/stm32f30x_tim.c ****   *            + Input Capture management
  12:../Libraries/STM32F30x_StdPeriph_Driver/src/stm32f30x_tim.c ****   *            + Advanced-control timers (TIM1 and TIM8) specific features  
  13:../Libraries/STM32F30x_StdPeriph_Driver/src/stm32f30x_tim.c ****   *            + Interrupts, DMA and flags management
  14:../Libraries/STM32F30x_StdPeriph_Driver/src/stm32f30x_tim.c ****   *            + Clocks management
  15:../Libraries/STM32F30x_StdPeriph_Driver/src/stm32f30x_tim.c ****   *            + Synchronization management
  16:../Libraries/STM32F30x_StdPeriph_Driver/src/stm32f30x_tim.c ****   *            + Specific interface management
  17:../Libraries/STM32F30x_StdPeriph_Driver/src/stm32f30x_tim.c ****   *            + Specific remapping management      
  18:../Libraries/STM32F30x_StdPeriph_Driver/src/stm32f30x_tim.c ****   *              
  19:../Libraries/STM32F30x_StdPeriph_Driver/src/stm32f30x_tim.c ****   @verbatim
  20:../Libraries/STM32F30x_StdPeriph_Driver/src/stm32f30x_tim.c ****     
  21:../Libraries/STM32F30x_StdPeriph_Driver/src/stm32f30x_tim.c ****   ==============================================================================
  22:../Libraries/STM32F30x_StdPeriph_Driver/src/stm32f30x_tim.c ****                        ##### How to use this driver #####
  23:../Libraries/STM32F30x_StdPeriph_Driver/src/stm32f30x_tim.c ****   ==============================================================================
  24:../Libraries/STM32F30x_StdPeriph_Driver/src/stm32f30x_tim.c ****    [..] This driver provides functions to configure and program the TIM 
  25:../Libraries/STM32F30x_StdPeriph_Driver/src/stm32f30x_tim.c ****         of all stm32f30x devices.
  26:../Libraries/STM32F30x_StdPeriph_Driver/src/stm32f30x_tim.c ****         These functions are split in 9 groups: 
  27:../Libraries/STM32F30x_StdPeriph_Driver/src/stm32f30x_tim.c ****      
  28:../Libraries/STM32F30x_StdPeriph_Driver/src/stm32f30x_tim.c ****         (#) TIM TimeBase management: this group includes all needed functions 
  29:../Libraries/STM32F30x_StdPeriph_Driver/src/stm32f30x_tim.c ****             to configure the TM Timebase unit:
  30:../Libraries/STM32F30x_StdPeriph_Driver/src/stm32f30x_tim.c ****                  (++) Set/Get Prescaler
  31:../Libraries/STM32F30x_StdPeriph_Driver/src/stm32f30x_tim.c ****                  (++) Set/Get Autoreload  
  32:../Libraries/STM32F30x_StdPeriph_Driver/src/stm32f30x_tim.c ****                  (++) Counter modes configuration
  33:../Libraries/STM32F30x_StdPeriph_Driver/src/stm32f30x_tim.c ****                  (++) Set Clock division  
  34:../Libraries/STM32F30x_StdPeriph_Driver/src/stm32f30x_tim.c ****                  (++) Select the One Pulse mode
  35:../Libraries/STM32F30x_StdPeriph_Driver/src/stm32f30x_tim.c ****                  (++) Update Request Configuration
  36:../Libraries/STM32F30x_StdPeriph_Driver/src/stm32f30x_tim.c ****                  (++) Update Disable Configuration
  37:../Libraries/STM32F30x_StdPeriph_Driver/src/stm32f30x_tim.c ****                  (++) Auto-Preload Configuration 
  38:../Libraries/STM32F30x_StdPeriph_Driver/src/stm32f30x_tim.c ****                  (++) Enable/Disable the counter     
  39:../Libraries/STM32F30x_StdPeriph_Driver/src/stm32f30x_tim.c ****                    
  40:../Libraries/STM32F30x_StdPeriph_Driver/src/stm32f30x_tim.c ****        (#) TIM Output Compare management: this group includes all needed 
  41:../Libraries/STM32F30x_StdPeriph_Driver/src/stm32f30x_tim.c ****            functions to configure the Capture/Compare unit used in Output 
  42:../Libraries/STM32F30x_StdPeriph_Driver/src/stm32f30x_tim.c ****            compare mode: 
  43:../Libraries/STM32F30x_StdPeriph_Driver/src/stm32f30x_tim.c ****                  (++) Configure each channel, independently, in Output Compare mode
  44:../Libraries/STM32F30x_StdPeriph_Driver/src/stm32f30x_tim.c ****                  (++) Select the output compare modes
  45:../Libraries/STM32F30x_StdPeriph_Driver/src/stm32f30x_tim.c ****                  (++) Select the Polarities of each channel
  46:../Libraries/STM32F30x_StdPeriph_Driver/src/stm32f30x_tim.c ****                  (++) Set/Get the Capture/Compare register values
  47:../Libraries/STM32F30x_StdPeriph_Driver/src/stm32f30x_tim.c ****                  (++) Select the Output Compare Fast mode 
  48:../Libraries/STM32F30x_StdPeriph_Driver/src/stm32f30x_tim.c ****                  (++) Select the Output Compare Forced mode  
  49:../Libraries/STM32F30x_StdPeriph_Driver/src/stm32f30x_tim.c ****                  (++) Output Compare-Preload Configuration 
  50:../Libraries/STM32F30x_StdPeriph_Driver/src/stm32f30x_tim.c ****                  (++) Clear Output Compare Reference
  51:../Libraries/STM32F30x_StdPeriph_Driver/src/stm32f30x_tim.c ****                  (++) Select the OCREF Clear signal
  52:../Libraries/STM32F30x_StdPeriph_Driver/src/stm32f30x_tim.c ****                  (++) Enable/Disable the Capture/Compare Channels    
  53:../Libraries/STM32F30x_StdPeriph_Driver/src/stm32f30x_tim.c ****                     
  54:../Libraries/STM32F30x_StdPeriph_Driver/src/stm32f30x_tim.c ****         (#) TIM Input Capture management: this group includes all needed 
  55:../Libraries/STM32F30x_StdPeriph_Driver/src/stm32f30x_tim.c ****             functions to configure the Capture/Compare unit used in 
  56:../Libraries/STM32F30x_StdPeriph_Driver/src/stm32f30x_tim.c ****             Input Capture mode:
  57:../Libraries/STM32F30x_StdPeriph_Driver/src/stm32f30x_tim.c ****                  (++) Configure each channel in input capture mode
  58:../Libraries/STM32F30x_StdPeriph_Driver/src/stm32f30x_tim.c ****                  (++) Configure Channel1/2 in PWM Input mode
  59:../Libraries/STM32F30x_StdPeriph_Driver/src/stm32f30x_tim.c ****                  (++) Set the Input Capture Prescaler
  60:../Libraries/STM32F30x_StdPeriph_Driver/src/stm32f30x_tim.c ****                  (++) Get the Capture/Compare values      
  61:../Libraries/STM32F30x_StdPeriph_Driver/src/stm32f30x_tim.c ****                      
  62:../Libraries/STM32F30x_StdPeriph_Driver/src/stm32f30x_tim.c ****         (#) Advanced-control timers (TIM1 and TIM8) specific features
  63:../Libraries/STM32F30x_StdPeriph_Driver/src/stm32f30x_tim.c ****                  (++) Configures the Break input, dead time, Lock level, the OSSI,
  64:../Libraries/STM32F30x_StdPeriph_Driver/src/stm32f30x_tim.c ****                       the OSSR State and the AOE(automatic output enable)
  65:../Libraries/STM32F30x_StdPeriph_Driver/src/stm32f30x_tim.c ****                  (++) Enable/Disable the TIM peripheral Main Outputs
  66:../Libraries/STM32F30x_StdPeriph_Driver/src/stm32f30x_tim.c ****                  (++) Select the Commutation event
  67:../Libraries/STM32F30x_StdPeriph_Driver/src/stm32f30x_tim.c ****                  (++) Set/Reset the Capture Compare Preload Control bit
  68:../Libraries/STM32F30x_StdPeriph_Driver/src/stm32f30x_tim.c ****                                
  69:../Libraries/STM32F30x_StdPeriph_Driver/src/stm32f30x_tim.c ****         (#) TIM interrupts, DMA and flags management
  70:../Libraries/STM32F30x_StdPeriph_Driver/src/stm32f30x_tim.c ****                  (++) Enable/Disable interrupt sources
  71:../Libraries/STM32F30x_StdPeriph_Driver/src/stm32f30x_tim.c ****                  (++) Get flags status
  72:../Libraries/STM32F30x_StdPeriph_Driver/src/stm32f30x_tim.c ****                  (++) Clear flags/ Pending bits
  73:../Libraries/STM32F30x_StdPeriph_Driver/src/stm32f30x_tim.c ****                  (++) Enable/Disable DMA requests 
  74:../Libraries/STM32F30x_StdPeriph_Driver/src/stm32f30x_tim.c ****                  (++) Configure DMA burst mode
  75:../Libraries/STM32F30x_StdPeriph_Driver/src/stm32f30x_tim.c ****                  (++) Select CaptureCompare DMA request  
  76:../Libraries/STM32F30x_StdPeriph_Driver/src/stm32f30x_tim.c ****                 
  77:../Libraries/STM32F30x_StdPeriph_Driver/src/stm32f30x_tim.c ****         (#) TIM clocks management: this group includes all needed functions 
  78:../Libraries/STM32F30x_StdPeriph_Driver/src/stm32f30x_tim.c ****             to configure the clock controller unit:
  79:../Libraries/STM32F30x_StdPeriph_Driver/src/stm32f30x_tim.c ****                  (++) Select internal/External clock
  80:../Libraries/STM32F30x_StdPeriph_Driver/src/stm32f30x_tim.c ****                  (++) Select the external clock mode: ETR(Mode1/Mode2), TIx or ITRx
  81:../Libraries/STM32F30x_StdPeriph_Driver/src/stm32f30x_tim.c ****          
  82:../Libraries/STM32F30x_StdPeriph_Driver/src/stm32f30x_tim.c ****         (#) TIM synchronization management: this group includes all needed 
  83:../Libraries/STM32F30x_StdPeriph_Driver/src/stm32f30x_tim.c ****             functions to configure the Synchronization unit:
  84:../Libraries/STM32F30x_StdPeriph_Driver/src/stm32f30x_tim.c ****                  (++) Select Input Trigger  
  85:../Libraries/STM32F30x_StdPeriph_Driver/src/stm32f30x_tim.c ****                  (++) Select Output Trigger  
  86:../Libraries/STM32F30x_StdPeriph_Driver/src/stm32f30x_tim.c ****                  (++) Select Master Slave Mode 
  87:../Libraries/STM32F30x_StdPeriph_Driver/src/stm32f30x_tim.c ****                  (++) ETR Configuration when used as external trigger   
  88:../Libraries/STM32F30x_StdPeriph_Driver/src/stm32f30x_tim.c ****        
  89:../Libraries/STM32F30x_StdPeriph_Driver/src/stm32f30x_tim.c ****         (#) TIM specific interface management, this group includes all 
  90:../Libraries/STM32F30x_StdPeriph_Driver/src/stm32f30x_tim.c ****             needed functions to use the specific TIM interface:
  91:../Libraries/STM32F30x_StdPeriph_Driver/src/stm32f30x_tim.c ****                  (++) Encoder Interface Configuration
  92:../Libraries/STM32F30x_StdPeriph_Driver/src/stm32f30x_tim.c ****                  (++) Select Hall Sensor   
  93:../Libraries/STM32F30x_StdPeriph_Driver/src/stm32f30x_tim.c ****            
  94:../Libraries/STM32F30x_StdPeriph_Driver/src/stm32f30x_tim.c ****         (#) TIM specific remapping management includes the Remapping 
  95:../Libraries/STM32F30x_StdPeriph_Driver/src/stm32f30x_tim.c ****             configuration of specific timers               
  96:../Libraries/STM32F30x_StdPeriph_Driver/src/stm32f30x_tim.c ****      
  97:../Libraries/STM32F30x_StdPeriph_Driver/src/stm32f30x_tim.c ****   @endverbatim
  98:../Libraries/STM32F30x_StdPeriph_Driver/src/stm32f30x_tim.c ****       
  99:../Libraries/STM32F30x_StdPeriph_Driver/src/stm32f30x_tim.c ****   ******************************************************************************
 100:../Libraries/STM32F30x_StdPeriph_Driver/src/stm32f30x_tim.c ****   * @attention
 101:../Libraries/STM32F30x_StdPeriph_Driver/src/stm32f30x_tim.c ****   *
 102:../Libraries/STM32F30x_StdPeriph_Driver/src/stm32f30x_tim.c ****   * <h2><center>&copy; COPYRIGHT 2012 STMicroelectronics</center></h2>
 103:../Libraries/STM32F30x_StdPeriph_Driver/src/stm32f30x_tim.c ****   *
 104:../Libraries/STM32F30x_StdPeriph_Driver/src/stm32f30x_tim.c ****   * Licensed under MCD-ST Liberty SW License Agreement V2, (the "License");
 105:../Libraries/STM32F30x_StdPeriph_Driver/src/stm32f30x_tim.c ****   * You may not use this file except in compliance with the License.
 106:../Libraries/STM32F30x_StdPeriph_Driver/src/stm32f30x_tim.c ****   * You may obtain a copy of the License at:
 107:../Libraries/STM32F30x_StdPeriph_Driver/src/stm32f30x_tim.c ****   *
 108:../Libraries/STM32F30x_StdPeriph_Driver/src/stm32f30x_tim.c ****   *        http://www.st.com/software_license_agreement_liberty_v2
 109:../Libraries/STM32F30x_StdPeriph_Driver/src/stm32f30x_tim.c ****   *
 110:../Libraries/STM32F30x_StdPeriph_Driver/src/stm32f30x_tim.c ****   * Unless required by applicable law or agreed to in writing, software 
 111:../Libraries/STM32F30x_StdPeriph_Driver/src/stm32f30x_tim.c ****   * distributed under the License is distributed on an "AS IS" BASIS, 
 112:../Libraries/STM32F30x_StdPeriph_Driver/src/stm32f30x_tim.c ****   * WITHOUT WARRANTIES OR CONDITIONS OF ANY KIND, either express or implied.
 113:../Libraries/STM32F30x_StdPeriph_Driver/src/stm32f30x_tim.c ****   * See the License for the specific language governing permissions and
 114:../Libraries/STM32F30x_StdPeriph_Driver/src/stm32f30x_tim.c ****   * limitations under the License.
 115:../Libraries/STM32F30x_StdPeriph_Driver/src/stm32f30x_tim.c ****   *
 116:../Libraries/STM32F30x_StdPeriph_Driver/src/stm32f30x_tim.c ****   ******************************************************************************
 117:../Libraries/STM32F30x_StdPeriph_Driver/src/stm32f30x_tim.c ****   */
 118:../Libraries/STM32F30x_StdPeriph_Driver/src/stm32f30x_tim.c **** 
 119:../Libraries/STM32F30x_StdPeriph_Driver/src/stm32f30x_tim.c **** /* Includes ------------------------------------------------------------------*/
 120:../Libraries/STM32F30x_StdPeriph_Driver/src/stm32f30x_tim.c **** #include "stm32f30x_tim.h"
 121:../Libraries/STM32F30x_StdPeriph_Driver/src/stm32f30x_tim.c **** #include "stm32f30x_rcc.h"
 122:../Libraries/STM32F30x_StdPeriph_Driver/src/stm32f30x_tim.c **** 
 123:../Libraries/STM32F30x_StdPeriph_Driver/src/stm32f30x_tim.c **** /** @addtogroup STM32F30x_StdPeriph_Driver
 124:../Libraries/STM32F30x_StdPeriph_Driver/src/stm32f30x_tim.c ****   * @{
 125:../Libraries/STM32F30x_StdPeriph_Driver/src/stm32f30x_tim.c ****   */
 126:../Libraries/STM32F30x_StdPeriph_Driver/src/stm32f30x_tim.c **** 
 127:../Libraries/STM32F30x_StdPeriph_Driver/src/stm32f30x_tim.c **** /** @defgroup TIM 
 128:../Libraries/STM32F30x_StdPeriph_Driver/src/stm32f30x_tim.c ****   * @brief TIM driver modules
 129:../Libraries/STM32F30x_StdPeriph_Driver/src/stm32f30x_tim.c ****   * @{
 130:../Libraries/STM32F30x_StdPeriph_Driver/src/stm32f30x_tim.c ****   */
 131:../Libraries/STM32F30x_StdPeriph_Driver/src/stm32f30x_tim.c **** 
 132:../Libraries/STM32F30x_StdPeriph_Driver/src/stm32f30x_tim.c **** /* Private typedef -----------------------------------------------------------*/
 133:../Libraries/STM32F30x_StdPeriph_Driver/src/stm32f30x_tim.c **** /* Private define ------------------------------------------------------------*/
 134:../Libraries/STM32F30x_StdPeriph_Driver/src/stm32f30x_tim.c **** 
 135:../Libraries/STM32F30x_StdPeriph_Driver/src/stm32f30x_tim.c **** /* ---------------------- TIM registers bit mask ------------------------ */
 136:../Libraries/STM32F30x_StdPeriph_Driver/src/stm32f30x_tim.c **** #define SMCR_ETR_MASK      ((uint16_t)0x00FF) 
 137:../Libraries/STM32F30x_StdPeriph_Driver/src/stm32f30x_tim.c **** #define CCMR_OFFSET        ((uint16_t)0x0018)
 138:../Libraries/STM32F30x_StdPeriph_Driver/src/stm32f30x_tim.c **** #define CCER_CCE_SET       ((uint16_t)0x0001)  
 139:../Libraries/STM32F30x_StdPeriph_Driver/src/stm32f30x_tim.c **** #define	CCER_CCNE_SET      ((uint16_t)0x0004) 
 140:../Libraries/STM32F30x_StdPeriph_Driver/src/stm32f30x_tim.c **** #define CCMR_OC13M_MASK    ((uint32_t)0xFFFEFF8F)
 141:../Libraries/STM32F30x_StdPeriph_Driver/src/stm32f30x_tim.c **** #define CCMR_OC24M_MASK    ((uint32_t)0xFEFF8FFF) 
 142:../Libraries/STM32F30x_StdPeriph_Driver/src/stm32f30x_tim.c **** 
 143:../Libraries/STM32F30x_StdPeriph_Driver/src/stm32f30x_tim.c **** /* Private macro -------------------------------------------------------------*/
 144:../Libraries/STM32F30x_StdPeriph_Driver/src/stm32f30x_tim.c **** /* Private variables ---------------------------------------------------------*/
 145:../Libraries/STM32F30x_StdPeriph_Driver/src/stm32f30x_tim.c **** /* Private function prototypes -----------------------------------------------*/
 146:../Libraries/STM32F30x_StdPeriph_Driver/src/stm32f30x_tim.c **** static void TI1_Config(TIM_TypeDef* TIMx, uint16_t TIM_ICPolarity, uint16_t TIM_ICSelection,
 147:../Libraries/STM32F30x_StdPeriph_Driver/src/stm32f30x_tim.c ****                        uint16_t TIM_ICFilter);
 148:../Libraries/STM32F30x_StdPeriph_Driver/src/stm32f30x_tim.c **** static void TI2_Config(TIM_TypeDef* TIMx, uint16_t TIM_ICPolarity, uint16_t TIM_ICSelection,
 149:../Libraries/STM32F30x_StdPeriph_Driver/src/stm32f30x_tim.c ****                        uint16_t TIM_ICFilter);
 150:../Libraries/STM32F30x_StdPeriph_Driver/src/stm32f30x_tim.c **** static void TI3_Config(TIM_TypeDef* TIMx, uint16_t TIM_ICPolarity, uint16_t TIM_ICSelection,
 151:../Libraries/STM32F30x_StdPeriph_Driver/src/stm32f30x_tim.c ****                        uint16_t TIM_ICFilter);
 152:../Libraries/STM32F30x_StdPeriph_Driver/src/stm32f30x_tim.c **** static void TI4_Config(TIM_TypeDef* TIMx, uint16_t TIM_ICPolarity, uint16_t TIM_ICSelection,
 153:../Libraries/STM32F30x_StdPeriph_Driver/src/stm32f30x_tim.c ****                        uint16_t TIM_ICFilter);
 154:../Libraries/STM32F30x_StdPeriph_Driver/src/stm32f30x_tim.c **** 
 155:../Libraries/STM32F30x_StdPeriph_Driver/src/stm32f30x_tim.c **** /* Private functions ---------------------------------------------------------*/
 156:../Libraries/STM32F30x_StdPeriph_Driver/src/stm32f30x_tim.c **** 
 157:../Libraries/STM32F30x_StdPeriph_Driver/src/stm32f30x_tim.c **** /** @defgroup TIM_Private_Functions
 158:../Libraries/STM32F30x_StdPeriph_Driver/src/stm32f30x_tim.c ****   * @{
 159:../Libraries/STM32F30x_StdPeriph_Driver/src/stm32f30x_tim.c ****   */
 160:../Libraries/STM32F30x_StdPeriph_Driver/src/stm32f30x_tim.c **** 
 161:../Libraries/STM32F30x_StdPeriph_Driver/src/stm32f30x_tim.c **** /** @defgroup TIM_Group1 TimeBase management functions
 162:../Libraries/STM32F30x_StdPeriph_Driver/src/stm32f30x_tim.c ****  *  @brief   TimeBase management functions 
 163:../Libraries/STM32F30x_StdPeriph_Driver/src/stm32f30x_tim.c ****  *
 164:../Libraries/STM32F30x_StdPeriph_Driver/src/stm32f30x_tim.c **** @verbatim   
 165:../Libraries/STM32F30x_StdPeriph_Driver/src/stm32f30x_tim.c ****  ===============================================================================
 166:../Libraries/STM32F30x_StdPeriph_Driver/src/stm32f30x_tim.c ****                    ##### TimeBase management functions #####
 167:../Libraries/STM32F30x_StdPeriph_Driver/src/stm32f30x_tim.c ****  ===============================================================================  
 168:../Libraries/STM32F30x_StdPeriph_Driver/src/stm32f30x_tim.c ****   
 169:../Libraries/STM32F30x_StdPeriph_Driver/src/stm32f30x_tim.c ****              
 170:../Libraries/STM32F30x_StdPeriph_Driver/src/stm32f30x_tim.c ****     *** TIM Driver: how to use it in Timing(Time base) Mode ***
 171:../Libraries/STM32F30x_StdPeriph_Driver/src/stm32f30x_tim.c ****     ============================================================ 
 172:../Libraries/STM32F30x_StdPeriph_Driver/src/stm32f30x_tim.c ****     [..]
 173:../Libraries/STM32F30x_StdPeriph_Driver/src/stm32f30x_tim.c ****     To use the Timer in Timing(Time base) mode, the following steps are mandatory:
 174:../Libraries/STM32F30x_StdPeriph_Driver/src/stm32f30x_tim.c ****        
 175:../Libraries/STM32F30x_StdPeriph_Driver/src/stm32f30x_tim.c ****     (#) Enable TIM clock using 
 176:../Libraries/STM32F30x_StdPeriph_Driver/src/stm32f30x_tim.c ****         RCC_APBxPeriphClockCmd(RCC_APBxPeriph_TIMx, ENABLE) function               
 177:../Libraries/STM32F30x_StdPeriph_Driver/src/stm32f30x_tim.c ****     (#) Fill the TIM_TimeBaseInitStruct with the desired parameters.   
 178:../Libraries/STM32F30x_StdPeriph_Driver/src/stm32f30x_tim.c ****     (#) Call TIM_TimeBaseInit(TIMx, &TIM_TimeBaseInitStruct) to configure 
 179:../Libraries/STM32F30x_StdPeriph_Driver/src/stm32f30x_tim.c ****         the Time Base unit
 180:../Libraries/STM32F30x_StdPeriph_Driver/src/stm32f30x_tim.c ****         with the corresponding configuration        
 181:../Libraries/STM32F30x_StdPeriph_Driver/src/stm32f30x_tim.c ****     (#) Enable the NVIC if you need to generate the update interrupt.        
 182:../Libraries/STM32F30x_StdPeriph_Driver/src/stm32f30x_tim.c ****     (#) Enable the corresponding interrupt using the function 
 183:../Libraries/STM32F30x_StdPeriph_Driver/src/stm32f30x_tim.c ****         TIM_ITConfig(TIMx, TIM_IT_Update)      
 184:../Libraries/STM32F30x_StdPeriph_Driver/src/stm32f30x_tim.c ****     (#) Call the TIM_Cmd(ENABLE) function to enable the TIM counter.
 185:../Libraries/STM32F30x_StdPeriph_Driver/src/stm32f30x_tim.c ****     [..]                  
 186:../Libraries/STM32F30x_StdPeriph_Driver/src/stm32f30x_tim.c ****     (@) All other functions can be used separately to modify, if needed,
 187:../Libraries/STM32F30x_StdPeriph_Driver/src/stm32f30x_tim.c ****         a specific feature of the Timer. 
 188:../Libraries/STM32F30x_StdPeriph_Driver/src/stm32f30x_tim.c **** 
 189:../Libraries/STM32F30x_StdPeriph_Driver/src/stm32f30x_tim.c **** @endverbatim
 190:../Libraries/STM32F30x_StdPeriph_Driver/src/stm32f30x_tim.c ****   * @{
 191:../Libraries/STM32F30x_StdPeriph_Driver/src/stm32f30x_tim.c ****   */
 192:../Libraries/STM32F30x_StdPeriph_Driver/src/stm32f30x_tim.c ****   
 193:../Libraries/STM32F30x_StdPeriph_Driver/src/stm32f30x_tim.c **** /**
 194:../Libraries/STM32F30x_StdPeriph_Driver/src/stm32f30x_tim.c ****   * @brief  Deinitializes the TIMx peripheral registers to their default reset values.
 195:../Libraries/STM32F30x_StdPeriph_Driver/src/stm32f30x_tim.c ****   * @param  TIMx: where x can be 1, 2, 3, 4, 6 ,7 ,8, 15, 16 or 17 to select the TIM peripheral.
 196:../Libraries/STM32F30x_StdPeriph_Driver/src/stm32f30x_tim.c ****   * @retval None
 197:../Libraries/STM32F30x_StdPeriph_Driver/src/stm32f30x_tim.c **** 
 198:../Libraries/STM32F30x_StdPeriph_Driver/src/stm32f30x_tim.c ****   */
 199:../Libraries/STM32F30x_StdPeriph_Driver/src/stm32f30x_tim.c **** void TIM_DeInit(TIM_TypeDef* TIMx)
 200:../Libraries/STM32F30x_StdPeriph_Driver/src/stm32f30x_tim.c **** {
  27              		.loc 1 200 0
  28              		.cfi_startproc
  29              		@ args = 0, pretend = 0, frame = 8
  30              		@ frame_needed = 0, uses_anonymous_args = 0
  31 0000 00B5     		push	{lr}
  32              	.LCFI0:
  33              		.cfi_def_cfa_offset 4
  34              		.cfi_offset 14, -4
  35 0002 83B0     		sub	sp, sp, #12
  36              	.LCFI1:
  37              		.cfi_def_cfa_offset 16
  38 0004 0190     		str	r0, [sp, #4]
 201:../Libraries/STM32F30x_StdPeriph_Driver/src/stm32f30x_tim.c ****   /* Check the parameters */
 202:../Libraries/STM32F30x_StdPeriph_Driver/src/stm32f30x_tim.c ****   assert_param(IS_TIM_ALL_PERIPH(TIMx)); 
 203:../Libraries/STM32F30x_StdPeriph_Driver/src/stm32f30x_tim.c ****  
 204:../Libraries/STM32F30x_StdPeriph_Driver/src/stm32f30x_tim.c ****   if (TIMx == TIM1)
  39              		.loc 1 204 0
  40 0006 019A     		ldr	r2, [sp, #4]
  41 0008 4FF43053 		mov	r3, #11264
  42 000c C4F20103 		movt	r3, 16385
  43 0010 9A42     		cmp	r2, r3
  44 0012 0CD1     		bne	.L2
 205:../Libraries/STM32F30x_StdPeriph_Driver/src/stm32f30x_tim.c ****   {
 206:../Libraries/STM32F30x_StdPeriph_Driver/src/stm32f30x_tim.c ****     RCC_APB2PeriphResetCmd(RCC_APB2Periph_TIM1, ENABLE);
  45              		.loc 1 206 0
  46 0014 4FF40060 		mov	r0, #2048
  47 0018 4FF00101 		mov	r1, #1
  48 001c FFF7FEFF 		bl	RCC_APB2PeriphResetCmd
 207:../Libraries/STM32F30x_StdPeriph_Driver/src/stm32f30x_tim.c ****     RCC_APB2PeriphResetCmd(RCC_APB2Periph_TIM1, DISABLE);  
  49              		.loc 1 207 0
  50 0020 4FF40060 		mov	r0, #2048
  51 0024 4FF00001 		mov	r1, #0
  52 0028 FFF7FEFF 		bl	RCC_APB2PeriphResetCmd
  53 002c AFE0     		b	.L1
  54              	.L2:
 208:../Libraries/STM32F30x_StdPeriph_Driver/src/stm32f30x_tim.c ****   } 
 209:../Libraries/STM32F30x_StdPeriph_Driver/src/stm32f30x_tim.c ****   else if (TIMx == TIM2) 
  55              		.loc 1 209 0
  56 002e 019B     		ldr	r3, [sp, #4]
  57 0030 B3F1804F 		cmp	r3, #1073741824
  58 0034 0CD1     		bne	.L4
 210:../Libraries/STM32F30x_StdPeriph_Driver/src/stm32f30x_tim.c ****   {     
 211:../Libraries/STM32F30x_StdPeriph_Driver/src/stm32f30x_tim.c ****     RCC_APB1PeriphResetCmd(RCC_APB1Periph_TIM2, ENABLE);
  59              		.loc 1 211 0
  60 0036 4FF00100 		mov	r0, #1
  61 003a 4FF00101 		mov	r1, #1
  62 003e FFF7FEFF 		bl	RCC_APB1PeriphResetCmd
 212:../Libraries/STM32F30x_StdPeriph_Driver/src/stm32f30x_tim.c ****     RCC_APB1PeriphResetCmd(RCC_APB1Periph_TIM2, DISABLE);
  63              		.loc 1 212 0
  64 0042 4FF00100 		mov	r0, #1
  65 0046 4FF00001 		mov	r1, #0
  66 004a FFF7FEFF 		bl	RCC_APB1PeriphResetCmd
  67 004e 9EE0     		b	.L1
  68              	.L4:
 213:../Libraries/STM32F30x_StdPeriph_Driver/src/stm32f30x_tim.c ****   }  
 214:../Libraries/STM32F30x_StdPeriph_Driver/src/stm32f30x_tim.c ****   else if (TIMx == TIM3)
  69              		.loc 1 214 0
  70 0050 019A     		ldr	r2, [sp, #4]
  71 0052 4FF48063 		mov	r3, #1024
  72 0056 C4F20003 		movt	r3, 16384
  73 005a 9A42     		cmp	r2, r3
  74 005c 0CD1     		bne	.L5
 215:../Libraries/STM32F30x_StdPeriph_Driver/src/stm32f30x_tim.c ****   { 
 216:../Libraries/STM32F30x_StdPeriph_Driver/src/stm32f30x_tim.c ****     RCC_APB1PeriphResetCmd(RCC_APB1Periph_TIM3, ENABLE);
  75              		.loc 1 216 0
  76 005e 4FF00200 		mov	r0, #2
  77 0062 4FF00101 		mov	r1, #1
  78 0066 FFF7FEFF 		bl	RCC_APB1PeriphResetCmd
 217:../Libraries/STM32F30x_StdPeriph_Driver/src/stm32f30x_tim.c ****     RCC_APB1PeriphResetCmd(RCC_APB1Periph_TIM3, DISABLE);
  79              		.loc 1 217 0
  80 006a 4FF00200 		mov	r0, #2
  81 006e 4FF00001 		mov	r1, #0
  82 0072 FFF7FEFF 		bl	RCC_APB1PeriphResetCmd
  83 0076 8AE0     		b	.L1
  84              	.L5:
 218:../Libraries/STM32F30x_StdPeriph_Driver/src/stm32f30x_tim.c ****   }  
 219:../Libraries/STM32F30x_StdPeriph_Driver/src/stm32f30x_tim.c ****   else if (TIMx == TIM4)
  85              		.loc 1 219 0
  86 0078 019A     		ldr	r2, [sp, #4]
  87 007a 4FF40063 		mov	r3, #2048
  88 007e C4F20003 		movt	r3, 16384
  89 0082 9A42     		cmp	r2, r3
  90 0084 0CD1     		bne	.L6
 220:../Libraries/STM32F30x_StdPeriph_Driver/src/stm32f30x_tim.c ****   { 
 221:../Libraries/STM32F30x_StdPeriph_Driver/src/stm32f30x_tim.c ****     RCC_APB1PeriphResetCmd(RCC_APB1Periph_TIM4, ENABLE);
  91              		.loc 1 221 0
  92 0086 4FF00400 		mov	r0, #4
  93 008a 4FF00101 		mov	r1, #1
  94 008e FFF7FEFF 		bl	RCC_APB1PeriphResetCmd
 222:../Libraries/STM32F30x_StdPeriph_Driver/src/stm32f30x_tim.c ****     RCC_APB1PeriphResetCmd(RCC_APB1Periph_TIM4, DISABLE);
  95              		.loc 1 222 0
  96 0092 4FF00400 		mov	r0, #4
  97 0096 4FF00001 		mov	r1, #0
  98 009a FFF7FEFF 		bl	RCC_APB1PeriphResetCmd
  99 009e 76E0     		b	.L1
 100              	.L6:
 223:../Libraries/STM32F30x_StdPeriph_Driver/src/stm32f30x_tim.c ****   }   
 224:../Libraries/STM32F30x_StdPeriph_Driver/src/stm32f30x_tim.c ****   else if (TIMx == TIM6)  
 101              		.loc 1 224 0
 102 00a0 019A     		ldr	r2, [sp, #4]
 103 00a2 4FF48053 		mov	r3, #4096
 104 00a6 C4F20003 		movt	r3, 16384
 105 00aa 9A42     		cmp	r2, r3
 106 00ac 0CD1     		bne	.L7
 225:../Libraries/STM32F30x_StdPeriph_Driver/src/stm32f30x_tim.c ****   {    
 226:../Libraries/STM32F30x_StdPeriph_Driver/src/stm32f30x_tim.c ****     RCC_APB1PeriphResetCmd(RCC_APB1Periph_TIM6, ENABLE);
 107              		.loc 1 226 0
 108 00ae 4FF01000 		mov	r0, #16
 109 00b2 4FF00101 		mov	r1, #1
 110 00b6 FFF7FEFF 		bl	RCC_APB1PeriphResetCmd
 227:../Libraries/STM32F30x_StdPeriph_Driver/src/stm32f30x_tim.c ****     RCC_APB1PeriphResetCmd(RCC_APB1Periph_TIM6, DISABLE);
 111              		.loc 1 227 0
 112 00ba 4FF01000 		mov	r0, #16
 113 00be 4FF00001 		mov	r1, #0
 114 00c2 FFF7FEFF 		bl	RCC_APB1PeriphResetCmd
 115 00c6 62E0     		b	.L1
 116              	.L7:
 228:../Libraries/STM32F30x_StdPeriph_Driver/src/stm32f30x_tim.c ****   }  
 229:../Libraries/STM32F30x_StdPeriph_Driver/src/stm32f30x_tim.c ****   else if (TIMx == TIM7)
 117              		.loc 1 229 0
 118 00c8 019A     		ldr	r2, [sp, #4]
 119 00ca 4FF4A053 		mov	r3, #5120
 120 00ce C4F20003 		movt	r3, 16384
 121 00d2 9A42     		cmp	r2, r3
 122 00d4 0CD1     		bne	.L8
 230:../Libraries/STM32F30x_StdPeriph_Driver/src/stm32f30x_tim.c ****   {      
 231:../Libraries/STM32F30x_StdPeriph_Driver/src/stm32f30x_tim.c ****     RCC_APB1PeriphResetCmd(RCC_APB1Periph_TIM7, ENABLE);
 123              		.loc 1 231 0
 124 00d6 4FF02000 		mov	r0, #32
 125 00da 4FF00101 		mov	r1, #1
 126 00de FFF7FEFF 		bl	RCC_APB1PeriphResetCmd
 232:../Libraries/STM32F30x_StdPeriph_Driver/src/stm32f30x_tim.c ****     RCC_APB1PeriphResetCmd(RCC_APB1Periph_TIM7, DISABLE);
 127              		.loc 1 232 0
 128 00e2 4FF02000 		mov	r0, #32
 129 00e6 4FF00001 		mov	r1, #0
 130 00ea FFF7FEFF 		bl	RCC_APB1PeriphResetCmd
 131 00ee 4EE0     		b	.L1
 132              	.L8:
 233:../Libraries/STM32F30x_StdPeriph_Driver/src/stm32f30x_tim.c ****   }  
 234:../Libraries/STM32F30x_StdPeriph_Driver/src/stm32f30x_tim.c ****   else if (TIMx == TIM8)
 133              		.loc 1 234 0
 134 00f0 019A     		ldr	r2, [sp, #4]
 135 00f2 4FF45053 		mov	r3, #13312
 136 00f6 C4F20103 		movt	r3, 16385
 137 00fa 9A42     		cmp	r2, r3
 138 00fc 0CD1     		bne	.L9
 235:../Libraries/STM32F30x_StdPeriph_Driver/src/stm32f30x_tim.c ****   {      
 236:../Libraries/STM32F30x_StdPeriph_Driver/src/stm32f30x_tim.c ****     RCC_APB2PeriphResetCmd(RCC_APB2Periph_TIM8, ENABLE);
 139              		.loc 1 236 0
 140 00fe 4FF40050 		mov	r0, #8192
 141 0102 4FF00101 		mov	r1, #1
 142 0106 FFF7FEFF 		bl	RCC_APB2PeriphResetCmd
 237:../Libraries/STM32F30x_StdPeriph_Driver/src/stm32f30x_tim.c ****     RCC_APB2PeriphResetCmd(RCC_APB2Periph_TIM8, DISABLE);  
 143              		.loc 1 237 0
 144 010a 4FF40050 		mov	r0, #8192
 145 010e 4FF00001 		mov	r1, #0
 146 0112 FFF7FEFF 		bl	RCC_APB2PeriphResetCmd
 147 0116 3AE0     		b	.L1
 148              	.L9:
 238:../Libraries/STM32F30x_StdPeriph_Driver/src/stm32f30x_tim.c ****   }    
 239:../Libraries/STM32F30x_StdPeriph_Driver/src/stm32f30x_tim.c ****   else if (TIMx == TIM15)
 149              		.loc 1 239 0
 150 0118 019A     		ldr	r2, [sp, #4]
 151 011a 4FF48043 		mov	r3, #16384
 152 011e C4F20103 		movt	r3, 16385
 153 0122 9A42     		cmp	r2, r3
 154 0124 0CD1     		bne	.L10
 240:../Libraries/STM32F30x_StdPeriph_Driver/src/stm32f30x_tim.c ****   {      
 241:../Libraries/STM32F30x_StdPeriph_Driver/src/stm32f30x_tim.c ****     RCC_APB2PeriphResetCmd(RCC_APB2Periph_TIM15, ENABLE);
 155              		.loc 1 241 0
 156 0126 4FF48030 		mov	r0, #65536
 157 012a 4FF00101 		mov	r1, #1
 158 012e FFF7FEFF 		bl	RCC_APB2PeriphResetCmd
 242:../Libraries/STM32F30x_StdPeriph_Driver/src/stm32f30x_tim.c ****     RCC_APB2PeriphResetCmd(RCC_APB2Periph_TIM15, DISABLE);  
 159              		.loc 1 242 0
 160 0132 4FF48030 		mov	r0, #65536
 161 0136 4FF00001 		mov	r1, #0
 162 013a FFF7FEFF 		bl	RCC_APB2PeriphResetCmd
 163 013e 26E0     		b	.L1
 164              	.L10:
 243:../Libraries/STM32F30x_StdPeriph_Driver/src/stm32f30x_tim.c ****   }  
 244:../Libraries/STM32F30x_StdPeriph_Driver/src/stm32f30x_tim.c ****   else if (TIMx == TIM16) 
 165              		.loc 1 244 0
 166 0140 019A     		ldr	r2, [sp, #4]
 167 0142 4FF48843 		mov	r3, #17408
 168 0146 C4F20103 		movt	r3, 16385
 169 014a 9A42     		cmp	r2, r3
 170 014c 0CD1     		bne	.L11
 245:../Libraries/STM32F30x_StdPeriph_Driver/src/stm32f30x_tim.c ****   {       
 246:../Libraries/STM32F30x_StdPeriph_Driver/src/stm32f30x_tim.c ****     RCC_APB2PeriphResetCmd(RCC_APB2Periph_TIM16, ENABLE);
 171              		.loc 1 246 0
 172 014e 4FF40030 		mov	r0, #131072
 173 0152 4FF00101 		mov	r1, #1
 174 0156 FFF7FEFF 		bl	RCC_APB2PeriphResetCmd
 247:../Libraries/STM32F30x_StdPeriph_Driver/src/stm32f30x_tim.c ****     RCC_APB2PeriphResetCmd(RCC_APB2Periph_TIM16, DISABLE);  
 175              		.loc 1 247 0
 176 015a 4FF40030 		mov	r0, #131072
 177 015e 4FF00001 		mov	r1, #0
 178 0162 FFF7FEFF 		bl	RCC_APB2PeriphResetCmd
 179 0166 12E0     		b	.L1
 180              	.L11:
 248:../Libraries/STM32F30x_StdPeriph_Driver/src/stm32f30x_tim.c ****   }  
 249:../Libraries/STM32F30x_StdPeriph_Driver/src/stm32f30x_tim.c ****   else
 250:../Libraries/STM32F30x_StdPeriph_Driver/src/stm32f30x_tim.c ****   { 
 251:../Libraries/STM32F30x_StdPeriph_Driver/src/stm32f30x_tim.c ****     if (TIMx == TIM17) 
 181              		.loc 1 251 0
 182 0168 019A     		ldr	r2, [sp, #4]
 183 016a 4FF49043 		mov	r3, #18432
 184 016e C4F20103 		movt	r3, 16385
 185 0172 9A42     		cmp	r2, r3
 186 0174 0BD1     		bne	.L1
 252:../Libraries/STM32F30x_StdPeriph_Driver/src/stm32f30x_tim.c ****     {     
 253:../Libraries/STM32F30x_StdPeriph_Driver/src/stm32f30x_tim.c ****       RCC_APB2PeriphResetCmd(RCC_APB2Periph_TIM17, ENABLE);
 187              		.loc 1 253 0
 188 0176 4FF48020 		mov	r0, #262144
 189 017a 4FF00101 		mov	r1, #1
 190 017e FFF7FEFF 		bl	RCC_APB2PeriphResetCmd
 254:../Libraries/STM32F30x_StdPeriph_Driver/src/stm32f30x_tim.c ****       RCC_APB2PeriphResetCmd(RCC_APB2Periph_TIM17, DISABLE); 
 191              		.loc 1 254 0
 192 0182 4FF48020 		mov	r0, #262144
 193 0186 4FF00001 		mov	r1, #0
 194 018a FFF7FEFF 		bl	RCC_APB2PeriphResetCmd
 195              	.L1:
 255:../Libraries/STM32F30x_StdPeriph_Driver/src/stm32f30x_tim.c ****     }   
 256:../Libraries/STM32F30x_StdPeriph_Driver/src/stm32f30x_tim.c ****   }
 257:../Libraries/STM32F30x_StdPeriph_Driver/src/stm32f30x_tim.c **** }
 196              		.loc 1 257 0
 197 018e 03B0     		add	sp, sp, #12
 198 0190 00BD     		pop	{pc}
 199              		.cfi_endproc
 200              	.LFE111:
 202 0192 00BF     		.align	2
 203              		.global	TIM_TimeBaseInit
 204              		.thumb
 205              		.thumb_func
 207              	TIM_TimeBaseInit:
 208              	.LFB112:
 258:../Libraries/STM32F30x_StdPeriph_Driver/src/stm32f30x_tim.c **** 
 259:../Libraries/STM32F30x_StdPeriph_Driver/src/stm32f30x_tim.c **** /**
 260:../Libraries/STM32F30x_StdPeriph_Driver/src/stm32f30x_tim.c ****   * @brief  Initializes the TIMx Time Base Unit peripheral according to 
 261:../Libraries/STM32F30x_StdPeriph_Driver/src/stm32f30x_tim.c ****   *         the specified parameters in the TIM_TimeBaseInitStruct.
 262:../Libraries/STM32F30x_StdPeriph_Driver/src/stm32f30x_tim.c ****   * @param  TIMx: where x can be  1, 2, 3, 4, 6 ,7 ,8, 15, 16 or 17 to select the TIM peripheral.
 263:../Libraries/STM32F30x_StdPeriph_Driver/src/stm32f30x_tim.c ****   * @param  TIM_TimeBaseInitStruct: pointer to a TIM_TimeBaseInitTypeDef structure
 264:../Libraries/STM32F30x_StdPeriph_Driver/src/stm32f30x_tim.c ****   *         that contains the configuration information for the specified TIM peripheral.
 265:../Libraries/STM32F30x_StdPeriph_Driver/src/stm32f30x_tim.c ****   * @retval None
 266:../Libraries/STM32F30x_StdPeriph_Driver/src/stm32f30x_tim.c ****   */
 267:../Libraries/STM32F30x_StdPeriph_Driver/src/stm32f30x_tim.c **** void TIM_TimeBaseInit(TIM_TypeDef* TIMx, TIM_TimeBaseInitTypeDef* TIM_TimeBaseInitStruct)
 268:../Libraries/STM32F30x_StdPeriph_Driver/src/stm32f30x_tim.c **** {
 209              		.loc 1 268 0
 210              		.cfi_startproc
 211              		@ args = 0, pretend = 0, frame = 16
 212              		@ frame_needed = 0, uses_anonymous_args = 0
 213              		@ link register save eliminated.
 214 0194 84B0     		sub	sp, sp, #16
 215              	.LCFI2:
 216              		.cfi_def_cfa_offset 16
 217 0196 0190     		str	r0, [sp, #4]
 218 0198 0091     		str	r1, [sp, #0]
 269:../Libraries/STM32F30x_StdPeriph_Driver/src/stm32f30x_tim.c ****   uint16_t tmpcr1 = 0;
 219              		.loc 1 269 0
 220 019a 4FF00003 		mov	r3, #0
 221 019e ADF80E30 		strh	r3, [sp, #14]	@ movhi
 270:../Libraries/STM32F30x_StdPeriph_Driver/src/stm32f30x_tim.c **** 
 271:../Libraries/STM32F30x_StdPeriph_Driver/src/stm32f30x_tim.c ****   /* Check the parameters */
 272:../Libraries/STM32F30x_StdPeriph_Driver/src/stm32f30x_tim.c ****   assert_param(IS_TIM_ALL_PERIPH(TIMx)); 
 273:../Libraries/STM32F30x_StdPeriph_Driver/src/stm32f30x_tim.c ****   assert_param(IS_TIM_COUNTER_MODE(TIM_TimeBaseInitStruct->TIM_CounterMode));
 274:../Libraries/STM32F30x_StdPeriph_Driver/src/stm32f30x_tim.c ****   assert_param(IS_TIM_CKD_DIV(TIM_TimeBaseInitStruct->TIM_ClockDivision));
 275:../Libraries/STM32F30x_StdPeriph_Driver/src/stm32f30x_tim.c **** 
 276:../Libraries/STM32F30x_StdPeriph_Driver/src/stm32f30x_tim.c ****   tmpcr1 = TIMx->CR1;  
 222              		.loc 1 276 0
 223 01a2 019B     		ldr	r3, [sp, #4]
 224 01a4 1B88     		ldrh	r3, [r3, #0]	@ movhi
 225 01a6 ADF80E30 		strh	r3, [sp, #14]	@ movhi
 277:../Libraries/STM32F30x_StdPeriph_Driver/src/stm32f30x_tim.c **** 
 278:../Libraries/STM32F30x_StdPeriph_Driver/src/stm32f30x_tim.c ****   if((TIMx == TIM1) || (TIMx == TIM8)|| (TIMx == TIM2) || 
 226              		.loc 1 278 0
 227 01aa 019A     		ldr	r2, [sp, #4]
 228 01ac 4FF43053 		mov	r3, #11264
 229 01b0 C4F20103 		movt	r3, 16385
 230 01b4 9A42     		cmp	r2, r3
 231 01b6 18D0     		beq	.L13
 232              		.loc 1 278 0 is_stmt 0 discriminator 1
 233 01b8 019A     		ldr	r2, [sp, #4]
 234 01ba 4FF45053 		mov	r3, #13312
 235 01be C4F20103 		movt	r3, 16385
 236 01c2 9A42     		cmp	r2, r3
 237 01c4 11D0     		beq	.L13
 238 01c6 019B     		ldr	r3, [sp, #4]
 239 01c8 B3F1804F 		cmp	r3, #1073741824
 240 01cc 0DD0     		beq	.L13
 241 01ce 019A     		ldr	r2, [sp, #4]
 242 01d0 4FF48063 		mov	r3, #1024
 243 01d4 C4F20003 		movt	r3, 16384
 244 01d8 9A42     		cmp	r2, r3
 245 01da 06D0     		beq	.L13
 279:../Libraries/STM32F30x_StdPeriph_Driver/src/stm32f30x_tim.c ****      (TIMx == TIM3)|| (TIMx == TIM4)) 
 246              		.loc 1 279 0 is_stmt 1
 247 01dc 019A     		ldr	r2, [sp, #4]
 248 01de 4FF40063 		mov	r3, #2048
 249 01e2 C4F20003 		movt	r3, 16384
 250 01e6 9A42     		cmp	r2, r3
 251 01e8 0CD1     		bne	.L14
 252              	.L13:
 280:../Libraries/STM32F30x_StdPeriph_Driver/src/stm32f30x_tim.c ****   {
 281:../Libraries/STM32F30x_StdPeriph_Driver/src/stm32f30x_tim.c ****     /* Select the Counter Mode */
 282:../Libraries/STM32F30x_StdPeriph_Driver/src/stm32f30x_tim.c ****     tmpcr1 &= (uint16_t)(~(TIM_CR1_DIR | TIM_CR1_CMS));
 253              		.loc 1 282 0
 254 01ea BDF80E30 		ldrh	r3, [sp, #14]	@ movhi
 255 01ee 23F07003 		bic	r3, r3, #112
 256 01f2 ADF80E30 		strh	r3, [sp, #14]	@ movhi
 283:../Libraries/STM32F30x_StdPeriph_Driver/src/stm32f30x_tim.c ****     tmpcr1 |= (uint32_t)TIM_TimeBaseInitStruct->TIM_CounterMode;
 257              		.loc 1 283 0
 258 01f6 009B     		ldr	r3, [sp, #0]
 259 01f8 5A88     		ldrh	r2, [r3, #2]
 260 01fa BDF80E30 		ldrh	r3, [sp, #14]	@ movhi
 261 01fe 1343     		orrs	r3, r3, r2
 262 0200 ADF80E30 		strh	r3, [sp, #14]	@ movhi
 263              	.L14:
 284:../Libraries/STM32F30x_StdPeriph_Driver/src/stm32f30x_tim.c ****   }
 285:../Libraries/STM32F30x_StdPeriph_Driver/src/stm32f30x_tim.c ****  
 286:../Libraries/STM32F30x_StdPeriph_Driver/src/stm32f30x_tim.c ****   if((TIMx != TIM6) && (TIMx != TIM7))
 264              		.loc 1 286 0
 265 0204 019A     		ldr	r2, [sp, #4]
 266 0206 4FF48053 		mov	r3, #4096
 267 020a C4F20003 		movt	r3, 16384
 268 020e 9A42     		cmp	r2, r3
 269 0210 13D0     		beq	.L15
 270              		.loc 1 286 0 is_stmt 0 discriminator 1
 271 0212 019A     		ldr	r2, [sp, #4]
 272 0214 4FF4A053 		mov	r3, #5120
 273 0218 C4F20003 		movt	r3, 16384
 274 021c 9A42     		cmp	r2, r3
 275 021e 0CD0     		beq	.L15
 287:../Libraries/STM32F30x_StdPeriph_Driver/src/stm32f30x_tim.c ****   {
 288:../Libraries/STM32F30x_StdPeriph_Driver/src/stm32f30x_tim.c ****     /* Set the clock division */
 289:../Libraries/STM32F30x_StdPeriph_Driver/src/stm32f30x_tim.c ****     tmpcr1 &=  (uint16_t)(~TIM_CR1_CKD);
 276              		.loc 1 289 0 is_stmt 1
 277 0220 BDF80E30 		ldrh	r3, [sp, #14]	@ movhi
 278 0224 23F44073 		bic	r3, r3, #768
 279 0228 ADF80E30 		strh	r3, [sp, #14]	@ movhi
 290:../Libraries/STM32F30x_StdPeriph_Driver/src/stm32f30x_tim.c ****     tmpcr1 |= (uint32_t)TIM_TimeBaseInitStruct->TIM_ClockDivision;
 280              		.loc 1 290 0
 281 022c 009B     		ldr	r3, [sp, #0]
 282 022e 1A89     		ldrh	r2, [r3, #8]
 283 0230 BDF80E30 		ldrh	r3, [sp, #14]	@ movhi
 284 0234 1343     		orrs	r3, r3, r2
 285 0236 ADF80E30 		strh	r3, [sp, #14]	@ movhi
 286              	.L15:
 291:../Libraries/STM32F30x_StdPeriph_Driver/src/stm32f30x_tim.c ****   }
 292:../Libraries/STM32F30x_StdPeriph_Driver/src/stm32f30x_tim.c **** 
 293:../Libraries/STM32F30x_StdPeriph_Driver/src/stm32f30x_tim.c ****   TIMx->CR1 = tmpcr1;
 287              		.loc 1 293 0
 288 023a 019B     		ldr	r3, [sp, #4]
 289 023c BDF80E20 		ldrh	r2, [sp, #14]	@ movhi
 290 0240 1A80     		strh	r2, [r3, #0]	@ movhi
 294:../Libraries/STM32F30x_StdPeriph_Driver/src/stm32f30x_tim.c **** 
 295:../Libraries/STM32F30x_StdPeriph_Driver/src/stm32f30x_tim.c ****   /* Set the Autoreload value */
 296:../Libraries/STM32F30x_StdPeriph_Driver/src/stm32f30x_tim.c ****   TIMx->ARR = TIM_TimeBaseInitStruct->TIM_Period ;
 291              		.loc 1 296 0
 292 0242 009B     		ldr	r3, [sp, #0]
 293 0244 5A68     		ldr	r2, [r3, #4]
 294 0246 019B     		ldr	r3, [sp, #4]
 295 0248 DA62     		str	r2, [r3, #44]
 297:../Libraries/STM32F30x_StdPeriph_Driver/src/stm32f30x_tim.c ****  
 298:../Libraries/STM32F30x_StdPeriph_Driver/src/stm32f30x_tim.c ****   /* Set the Prescaler value */
 299:../Libraries/STM32F30x_StdPeriph_Driver/src/stm32f30x_tim.c ****   TIMx->PSC = TIM_TimeBaseInitStruct->TIM_Prescaler;
 296              		.loc 1 299 0
 297 024a 009B     		ldr	r3, [sp, #0]
 298 024c 1A88     		ldrh	r2, [r3, #0]
 299 024e 019B     		ldr	r3, [sp, #4]
 300 0250 1A85     		strh	r2, [r3, #40]	@ movhi
 300:../Libraries/STM32F30x_StdPeriph_Driver/src/stm32f30x_tim.c ****     
 301:../Libraries/STM32F30x_StdPeriph_Driver/src/stm32f30x_tim.c ****   if ((TIMx == TIM1) || (TIMx == TIM8)|| (TIMx == TIM15) || 
 301              		.loc 1 301 0
 302 0252 019A     		ldr	r2, [sp, #4]
 303 0254 4FF43053 		mov	r3, #11264
 304 0258 C4F20103 		movt	r3, 16385
 305 025c 9A42     		cmp	r2, r3
 306 025e 1BD0     		beq	.L16
 307              		.loc 1 301 0 is_stmt 0 discriminator 1
 308 0260 019A     		ldr	r2, [sp, #4]
 309 0262 4FF45053 		mov	r3, #13312
 310 0266 C4F20103 		movt	r3, 16385
 311 026a 9A42     		cmp	r2, r3
 312 026c 14D0     		beq	.L16
 313 026e 019A     		ldr	r2, [sp, #4]
 314 0270 4FF48043 		mov	r3, #16384
 315 0274 C4F20103 		movt	r3, 16385
 316 0278 9A42     		cmp	r2, r3
 317 027a 0DD0     		beq	.L16
 318 027c 019A     		ldr	r2, [sp, #4]
 319 027e 4FF48843 		mov	r3, #17408
 320 0282 C4F20103 		movt	r3, 16385
 321 0286 9A42     		cmp	r2, r3
 322 0288 06D0     		beq	.L16
 302:../Libraries/STM32F30x_StdPeriph_Driver/src/stm32f30x_tim.c ****       (TIMx == TIM16) || (TIMx == TIM17))  
 323              		.loc 1 302 0 is_stmt 1
 324 028a 019A     		ldr	r2, [sp, #4]
 325 028c 4FF49043 		mov	r3, #18432
 326 0290 C4F20103 		movt	r3, 16385
 327 0294 9A42     		cmp	r2, r3
 328 0296 04D1     		bne	.L17
 329              	.L16:
 303:../Libraries/STM32F30x_StdPeriph_Driver/src/stm32f30x_tim.c ****   {
 304:../Libraries/STM32F30x_StdPeriph_Driver/src/stm32f30x_tim.c ****     /* Set the Repetition Counter value */
 305:../Libraries/STM32F30x_StdPeriph_Driver/src/stm32f30x_tim.c ****     TIMx->RCR = TIM_TimeBaseInitStruct->TIM_RepetitionCounter;
 330              		.loc 1 305 0
 331 0298 009B     		ldr	r3, [sp, #0]
 332 029a 9B7A     		ldrb	r3, [r3, #10]	@ zero_extendqisi2
 333 029c 1A46     		mov	r2, r3
 334 029e 019B     		ldr	r3, [sp, #4]
 335 02a0 1A86     		strh	r2, [r3, #48]	@ movhi
 336              	.L17:
 306:../Libraries/STM32F30x_StdPeriph_Driver/src/stm32f30x_tim.c ****   }
 307:../Libraries/STM32F30x_StdPeriph_Driver/src/stm32f30x_tim.c **** 
 308:../Libraries/STM32F30x_StdPeriph_Driver/src/stm32f30x_tim.c ****   /* Generate an update event to reload the Prescaler 
 309:../Libraries/STM32F30x_StdPeriph_Driver/src/stm32f30x_tim.c ****      and the repetition counter(only for TIM1 and TIM8) value immediatly */
 310:../Libraries/STM32F30x_StdPeriph_Driver/src/stm32f30x_tim.c ****   TIMx->EGR = TIM_PSCReloadMode_Immediate;          
 337              		.loc 1 310 0
 338 02a2 019B     		ldr	r3, [sp, #4]
 339 02a4 4FF00102 		mov	r2, #1
 340 02a8 5A61     		str	r2, [r3, #20]
 311:../Libraries/STM32F30x_StdPeriph_Driver/src/stm32f30x_tim.c **** }
 341              		.loc 1 311 0
 342 02aa 04B0     		add	sp, sp, #16
 343 02ac 7047     		bx	lr
 344              		.cfi_endproc
 345              	.LFE112:
 347 02ae 00BF     		.align	2
 348              		.global	TIM_TimeBaseStructInit
 349              		.thumb
 350              		.thumb_func
 352              	TIM_TimeBaseStructInit:
 353              	.LFB113:
 312:../Libraries/STM32F30x_StdPeriph_Driver/src/stm32f30x_tim.c **** 
 313:../Libraries/STM32F30x_StdPeriph_Driver/src/stm32f30x_tim.c **** /**
 314:../Libraries/STM32F30x_StdPeriph_Driver/src/stm32f30x_tim.c ****   * @brief  Fills each TIM_TimeBaseInitStruct member with its default value.
 315:../Libraries/STM32F30x_StdPeriph_Driver/src/stm32f30x_tim.c ****   * @param  TIM_TimeBaseInitStruct : pointer to a TIM_TimeBaseInitTypeDef
 316:../Libraries/STM32F30x_StdPeriph_Driver/src/stm32f30x_tim.c ****   *         structure which will be initialized.
 317:../Libraries/STM32F30x_StdPeriph_Driver/src/stm32f30x_tim.c ****   * @retval None
 318:../Libraries/STM32F30x_StdPeriph_Driver/src/stm32f30x_tim.c ****   */
 319:../Libraries/STM32F30x_StdPeriph_Driver/src/stm32f30x_tim.c **** void TIM_TimeBaseStructInit(TIM_TimeBaseInitTypeDef* TIM_TimeBaseInitStruct)
 320:../Libraries/STM32F30x_StdPeriph_Driver/src/stm32f30x_tim.c **** {
 354              		.loc 1 320 0
 355              		.cfi_startproc
 356              		@ args = 0, pretend = 0, frame = 8
 357              		@ frame_needed = 0, uses_anonymous_args = 0
 358              		@ link register save eliminated.
 359 02b0 82B0     		sub	sp, sp, #8
 360              	.LCFI3:
 361              		.cfi_def_cfa_offset 8
 362 02b2 0190     		str	r0, [sp, #4]
 321:../Libraries/STM32F30x_StdPeriph_Driver/src/stm32f30x_tim.c ****   /* Set the default configuration */
 322:../Libraries/STM32F30x_StdPeriph_Driver/src/stm32f30x_tim.c ****   TIM_TimeBaseInitStruct->TIM_Period = 0xFFFFFFFF;
 363              		.loc 1 322 0
 364 02b4 019B     		ldr	r3, [sp, #4]
 365 02b6 4FF0FF32 		mov	r2, #-1
 366 02ba 5A60     		str	r2, [r3, #4]
 323:../Libraries/STM32F30x_StdPeriph_Driver/src/stm32f30x_tim.c ****   TIM_TimeBaseInitStruct->TIM_Prescaler = 0x0000;
 367              		.loc 1 323 0
 368 02bc 019B     		ldr	r3, [sp, #4]
 369 02be 4FF00002 		mov	r2, #0
 370 02c2 1A80     		strh	r2, [r3, #0]	@ movhi
 324:../Libraries/STM32F30x_StdPeriph_Driver/src/stm32f30x_tim.c ****   TIM_TimeBaseInitStruct->TIM_ClockDivision = TIM_CKD_DIV1;
 371              		.loc 1 324 0
 372 02c4 019B     		ldr	r3, [sp, #4]
 373 02c6 4FF00002 		mov	r2, #0
 374 02ca 1A81     		strh	r2, [r3, #8]	@ movhi
 325:../Libraries/STM32F30x_StdPeriph_Driver/src/stm32f30x_tim.c ****   TIM_TimeBaseInitStruct->TIM_CounterMode = TIM_CounterMode_Up;
 375              		.loc 1 325 0
 376 02cc 019B     		ldr	r3, [sp, #4]
 377 02ce 4FF00002 		mov	r2, #0
 378 02d2 5A80     		strh	r2, [r3, #2]	@ movhi
 326:../Libraries/STM32F30x_StdPeriph_Driver/src/stm32f30x_tim.c ****   TIM_TimeBaseInitStruct->TIM_RepetitionCounter = 0x0000;
 379              		.loc 1 326 0
 380 02d4 019B     		ldr	r3, [sp, #4]
 381 02d6 4FF00002 		mov	r2, #0
 382 02da 9A72     		strb	r2, [r3, #10]
 327:../Libraries/STM32F30x_StdPeriph_Driver/src/stm32f30x_tim.c **** }
 383              		.loc 1 327 0
 384 02dc 02B0     		add	sp, sp, #8
 385 02de 7047     		bx	lr
 386              		.cfi_endproc
 387              	.LFE113:
 389              		.align	2
 390              		.global	TIM_PrescalerConfig
 391              		.thumb
 392              		.thumb_func
 394              	TIM_PrescalerConfig:
 395              	.LFB114:
 328:../Libraries/STM32F30x_StdPeriph_Driver/src/stm32f30x_tim.c **** 
 329:../Libraries/STM32F30x_StdPeriph_Driver/src/stm32f30x_tim.c **** /**
 330:../Libraries/STM32F30x_StdPeriph_Driver/src/stm32f30x_tim.c ****   * @brief  Configures the TIMx Prescaler.
 331:../Libraries/STM32F30x_StdPeriph_Driver/src/stm32f30x_tim.c ****   * @param  TIMx: where x can be  1, 2, 3, 4, 8, 15, 16 or 17 to select the TIM peripheral.
 332:../Libraries/STM32F30x_StdPeriph_Driver/src/stm32f30x_tim.c ****   * @param  Prescaler: specifies the Prescaler Register value
 333:../Libraries/STM32F30x_StdPeriph_Driver/src/stm32f30x_tim.c ****   * @param  TIM_PSCReloadMode: specifies the TIM Prescaler Reload mode
 334:../Libraries/STM32F30x_StdPeriph_Driver/src/stm32f30x_tim.c ****   *          This parameter can be one of the following values:
 335:../Libraries/STM32F30x_StdPeriph_Driver/src/stm32f30x_tim.c ****   *            @arg TIM_PSCReloadMode_Update: The Prescaler is loaded at the update event.
 336:../Libraries/STM32F30x_StdPeriph_Driver/src/stm32f30x_tim.c ****   *            @arg TIM_PSCReloadMode_Immediate: The Prescaler is loaded immediatly.
 337:../Libraries/STM32F30x_StdPeriph_Driver/src/stm32f30x_tim.c ****   * @retval None
 338:../Libraries/STM32F30x_StdPeriph_Driver/src/stm32f30x_tim.c ****   */
 339:../Libraries/STM32F30x_StdPeriph_Driver/src/stm32f30x_tim.c **** void TIM_PrescalerConfig(TIM_TypeDef* TIMx, uint16_t Prescaler, uint16_t TIM_PSCReloadMode)
 340:../Libraries/STM32F30x_StdPeriph_Driver/src/stm32f30x_tim.c **** {
 396              		.loc 1 340 0
 397              		.cfi_startproc
 398              		@ args = 0, pretend = 0, frame = 8
 399              		@ frame_needed = 0, uses_anonymous_args = 0
 400              		@ link register save eliminated.
 401 02e0 82B0     		sub	sp, sp, #8
 402              	.LCFI4:
 403              		.cfi_def_cfa_offset 8
 404 02e2 0190     		str	r0, [sp, #4]
 405 02e4 1346     		mov	r3, r2
 406 02e6 0A46     		mov	r2, r1	@ movhi
 407 02e8 ADF80220 		strh	r2, [sp, #2]	@ movhi
 408 02ec ADF80030 		strh	r3, [sp, #0]	@ movhi
 341:../Libraries/STM32F30x_StdPeriph_Driver/src/stm32f30x_tim.c ****   /* Check the parameters */
 342:../Libraries/STM32F30x_StdPeriph_Driver/src/stm32f30x_tim.c ****   assert_param(IS_TIM_ALL_PERIPH(TIMx));
 343:../Libraries/STM32F30x_StdPeriph_Driver/src/stm32f30x_tim.c ****   assert_param(IS_TIM_PRESCALER_RELOAD(TIM_PSCReloadMode));
 344:../Libraries/STM32F30x_StdPeriph_Driver/src/stm32f30x_tim.c ****   /* Set the Prescaler value */
 345:../Libraries/STM32F30x_StdPeriph_Driver/src/stm32f30x_tim.c ****   TIMx->PSC = Prescaler;
 409              		.loc 1 345 0
 410 02f0 019B     		ldr	r3, [sp, #4]
 411 02f2 BDF80220 		ldrh	r2, [sp, #2]	@ movhi
 412 02f6 1A85     		strh	r2, [r3, #40]	@ movhi
 346:../Libraries/STM32F30x_StdPeriph_Driver/src/stm32f30x_tim.c ****   /* Set or reset the UG Bit */
 347:../Libraries/STM32F30x_StdPeriph_Driver/src/stm32f30x_tim.c ****   TIMx->EGR = TIM_PSCReloadMode;
 413              		.loc 1 347 0
 414 02f8 BDF80020 		ldrh	r2, [sp, #0]
 415 02fc 019B     		ldr	r3, [sp, #4]
 416 02fe 5A61     		str	r2, [r3, #20]
 348:../Libraries/STM32F30x_StdPeriph_Driver/src/stm32f30x_tim.c **** }
 417              		.loc 1 348 0
 418 0300 02B0     		add	sp, sp, #8
 419 0302 7047     		bx	lr
 420              		.cfi_endproc
 421              	.LFE114:
 423              		.align	2
 424              		.global	TIM_CounterModeConfig
 425              		.thumb
 426              		.thumb_func
 428              	TIM_CounterModeConfig:
 429              	.LFB115:
 349:../Libraries/STM32F30x_StdPeriph_Driver/src/stm32f30x_tim.c **** 
 350:../Libraries/STM32F30x_StdPeriph_Driver/src/stm32f30x_tim.c **** /**
 351:../Libraries/STM32F30x_StdPeriph_Driver/src/stm32f30x_tim.c ****   * @brief  Specifies the TIMx Counter Mode to be used.
 352:../Libraries/STM32F30x_StdPeriph_Driver/src/stm32f30x_tim.c ****   * @param  TIMx: where x can be  1, 2, 3, 4 or 8 to select the TIM peripheral.
 353:../Libraries/STM32F30x_StdPeriph_Driver/src/stm32f30x_tim.c ****   * @param  TIM_CounterMode: specifies the Counter Mode to be used
 354:../Libraries/STM32F30x_StdPeriph_Driver/src/stm32f30x_tim.c ****   *          This parameter can be one of the following values:
 355:../Libraries/STM32F30x_StdPeriph_Driver/src/stm32f30x_tim.c ****   *            @arg TIM_CounterMode_Up: TIM Up Counting Mode
 356:../Libraries/STM32F30x_StdPeriph_Driver/src/stm32f30x_tim.c ****   *            @arg TIM_CounterMode_Down: TIM Down Counting Mode
 357:../Libraries/STM32F30x_StdPeriph_Driver/src/stm32f30x_tim.c ****   *            @arg TIM_CounterMode_CenterAligned1: TIM Center Aligned Mode1
 358:../Libraries/STM32F30x_StdPeriph_Driver/src/stm32f30x_tim.c ****   *            @arg TIM_CounterMode_CenterAligned2: TIM Center Aligned Mode2
 359:../Libraries/STM32F30x_StdPeriph_Driver/src/stm32f30x_tim.c ****   *            @arg TIM_CounterMode_CenterAligned3: TIM Center Aligned Mode3
 360:../Libraries/STM32F30x_StdPeriph_Driver/src/stm32f30x_tim.c ****   * @retval None
 361:../Libraries/STM32F30x_StdPeriph_Driver/src/stm32f30x_tim.c ****   */
 362:../Libraries/STM32F30x_StdPeriph_Driver/src/stm32f30x_tim.c **** void TIM_CounterModeConfig(TIM_TypeDef* TIMx, uint16_t TIM_CounterMode)
 363:../Libraries/STM32F30x_StdPeriph_Driver/src/stm32f30x_tim.c **** {
 430              		.loc 1 363 0
 431              		.cfi_startproc
 432              		@ args = 0, pretend = 0, frame = 16
 433              		@ frame_needed = 0, uses_anonymous_args = 0
 434              		@ link register save eliminated.
 435 0304 84B0     		sub	sp, sp, #16
 436              	.LCFI5:
 437              		.cfi_def_cfa_offset 16
 438 0306 0190     		str	r0, [sp, #4]
 439 0308 0B46     		mov	r3, r1
 440 030a ADF80230 		strh	r3, [sp, #2]	@ movhi
 364:../Libraries/STM32F30x_StdPeriph_Driver/src/stm32f30x_tim.c ****   uint16_t tmpcr1 = 0;
 441              		.loc 1 364 0
 442 030e 4FF00003 		mov	r3, #0
 443 0312 ADF80E30 		strh	r3, [sp, #14]	@ movhi
 365:../Libraries/STM32F30x_StdPeriph_Driver/src/stm32f30x_tim.c **** 
 366:../Libraries/STM32F30x_StdPeriph_Driver/src/stm32f30x_tim.c ****   /* Check the parameters */
 367:../Libraries/STM32F30x_StdPeriph_Driver/src/stm32f30x_tim.c ****   assert_param(IS_TIM_LIST3_PERIPH(TIMx));
 368:../Libraries/STM32F30x_StdPeriph_Driver/src/stm32f30x_tim.c ****   assert_param(IS_TIM_COUNTER_MODE(TIM_CounterMode));
 369:../Libraries/STM32F30x_StdPeriph_Driver/src/stm32f30x_tim.c **** 
 370:../Libraries/STM32F30x_StdPeriph_Driver/src/stm32f30x_tim.c ****   tmpcr1 = TIMx->CR1;
 444              		.loc 1 370 0
 445 0316 019B     		ldr	r3, [sp, #4]
 446 0318 1B88     		ldrh	r3, [r3, #0]	@ movhi
 447 031a ADF80E30 		strh	r3, [sp, #14]	@ movhi
 371:../Libraries/STM32F30x_StdPeriph_Driver/src/stm32f30x_tim.c **** 
 372:../Libraries/STM32F30x_StdPeriph_Driver/src/stm32f30x_tim.c ****   /* Reset the CMS and DIR Bits */
 373:../Libraries/STM32F30x_StdPeriph_Driver/src/stm32f30x_tim.c ****   tmpcr1 &= (uint16_t)~(TIM_CR1_DIR | TIM_CR1_CMS);
 448              		.loc 1 373 0
 449 031e BDF80E30 		ldrh	r3, [sp, #14]	@ movhi
 450 0322 23F07003 		bic	r3, r3, #112
 451 0326 ADF80E30 		strh	r3, [sp, #14]	@ movhi
 374:../Libraries/STM32F30x_StdPeriph_Driver/src/stm32f30x_tim.c **** 
 375:../Libraries/STM32F30x_StdPeriph_Driver/src/stm32f30x_tim.c ****   /* Set the Counter Mode */
 376:../Libraries/STM32F30x_StdPeriph_Driver/src/stm32f30x_tim.c ****   tmpcr1 |= TIM_CounterMode;
 452              		.loc 1 376 0
 453 032a BDF80E20 		ldrh	r2, [sp, #14]	@ movhi
 454 032e BDF80230 		ldrh	r3, [sp, #2]	@ movhi
 455 0332 1343     		orrs	r3, r3, r2
 456 0334 ADF80E30 		strh	r3, [sp, #14]	@ movhi
 377:../Libraries/STM32F30x_StdPeriph_Driver/src/stm32f30x_tim.c **** 
 378:../Libraries/STM32F30x_StdPeriph_Driver/src/stm32f30x_tim.c ****   /* Write to TIMx CR1 register */
 379:../Libraries/STM32F30x_StdPeriph_Driver/src/stm32f30x_tim.c ****   TIMx->CR1 = tmpcr1;
 457              		.loc 1 379 0
 458 0338 019B     		ldr	r3, [sp, #4]
 459 033a BDF80E20 		ldrh	r2, [sp, #14]	@ movhi
 460 033e 1A80     		strh	r2, [r3, #0]	@ movhi
 380:../Libraries/STM32F30x_StdPeriph_Driver/src/stm32f30x_tim.c **** }
 461              		.loc 1 380 0
 462 0340 04B0     		add	sp, sp, #16
 463 0342 7047     		bx	lr
 464              		.cfi_endproc
 465              	.LFE115:
 467              		.align	2
 468              		.global	TIM_SetCounter
 469              		.thumb
 470              		.thumb_func
 472              	TIM_SetCounter:
 473              	.LFB116:
 381:../Libraries/STM32F30x_StdPeriph_Driver/src/stm32f30x_tim.c **** 
 382:../Libraries/STM32F30x_StdPeriph_Driver/src/stm32f30x_tim.c **** /**
 383:../Libraries/STM32F30x_StdPeriph_Driver/src/stm32f30x_tim.c ****   * @brief  Sets the TIMx Counter Register value
 384:../Libraries/STM32F30x_StdPeriph_Driver/src/stm32f30x_tim.c ****   * @param  TIMx: where x can be 1, 2, 3, 4, 6 ,7 ,8, 15, 16 or 17 to select the TIM peripheral.
 385:../Libraries/STM32F30x_StdPeriph_Driver/src/stm32f30x_tim.c ****   * @param  Counter: specifies the Counter register new value.
 386:../Libraries/STM32F30x_StdPeriph_Driver/src/stm32f30x_tim.c ****   * @retval None
 387:../Libraries/STM32F30x_StdPeriph_Driver/src/stm32f30x_tim.c ****   */
 388:../Libraries/STM32F30x_StdPeriph_Driver/src/stm32f30x_tim.c **** void TIM_SetCounter(TIM_TypeDef* TIMx, uint32_t Counter)
 389:../Libraries/STM32F30x_StdPeriph_Driver/src/stm32f30x_tim.c **** {
 474              		.loc 1 389 0
 475              		.cfi_startproc
 476              		@ args = 0, pretend = 0, frame = 8
 477              		@ frame_needed = 0, uses_anonymous_args = 0
 478              		@ link register save eliminated.
 479 0344 82B0     		sub	sp, sp, #8
 480              	.LCFI6:
 481              		.cfi_def_cfa_offset 8
 482 0346 0190     		str	r0, [sp, #4]
 483 0348 0091     		str	r1, [sp, #0]
 390:../Libraries/STM32F30x_StdPeriph_Driver/src/stm32f30x_tim.c ****   /* Check the parameters */
 391:../Libraries/STM32F30x_StdPeriph_Driver/src/stm32f30x_tim.c ****    assert_param(IS_TIM_ALL_PERIPH(TIMx));
 392:../Libraries/STM32F30x_StdPeriph_Driver/src/stm32f30x_tim.c **** 
 393:../Libraries/STM32F30x_StdPeriph_Driver/src/stm32f30x_tim.c ****   /* Set the Counter Register value */
 394:../Libraries/STM32F30x_StdPeriph_Driver/src/stm32f30x_tim.c ****   TIMx->CNT = Counter;
 484              		.loc 1 394 0
 485 034a 019B     		ldr	r3, [sp, #4]
 486 034c 009A     		ldr	r2, [sp, #0]
 487 034e 5A62     		str	r2, [r3, #36]
 395:../Libraries/STM32F30x_StdPeriph_Driver/src/stm32f30x_tim.c **** }
 488              		.loc 1 395 0
 489 0350 02B0     		add	sp, sp, #8
 490 0352 7047     		bx	lr
 491              		.cfi_endproc
 492              	.LFE116:
 494              		.align	2
 495              		.global	TIM_SetAutoreload
 496              		.thumb
 497              		.thumb_func
 499              	TIM_SetAutoreload:
 500              	.LFB117:
 396:../Libraries/STM32F30x_StdPeriph_Driver/src/stm32f30x_tim.c **** 
 397:../Libraries/STM32F30x_StdPeriph_Driver/src/stm32f30x_tim.c **** /**
 398:../Libraries/STM32F30x_StdPeriph_Driver/src/stm32f30x_tim.c ****   * @brief  Sets the TIMx Autoreload Register value
 399:../Libraries/STM32F30x_StdPeriph_Driver/src/stm32f30x_tim.c ****   * @param  TIMx: where x can be 1, 2, 3, 4, 6 ,7 ,8, 15, 16 or 17 to select the TIM peripheral.
 400:../Libraries/STM32F30x_StdPeriph_Driver/src/stm32f30x_tim.c ****   * @param  Autoreload: specifies the Autoreload register new value.
 401:../Libraries/STM32F30x_StdPeriph_Driver/src/stm32f30x_tim.c ****   * @retval None
 402:../Libraries/STM32F30x_StdPeriph_Driver/src/stm32f30x_tim.c ****   */
 403:../Libraries/STM32F30x_StdPeriph_Driver/src/stm32f30x_tim.c **** void TIM_SetAutoreload(TIM_TypeDef* TIMx, uint32_t Autoreload)
 404:../Libraries/STM32F30x_StdPeriph_Driver/src/stm32f30x_tim.c **** {
 501              		.loc 1 404 0
 502              		.cfi_startproc
 503              		@ args = 0, pretend = 0, frame = 8
 504              		@ frame_needed = 0, uses_anonymous_args = 0
 505              		@ link register save eliminated.
 506 0354 82B0     		sub	sp, sp, #8
 507              	.LCFI7:
 508              		.cfi_def_cfa_offset 8
 509 0356 0190     		str	r0, [sp, #4]
 510 0358 0091     		str	r1, [sp, #0]
 405:../Libraries/STM32F30x_StdPeriph_Driver/src/stm32f30x_tim.c ****   /* Check the parameters */
 406:../Libraries/STM32F30x_StdPeriph_Driver/src/stm32f30x_tim.c ****   assert_param(IS_TIM_ALL_PERIPH(TIMx));
 407:../Libraries/STM32F30x_StdPeriph_Driver/src/stm32f30x_tim.c ****   
 408:../Libraries/STM32F30x_StdPeriph_Driver/src/stm32f30x_tim.c ****   /* Set the Autoreload Register value */
 409:../Libraries/STM32F30x_StdPeriph_Driver/src/stm32f30x_tim.c ****   TIMx->ARR = Autoreload;
 511              		.loc 1 409 0
 512 035a 019B     		ldr	r3, [sp, #4]
 513 035c 009A     		ldr	r2, [sp, #0]
 514 035e DA62     		str	r2, [r3, #44]
 410:../Libraries/STM32F30x_StdPeriph_Driver/src/stm32f30x_tim.c **** }
 515              		.loc 1 410 0
 516 0360 02B0     		add	sp, sp, #8
 517 0362 7047     		bx	lr
 518              		.cfi_endproc
 519              	.LFE117:
 521              		.align	2
 522              		.global	TIM_GetCounter
 523              		.thumb
 524              		.thumb_func
 526              	TIM_GetCounter:
 527              	.LFB118:
 411:../Libraries/STM32F30x_StdPeriph_Driver/src/stm32f30x_tim.c **** 
 412:../Libraries/STM32F30x_StdPeriph_Driver/src/stm32f30x_tim.c **** /**
 413:../Libraries/STM32F30x_StdPeriph_Driver/src/stm32f30x_tim.c ****   * @brief  Gets the TIMx Counter value.
 414:../Libraries/STM32F30x_StdPeriph_Driver/src/stm32f30x_tim.c ****   * @param  TIMx: where x can be 1, 2, 3, 4, 6 ,7 ,8, 15, 16 or 17 to select the TIM peripheral.
 415:../Libraries/STM32F30x_StdPeriph_Driver/src/stm32f30x_tim.c ****   * @retval Counter Register value
 416:../Libraries/STM32F30x_StdPeriph_Driver/src/stm32f30x_tim.c ****   */
 417:../Libraries/STM32F30x_StdPeriph_Driver/src/stm32f30x_tim.c **** uint32_t TIM_GetCounter(TIM_TypeDef* TIMx)
 418:../Libraries/STM32F30x_StdPeriph_Driver/src/stm32f30x_tim.c **** {
 528              		.loc 1 418 0
 529              		.cfi_startproc
 530              		@ args = 0, pretend = 0, frame = 8
 531              		@ frame_needed = 0, uses_anonymous_args = 0
 532              		@ link register save eliminated.
 533 0364 82B0     		sub	sp, sp, #8
 534              	.LCFI8:
 535              		.cfi_def_cfa_offset 8
 536 0366 0190     		str	r0, [sp, #4]
 419:../Libraries/STM32F30x_StdPeriph_Driver/src/stm32f30x_tim.c ****   /* Check the parameters */
 420:../Libraries/STM32F30x_StdPeriph_Driver/src/stm32f30x_tim.c ****   assert_param(IS_TIM_ALL_PERIPH(TIMx));
 421:../Libraries/STM32F30x_StdPeriph_Driver/src/stm32f30x_tim.c **** 
 422:../Libraries/STM32F30x_StdPeriph_Driver/src/stm32f30x_tim.c ****   /* Get the Counter Register value */
 423:../Libraries/STM32F30x_StdPeriph_Driver/src/stm32f30x_tim.c ****   return TIMx->CNT;
 537              		.loc 1 423 0
 538 0368 019B     		ldr	r3, [sp, #4]
 539 036a 5B6A     		ldr	r3, [r3, #36]
 424:../Libraries/STM32F30x_StdPeriph_Driver/src/stm32f30x_tim.c **** }
 540              		.loc 1 424 0
 541 036c 1846     		mov	r0, r3
 542 036e 02B0     		add	sp, sp, #8
 543 0370 7047     		bx	lr
 544              		.cfi_endproc
 545              	.LFE118:
 547 0372 00BF     		.align	2
 548              		.global	TIM_GetPrescaler
 549              		.thumb
 550              		.thumb_func
 552              	TIM_GetPrescaler:
 553              	.LFB119:
 425:../Libraries/STM32F30x_StdPeriph_Driver/src/stm32f30x_tim.c **** 
 426:../Libraries/STM32F30x_StdPeriph_Driver/src/stm32f30x_tim.c **** /**
 427:../Libraries/STM32F30x_StdPeriph_Driver/src/stm32f30x_tim.c ****   * @brief  Gets the TIMx Prescaler value.
 428:../Libraries/STM32F30x_StdPeriph_Driver/src/stm32f30x_tim.c ****   * @param  TIMx: where x can be 1, 2, 3, 4, 6 ,7 ,8, 15, 16 or 17 to select the TIM peripheral.
 429:../Libraries/STM32F30x_StdPeriph_Driver/src/stm32f30x_tim.c ****   * @retval Prescaler Register value.
 430:../Libraries/STM32F30x_StdPeriph_Driver/src/stm32f30x_tim.c ****   */
 431:../Libraries/STM32F30x_StdPeriph_Driver/src/stm32f30x_tim.c **** uint16_t TIM_GetPrescaler(TIM_TypeDef* TIMx)
 432:../Libraries/STM32F30x_StdPeriph_Driver/src/stm32f30x_tim.c **** {
 554              		.loc 1 432 0
 555              		.cfi_startproc
 556              		@ args = 0, pretend = 0, frame = 8
 557              		@ frame_needed = 0, uses_anonymous_args = 0
 558              		@ link register save eliminated.
 559 0374 82B0     		sub	sp, sp, #8
 560              	.LCFI9:
 561              		.cfi_def_cfa_offset 8
 562 0376 0190     		str	r0, [sp, #4]
 433:../Libraries/STM32F30x_StdPeriph_Driver/src/stm32f30x_tim.c ****   /* Check the parameters */
 434:../Libraries/STM32F30x_StdPeriph_Driver/src/stm32f30x_tim.c ****   assert_param(IS_TIM_ALL_PERIPH(TIMx));
 435:../Libraries/STM32F30x_StdPeriph_Driver/src/stm32f30x_tim.c **** 
 436:../Libraries/STM32F30x_StdPeriph_Driver/src/stm32f30x_tim.c ****   /* Get the Prescaler Register value */
 437:../Libraries/STM32F30x_StdPeriph_Driver/src/stm32f30x_tim.c ****   return TIMx->PSC;
 563              		.loc 1 437 0
 564 0378 019B     		ldr	r3, [sp, #4]
 565 037a 1B8D     		ldrh	r3, [r3, #40]	@ movhi
 566 037c 9BB2     		uxth	r3, r3
 438:../Libraries/STM32F30x_StdPeriph_Driver/src/stm32f30x_tim.c **** }
 567              		.loc 1 438 0
 568 037e 1846     		mov	r0, r3
 569 0380 02B0     		add	sp, sp, #8
 570 0382 7047     		bx	lr
 571              		.cfi_endproc
 572              	.LFE119:
 574              		.align	2
 575              		.global	TIM_UpdateDisableConfig
 576              		.thumb
 577              		.thumb_func
 579              	TIM_UpdateDisableConfig:
 580              	.LFB120:
 439:../Libraries/STM32F30x_StdPeriph_Driver/src/stm32f30x_tim.c **** 
 440:../Libraries/STM32F30x_StdPeriph_Driver/src/stm32f30x_tim.c **** /**
 441:../Libraries/STM32F30x_StdPeriph_Driver/src/stm32f30x_tim.c ****   * @brief  Enables or Disables the TIMx Update event.
 442:../Libraries/STM32F30x_StdPeriph_Driver/src/stm32f30x_tim.c ****   * @param  TIMx: where x can be 1, 2, 3, 4, 6 ,7 ,8, 15, 16 or 17 to select the TIM peripheral.
 443:../Libraries/STM32F30x_StdPeriph_Driver/src/stm32f30x_tim.c ****   * @param  NewState: new state of the TIMx UDIS bit
 444:../Libraries/STM32F30x_StdPeriph_Driver/src/stm32f30x_tim.c ****   *          This parameter can be: ENABLE or DISABLE.
 445:../Libraries/STM32F30x_StdPeriph_Driver/src/stm32f30x_tim.c ****   * @retval None
 446:../Libraries/STM32F30x_StdPeriph_Driver/src/stm32f30x_tim.c ****   */
 447:../Libraries/STM32F30x_StdPeriph_Driver/src/stm32f30x_tim.c **** void TIM_UpdateDisableConfig(TIM_TypeDef* TIMx, FunctionalState NewState)
 448:../Libraries/STM32F30x_StdPeriph_Driver/src/stm32f30x_tim.c **** {
 581              		.loc 1 448 0
 582              		.cfi_startproc
 583              		@ args = 0, pretend = 0, frame = 8
 584              		@ frame_needed = 0, uses_anonymous_args = 0
 585              		@ link register save eliminated.
 586 0384 82B0     		sub	sp, sp, #8
 587              	.LCFI10:
 588              		.cfi_def_cfa_offset 8
 589 0386 0190     		str	r0, [sp, #4]
 590 0388 0B46     		mov	r3, r1
 591 038a 8DF80330 		strb	r3, [sp, #3]
 449:../Libraries/STM32F30x_StdPeriph_Driver/src/stm32f30x_tim.c ****   /* Check the parameters */
 450:../Libraries/STM32F30x_StdPeriph_Driver/src/stm32f30x_tim.c ****   assert_param(IS_TIM_ALL_PERIPH(TIMx));
 451:../Libraries/STM32F30x_StdPeriph_Driver/src/stm32f30x_tim.c ****   assert_param(IS_FUNCTIONAL_STATE(NewState));
 452:../Libraries/STM32F30x_StdPeriph_Driver/src/stm32f30x_tim.c **** 
 453:../Libraries/STM32F30x_StdPeriph_Driver/src/stm32f30x_tim.c ****   if (NewState != DISABLE)
 592              		.loc 1 453 0
 593 038e 9DF80330 		ldrb	r3, [sp, #3]	@ zero_extendqisi2
 594 0392 002B     		cmp	r3, #0
 595 0394 08D0     		beq	.L26
 454:../Libraries/STM32F30x_StdPeriph_Driver/src/stm32f30x_tim.c ****   {
 455:../Libraries/STM32F30x_StdPeriph_Driver/src/stm32f30x_tim.c ****     /* Set the Update Disable Bit */
 456:../Libraries/STM32F30x_StdPeriph_Driver/src/stm32f30x_tim.c ****     TIMx->CR1 |= TIM_CR1_UDIS;
 596              		.loc 1 456 0
 597 0396 019B     		ldr	r3, [sp, #4]
 598 0398 1B88     		ldrh	r3, [r3, #0]	@ movhi
 599 039a 9BB2     		uxth	r3, r3
 600 039c 43F00203 		orr	r3, r3, #2
 601 03a0 9AB2     		uxth	r2, r3
 602 03a2 019B     		ldr	r3, [sp, #4]
 603 03a4 1A80     		strh	r2, [r3, #0]	@ movhi
 604 03a6 07E0     		b	.L25
 605              	.L26:
 457:../Libraries/STM32F30x_StdPeriph_Driver/src/stm32f30x_tim.c ****   }
 458:../Libraries/STM32F30x_StdPeriph_Driver/src/stm32f30x_tim.c ****   else
 459:../Libraries/STM32F30x_StdPeriph_Driver/src/stm32f30x_tim.c ****   {
 460:../Libraries/STM32F30x_StdPeriph_Driver/src/stm32f30x_tim.c ****     /* Reset the Update Disable Bit */
 461:../Libraries/STM32F30x_StdPeriph_Driver/src/stm32f30x_tim.c ****     TIMx->CR1 &= (uint16_t)~TIM_CR1_UDIS;
 606              		.loc 1 461 0
 607 03a8 019B     		ldr	r3, [sp, #4]
 608 03aa 1B88     		ldrh	r3, [r3, #0]	@ movhi
 609 03ac 9BB2     		uxth	r3, r3
 610 03ae 23F00203 		bic	r3, r3, #2
 611 03b2 9AB2     		uxth	r2, r3
 612 03b4 019B     		ldr	r3, [sp, #4]
 613 03b6 1A80     		strh	r2, [r3, #0]	@ movhi
 614              	.L25:
 462:../Libraries/STM32F30x_StdPeriph_Driver/src/stm32f30x_tim.c ****   }
 463:../Libraries/STM32F30x_StdPeriph_Driver/src/stm32f30x_tim.c **** }
 615              		.loc 1 463 0
 616 03b8 02B0     		add	sp, sp, #8
 617 03ba 7047     		bx	lr
 618              		.cfi_endproc
 619              	.LFE120:
 621              		.align	2
 622              		.global	TIM_UpdateRequestConfig
 623              		.thumb
 624              		.thumb_func
 626              	TIM_UpdateRequestConfig:
 627              	.LFB121:
 464:../Libraries/STM32F30x_StdPeriph_Driver/src/stm32f30x_tim.c **** 
 465:../Libraries/STM32F30x_StdPeriph_Driver/src/stm32f30x_tim.c **** /**
 466:../Libraries/STM32F30x_StdPeriph_Driver/src/stm32f30x_tim.c ****   * @brief  Configures the TIMx Update Request Interrupt source.
 467:../Libraries/STM32F30x_StdPeriph_Driver/src/stm32f30x_tim.c ****   * @param  TIMx: where x can be 1, 2, 3, 4, 6 ,7 ,8, 15, 16 or 17 to select the TIM peripheral.
 468:../Libraries/STM32F30x_StdPeriph_Driver/src/stm32f30x_tim.c ****   * @param  TIM_UpdateSource: specifies the Update source.
 469:../Libraries/STM32F30x_StdPeriph_Driver/src/stm32f30x_tim.c ****   *          This parameter can be one of the following values:
 470:../Libraries/STM32F30x_StdPeriph_Driver/src/stm32f30x_tim.c ****   *            @arg TIM_UpdateSource_Regular: Source of update is the counter
 471:../Libraries/STM32F30x_StdPeriph_Driver/src/stm32f30x_tim.c ****   *                 overflow/underflow or the setting of UG bit, or an update
 472:../Libraries/STM32F30x_StdPeriph_Driver/src/stm32f30x_tim.c ****   *                 generation through the slave mode controller.
 473:../Libraries/STM32F30x_StdPeriph_Driver/src/stm32f30x_tim.c ****   *            @arg TIM_UpdateSource_Global: Source of update is counter overflow/underflow.
 474:../Libraries/STM32F30x_StdPeriph_Driver/src/stm32f30x_tim.c ****   * @retval None
 475:../Libraries/STM32F30x_StdPeriph_Driver/src/stm32f30x_tim.c ****   */
 476:../Libraries/STM32F30x_StdPeriph_Driver/src/stm32f30x_tim.c **** void TIM_UpdateRequestConfig(TIM_TypeDef* TIMx, uint16_t TIM_UpdateSource)
 477:../Libraries/STM32F30x_StdPeriph_Driver/src/stm32f30x_tim.c **** {
 628              		.loc 1 477 0
 629              		.cfi_startproc
 630              		@ args = 0, pretend = 0, frame = 8
 631              		@ frame_needed = 0, uses_anonymous_args = 0
 632              		@ link register save eliminated.
 633 03bc 82B0     		sub	sp, sp, #8
 634              	.LCFI11:
 635              		.cfi_def_cfa_offset 8
 636 03be 0190     		str	r0, [sp, #4]
 637 03c0 0B46     		mov	r3, r1
 638 03c2 ADF80230 		strh	r3, [sp, #2]	@ movhi
 478:../Libraries/STM32F30x_StdPeriph_Driver/src/stm32f30x_tim.c ****   /* Check the parameters */
 479:../Libraries/STM32F30x_StdPeriph_Driver/src/stm32f30x_tim.c ****   assert_param(IS_TIM_ALL_PERIPH(TIMx));
 480:../Libraries/STM32F30x_StdPeriph_Driver/src/stm32f30x_tim.c ****   assert_param(IS_TIM_UPDATE_SOURCE(TIM_UpdateSource));
 481:../Libraries/STM32F30x_StdPeriph_Driver/src/stm32f30x_tim.c **** 
 482:../Libraries/STM32F30x_StdPeriph_Driver/src/stm32f30x_tim.c ****   if (TIM_UpdateSource != TIM_UpdateSource_Global)
 639              		.loc 1 482 0
 640 03c6 BDF80230 		ldrh	r3, [sp, #2]
 641 03ca 002B     		cmp	r3, #0
 642 03cc 08D0     		beq	.L29
 483:../Libraries/STM32F30x_StdPeriph_Driver/src/stm32f30x_tim.c ****   {
 484:../Libraries/STM32F30x_StdPeriph_Driver/src/stm32f30x_tim.c ****     /* Set the URS Bit */
 485:../Libraries/STM32F30x_StdPeriph_Driver/src/stm32f30x_tim.c ****     TIMx->CR1 |= TIM_CR1_URS;
 643              		.loc 1 485 0
 644 03ce 019B     		ldr	r3, [sp, #4]
 645 03d0 1B88     		ldrh	r3, [r3, #0]	@ movhi
 646 03d2 9BB2     		uxth	r3, r3
 647 03d4 43F00403 		orr	r3, r3, #4
 648 03d8 9AB2     		uxth	r2, r3
 649 03da 019B     		ldr	r3, [sp, #4]
 650 03dc 1A80     		strh	r2, [r3, #0]	@ movhi
 651 03de 07E0     		b	.L28
 652              	.L29:
 486:../Libraries/STM32F30x_StdPeriph_Driver/src/stm32f30x_tim.c ****   }
 487:../Libraries/STM32F30x_StdPeriph_Driver/src/stm32f30x_tim.c ****   else
 488:../Libraries/STM32F30x_StdPeriph_Driver/src/stm32f30x_tim.c ****   {
 489:../Libraries/STM32F30x_StdPeriph_Driver/src/stm32f30x_tim.c ****     /* Reset the URS Bit */
 490:../Libraries/STM32F30x_StdPeriph_Driver/src/stm32f30x_tim.c ****     TIMx->CR1 &= (uint16_t)~TIM_CR1_URS;
 653              		.loc 1 490 0
 654 03e0 019B     		ldr	r3, [sp, #4]
 655 03e2 1B88     		ldrh	r3, [r3, #0]	@ movhi
 656 03e4 9BB2     		uxth	r3, r3
 657 03e6 23F00403 		bic	r3, r3, #4
 658 03ea 9AB2     		uxth	r2, r3
 659 03ec 019B     		ldr	r3, [sp, #4]
 660 03ee 1A80     		strh	r2, [r3, #0]	@ movhi
 661              	.L28:
 491:../Libraries/STM32F30x_StdPeriph_Driver/src/stm32f30x_tim.c ****   }
 492:../Libraries/STM32F30x_StdPeriph_Driver/src/stm32f30x_tim.c **** }
 662              		.loc 1 492 0
 663 03f0 02B0     		add	sp, sp, #8
 664 03f2 7047     		bx	lr
 665              		.cfi_endproc
 666              	.LFE121:
 668              		.align	2
 669              		.global	TIM_UIFRemap
 670              		.thumb
 671              		.thumb_func
 673              	TIM_UIFRemap:
 674              	.LFB122:
 493:../Libraries/STM32F30x_StdPeriph_Driver/src/stm32f30x_tim.c **** 
 494:../Libraries/STM32F30x_StdPeriph_Driver/src/stm32f30x_tim.c **** /**
 495:../Libraries/STM32F30x_StdPeriph_Driver/src/stm32f30x_tim.c ****   * @brief  Sets or resets the update interrupt flag (UIF)status bit Remapping.
 496:../Libraries/STM32F30x_StdPeriph_Driver/src/stm32f30x_tim.c ****   *         when sets, reading TIMx_CNT register returns UIF bit instead of CNT[31]  
 497:../Libraries/STM32F30x_StdPeriph_Driver/src/stm32f30x_tim.c ****   * @param  TIMx: where x can be 1, 2, 3, 4, 6 ,7 ,8, 15, 16 or 17 to select the TIM peripheral.
 498:../Libraries/STM32F30x_StdPeriph_Driver/src/stm32f30x_tim.c ****   * @param  NewState: new state of the UIFREMAP bit.
 499:../Libraries/STM32F30x_StdPeriph_Driver/src/stm32f30x_tim.c ****   *          This parameter can be: ENABLE or DISABLE.
 500:../Libraries/STM32F30x_StdPeriph_Driver/src/stm32f30x_tim.c ****   * @retval None
 501:../Libraries/STM32F30x_StdPeriph_Driver/src/stm32f30x_tim.c ****   */
 502:../Libraries/STM32F30x_StdPeriph_Driver/src/stm32f30x_tim.c **** void TIM_UIFRemap(TIM_TypeDef* TIMx, FunctionalState NewState)
 503:../Libraries/STM32F30x_StdPeriph_Driver/src/stm32f30x_tim.c **** {
 675              		.loc 1 503 0
 676              		.cfi_startproc
 677              		@ args = 0, pretend = 0, frame = 8
 678              		@ frame_needed = 0, uses_anonymous_args = 0
 679              		@ link register save eliminated.
 680 03f4 82B0     		sub	sp, sp, #8
 681              	.LCFI12:
 682              		.cfi_def_cfa_offset 8
 683 03f6 0190     		str	r0, [sp, #4]
 684 03f8 0B46     		mov	r3, r1
 685 03fa 8DF80330 		strb	r3, [sp, #3]
 504:../Libraries/STM32F30x_StdPeriph_Driver/src/stm32f30x_tim.c ****   /* Check the parameters */
 505:../Libraries/STM32F30x_StdPeriph_Driver/src/stm32f30x_tim.c ****   assert_param(IS_TIM_ALL_PERIPH(TIMx)); 
 506:../Libraries/STM32F30x_StdPeriph_Driver/src/stm32f30x_tim.c ****   assert_param(IS_FUNCTIONAL_STATE(NewState));
 507:../Libraries/STM32F30x_StdPeriph_Driver/src/stm32f30x_tim.c ****   
 508:../Libraries/STM32F30x_StdPeriph_Driver/src/stm32f30x_tim.c ****   if (NewState != DISABLE)
 686              		.loc 1 508 0
 687 03fe 9DF80330 		ldrb	r3, [sp, #3]	@ zero_extendqisi2
 688 0402 002B     		cmp	r3, #0
 689 0404 08D0     		beq	.L32
 509:../Libraries/STM32F30x_StdPeriph_Driver/src/stm32f30x_tim.c ****   {
 510:../Libraries/STM32F30x_StdPeriph_Driver/src/stm32f30x_tim.c ****     /* Enable the TIM Counter */
 511:../Libraries/STM32F30x_StdPeriph_Driver/src/stm32f30x_tim.c ****     TIMx->CR1 |= TIM_CR1_UIFREMAP;
 690              		.loc 1 511 0
 691 0406 019B     		ldr	r3, [sp, #4]
 692 0408 1B88     		ldrh	r3, [r3, #0]	@ movhi
 693 040a 9BB2     		uxth	r3, r3
 694 040c 43F40063 		orr	r3, r3, #2048
 695 0410 9AB2     		uxth	r2, r3
 696 0412 019B     		ldr	r3, [sp, #4]
 697 0414 1A80     		strh	r2, [r3, #0]	@ movhi
 698 0416 07E0     		b	.L31
 699              	.L32:
 512:../Libraries/STM32F30x_StdPeriph_Driver/src/stm32f30x_tim.c ****   }
 513:../Libraries/STM32F30x_StdPeriph_Driver/src/stm32f30x_tim.c ****   else
 514:../Libraries/STM32F30x_StdPeriph_Driver/src/stm32f30x_tim.c ****   {
 515:../Libraries/STM32F30x_StdPeriph_Driver/src/stm32f30x_tim.c ****     /* Disable the TIM Counter */
 516:../Libraries/STM32F30x_StdPeriph_Driver/src/stm32f30x_tim.c ****     TIMx->CR1 &= (uint16_t)~TIM_CR1_UIFREMAP;
 700              		.loc 1 516 0
 701 0418 019B     		ldr	r3, [sp, #4]
 702 041a 1B88     		ldrh	r3, [r3, #0]	@ movhi
 703 041c 9BB2     		uxth	r3, r3
 704 041e 23F40063 		bic	r3, r3, #2048
 705 0422 9AB2     		uxth	r2, r3
 706 0424 019B     		ldr	r3, [sp, #4]
 707 0426 1A80     		strh	r2, [r3, #0]	@ movhi
 708              	.L31:
 517:../Libraries/STM32F30x_StdPeriph_Driver/src/stm32f30x_tim.c ****   }  
 518:../Libraries/STM32F30x_StdPeriph_Driver/src/stm32f30x_tim.c **** }
 709              		.loc 1 518 0
 710 0428 02B0     		add	sp, sp, #8
 711 042a 7047     		bx	lr
 712              		.cfi_endproc
 713              	.LFE122:
 715              		.align	2
 716              		.global	TIM_ARRPreloadConfig
 717              		.thumb
 718              		.thumb_func
 720              	TIM_ARRPreloadConfig:
 721              	.LFB123:
 519:../Libraries/STM32F30x_StdPeriph_Driver/src/stm32f30x_tim.c **** 
 520:../Libraries/STM32F30x_StdPeriph_Driver/src/stm32f30x_tim.c **** /**
 521:../Libraries/STM32F30x_StdPeriph_Driver/src/stm32f30x_tim.c ****   * @brief  Enables or disables TIMx peripheral Preload register on ARR.
 522:../Libraries/STM32F30x_StdPeriph_Driver/src/stm32f30x_tim.c ****   * @param  TIMx: where x can be 1, 2, 3, 4, 6 ,7 ,8, 15, 16 or 17 to select the TIM peripheral.
 523:../Libraries/STM32F30x_StdPeriph_Driver/src/stm32f30x_tim.c ****   * @param  NewState: new state of the TIMx peripheral Preload register
 524:../Libraries/STM32F30x_StdPeriph_Driver/src/stm32f30x_tim.c ****   *          This parameter can be: ENABLE or DISABLE.
 525:../Libraries/STM32F30x_StdPeriph_Driver/src/stm32f30x_tim.c ****   * @retval None
 526:../Libraries/STM32F30x_StdPeriph_Driver/src/stm32f30x_tim.c ****   */
 527:../Libraries/STM32F30x_StdPeriph_Driver/src/stm32f30x_tim.c **** void TIM_ARRPreloadConfig(TIM_TypeDef* TIMx, FunctionalState NewState)
 528:../Libraries/STM32F30x_StdPeriph_Driver/src/stm32f30x_tim.c **** {
 722              		.loc 1 528 0
 723              		.cfi_startproc
 724              		@ args = 0, pretend = 0, frame = 8
 725              		@ frame_needed = 0, uses_anonymous_args = 0
 726              		@ link register save eliminated.
 727 042c 82B0     		sub	sp, sp, #8
 728              	.LCFI13:
 729              		.cfi_def_cfa_offset 8
 730 042e 0190     		str	r0, [sp, #4]
 731 0430 0B46     		mov	r3, r1
 732 0432 8DF80330 		strb	r3, [sp, #3]
 529:../Libraries/STM32F30x_StdPeriph_Driver/src/stm32f30x_tim.c ****   /* Check the parameters */
 530:../Libraries/STM32F30x_StdPeriph_Driver/src/stm32f30x_tim.c ****   assert_param(IS_TIM_ALL_PERIPH(TIMx));
 531:../Libraries/STM32F30x_StdPeriph_Driver/src/stm32f30x_tim.c ****   assert_param(IS_FUNCTIONAL_STATE(NewState));
 532:../Libraries/STM32F30x_StdPeriph_Driver/src/stm32f30x_tim.c **** 
 533:../Libraries/STM32F30x_StdPeriph_Driver/src/stm32f30x_tim.c ****   if (NewState != DISABLE)
 733              		.loc 1 533 0
 734 0436 9DF80330 		ldrb	r3, [sp, #3]	@ zero_extendqisi2
 735 043a 002B     		cmp	r3, #0
 736 043c 08D0     		beq	.L35
 534:../Libraries/STM32F30x_StdPeriph_Driver/src/stm32f30x_tim.c ****   {
 535:../Libraries/STM32F30x_StdPeriph_Driver/src/stm32f30x_tim.c ****     /* Set the ARR Preload Bit */
 536:../Libraries/STM32F30x_StdPeriph_Driver/src/stm32f30x_tim.c ****     TIMx->CR1 |= TIM_CR1_ARPE;
 737              		.loc 1 536 0
 738 043e 019B     		ldr	r3, [sp, #4]
 739 0440 1B88     		ldrh	r3, [r3, #0]	@ movhi
 740 0442 9BB2     		uxth	r3, r3
 741 0444 43F08003 		orr	r3, r3, #128
 742 0448 9AB2     		uxth	r2, r3
 743 044a 019B     		ldr	r3, [sp, #4]
 744 044c 1A80     		strh	r2, [r3, #0]	@ movhi
 745 044e 07E0     		b	.L34
 746              	.L35:
 537:../Libraries/STM32F30x_StdPeriph_Driver/src/stm32f30x_tim.c ****   }
 538:../Libraries/STM32F30x_StdPeriph_Driver/src/stm32f30x_tim.c ****   else
 539:../Libraries/STM32F30x_StdPeriph_Driver/src/stm32f30x_tim.c ****   {
 540:../Libraries/STM32F30x_StdPeriph_Driver/src/stm32f30x_tim.c ****     /* Reset the ARR Preload Bit */
 541:../Libraries/STM32F30x_StdPeriph_Driver/src/stm32f30x_tim.c ****     TIMx->CR1 &= (uint16_t)~TIM_CR1_ARPE;
 747              		.loc 1 541 0
 748 0450 019B     		ldr	r3, [sp, #4]
 749 0452 1B88     		ldrh	r3, [r3, #0]	@ movhi
 750 0454 9BB2     		uxth	r3, r3
 751 0456 23F08003 		bic	r3, r3, #128
 752 045a 9AB2     		uxth	r2, r3
 753 045c 019B     		ldr	r3, [sp, #4]
 754 045e 1A80     		strh	r2, [r3, #0]	@ movhi
 755              	.L34:
 542:../Libraries/STM32F30x_StdPeriph_Driver/src/stm32f30x_tim.c ****   }
 543:../Libraries/STM32F30x_StdPeriph_Driver/src/stm32f30x_tim.c **** }
 756              		.loc 1 543 0
 757 0460 02B0     		add	sp, sp, #8
 758 0462 7047     		bx	lr
 759              		.cfi_endproc
 760              	.LFE123:
 762              		.align	2
 763              		.global	TIM_SelectOnePulseMode
 764              		.thumb
 765              		.thumb_func
 767              	TIM_SelectOnePulseMode:
 768              	.LFB124:
 544:../Libraries/STM32F30x_StdPeriph_Driver/src/stm32f30x_tim.c **** 
 545:../Libraries/STM32F30x_StdPeriph_Driver/src/stm32f30x_tim.c **** /**
 546:../Libraries/STM32F30x_StdPeriph_Driver/src/stm32f30x_tim.c ****   * @brief  Selects the TIMx's One Pulse Mode.
 547:../Libraries/STM32F30x_StdPeriph_Driver/src/stm32f30x_tim.c ****   * @param  TIMx: where x can be 1, 2, 3, 4, 6 ,7 ,8, 15, 16 or 17 to select the TIM peripheral.
 548:../Libraries/STM32F30x_StdPeriph_Driver/src/stm32f30x_tim.c ****   * @param  TIM_OPMode: specifies the OPM Mode to be used.
 549:../Libraries/STM32F30x_StdPeriph_Driver/src/stm32f30x_tim.c ****   *          This parameter can be one of the following values:
 550:../Libraries/STM32F30x_StdPeriph_Driver/src/stm32f30x_tim.c ****   *            @arg TIM_OPMode_Single
 551:../Libraries/STM32F30x_StdPeriph_Driver/src/stm32f30x_tim.c ****   *            @arg TIM_OPMode_Repetitive
 552:../Libraries/STM32F30x_StdPeriph_Driver/src/stm32f30x_tim.c ****   * @retval None
 553:../Libraries/STM32F30x_StdPeriph_Driver/src/stm32f30x_tim.c ****   */
 554:../Libraries/STM32F30x_StdPeriph_Driver/src/stm32f30x_tim.c **** void TIM_SelectOnePulseMode(TIM_TypeDef* TIMx, uint16_t TIM_OPMode)
 555:../Libraries/STM32F30x_StdPeriph_Driver/src/stm32f30x_tim.c **** {
 769              		.loc 1 555 0
 770              		.cfi_startproc
 771              		@ args = 0, pretend = 0, frame = 8
 772              		@ frame_needed = 0, uses_anonymous_args = 0
 773              		@ link register save eliminated.
 774 0464 82B0     		sub	sp, sp, #8
 775              	.LCFI14:
 776              		.cfi_def_cfa_offset 8
 777 0466 0190     		str	r0, [sp, #4]
 778 0468 0B46     		mov	r3, r1
 779 046a ADF80230 		strh	r3, [sp, #2]	@ movhi
 556:../Libraries/STM32F30x_StdPeriph_Driver/src/stm32f30x_tim.c ****   /* Check the parameters */
 557:../Libraries/STM32F30x_StdPeriph_Driver/src/stm32f30x_tim.c ****   assert_param(IS_TIM_ALL_PERIPH(TIMx));
 558:../Libraries/STM32F30x_StdPeriph_Driver/src/stm32f30x_tim.c ****   assert_param(IS_TIM_OPM_MODE(TIM_OPMode));
 559:../Libraries/STM32F30x_StdPeriph_Driver/src/stm32f30x_tim.c **** 
 560:../Libraries/STM32F30x_StdPeriph_Driver/src/stm32f30x_tim.c ****   /* Reset the OPM Bit */
 561:../Libraries/STM32F30x_StdPeriph_Driver/src/stm32f30x_tim.c ****   TIMx->CR1 &= (uint16_t)~TIM_CR1_OPM;
 780              		.loc 1 561 0
 781 046e 019B     		ldr	r3, [sp, #4]
 782 0470 1B88     		ldrh	r3, [r3, #0]	@ movhi
 783 0472 9BB2     		uxth	r3, r3
 784 0474 23F00803 		bic	r3, r3, #8
 785 0478 9AB2     		uxth	r2, r3
 786 047a 019B     		ldr	r3, [sp, #4]
 787 047c 1A80     		strh	r2, [r3, #0]	@ movhi
 562:../Libraries/STM32F30x_StdPeriph_Driver/src/stm32f30x_tim.c **** 
 563:../Libraries/STM32F30x_StdPeriph_Driver/src/stm32f30x_tim.c ****   /* Configure the OPM Mode */
 564:../Libraries/STM32F30x_StdPeriph_Driver/src/stm32f30x_tim.c ****   TIMx->CR1 |= TIM_OPMode;
 788              		.loc 1 564 0
 789 047e 019B     		ldr	r3, [sp, #4]
 790 0480 1B88     		ldrh	r3, [r3, #0]	@ movhi
 791 0482 9AB2     		uxth	r2, r3
 792 0484 BDF80230 		ldrh	r3, [sp, #2]	@ movhi
 793 0488 1343     		orrs	r3, r3, r2
 794 048a 9AB2     		uxth	r2, r3
 795 048c 019B     		ldr	r3, [sp, #4]
 796 048e 1A80     		strh	r2, [r3, #0]	@ movhi
 565:../Libraries/STM32F30x_StdPeriph_Driver/src/stm32f30x_tim.c **** }
 797              		.loc 1 565 0
 798 0490 02B0     		add	sp, sp, #8
 799 0492 7047     		bx	lr
 800              		.cfi_endproc
 801              	.LFE124:
 803              		.align	2
 804              		.global	TIM_SetClockDivision
 805              		.thumb
 806              		.thumb_func
 808              	TIM_SetClockDivision:
 809              	.LFB125:
 566:../Libraries/STM32F30x_StdPeriph_Driver/src/stm32f30x_tim.c **** 
 567:../Libraries/STM32F30x_StdPeriph_Driver/src/stm32f30x_tim.c **** /**
 568:../Libraries/STM32F30x_StdPeriph_Driver/src/stm32f30x_tim.c ****   * @brief  Sets the TIMx Clock Division value.
 569:../Libraries/STM32F30x_StdPeriph_Driver/src/stm32f30x_tim.c ****   * @param  TIMx: where x can be 1, 2, 3, 4, 8, 15, 16 or 17, to select the TIM peripheral.
 570:../Libraries/STM32F30x_StdPeriph_Driver/src/stm32f30x_tim.c ****   * @param  TIM_CKD: specifies the clock division value.
 571:../Libraries/STM32F30x_StdPeriph_Driver/src/stm32f30x_tim.c ****   *          This parameter can be one of the following value:
 572:../Libraries/STM32F30x_StdPeriph_Driver/src/stm32f30x_tim.c ****   *            @arg TIM_CKD_DIV1: TDTS = Tck_tim
 573:../Libraries/STM32F30x_StdPeriph_Driver/src/stm32f30x_tim.c ****   *            @arg TIM_CKD_DIV2: TDTS = 2*Tck_tim
 574:../Libraries/STM32F30x_StdPeriph_Driver/src/stm32f30x_tim.c ****   *            @arg TIM_CKD_DIV4: TDTS = 4*Tck_tim
 575:../Libraries/STM32F30x_StdPeriph_Driver/src/stm32f30x_tim.c ****   * @retval None
 576:../Libraries/STM32F30x_StdPeriph_Driver/src/stm32f30x_tim.c ****   */
 577:../Libraries/STM32F30x_StdPeriph_Driver/src/stm32f30x_tim.c **** void TIM_SetClockDivision(TIM_TypeDef* TIMx, uint16_t TIM_CKD)
 578:../Libraries/STM32F30x_StdPeriph_Driver/src/stm32f30x_tim.c **** {
 810              		.loc 1 578 0
 811              		.cfi_startproc
 812              		@ args = 0, pretend = 0, frame = 8
 813              		@ frame_needed = 0, uses_anonymous_args = 0
 814              		@ link register save eliminated.
 815 0494 82B0     		sub	sp, sp, #8
 816              	.LCFI15:
 817              		.cfi_def_cfa_offset 8
 818 0496 0190     		str	r0, [sp, #4]
 819 0498 0B46     		mov	r3, r1
 820 049a ADF80230 		strh	r3, [sp, #2]	@ movhi
 579:../Libraries/STM32F30x_StdPeriph_Driver/src/stm32f30x_tim.c ****   /* Check the parameters */
 580:../Libraries/STM32F30x_StdPeriph_Driver/src/stm32f30x_tim.c ****   assert_param(IS_TIM_LIST1_PERIPH(TIMx));
 581:../Libraries/STM32F30x_StdPeriph_Driver/src/stm32f30x_tim.c ****   assert_param(IS_TIM_CKD_DIV(TIM_CKD));
 582:../Libraries/STM32F30x_StdPeriph_Driver/src/stm32f30x_tim.c **** 
 583:../Libraries/STM32F30x_StdPeriph_Driver/src/stm32f30x_tim.c ****   /* Reset the CKD Bits */
 584:../Libraries/STM32F30x_StdPeriph_Driver/src/stm32f30x_tim.c ****   TIMx->CR1 &= (uint16_t)(~TIM_CR1_CKD);
 821              		.loc 1 584 0
 822 049e 019B     		ldr	r3, [sp, #4]
 823 04a0 1B88     		ldrh	r3, [r3, #0]	@ movhi
 824 04a2 9BB2     		uxth	r3, r3
 825 04a4 23F44073 		bic	r3, r3, #768
 826 04a8 9AB2     		uxth	r2, r3
 827 04aa 019B     		ldr	r3, [sp, #4]
 828 04ac 1A80     		strh	r2, [r3, #0]	@ movhi
 585:../Libraries/STM32F30x_StdPeriph_Driver/src/stm32f30x_tim.c **** 
 586:../Libraries/STM32F30x_StdPeriph_Driver/src/stm32f30x_tim.c ****   /* Set the CKD value */
 587:../Libraries/STM32F30x_StdPeriph_Driver/src/stm32f30x_tim.c ****   TIMx->CR1 |= TIM_CKD;
 829              		.loc 1 587 0
 830 04ae 019B     		ldr	r3, [sp, #4]
 831 04b0 1B88     		ldrh	r3, [r3, #0]	@ movhi
 832 04b2 9AB2     		uxth	r2, r3
 833 04b4 BDF80230 		ldrh	r3, [sp, #2]	@ movhi
 834 04b8 1343     		orrs	r3, r3, r2
 835 04ba 9AB2     		uxth	r2, r3
 836 04bc 019B     		ldr	r3, [sp, #4]
 837 04be 1A80     		strh	r2, [r3, #0]	@ movhi
 588:../Libraries/STM32F30x_StdPeriph_Driver/src/stm32f30x_tim.c **** }
 838              		.loc 1 588 0
 839 04c0 02B0     		add	sp, sp, #8
 840 04c2 7047     		bx	lr
 841              		.cfi_endproc
 842              	.LFE125:
 844              		.align	2
 845              		.global	TIM_Cmd
 846              		.thumb
 847              		.thumb_func
 849              	TIM_Cmd:
 850              	.LFB126:
 589:../Libraries/STM32F30x_StdPeriph_Driver/src/stm32f30x_tim.c **** 
 590:../Libraries/STM32F30x_StdPeriph_Driver/src/stm32f30x_tim.c **** /**
 591:../Libraries/STM32F30x_StdPeriph_Driver/src/stm32f30x_tim.c ****   * @brief  Enables or disables the specified TIM peripheral.
 592:../Libraries/STM32F30x_StdPeriph_Driver/src/stm32f30x_tim.c ****   * @param  TIMx: where x can be 1, 2, 3, 4, 6, 7, 8, 15, 16 or 17 to select 
 593:../Libraries/STM32F30x_StdPeriph_Driver/src/stm32f30x_tim.c ****   *        the TIMx peripheral.
 594:../Libraries/STM32F30x_StdPeriph_Driver/src/stm32f30x_tim.c ****   * @param  NewState: new state of the TIMx peripheral.
 595:../Libraries/STM32F30x_StdPeriph_Driver/src/stm32f30x_tim.c ****   *          This parameter can be: ENABLE or DISABLE.
 596:../Libraries/STM32F30x_StdPeriph_Driver/src/stm32f30x_tim.c ****   * @retval None
 597:../Libraries/STM32F30x_StdPeriph_Driver/src/stm32f30x_tim.c ****   */
 598:../Libraries/STM32F30x_StdPeriph_Driver/src/stm32f30x_tim.c **** void TIM_Cmd(TIM_TypeDef* TIMx, FunctionalState NewState)
 599:../Libraries/STM32F30x_StdPeriph_Driver/src/stm32f30x_tim.c **** {
 851              		.loc 1 599 0
 852              		.cfi_startproc
 853              		@ args = 0, pretend = 0, frame = 8
 854              		@ frame_needed = 0, uses_anonymous_args = 0
 855              		@ link register save eliminated.
 856 04c4 82B0     		sub	sp, sp, #8
 857              	.LCFI16:
 858              		.cfi_def_cfa_offset 8
 859 04c6 0190     		str	r0, [sp, #4]
 860 04c8 0B46     		mov	r3, r1
 861 04ca 8DF80330 		strb	r3, [sp, #3]
 600:../Libraries/STM32F30x_StdPeriph_Driver/src/stm32f30x_tim.c ****   /* Check the parameters */
 601:../Libraries/STM32F30x_StdPeriph_Driver/src/stm32f30x_tim.c ****   assert_param(IS_TIM_ALL_PERIPH(TIMx)); 
 602:../Libraries/STM32F30x_StdPeriph_Driver/src/stm32f30x_tim.c ****   assert_param(IS_FUNCTIONAL_STATE(NewState));
 603:../Libraries/STM32F30x_StdPeriph_Driver/src/stm32f30x_tim.c ****   
 604:../Libraries/STM32F30x_StdPeriph_Driver/src/stm32f30x_tim.c ****   if (NewState != DISABLE)
 862              		.loc 1 604 0
 863 04ce 9DF80330 		ldrb	r3, [sp, #3]	@ zero_extendqisi2
 864 04d2 002B     		cmp	r3, #0
 865 04d4 08D0     		beq	.L40
 605:../Libraries/STM32F30x_StdPeriph_Driver/src/stm32f30x_tim.c ****   {
 606:../Libraries/STM32F30x_StdPeriph_Driver/src/stm32f30x_tim.c ****     /* Enable the TIM Counter */
 607:../Libraries/STM32F30x_StdPeriph_Driver/src/stm32f30x_tim.c ****     TIMx->CR1 |= TIM_CR1_CEN;
 866              		.loc 1 607 0
 867 04d6 019B     		ldr	r3, [sp, #4]
 868 04d8 1B88     		ldrh	r3, [r3, #0]	@ movhi
 869 04da 9BB2     		uxth	r3, r3
 870 04dc 43F00103 		orr	r3, r3, #1
 871 04e0 9AB2     		uxth	r2, r3
 872 04e2 019B     		ldr	r3, [sp, #4]
 873 04e4 1A80     		strh	r2, [r3, #0]	@ movhi
 874 04e6 07E0     		b	.L39
 875              	.L40:
 608:../Libraries/STM32F30x_StdPeriph_Driver/src/stm32f30x_tim.c ****   }
 609:../Libraries/STM32F30x_StdPeriph_Driver/src/stm32f30x_tim.c ****   else
 610:../Libraries/STM32F30x_StdPeriph_Driver/src/stm32f30x_tim.c ****   {
 611:../Libraries/STM32F30x_StdPeriph_Driver/src/stm32f30x_tim.c ****     /* Disable the TIM Counter */
 612:../Libraries/STM32F30x_StdPeriph_Driver/src/stm32f30x_tim.c ****     TIMx->CR1 &= (uint16_t)~TIM_CR1_CEN;
 876              		.loc 1 612 0
 877 04e8 019B     		ldr	r3, [sp, #4]
 878 04ea 1B88     		ldrh	r3, [r3, #0]	@ movhi
 879 04ec 9BB2     		uxth	r3, r3
 880 04ee 23F00103 		bic	r3, r3, #1
 881 04f2 9AB2     		uxth	r2, r3
 882 04f4 019B     		ldr	r3, [sp, #4]
 883 04f6 1A80     		strh	r2, [r3, #0]	@ movhi
 884              	.L39:
 613:../Libraries/STM32F30x_StdPeriph_Driver/src/stm32f30x_tim.c ****   }
 614:../Libraries/STM32F30x_StdPeriph_Driver/src/stm32f30x_tim.c **** }
 885              		.loc 1 614 0
 886 04f8 02B0     		add	sp, sp, #8
 887 04fa 7047     		bx	lr
 888              		.cfi_endproc
 889              	.LFE126:
 891              		.align	2
 892              		.global	TIM_OC1Init
 893              		.thumb
 894              		.thumb_func
 896              	TIM_OC1Init:
 897              	.LFB127:
 615:../Libraries/STM32F30x_StdPeriph_Driver/src/stm32f30x_tim.c **** /**
 616:../Libraries/STM32F30x_StdPeriph_Driver/src/stm32f30x_tim.c ****   * @}
 617:../Libraries/STM32F30x_StdPeriph_Driver/src/stm32f30x_tim.c ****   */
 618:../Libraries/STM32F30x_StdPeriph_Driver/src/stm32f30x_tim.c **** 
 619:../Libraries/STM32F30x_StdPeriph_Driver/src/stm32f30x_tim.c **** /** @defgroup TIM_Group2 Output Compare management functions
 620:../Libraries/STM32F30x_StdPeriph_Driver/src/stm32f30x_tim.c ****  *  @brief    Output Compare management functions 
 621:../Libraries/STM32F30x_StdPeriph_Driver/src/stm32f30x_tim.c ****  *
 622:../Libraries/STM32F30x_StdPeriph_Driver/src/stm32f30x_tim.c **** @verbatim   
 623:../Libraries/STM32F30x_StdPeriph_Driver/src/stm32f30x_tim.c ****  ===============================================================================
 624:../Libraries/STM32F30x_StdPeriph_Driver/src/stm32f30x_tim.c ****                 ##### Output Compare management functions #####
 625:../Libraries/STM32F30x_StdPeriph_Driver/src/stm32f30x_tim.c ****  ===============================================================================  
 626:../Libraries/STM32F30x_StdPeriph_Driver/src/stm32f30x_tim.c ****        
 627:../Libraries/STM32F30x_StdPeriph_Driver/src/stm32f30x_tim.c ****   *** TIM Driver: how to use it in Output Compare Mode ***
 628:../Libraries/STM32F30x_StdPeriph_Driver/src/stm32f30x_tim.c ****   ======================================================== 
 629:../Libraries/STM32F30x_StdPeriph_Driver/src/stm32f30x_tim.c ****   [..] 
 630:../Libraries/STM32F30x_StdPeriph_Driver/src/stm32f30x_tim.c ****   To use the Timer in Output Compare mode, the following steps are mandatory:
 631:../Libraries/STM32F30x_StdPeriph_Driver/src/stm32f30x_tim.c ****        
 632:../Libraries/STM32F30x_StdPeriph_Driver/src/stm32f30x_tim.c ****        (#) Enable TIM clock using RCC_APBxPeriphClockCmd(RCC_APBxPeriph_TIMx, ENABLE) function
 633:../Libraries/STM32F30x_StdPeriph_Driver/src/stm32f30x_tim.c ****        
 634:../Libraries/STM32F30x_StdPeriph_Driver/src/stm32f30x_tim.c ****        (#) Configure the TIM pins by configuring the corresponding GPIO pins
 635:../Libraries/STM32F30x_StdPeriph_Driver/src/stm32f30x_tim.c ****        
 636:../Libraries/STM32F30x_StdPeriph_Driver/src/stm32f30x_tim.c ****        (#) Configure the Time base unit as described in the first part of this driver, 
 637:../Libraries/STM32F30x_StdPeriph_Driver/src/stm32f30x_tim.c ****            if needed, else the Timer will run with the default configuration:
 638:../Libraries/STM32F30x_StdPeriph_Driver/src/stm32f30x_tim.c ****            (++) Autoreload value = 0xFFFF
 639:../Libraries/STM32F30x_StdPeriph_Driver/src/stm32f30x_tim.c ****            (++) Prescaler value = 0x0000
 640:../Libraries/STM32F30x_StdPeriph_Driver/src/stm32f30x_tim.c ****            (++) Counter mode = Up counting
 641:../Libraries/STM32F30x_StdPeriph_Driver/src/stm32f30x_tim.c ****            (++) Clock Division = TIM_CKD_DIV1   
 642:../Libraries/STM32F30x_StdPeriph_Driver/src/stm32f30x_tim.c ****        (#) Fill the TIM_OCInitStruct with the desired parameters including:
 643:../Libraries/STM32F30x_StdPeriph_Driver/src/stm32f30x_tim.c ****            (++) The TIM Output Compare mode: TIM_OCMode
 644:../Libraries/STM32F30x_StdPeriph_Driver/src/stm32f30x_tim.c ****            (++) TIM Output State: TIM_OutputState
 645:../Libraries/STM32F30x_StdPeriph_Driver/src/stm32f30x_tim.c ****            (++) TIM Pulse value: TIM_Pulse
 646:../Libraries/STM32F30x_StdPeriph_Driver/src/stm32f30x_tim.c ****            (++) TIM Output Compare Polarity : TIM_OCPolarity
 647:../Libraries/STM32F30x_StdPeriph_Driver/src/stm32f30x_tim.c ****        
 648:../Libraries/STM32F30x_StdPeriph_Driver/src/stm32f30x_tim.c ****        (#) Call TIM_OCxInit(TIMx, &TIM_OCInitStruct) to configure the desired channel with the 
 649:../Libraries/STM32F30x_StdPeriph_Driver/src/stm32f30x_tim.c ****            corresponding configuration
 650:../Libraries/STM32F30x_StdPeriph_Driver/src/stm32f30x_tim.c ****        
 651:../Libraries/STM32F30x_StdPeriph_Driver/src/stm32f30x_tim.c ****        (#) Call the TIM_Cmd(ENABLE) function to enable the TIM counter.
 652:../Libraries/STM32F30x_StdPeriph_Driver/src/stm32f30x_tim.c ****  [..]      
 653:../Libraries/STM32F30x_StdPeriph_Driver/src/stm32f30x_tim.c ****        (@) All other functions can be used separately to modify, if needed,
 654:../Libraries/STM32F30x_StdPeriph_Driver/src/stm32f30x_tim.c ****            a specific feature of the Timer. 
 655:../Libraries/STM32F30x_StdPeriph_Driver/src/stm32f30x_tim.c ****           
 656:../Libraries/STM32F30x_StdPeriph_Driver/src/stm32f30x_tim.c ****        (@) In case of PWM mode, this function is mandatory:
 657:../Libraries/STM32F30x_StdPeriph_Driver/src/stm32f30x_tim.c ****            TIM_OCxPreloadConfig(TIMx, TIM_OCPreload_ENABLE); 
 658:../Libraries/STM32F30x_StdPeriph_Driver/src/stm32f30x_tim.c ****               
 659:../Libraries/STM32F30x_StdPeriph_Driver/src/stm32f30x_tim.c ****        (@) If the corresponding interrupt or DMA request are needed, the user should:
 660:../Libraries/STM32F30x_StdPeriph_Driver/src/stm32f30x_tim.c ****                 (#@) Enable the NVIC (or the DMA) to use the TIM interrupts (or DMA requests). 
 661:../Libraries/STM32F30x_StdPeriph_Driver/src/stm32f30x_tim.c ****                 (#@) Enable the corresponding interrupt (or DMA request) using the function 
 662:../Libraries/STM32F30x_StdPeriph_Driver/src/stm32f30x_tim.c ****                      TIM_ITConfig(TIMx, TIM_IT_CCx) (or TIM_DMA_Cmd(TIMx, TIM_DMA_CCx))   
 663:../Libraries/STM32F30x_StdPeriph_Driver/src/stm32f30x_tim.c **** 
 664:../Libraries/STM32F30x_StdPeriph_Driver/src/stm32f30x_tim.c **** @endverbatim
 665:../Libraries/STM32F30x_StdPeriph_Driver/src/stm32f30x_tim.c ****   * @{
 666:../Libraries/STM32F30x_StdPeriph_Driver/src/stm32f30x_tim.c ****   */
 667:../Libraries/STM32F30x_StdPeriph_Driver/src/stm32f30x_tim.c **** 
 668:../Libraries/STM32F30x_StdPeriph_Driver/src/stm32f30x_tim.c **** /**
 669:../Libraries/STM32F30x_StdPeriph_Driver/src/stm32f30x_tim.c ****   * @brief  Initializes the TIMx Channel1 according to the specified parameters in
 670:../Libraries/STM32F30x_StdPeriph_Driver/src/stm32f30x_tim.c ****   *         the TIM_OCInitStruct.
 671:../Libraries/STM32F30x_StdPeriph_Driver/src/stm32f30x_tim.c ****   * @param  TIMx: where x can be 1, 2, 3, 4, 8, 15, 16 or 17, to select the TIM peripheral.
 672:../Libraries/STM32F30x_StdPeriph_Driver/src/stm32f30x_tim.c ****   * @param  TIM_OCInitStruct: pointer to a TIM_OCInitTypeDef structure that contains
 673:../Libraries/STM32F30x_StdPeriph_Driver/src/stm32f30x_tim.c ****   *         the configuration information for the specified TIM peripheral.
 674:../Libraries/STM32F30x_StdPeriph_Driver/src/stm32f30x_tim.c ****   * @retval None
 675:../Libraries/STM32F30x_StdPeriph_Driver/src/stm32f30x_tim.c ****   */
 676:../Libraries/STM32F30x_StdPeriph_Driver/src/stm32f30x_tim.c **** void TIM_OC1Init(TIM_TypeDef* TIMx, TIM_OCInitTypeDef* TIM_OCInitStruct)
 677:../Libraries/STM32F30x_StdPeriph_Driver/src/stm32f30x_tim.c **** {
 898              		.loc 1 677 0
 899              		.cfi_startproc
 900              		@ args = 0, pretend = 0, frame = 24
 901              		@ frame_needed = 0, uses_anonymous_args = 0
 902              		@ link register save eliminated.
 903 04fc 86B0     		sub	sp, sp, #24
 904              	.LCFI17:
 905              		.cfi_def_cfa_offset 24
 906 04fe 0190     		str	r0, [sp, #4]
 907 0500 0091     		str	r1, [sp, #0]
 678:../Libraries/STM32F30x_StdPeriph_Driver/src/stm32f30x_tim.c ****   uint32_t tmpccmrx = 0, tmpccer = 0, tmpcr2 = 0;
 908              		.loc 1 678 0
 909 0502 4FF00003 		mov	r3, #0
 910 0506 0393     		str	r3, [sp, #12]
 911 0508 4FF00003 		mov	r3, #0
 912 050c 0593     		str	r3, [sp, #20]
 913 050e 4FF00003 		mov	r3, #0
 914 0512 0493     		str	r3, [sp, #16]
 679:../Libraries/STM32F30x_StdPeriph_Driver/src/stm32f30x_tim.c ****    
 680:../Libraries/STM32F30x_StdPeriph_Driver/src/stm32f30x_tim.c ****   /* Check the parameters */
 681:../Libraries/STM32F30x_StdPeriph_Driver/src/stm32f30x_tim.c ****   assert_param(IS_TIM_LIST1_PERIPH(TIMx)); 
 682:../Libraries/STM32F30x_StdPeriph_Driver/src/stm32f30x_tim.c ****   assert_param(IS_TIM_OC_MODE(TIM_OCInitStruct->TIM_OCMode));
 683:../Libraries/STM32F30x_StdPeriph_Driver/src/stm32f30x_tim.c ****   assert_param(IS_TIM_OUTPUT_STATE(TIM_OCInitStruct->TIM_OutputState));
 684:../Libraries/STM32F30x_StdPeriph_Driver/src/stm32f30x_tim.c ****   assert_param(IS_TIM_OC_POLARITY(TIM_OCInitStruct->TIM_OCPolarity));   
 685:../Libraries/STM32F30x_StdPeriph_Driver/src/stm32f30x_tim.c **** 
 686:../Libraries/STM32F30x_StdPeriph_Driver/src/stm32f30x_tim.c ****   /* Disable the Channel 1: Reset the CC1E Bit */
 687:../Libraries/STM32F30x_StdPeriph_Driver/src/stm32f30x_tim.c ****   TIMx->CCER &= (uint32_t)~TIM_CCER_CC1E;
 915              		.loc 1 687 0
 916 0514 019B     		ldr	r3, [sp, #4]
 917 0516 1B6A     		ldr	r3, [r3, #32]
 918 0518 23F00102 		bic	r2, r3, #1
 919 051c 019B     		ldr	r3, [sp, #4]
 920 051e 1A62     		str	r2, [r3, #32]
 688:../Libraries/STM32F30x_StdPeriph_Driver/src/stm32f30x_tim.c ****   
 689:../Libraries/STM32F30x_StdPeriph_Driver/src/stm32f30x_tim.c ****   /* Get the TIMx CCER register value */
 690:../Libraries/STM32F30x_StdPeriph_Driver/src/stm32f30x_tim.c ****   tmpccer = TIMx->CCER;
 921              		.loc 1 690 0
 922 0520 019B     		ldr	r3, [sp, #4]
 923 0522 1B6A     		ldr	r3, [r3, #32]
 924 0524 0593     		str	r3, [sp, #20]
 691:../Libraries/STM32F30x_StdPeriph_Driver/src/stm32f30x_tim.c ****   /* Get the TIMx CR2 register value */
 692:../Libraries/STM32F30x_StdPeriph_Driver/src/stm32f30x_tim.c ****   tmpcr2 =  TIMx->CR2;
 925              		.loc 1 692 0
 926 0526 019B     		ldr	r3, [sp, #4]
 927 0528 5B68     		ldr	r3, [r3, #4]
 928 052a 0493     		str	r3, [sp, #16]
 693:../Libraries/STM32F30x_StdPeriph_Driver/src/stm32f30x_tim.c ****   
 694:../Libraries/STM32F30x_StdPeriph_Driver/src/stm32f30x_tim.c ****   /* Get the TIMx CCMR1 register value */
 695:../Libraries/STM32F30x_StdPeriph_Driver/src/stm32f30x_tim.c ****   tmpccmrx = TIMx->CCMR1;
 929              		.loc 1 695 0
 930 052c 019B     		ldr	r3, [sp, #4]
 931 052e 9B69     		ldr	r3, [r3, #24]
 932 0530 0393     		str	r3, [sp, #12]
 696:../Libraries/STM32F30x_StdPeriph_Driver/src/stm32f30x_tim.c ****     
 697:../Libraries/STM32F30x_StdPeriph_Driver/src/stm32f30x_tim.c ****   /* Reset the Output Compare Mode Bits */
 698:../Libraries/STM32F30x_StdPeriph_Driver/src/stm32f30x_tim.c ****   tmpccmrx &= (uint32_t)~TIM_CCMR1_OC1M;
 933              		.loc 1 698 0
 934 0532 039B     		ldr	r3, [sp, #12]
 935 0534 23F48033 		bic	r3, r3, #65536
 936 0538 23F07003 		bic	r3, r3, #112
 937 053c 0393     		str	r3, [sp, #12]
 699:../Libraries/STM32F30x_StdPeriph_Driver/src/stm32f30x_tim.c ****   tmpccmrx &= (uint32_t)~TIM_CCMR1_CC1S;
 938              		.loc 1 699 0
 939 053e 039B     		ldr	r3, [sp, #12]
 940 0540 23F00303 		bic	r3, r3, #3
 941 0544 0393     		str	r3, [sp, #12]
 700:../Libraries/STM32F30x_StdPeriph_Driver/src/stm32f30x_tim.c ****   /* Select the Output Compare Mode */
 701:../Libraries/STM32F30x_StdPeriph_Driver/src/stm32f30x_tim.c ****   tmpccmrx |= TIM_OCInitStruct->TIM_OCMode;
 942              		.loc 1 701 0
 943 0546 009B     		ldr	r3, [sp, #0]
 944 0548 1B68     		ldr	r3, [r3, #0]
 945 054a 039A     		ldr	r2, [sp, #12]
 946 054c 1343     		orrs	r3, r3, r2
 947 054e 0393     		str	r3, [sp, #12]
 702:../Libraries/STM32F30x_StdPeriph_Driver/src/stm32f30x_tim.c ****   
 703:../Libraries/STM32F30x_StdPeriph_Driver/src/stm32f30x_tim.c ****   /* Reset the Output Polarity level */
 704:../Libraries/STM32F30x_StdPeriph_Driver/src/stm32f30x_tim.c ****   tmpccer &= (uint32_t)~TIM_CCER_CC1P;
 948              		.loc 1 704 0
 949 0550 059B     		ldr	r3, [sp, #20]
 950 0552 23F00203 		bic	r3, r3, #2
 951 0556 0593     		str	r3, [sp, #20]
 705:../Libraries/STM32F30x_StdPeriph_Driver/src/stm32f30x_tim.c ****   /* Set the Output Compare Polarity */
 706:../Libraries/STM32F30x_StdPeriph_Driver/src/stm32f30x_tim.c ****   tmpccer |= TIM_OCInitStruct->TIM_OCPolarity;
 952              		.loc 1 706 0
 953 0558 009B     		ldr	r3, [sp, #0]
 954 055a 9B89     		ldrh	r3, [r3, #12]
 955 055c 059A     		ldr	r2, [sp, #20]
 956 055e 1343     		orrs	r3, r3, r2
 957 0560 0593     		str	r3, [sp, #20]
 707:../Libraries/STM32F30x_StdPeriph_Driver/src/stm32f30x_tim.c ****   
 708:../Libraries/STM32F30x_StdPeriph_Driver/src/stm32f30x_tim.c ****   /* Set the Output State */
 709:../Libraries/STM32F30x_StdPeriph_Driver/src/stm32f30x_tim.c ****   tmpccer |= TIM_OCInitStruct->TIM_OutputState;
 958              		.loc 1 709 0
 959 0562 009B     		ldr	r3, [sp, #0]
 960 0564 9B88     		ldrh	r3, [r3, #4]
 961 0566 059A     		ldr	r2, [sp, #20]
 962 0568 1343     		orrs	r3, r3, r2
 963 056a 0593     		str	r3, [sp, #20]
 710:../Libraries/STM32F30x_StdPeriph_Driver/src/stm32f30x_tim.c ****     
 711:../Libraries/STM32F30x_StdPeriph_Driver/src/stm32f30x_tim.c ****   if((TIMx == TIM1) || (TIMx == TIM8) || (TIMx == TIM15) || (TIMx == TIM16) || (TIMx == TIM17))
 964              		.loc 1 711 0
 965 056c 019A     		ldr	r2, [sp, #4]
 966 056e 4FF43053 		mov	r3, #11264
 967 0572 C4F20103 		movt	r3, 16385
 968 0576 9A42     		cmp	r2, r3
 969 0578 1BD0     		beq	.L43
 970              		.loc 1 711 0 is_stmt 0 discriminator 1
 971 057a 019A     		ldr	r2, [sp, #4]
 972 057c 4FF45053 		mov	r3, #13312
 973 0580 C4F20103 		movt	r3, 16385
 974 0584 9A42     		cmp	r2, r3
 975 0586 14D0     		beq	.L43
 976 0588 019A     		ldr	r2, [sp, #4]
 977 058a 4FF48043 		mov	r3, #16384
 978 058e C4F20103 		movt	r3, 16385
 979 0592 9A42     		cmp	r2, r3
 980 0594 0DD0     		beq	.L43
 981 0596 019A     		ldr	r2, [sp, #4]
 982 0598 4FF48843 		mov	r3, #17408
 983 059c C4F20103 		movt	r3, 16385
 984 05a0 9A42     		cmp	r2, r3
 985 05a2 06D0     		beq	.L43
 986 05a4 019A     		ldr	r2, [sp, #4]
 987 05a6 4FF49043 		mov	r3, #18432
 988 05aa C4F20103 		movt	r3, 16385
 989 05ae 9A42     		cmp	r2, r3
 990 05b0 23D1     		bne	.L44
 991              	.L43:
 712:../Libraries/STM32F30x_StdPeriph_Driver/src/stm32f30x_tim.c ****   {
 713:../Libraries/STM32F30x_StdPeriph_Driver/src/stm32f30x_tim.c ****     assert_param(IS_TIM_OUTPUTN_STATE(TIM_OCInitStruct->TIM_OutputNState));
 714:../Libraries/STM32F30x_StdPeriph_Driver/src/stm32f30x_tim.c ****     assert_param(IS_TIM_OCN_POLARITY(TIM_OCInitStruct->TIM_OCNPolarity));
 715:../Libraries/STM32F30x_StdPeriph_Driver/src/stm32f30x_tim.c ****     assert_param(IS_TIM_OCNIDLE_STATE(TIM_OCInitStruct->TIM_OCNIdleState));
 716:../Libraries/STM32F30x_StdPeriph_Driver/src/stm32f30x_tim.c ****     assert_param(IS_TIM_OCIDLE_STATE(TIM_OCInitStruct->TIM_OCIdleState));
 717:../Libraries/STM32F30x_StdPeriph_Driver/src/stm32f30x_tim.c ****     
 718:../Libraries/STM32F30x_StdPeriph_Driver/src/stm32f30x_tim.c ****     /* Reset the Output N Polarity level */
 719:../Libraries/STM32F30x_StdPeriph_Driver/src/stm32f30x_tim.c ****     tmpccer &= (uint32_t)~TIM_CCER_CC1NP;
 992              		.loc 1 719 0 is_stmt 1
 993 05b2 059B     		ldr	r3, [sp, #20]
 994 05b4 23F00803 		bic	r3, r3, #8
 995 05b8 0593     		str	r3, [sp, #20]
 720:../Libraries/STM32F30x_StdPeriph_Driver/src/stm32f30x_tim.c ****     /* Set the Output N Polarity */
 721:../Libraries/STM32F30x_StdPeriph_Driver/src/stm32f30x_tim.c ****     tmpccer |= TIM_OCInitStruct->TIM_OCNPolarity;
 996              		.loc 1 721 0
 997 05ba 009B     		ldr	r3, [sp, #0]
 998 05bc DB89     		ldrh	r3, [r3, #14]
 999 05be 059A     		ldr	r2, [sp, #20]
 1000 05c0 1343     		orrs	r3, r3, r2
 1001 05c2 0593     		str	r3, [sp, #20]
 722:../Libraries/STM32F30x_StdPeriph_Driver/src/stm32f30x_tim.c ****     /* Reset the Output N State */
 723:../Libraries/STM32F30x_StdPeriph_Driver/src/stm32f30x_tim.c ****     tmpccer &= (uint32_t)~TIM_CCER_CC1NE;
 1002              		.loc 1 723 0
 1003 05c4 059B     		ldr	r3, [sp, #20]
 1004 05c6 23F00403 		bic	r3, r3, #4
 1005 05ca 0593     		str	r3, [sp, #20]
 724:../Libraries/STM32F30x_StdPeriph_Driver/src/stm32f30x_tim.c ****     
 725:../Libraries/STM32F30x_StdPeriph_Driver/src/stm32f30x_tim.c ****     /* Set the Output N State */
 726:../Libraries/STM32F30x_StdPeriph_Driver/src/stm32f30x_tim.c ****     tmpccer |= TIM_OCInitStruct->TIM_OutputNState;
 1006              		.loc 1 726 0
 1007 05cc 009B     		ldr	r3, [sp, #0]
 1008 05ce DB88     		ldrh	r3, [r3, #6]
 1009 05d0 059A     		ldr	r2, [sp, #20]
 1010 05d2 1343     		orrs	r3, r3, r2
 1011 05d4 0593     		str	r3, [sp, #20]
 727:../Libraries/STM32F30x_StdPeriph_Driver/src/stm32f30x_tim.c ****     /* Reset the Output Compare and Output Compare N IDLE State */
 728:../Libraries/STM32F30x_StdPeriph_Driver/src/stm32f30x_tim.c ****     tmpcr2 &= (uint32_t)~TIM_CR2_OIS1;
 1012              		.loc 1 728 0
 1013 05d6 049B     		ldr	r3, [sp, #16]
 1014 05d8 23F48073 		bic	r3, r3, #256
 1015 05dc 0493     		str	r3, [sp, #16]
 729:../Libraries/STM32F30x_StdPeriph_Driver/src/stm32f30x_tim.c ****     tmpcr2 &= (uint32_t)~TIM_CR2_OIS1N;
 1016              		.loc 1 729 0
 1017 05de 049B     		ldr	r3, [sp, #16]
 1018 05e0 23F40073 		bic	r3, r3, #512
 1019 05e4 0493     		str	r3, [sp, #16]
 730:../Libraries/STM32F30x_StdPeriph_Driver/src/stm32f30x_tim.c ****     /* Set the Output Idle state */
 731:../Libraries/STM32F30x_StdPeriph_Driver/src/stm32f30x_tim.c ****     tmpcr2 |= TIM_OCInitStruct->TIM_OCIdleState;
 1020              		.loc 1 731 0
 1021 05e6 009B     		ldr	r3, [sp, #0]
 1022 05e8 1B8A     		ldrh	r3, [r3, #16]
 1023 05ea 049A     		ldr	r2, [sp, #16]
 1024 05ec 1343     		orrs	r3, r3, r2
 1025 05ee 0493     		str	r3, [sp, #16]
 732:../Libraries/STM32F30x_StdPeriph_Driver/src/stm32f30x_tim.c ****     /* Set the Output N Idle state */
 733:../Libraries/STM32F30x_StdPeriph_Driver/src/stm32f30x_tim.c ****     tmpcr2 |= TIM_OCInitStruct->TIM_OCNIdleState;
 1026              		.loc 1 733 0
 1027 05f0 009B     		ldr	r3, [sp, #0]
 1028 05f2 5B8A     		ldrh	r3, [r3, #18]
 1029 05f4 049A     		ldr	r2, [sp, #16]
 1030 05f6 1343     		orrs	r3, r3, r2
 1031 05f8 0493     		str	r3, [sp, #16]
 1032              	.L44:
 734:../Libraries/STM32F30x_StdPeriph_Driver/src/stm32f30x_tim.c ****   }
 735:../Libraries/STM32F30x_StdPeriph_Driver/src/stm32f30x_tim.c ****   /* Write to TIMx CR2 */
 736:../Libraries/STM32F30x_StdPeriph_Driver/src/stm32f30x_tim.c ****   TIMx->CR2 = tmpcr2;
 1033              		.loc 1 736 0
 1034 05fa 019B     		ldr	r3, [sp, #4]
 1035 05fc 049A     		ldr	r2, [sp, #16]
 1036 05fe 5A60     		str	r2, [r3, #4]
 737:../Libraries/STM32F30x_StdPeriph_Driver/src/stm32f30x_tim.c ****   
 738:../Libraries/STM32F30x_StdPeriph_Driver/src/stm32f30x_tim.c ****   /* Write to TIMx CCMR1 */
 739:../Libraries/STM32F30x_StdPeriph_Driver/src/stm32f30x_tim.c ****   TIMx->CCMR1 = tmpccmrx;
 1037              		.loc 1 739 0
 1038 0600 019B     		ldr	r3, [sp, #4]
 1039 0602 039A     		ldr	r2, [sp, #12]
 1040 0604 9A61     		str	r2, [r3, #24]
 740:../Libraries/STM32F30x_StdPeriph_Driver/src/stm32f30x_tim.c ****   
 741:../Libraries/STM32F30x_StdPeriph_Driver/src/stm32f30x_tim.c ****   /* Set the Capture Compare Register value */
 742:../Libraries/STM32F30x_StdPeriph_Driver/src/stm32f30x_tim.c ****   TIMx->CCR1 = TIM_OCInitStruct->TIM_Pulse;
 1041              		.loc 1 742 0
 1042 0606 009B     		ldr	r3, [sp, #0]
 1043 0608 9A68     		ldr	r2, [r3, #8]
 1044 060a 019B     		ldr	r3, [sp, #4]
 1045 060c 5A63     		str	r2, [r3, #52]
 743:../Libraries/STM32F30x_StdPeriph_Driver/src/stm32f30x_tim.c ****   
 744:../Libraries/STM32F30x_StdPeriph_Driver/src/stm32f30x_tim.c ****   /* Write to TIMx CCER */
 745:../Libraries/STM32F30x_StdPeriph_Driver/src/stm32f30x_tim.c ****   TIMx->CCER = tmpccer;
 1046              		.loc 1 745 0
 1047 060e 019B     		ldr	r3, [sp, #4]
 1048 0610 059A     		ldr	r2, [sp, #20]
 1049 0612 1A62     		str	r2, [r3, #32]
 746:../Libraries/STM32F30x_StdPeriph_Driver/src/stm32f30x_tim.c **** }
 1050              		.loc 1 746 0
 1051 0614 06B0     		add	sp, sp, #24
 1052 0616 7047     		bx	lr
 1053              		.cfi_endproc
 1054              	.LFE127:
 1056              		.align	2
 1057              		.global	TIM_OC2Init
 1058              		.thumb
 1059              		.thumb_func
 1061              	TIM_OC2Init:
 1062              	.LFB128:
 747:../Libraries/STM32F30x_StdPeriph_Driver/src/stm32f30x_tim.c **** 
 748:../Libraries/STM32F30x_StdPeriph_Driver/src/stm32f30x_tim.c **** /**
 749:../Libraries/STM32F30x_StdPeriph_Driver/src/stm32f30x_tim.c ****   * @brief  Initializes the TIMx Channel2 according to the specified parameters 
 750:../Libraries/STM32F30x_StdPeriph_Driver/src/stm32f30x_tim.c ****   *         in the TIM_OCInitStruct.
 751:../Libraries/STM32F30x_StdPeriph_Driver/src/stm32f30x_tim.c ****   * @param  TIMx: where x can be 1, 2, 3, 4, 8 or 15 to select the TIM peripheral.
 752:../Libraries/STM32F30x_StdPeriph_Driver/src/stm32f30x_tim.c ****   * @param  TIM_OCInitStruct: pointer to a TIM_OCInitTypeDef structure that contains
 753:../Libraries/STM32F30x_StdPeriph_Driver/src/stm32f30x_tim.c ****   *         the configuration information for the specified TIM peripheral.
 754:../Libraries/STM32F30x_StdPeriph_Driver/src/stm32f30x_tim.c ****   * @retval None
 755:../Libraries/STM32F30x_StdPeriph_Driver/src/stm32f30x_tim.c ****   */
 756:../Libraries/STM32F30x_StdPeriph_Driver/src/stm32f30x_tim.c **** void TIM_OC2Init(TIM_TypeDef* TIMx, TIM_OCInitTypeDef* TIM_OCInitStruct)
 757:../Libraries/STM32F30x_StdPeriph_Driver/src/stm32f30x_tim.c **** {
 1063              		.loc 1 757 0
 1064              		.cfi_startproc
 1065              		@ args = 0, pretend = 0, frame = 24
 1066              		@ frame_needed = 0, uses_anonymous_args = 0
 1067              		@ link register save eliminated.
 1068 0618 86B0     		sub	sp, sp, #24
 1069              	.LCFI18:
 1070              		.cfi_def_cfa_offset 24
 1071 061a 0190     		str	r0, [sp, #4]
 1072 061c 0091     		str	r1, [sp, #0]
 758:../Libraries/STM32F30x_StdPeriph_Driver/src/stm32f30x_tim.c ****   uint32_t tmpccmrx = 0, tmpccer = 0, tmpcr2 = 0;
 1073              		.loc 1 758 0
 1074 061e 4FF00003 		mov	r3, #0
 1075 0622 0393     		str	r3, [sp, #12]
 1076 0624 4FF00003 		mov	r3, #0
 1077 0628 0593     		str	r3, [sp, #20]
 1078 062a 4FF00003 		mov	r3, #0
 1079 062e 0493     		str	r3, [sp, #16]
 759:../Libraries/STM32F30x_StdPeriph_Driver/src/stm32f30x_tim.c ****    
 760:../Libraries/STM32F30x_StdPeriph_Driver/src/stm32f30x_tim.c ****   /* Check the parameters */
 761:../Libraries/STM32F30x_StdPeriph_Driver/src/stm32f30x_tim.c ****   assert_param(IS_TIM_LIST2_PERIPH(TIMx)); 
 762:../Libraries/STM32F30x_StdPeriph_Driver/src/stm32f30x_tim.c ****   assert_param(IS_TIM_OC_MODE(TIM_OCInitStruct->TIM_OCMode));
 763:../Libraries/STM32F30x_StdPeriph_Driver/src/stm32f30x_tim.c ****   assert_param(IS_TIM_OUTPUT_STATE(TIM_OCInitStruct->TIM_OutputState));
 764:../Libraries/STM32F30x_StdPeriph_Driver/src/stm32f30x_tim.c ****   assert_param(IS_TIM_OC_POLARITY(TIM_OCInitStruct->TIM_OCPolarity));   
 765:../Libraries/STM32F30x_StdPeriph_Driver/src/stm32f30x_tim.c **** 
 766:../Libraries/STM32F30x_StdPeriph_Driver/src/stm32f30x_tim.c ****   /* Disable the Channel 2: Reset the CC2E Bit */
 767:../Libraries/STM32F30x_StdPeriph_Driver/src/stm32f30x_tim.c ****   TIMx->CCER &= (uint32_t)~TIM_CCER_CC2E;
 1080              		.loc 1 767 0
 1081 0630 019B     		ldr	r3, [sp, #4]
 1082 0632 1B6A     		ldr	r3, [r3, #32]
 1083 0634 23F01002 		bic	r2, r3, #16
 1084 0638 019B     		ldr	r3, [sp, #4]
 1085 063a 1A62     		str	r2, [r3, #32]
 768:../Libraries/STM32F30x_StdPeriph_Driver/src/stm32f30x_tim.c ****   
 769:../Libraries/STM32F30x_StdPeriph_Driver/src/stm32f30x_tim.c ****   /* Get the TIMx CCER register value */  
 770:../Libraries/STM32F30x_StdPeriph_Driver/src/stm32f30x_tim.c ****   tmpccer = TIMx->CCER;
 1086              		.loc 1 770 0
 1087 063c 019B     		ldr	r3, [sp, #4]
 1088 063e 1B6A     		ldr	r3, [r3, #32]
 1089 0640 0593     		str	r3, [sp, #20]
 771:../Libraries/STM32F30x_StdPeriph_Driver/src/stm32f30x_tim.c ****   /* Get the TIMx CR2 register value */
 772:../Libraries/STM32F30x_StdPeriph_Driver/src/stm32f30x_tim.c ****   tmpcr2 =  TIMx->CR2;
 1090              		.loc 1 772 0
 1091 0642 019B     		ldr	r3, [sp, #4]
 1092 0644 5B68     		ldr	r3, [r3, #4]
 1093 0646 0493     		str	r3, [sp, #16]
 773:../Libraries/STM32F30x_StdPeriph_Driver/src/stm32f30x_tim.c ****   
 774:../Libraries/STM32F30x_StdPeriph_Driver/src/stm32f30x_tim.c ****   /* Get the TIMx CCMR1 register value */
 775:../Libraries/STM32F30x_StdPeriph_Driver/src/stm32f30x_tim.c ****   tmpccmrx = TIMx->CCMR1;
 1094              		.loc 1 775 0
 1095 0648 019B     		ldr	r3, [sp, #4]
 1096 064a 9B69     		ldr	r3, [r3, #24]
 1097 064c 0393     		str	r3, [sp, #12]
 776:../Libraries/STM32F30x_StdPeriph_Driver/src/stm32f30x_tim.c ****     
 777:../Libraries/STM32F30x_StdPeriph_Driver/src/stm32f30x_tim.c ****   /* Reset the Output Compare mode and Capture/Compare selection Bits */
 778:../Libraries/STM32F30x_StdPeriph_Driver/src/stm32f30x_tim.c ****   tmpccmrx &= (uint32_t)~TIM_CCMR1_OC2M;
 1098              		.loc 1 778 0
 1099 064e 039B     		ldr	r3, [sp, #12]
 1100 0650 23F08073 		bic	r3, r3, #16777216
 1101 0654 23F4E043 		bic	r3, r3, #28672
 1102 0658 0393     		str	r3, [sp, #12]
 779:../Libraries/STM32F30x_StdPeriph_Driver/src/stm32f30x_tim.c ****   tmpccmrx &= (uint32_t)~TIM_CCMR1_CC2S;
 1103              		.loc 1 779 0
 1104 065a 039B     		ldr	r3, [sp, #12]
 1105 065c 23F44073 		bic	r3, r3, #768
 1106 0660 0393     		str	r3, [sp, #12]
 780:../Libraries/STM32F30x_StdPeriph_Driver/src/stm32f30x_tim.c ****   
 781:../Libraries/STM32F30x_StdPeriph_Driver/src/stm32f30x_tim.c ****   /* Select the Output Compare Mode */
 782:../Libraries/STM32F30x_StdPeriph_Driver/src/stm32f30x_tim.c ****   tmpccmrx |= (uint32_t)(TIM_OCInitStruct->TIM_OCMode << 8);
 1107              		.loc 1 782 0
 1108 0662 009B     		ldr	r3, [sp, #0]
 1109 0664 1B68     		ldr	r3, [r3, #0]
 1110 0666 4FEA0323 		lsl	r3, r3, #8
 1111 066a 039A     		ldr	r2, [sp, #12]
 1112 066c 1343     		orrs	r3, r3, r2
 1113 066e 0393     		str	r3, [sp, #12]
 783:../Libraries/STM32F30x_StdPeriph_Driver/src/stm32f30x_tim.c ****   
 784:../Libraries/STM32F30x_StdPeriph_Driver/src/stm32f30x_tim.c ****   /* Reset the Output Polarity level */
 785:../Libraries/STM32F30x_StdPeriph_Driver/src/stm32f30x_tim.c ****   tmpccer &= (uint32_t)~TIM_CCER_CC2P;
 1114              		.loc 1 785 0
 1115 0670 059B     		ldr	r3, [sp, #20]
 1116 0672 23F02003 		bic	r3, r3, #32
 1117 0676 0593     		str	r3, [sp, #20]
 786:../Libraries/STM32F30x_StdPeriph_Driver/src/stm32f30x_tim.c ****   /* Set the Output Compare Polarity */
 787:../Libraries/STM32F30x_StdPeriph_Driver/src/stm32f30x_tim.c ****   tmpccer |= (uint32_t)((uint32_t)TIM_OCInitStruct->TIM_OCPolarity << 4);
 1118              		.loc 1 787 0
 1119 0678 009B     		ldr	r3, [sp, #0]
 1120 067a 9B89     		ldrh	r3, [r3, #12]
 1121 067c 4FEA0313 		lsl	r3, r3, #4
 1122 0680 059A     		ldr	r2, [sp, #20]
 1123 0682 1343     		orrs	r3, r3, r2
 1124 0684 0593     		str	r3, [sp, #20]
 788:../Libraries/STM32F30x_StdPeriph_Driver/src/stm32f30x_tim.c ****   
 789:../Libraries/STM32F30x_StdPeriph_Driver/src/stm32f30x_tim.c ****   /* Set the Output State */
 790:../Libraries/STM32F30x_StdPeriph_Driver/src/stm32f30x_tim.c ****   tmpccer |= (uint32_t)((uint32_t)TIM_OCInitStruct->TIM_OutputState << 4);
 1125              		.loc 1 790 0
 1126 0686 009B     		ldr	r3, [sp, #0]
 1127 0688 9B88     		ldrh	r3, [r3, #4]
 1128 068a 4FEA0313 		lsl	r3, r3, #4
 1129 068e 059A     		ldr	r2, [sp, #20]
 1130 0690 1343     		orrs	r3, r3, r2
 1131 0692 0593     		str	r3, [sp, #20]
 791:../Libraries/STM32F30x_StdPeriph_Driver/src/stm32f30x_tim.c ****     
 792:../Libraries/STM32F30x_StdPeriph_Driver/src/stm32f30x_tim.c ****   if((TIMx == TIM1) || (TIMx == TIM8))
 1132              		.loc 1 792 0
 1133 0694 019A     		ldr	r2, [sp, #4]
 1134 0696 4FF43053 		mov	r3, #11264
 1135 069a C4F20103 		movt	r3, 16385
 1136 069e 9A42     		cmp	r2, r3
 1137 06a0 06D0     		beq	.L46
 1138              		.loc 1 792 0 is_stmt 0 discriminator 1
 1139 06a2 019A     		ldr	r2, [sp, #4]
 1140 06a4 4FF45053 		mov	r3, #13312
 1141 06a8 C4F20103 		movt	r3, 16385
 1142 06ac 9A42     		cmp	r2, r3
 1143 06ae 2BD1     		bne	.L47
 1144              	.L46:
 793:../Libraries/STM32F30x_StdPeriph_Driver/src/stm32f30x_tim.c ****   {
 794:../Libraries/STM32F30x_StdPeriph_Driver/src/stm32f30x_tim.c ****     assert_param(IS_TIM_OUTPUTN_STATE(TIM_OCInitStruct->TIM_OutputNState));
 795:../Libraries/STM32F30x_StdPeriph_Driver/src/stm32f30x_tim.c ****     assert_param(IS_TIM_OCN_POLARITY(TIM_OCInitStruct->TIM_OCNPolarity));
 796:../Libraries/STM32F30x_StdPeriph_Driver/src/stm32f30x_tim.c ****     assert_param(IS_TIM_OCNIDLE_STATE(TIM_OCInitStruct->TIM_OCNIdleState));
 797:../Libraries/STM32F30x_StdPeriph_Driver/src/stm32f30x_tim.c ****     assert_param(IS_TIM_OCIDLE_STATE(TIM_OCInitStruct->TIM_OCIdleState));
 798:../Libraries/STM32F30x_StdPeriph_Driver/src/stm32f30x_tim.c ****     
 799:../Libraries/STM32F30x_StdPeriph_Driver/src/stm32f30x_tim.c ****     /* Reset the Output N Polarity level */
 800:../Libraries/STM32F30x_StdPeriph_Driver/src/stm32f30x_tim.c ****     tmpccer &= (uint32_t)~TIM_CCER_CC2NP;
 1145              		.loc 1 800 0 is_stmt 1
 1146 06b0 059B     		ldr	r3, [sp, #20]
 1147 06b2 23F08003 		bic	r3, r3, #128
 1148 06b6 0593     		str	r3, [sp, #20]
 801:../Libraries/STM32F30x_StdPeriph_Driver/src/stm32f30x_tim.c ****     /* Set the Output N Polarity */
 802:../Libraries/STM32F30x_StdPeriph_Driver/src/stm32f30x_tim.c ****     tmpccer |= (uint32_t)((uint32_t)TIM_OCInitStruct->TIM_OCNPolarity << 4);
 1149              		.loc 1 802 0
 1150 06b8 009B     		ldr	r3, [sp, #0]
 1151 06ba DB89     		ldrh	r3, [r3, #14]
 1152 06bc 4FEA0313 		lsl	r3, r3, #4
 1153 06c0 059A     		ldr	r2, [sp, #20]
 1154 06c2 1343     		orrs	r3, r3, r2
 1155 06c4 0593     		str	r3, [sp, #20]
 803:../Libraries/STM32F30x_StdPeriph_Driver/src/stm32f30x_tim.c ****     /* Reset the Output N State */
 804:../Libraries/STM32F30x_StdPeriph_Driver/src/stm32f30x_tim.c ****     tmpccer &= (uint32_t)~TIM_CCER_CC2NE;
 1156              		.loc 1 804 0
 1157 06c6 059B     		ldr	r3, [sp, #20]
 1158 06c8 23F04003 		bic	r3, r3, #64
 1159 06cc 0593     		str	r3, [sp, #20]
 805:../Libraries/STM32F30x_StdPeriph_Driver/src/stm32f30x_tim.c ****     
 806:../Libraries/STM32F30x_StdPeriph_Driver/src/stm32f30x_tim.c ****     /* Set the Output N State */
 807:../Libraries/STM32F30x_StdPeriph_Driver/src/stm32f30x_tim.c ****     tmpccer |= (uint32_t)((uint32_t)TIM_OCInitStruct->TIM_OutputNState << 4);
 1160              		.loc 1 807 0
 1161 06ce 009B     		ldr	r3, [sp, #0]
 1162 06d0 DB88     		ldrh	r3, [r3, #6]
 1163 06d2 4FEA0313 		lsl	r3, r3, #4
 1164 06d6 059A     		ldr	r2, [sp, #20]
 1165 06d8 1343     		orrs	r3, r3, r2
 1166 06da 0593     		str	r3, [sp, #20]
 808:../Libraries/STM32F30x_StdPeriph_Driver/src/stm32f30x_tim.c ****     /* Reset the Output Compare and Output Compare N IDLE State */
 809:../Libraries/STM32F30x_StdPeriph_Driver/src/stm32f30x_tim.c ****     tmpcr2 &= (uint32_t)~TIM_CR2_OIS2;
 1167              		.loc 1 809 0
 1168 06dc 049B     		ldr	r3, [sp, #16]
 1169 06de 23F48063 		bic	r3, r3, #1024
 1170 06e2 0493     		str	r3, [sp, #16]
 810:../Libraries/STM32F30x_StdPeriph_Driver/src/stm32f30x_tim.c ****     tmpcr2 &= (uint32_t)~TIM_CR2_OIS2N;
 1171              		.loc 1 810 0
 1172 06e4 049B     		ldr	r3, [sp, #16]
 1173 06e6 23F40063 		bic	r3, r3, #2048
 1174 06ea 0493     		str	r3, [sp, #16]
 811:../Libraries/STM32F30x_StdPeriph_Driver/src/stm32f30x_tim.c ****     /* Set the Output Idle state */
 812:../Libraries/STM32F30x_StdPeriph_Driver/src/stm32f30x_tim.c ****     tmpcr2 |= (uint32_t)((uint32_t)TIM_OCInitStruct->TIM_OCIdleState << 2);
 1175              		.loc 1 812 0
 1176 06ec 009B     		ldr	r3, [sp, #0]
 1177 06ee 1B8A     		ldrh	r3, [r3, #16]
 1178 06f0 4FEA8303 		lsl	r3, r3, #2
 1179 06f4 049A     		ldr	r2, [sp, #16]
 1180 06f6 1343     		orrs	r3, r3, r2
 1181 06f8 0493     		str	r3, [sp, #16]
 813:../Libraries/STM32F30x_StdPeriph_Driver/src/stm32f30x_tim.c ****     /* Set the Output N Idle state */
 814:../Libraries/STM32F30x_StdPeriph_Driver/src/stm32f30x_tim.c ****     tmpcr2 |= (uint32_t)((uint32_t)TIM_OCInitStruct->TIM_OCNIdleState << 2);
 1182              		.loc 1 814 0
 1183 06fa 009B     		ldr	r3, [sp, #0]
 1184 06fc 5B8A     		ldrh	r3, [r3, #18]
 1185 06fe 4FEA8303 		lsl	r3, r3, #2
 1186 0702 049A     		ldr	r2, [sp, #16]
 1187 0704 1343     		orrs	r3, r3, r2
 1188 0706 0493     		str	r3, [sp, #16]
 1189              	.L47:
 815:../Libraries/STM32F30x_StdPeriph_Driver/src/stm32f30x_tim.c ****   }
 816:../Libraries/STM32F30x_StdPeriph_Driver/src/stm32f30x_tim.c ****   /* Write to TIMx CR2 */
 817:../Libraries/STM32F30x_StdPeriph_Driver/src/stm32f30x_tim.c ****   TIMx->CR2 = tmpcr2;
 1190              		.loc 1 817 0
 1191 0708 019B     		ldr	r3, [sp, #4]
 1192 070a 049A     		ldr	r2, [sp, #16]
 1193 070c 5A60     		str	r2, [r3, #4]
 818:../Libraries/STM32F30x_StdPeriph_Driver/src/stm32f30x_tim.c ****   
 819:../Libraries/STM32F30x_StdPeriph_Driver/src/stm32f30x_tim.c ****   /* Write to TIMx CCMR1 */
 820:../Libraries/STM32F30x_StdPeriph_Driver/src/stm32f30x_tim.c ****   TIMx->CCMR1 = tmpccmrx;
 1194              		.loc 1 820 0
 1195 070e 019B     		ldr	r3, [sp, #4]
 1196 0710 039A     		ldr	r2, [sp, #12]
 1197 0712 9A61     		str	r2, [r3, #24]
 821:../Libraries/STM32F30x_StdPeriph_Driver/src/stm32f30x_tim.c ****   
 822:../Libraries/STM32F30x_StdPeriph_Driver/src/stm32f30x_tim.c ****   /* Set the Capture Compare Register value */
 823:../Libraries/STM32F30x_StdPeriph_Driver/src/stm32f30x_tim.c ****   TIMx->CCR2 = TIM_OCInitStruct->TIM_Pulse;
 1198              		.loc 1 823 0
 1199 0714 009B     		ldr	r3, [sp, #0]
 1200 0716 9A68     		ldr	r2, [r3, #8]
 1201 0718 019B     		ldr	r3, [sp, #4]
 1202 071a 9A63     		str	r2, [r3, #56]
 824:../Libraries/STM32F30x_StdPeriph_Driver/src/stm32f30x_tim.c ****   
 825:../Libraries/STM32F30x_StdPeriph_Driver/src/stm32f30x_tim.c ****   /* Write to TIMx CCER */
 826:../Libraries/STM32F30x_StdPeriph_Driver/src/stm32f30x_tim.c ****   TIMx->CCER = tmpccer;
 1203              		.loc 1 826 0
 1204 071c 019B     		ldr	r3, [sp, #4]
 1205 071e 059A     		ldr	r2, [sp, #20]
 1206 0720 1A62     		str	r2, [r3, #32]
 827:../Libraries/STM32F30x_StdPeriph_Driver/src/stm32f30x_tim.c **** }
 1207              		.loc 1 827 0
 1208 0722 06B0     		add	sp, sp, #24
 1209 0724 7047     		bx	lr
 1210              		.cfi_endproc
 1211              	.LFE128:
 1213 0726 00BF     		.align	2
 1214              		.global	TIM_OC3Init
 1215              		.thumb
 1216              		.thumb_func
 1218              	TIM_OC3Init:
 1219              	.LFB129:
 828:../Libraries/STM32F30x_StdPeriph_Driver/src/stm32f30x_tim.c **** 
 829:../Libraries/STM32F30x_StdPeriph_Driver/src/stm32f30x_tim.c **** /**
 830:../Libraries/STM32F30x_StdPeriph_Driver/src/stm32f30x_tim.c ****   * @brief  Initializes the TIMx Channel3 according to the specified parameters
 831:../Libraries/STM32F30x_StdPeriph_Driver/src/stm32f30x_tim.c ****   *         in the TIM_OCInitStruct.
 832:../Libraries/STM32F30x_StdPeriph_Driver/src/stm32f30x_tim.c ****   * @param  TIMx: where x can be 1, 2, 3, 4 or 8 to select the TIM peripheral.
 833:../Libraries/STM32F30x_StdPeriph_Driver/src/stm32f30x_tim.c ****   * @param  TIM_OCInitStruct: pointer to a TIM_OCInitTypeDef structure that contains
 834:../Libraries/STM32F30x_StdPeriph_Driver/src/stm32f30x_tim.c ****   *         the configuration information for the specified TIM peripheral.
 835:../Libraries/STM32F30x_StdPeriph_Driver/src/stm32f30x_tim.c ****   * @retval None
 836:../Libraries/STM32F30x_StdPeriph_Driver/src/stm32f30x_tim.c ****   */
 837:../Libraries/STM32F30x_StdPeriph_Driver/src/stm32f30x_tim.c **** void TIM_OC3Init(TIM_TypeDef* TIMx, TIM_OCInitTypeDef* TIM_OCInitStruct)
 838:../Libraries/STM32F30x_StdPeriph_Driver/src/stm32f30x_tim.c **** {
 1220              		.loc 1 838 0
 1221              		.cfi_startproc
 1222              		@ args = 0, pretend = 0, frame = 24
 1223              		@ frame_needed = 0, uses_anonymous_args = 0
 1224              		@ link register save eliminated.
 1225 0728 86B0     		sub	sp, sp, #24
 1226              	.LCFI19:
 1227              		.cfi_def_cfa_offset 24
 1228 072a 0190     		str	r0, [sp, #4]
 1229 072c 0091     		str	r1, [sp, #0]
 839:../Libraries/STM32F30x_StdPeriph_Driver/src/stm32f30x_tim.c ****   uint32_t tmpccmrx = 0, tmpccer = 0, tmpcr2 = 0;
 1230              		.loc 1 839 0
 1231 072e 4FF00003 		mov	r3, #0
 1232 0732 0393     		str	r3, [sp, #12]
 1233 0734 4FF00003 		mov	r3, #0
 1234 0738 0593     		str	r3, [sp, #20]
 1235 073a 4FF00003 		mov	r3, #0
 1236 073e 0493     		str	r3, [sp, #16]
 840:../Libraries/STM32F30x_StdPeriph_Driver/src/stm32f30x_tim.c ****    
 841:../Libraries/STM32F30x_StdPeriph_Driver/src/stm32f30x_tim.c ****   /* Check the parameters */
 842:../Libraries/STM32F30x_StdPeriph_Driver/src/stm32f30x_tim.c ****   assert_param(IS_TIM_LIST3_PERIPH(TIMx)); 
 843:../Libraries/STM32F30x_StdPeriph_Driver/src/stm32f30x_tim.c ****   assert_param(IS_TIM_OC_MODE(TIM_OCInitStruct->TIM_OCMode));
 844:../Libraries/STM32F30x_StdPeriph_Driver/src/stm32f30x_tim.c ****   assert_param(IS_TIM_OUTPUT_STATE(TIM_OCInitStruct->TIM_OutputState));
 845:../Libraries/STM32F30x_StdPeriph_Driver/src/stm32f30x_tim.c ****   assert_param(IS_TIM_OC_POLARITY(TIM_OCInitStruct->TIM_OCPolarity));   
 846:../Libraries/STM32F30x_StdPeriph_Driver/src/stm32f30x_tim.c **** 
 847:../Libraries/STM32F30x_StdPeriph_Driver/src/stm32f30x_tim.c ****   /* Disable the Channel 3: Reset the CC2E Bit */
 848:../Libraries/STM32F30x_StdPeriph_Driver/src/stm32f30x_tim.c ****   TIMx->CCER &= (uint32_t)~TIM_CCER_CC3E;
 1237              		.loc 1 848 0
 1238 0740 019B     		ldr	r3, [sp, #4]
 1239 0742 1B6A     		ldr	r3, [r3, #32]
 1240 0744 23F48072 		bic	r2, r3, #256
 1241 0748 019B     		ldr	r3, [sp, #4]
 1242 074a 1A62     		str	r2, [r3, #32]
 849:../Libraries/STM32F30x_StdPeriph_Driver/src/stm32f30x_tim.c ****   
 850:../Libraries/STM32F30x_StdPeriph_Driver/src/stm32f30x_tim.c ****   /* Get the TIMx CCER register value */
 851:../Libraries/STM32F30x_StdPeriph_Driver/src/stm32f30x_tim.c ****   tmpccer = TIMx->CCER;
 1243              		.loc 1 851 0
 1244 074c 019B     		ldr	r3, [sp, #4]
 1245 074e 1B6A     		ldr	r3, [r3, #32]
 1246 0750 0593     		str	r3, [sp, #20]
 852:../Libraries/STM32F30x_StdPeriph_Driver/src/stm32f30x_tim.c ****   /* Get the TIMx CR2 register value */
 853:../Libraries/STM32F30x_StdPeriph_Driver/src/stm32f30x_tim.c ****   tmpcr2 =  TIMx->CR2;
 1247              		.loc 1 853 0
 1248 0752 019B     		ldr	r3, [sp, #4]
 1249 0754 5B68     		ldr	r3, [r3, #4]
 1250 0756 0493     		str	r3, [sp, #16]
 854:../Libraries/STM32F30x_StdPeriph_Driver/src/stm32f30x_tim.c ****   
 855:../Libraries/STM32F30x_StdPeriph_Driver/src/stm32f30x_tim.c ****   /* Get the TIMx CCMR2 register value */
 856:../Libraries/STM32F30x_StdPeriph_Driver/src/stm32f30x_tim.c ****   tmpccmrx = TIMx->CCMR2;
 1251              		.loc 1 856 0
 1252 0758 019B     		ldr	r3, [sp, #4]
 1253 075a DB69     		ldr	r3, [r3, #28]
 1254 075c 0393     		str	r3, [sp, #12]
 857:../Libraries/STM32F30x_StdPeriph_Driver/src/stm32f30x_tim.c ****     
 858:../Libraries/STM32F30x_StdPeriph_Driver/src/stm32f30x_tim.c ****   /* Reset the Output Compare mode and Capture/Compare selection Bits */
 859:../Libraries/STM32F30x_StdPeriph_Driver/src/stm32f30x_tim.c ****   tmpccmrx &= (uint32_t)~TIM_CCMR2_OC3M;
 1255              		.loc 1 859 0
 1256 075e 039B     		ldr	r3, [sp, #12]
 1257 0760 23F07003 		bic	r3, r3, #112
 1258 0764 0393     		str	r3, [sp, #12]
 860:../Libraries/STM32F30x_StdPeriph_Driver/src/stm32f30x_tim.c ****   tmpccmrx &= (uint32_t)~TIM_CCMR2_CC3S;  
 1259              		.loc 1 860 0
 1260 0766 039B     		ldr	r3, [sp, #12]
 1261 0768 23F00303 		bic	r3, r3, #3
 1262 076c 0393     		str	r3, [sp, #12]
 861:../Libraries/STM32F30x_StdPeriph_Driver/src/stm32f30x_tim.c ****   /* Select the Output Compare Mode */
 862:../Libraries/STM32F30x_StdPeriph_Driver/src/stm32f30x_tim.c ****   tmpccmrx |= TIM_OCInitStruct->TIM_OCMode;
 1263              		.loc 1 862 0
 1264 076e 009B     		ldr	r3, [sp, #0]
 1265 0770 1B68     		ldr	r3, [r3, #0]
 1266 0772 039A     		ldr	r2, [sp, #12]
 1267 0774 1343     		orrs	r3, r3, r2
 1268 0776 0393     		str	r3, [sp, #12]
 863:../Libraries/STM32F30x_StdPeriph_Driver/src/stm32f30x_tim.c ****   
 864:../Libraries/STM32F30x_StdPeriph_Driver/src/stm32f30x_tim.c ****   /* Reset the Output Polarity level */
 865:../Libraries/STM32F30x_StdPeriph_Driver/src/stm32f30x_tim.c ****   tmpccer &= (uint32_t)~TIM_CCER_CC3P;
 1269              		.loc 1 865 0
 1270 0778 059B     		ldr	r3, [sp, #20]
 1271 077a 23F40073 		bic	r3, r3, #512
 1272 077e 0593     		str	r3, [sp, #20]
 866:../Libraries/STM32F30x_StdPeriph_Driver/src/stm32f30x_tim.c ****   /* Set the Output Compare Polarity */
 867:../Libraries/STM32F30x_StdPeriph_Driver/src/stm32f30x_tim.c ****   tmpccer |= (uint32_t)((uint32_t)TIM_OCInitStruct->TIM_OCPolarity << 8);
 1273              		.loc 1 867 0
 1274 0780 009B     		ldr	r3, [sp, #0]
 1275 0782 9B89     		ldrh	r3, [r3, #12]
 1276 0784 4FEA0323 		lsl	r3, r3, #8
 1277 0788 059A     		ldr	r2, [sp, #20]
 1278 078a 1343     		orrs	r3, r3, r2
 1279 078c 0593     		str	r3, [sp, #20]
 868:../Libraries/STM32F30x_StdPeriph_Driver/src/stm32f30x_tim.c ****   
 869:../Libraries/STM32F30x_StdPeriph_Driver/src/stm32f30x_tim.c ****   /* Set the Output State */
 870:../Libraries/STM32F30x_StdPeriph_Driver/src/stm32f30x_tim.c ****   tmpccer |= (uint32_t)((uint32_t)TIM_OCInitStruct->TIM_OutputState << 8);
 1280              		.loc 1 870 0
 1281 078e 009B     		ldr	r3, [sp, #0]
 1282 0790 9B88     		ldrh	r3, [r3, #4]
 1283 0792 4FEA0323 		lsl	r3, r3, #8
 1284 0796 059A     		ldr	r2, [sp, #20]
 1285 0798 1343     		orrs	r3, r3, r2
 1286 079a 0593     		str	r3, [sp, #20]
 871:../Libraries/STM32F30x_StdPeriph_Driver/src/stm32f30x_tim.c ****     
 872:../Libraries/STM32F30x_StdPeriph_Driver/src/stm32f30x_tim.c ****   if((TIMx == TIM1) || (TIMx == TIM8))
 1287              		.loc 1 872 0
 1288 079c 019A     		ldr	r2, [sp, #4]
 1289 079e 4FF43053 		mov	r3, #11264
 1290 07a2 C4F20103 		movt	r3, 16385
 1291 07a6 9A42     		cmp	r2, r3
 1292 07a8 06D0     		beq	.L49
 1293              		.loc 1 872 0 is_stmt 0 discriminator 1
 1294 07aa 019A     		ldr	r2, [sp, #4]
 1295 07ac 4FF45053 		mov	r3, #13312
 1296 07b0 C4F20103 		movt	r3, 16385
 1297 07b4 9A42     		cmp	r2, r3
 1298 07b6 2BD1     		bne	.L50
 1299              	.L49:
 873:../Libraries/STM32F30x_StdPeriph_Driver/src/stm32f30x_tim.c ****   {
 874:../Libraries/STM32F30x_StdPeriph_Driver/src/stm32f30x_tim.c ****     assert_param(IS_TIM_OUTPUTN_STATE(TIM_OCInitStruct->TIM_OutputNState));
 875:../Libraries/STM32F30x_StdPeriph_Driver/src/stm32f30x_tim.c ****     assert_param(IS_TIM_OCN_POLARITY(TIM_OCInitStruct->TIM_OCNPolarity));
 876:../Libraries/STM32F30x_StdPeriph_Driver/src/stm32f30x_tim.c ****     assert_param(IS_TIM_OCNIDLE_STATE(TIM_OCInitStruct->TIM_OCNIdleState));
 877:../Libraries/STM32F30x_StdPeriph_Driver/src/stm32f30x_tim.c ****     assert_param(IS_TIM_OCIDLE_STATE(TIM_OCInitStruct->TIM_OCIdleState));
 878:../Libraries/STM32F30x_StdPeriph_Driver/src/stm32f30x_tim.c ****     
 879:../Libraries/STM32F30x_StdPeriph_Driver/src/stm32f30x_tim.c ****     /* Reset the Output N Polarity level */
 880:../Libraries/STM32F30x_StdPeriph_Driver/src/stm32f30x_tim.c ****     tmpccer &= (uint32_t)~TIM_CCER_CC3NP;
 1300              		.loc 1 880 0 is_stmt 1
 1301 07b8 059B     		ldr	r3, [sp, #20]
 1302 07ba 23F40063 		bic	r3, r3, #2048
 1303 07be 0593     		str	r3, [sp, #20]
 881:../Libraries/STM32F30x_StdPeriph_Driver/src/stm32f30x_tim.c ****     /* Set the Output N Polarity */
 882:../Libraries/STM32F30x_StdPeriph_Driver/src/stm32f30x_tim.c ****     tmpccer |= (uint32_t)((uint32_t)TIM_OCInitStruct->TIM_OCNPolarity << 8);
 1304              		.loc 1 882 0
 1305 07c0 009B     		ldr	r3, [sp, #0]
 1306 07c2 DB89     		ldrh	r3, [r3, #14]
 1307 07c4 4FEA0323 		lsl	r3, r3, #8
 1308 07c8 059A     		ldr	r2, [sp, #20]
 1309 07ca 1343     		orrs	r3, r3, r2
 1310 07cc 0593     		str	r3, [sp, #20]
 883:../Libraries/STM32F30x_StdPeriph_Driver/src/stm32f30x_tim.c ****     /* Reset the Output N State */
 884:../Libraries/STM32F30x_StdPeriph_Driver/src/stm32f30x_tim.c ****     tmpccer &= (uint32_t)~TIM_CCER_CC3NE;
 1311              		.loc 1 884 0
 1312 07ce 059B     		ldr	r3, [sp, #20]
 1313 07d0 23F48063 		bic	r3, r3, #1024
 1314 07d4 0593     		str	r3, [sp, #20]
 885:../Libraries/STM32F30x_StdPeriph_Driver/src/stm32f30x_tim.c ****     
 886:../Libraries/STM32F30x_StdPeriph_Driver/src/stm32f30x_tim.c ****     /* Set the Output N State */
 887:../Libraries/STM32F30x_StdPeriph_Driver/src/stm32f30x_tim.c ****     tmpccer |= (uint32_t)((uint32_t)TIM_OCInitStruct->TIM_OutputNState << 8);
 1315              		.loc 1 887 0
 1316 07d6 009B     		ldr	r3, [sp, #0]
 1317 07d8 DB88     		ldrh	r3, [r3, #6]
 1318 07da 4FEA0323 		lsl	r3, r3, #8
 1319 07de 059A     		ldr	r2, [sp, #20]
 1320 07e0 1343     		orrs	r3, r3, r2
 1321 07e2 0593     		str	r3, [sp, #20]
 888:../Libraries/STM32F30x_StdPeriph_Driver/src/stm32f30x_tim.c ****     /* Reset the Output Compare and Output Compare N IDLE State */
 889:../Libraries/STM32F30x_StdPeriph_Driver/src/stm32f30x_tim.c ****     tmpcr2 &= (uint32_t)~TIM_CR2_OIS3;
 1322              		.loc 1 889 0
 1323 07e4 049B     		ldr	r3, [sp, #16]
 1324 07e6 23F48053 		bic	r3, r3, #4096
 1325 07ea 0493     		str	r3, [sp, #16]
 890:../Libraries/STM32F30x_StdPeriph_Driver/src/stm32f30x_tim.c ****     tmpcr2 &= (uint32_t)~TIM_CR2_OIS3N;
 1326              		.loc 1 890 0
 1327 07ec 049B     		ldr	r3, [sp, #16]
 1328 07ee 23F40053 		bic	r3, r3, #8192
 1329 07f2 0493     		str	r3, [sp, #16]
 891:../Libraries/STM32F30x_StdPeriph_Driver/src/stm32f30x_tim.c ****     /* Set the Output Idle state */
 892:../Libraries/STM32F30x_StdPeriph_Driver/src/stm32f30x_tim.c ****     tmpcr2 |= (uint32_t)((uint32_t)TIM_OCInitStruct->TIM_OCIdleState << 4);
 1330              		.loc 1 892 0
 1331 07f4 009B     		ldr	r3, [sp, #0]
 1332 07f6 1B8A     		ldrh	r3, [r3, #16]
 1333 07f8 4FEA0313 		lsl	r3, r3, #4
 1334 07fc 049A     		ldr	r2, [sp, #16]
 1335 07fe 1343     		orrs	r3, r3, r2
 1336 0800 0493     		str	r3, [sp, #16]
 893:../Libraries/STM32F30x_StdPeriph_Driver/src/stm32f30x_tim.c ****     /* Set the Output N Idle state */
 894:../Libraries/STM32F30x_StdPeriph_Driver/src/stm32f30x_tim.c ****     tmpcr2 |= (uint32_t)((uint32_t)TIM_OCInitStruct->TIM_OCNIdleState << 4);
 1337              		.loc 1 894 0
 1338 0802 009B     		ldr	r3, [sp, #0]
 1339 0804 5B8A     		ldrh	r3, [r3, #18]
 1340 0806 4FEA0313 		lsl	r3, r3, #4
 1341 080a 049A     		ldr	r2, [sp, #16]
 1342 080c 1343     		orrs	r3, r3, r2
 1343 080e 0493     		str	r3, [sp, #16]
 1344              	.L50:
 895:../Libraries/STM32F30x_StdPeriph_Driver/src/stm32f30x_tim.c ****   }
 896:../Libraries/STM32F30x_StdPeriph_Driver/src/stm32f30x_tim.c ****   /* Write to TIMx CR2 */
 897:../Libraries/STM32F30x_StdPeriph_Driver/src/stm32f30x_tim.c ****   TIMx->CR2 = tmpcr2;
 1345              		.loc 1 897 0
 1346 0810 019B     		ldr	r3, [sp, #4]
 1347 0812 049A     		ldr	r2, [sp, #16]
 1348 0814 5A60     		str	r2, [r3, #4]
 898:../Libraries/STM32F30x_StdPeriph_Driver/src/stm32f30x_tim.c ****   
 899:../Libraries/STM32F30x_StdPeriph_Driver/src/stm32f30x_tim.c ****   /* Write to TIMx CCMR2 */
 900:../Libraries/STM32F30x_StdPeriph_Driver/src/stm32f30x_tim.c ****   TIMx->CCMR2 = tmpccmrx;
 1349              		.loc 1 900 0
 1350 0816 019B     		ldr	r3, [sp, #4]
 1351 0818 039A     		ldr	r2, [sp, #12]
 1352 081a DA61     		str	r2, [r3, #28]
 901:../Libraries/STM32F30x_StdPeriph_Driver/src/stm32f30x_tim.c ****   
 902:../Libraries/STM32F30x_StdPeriph_Driver/src/stm32f30x_tim.c ****   /* Set the Capture Compare Register value */
 903:../Libraries/STM32F30x_StdPeriph_Driver/src/stm32f30x_tim.c ****   TIMx->CCR3 = TIM_OCInitStruct->TIM_Pulse;
 1353              		.loc 1 903 0
 1354 081c 009B     		ldr	r3, [sp, #0]
 1355 081e 9A68     		ldr	r2, [r3, #8]
 1356 0820 019B     		ldr	r3, [sp, #4]
 1357 0822 DA63     		str	r2, [r3, #60]
 904:../Libraries/STM32F30x_StdPeriph_Driver/src/stm32f30x_tim.c ****   
 905:../Libraries/STM32F30x_StdPeriph_Driver/src/stm32f30x_tim.c ****   /* Write to TIMx CCER */
 906:../Libraries/STM32F30x_StdPeriph_Driver/src/stm32f30x_tim.c ****   TIMx->CCER = tmpccer;
 1358              		.loc 1 906 0
 1359 0824 019B     		ldr	r3, [sp, #4]
 1360 0826 059A     		ldr	r2, [sp, #20]
 1361 0828 1A62     		str	r2, [r3, #32]
 907:../Libraries/STM32F30x_StdPeriph_Driver/src/stm32f30x_tim.c **** }
 1362              		.loc 1 907 0
 1363 082a 06B0     		add	sp, sp, #24
 1364 082c 7047     		bx	lr
 1365              		.cfi_endproc
 1366              	.LFE129:
 1368 082e 00BF     		.align	2
 1369              		.global	TIM_OC4Init
 1370              		.thumb
 1371              		.thumb_func
 1373              	TIM_OC4Init:
 1374              	.LFB130:
 908:../Libraries/STM32F30x_StdPeriph_Driver/src/stm32f30x_tim.c **** 
 909:../Libraries/STM32F30x_StdPeriph_Driver/src/stm32f30x_tim.c **** /**
 910:../Libraries/STM32F30x_StdPeriph_Driver/src/stm32f30x_tim.c ****   * @brief  Initializes the TIMx Channel4 according to the specified parameters
 911:../Libraries/STM32F30x_StdPeriph_Driver/src/stm32f30x_tim.c ****   *         in the TIM_OCInitStruct.
 912:../Libraries/STM32F30x_StdPeriph_Driver/src/stm32f30x_tim.c ****   * @param  TIMx: where x can be 1, 2, 3, 4 or 8 to select the TIM peripheral.
 913:../Libraries/STM32F30x_StdPeriph_Driver/src/stm32f30x_tim.c ****   * @param  TIM_OCInitStruct: pointer to a TIM_OCInitTypeDef structure that contains
 914:../Libraries/STM32F30x_StdPeriph_Driver/src/stm32f30x_tim.c ****   *         the configuration information for the specified TIM peripheral.
 915:../Libraries/STM32F30x_StdPeriph_Driver/src/stm32f30x_tim.c ****   * @retval None
 916:../Libraries/STM32F30x_StdPeriph_Driver/src/stm32f30x_tim.c ****   */
 917:../Libraries/STM32F30x_StdPeriph_Driver/src/stm32f30x_tim.c **** void TIM_OC4Init(TIM_TypeDef* TIMx, TIM_OCInitTypeDef* TIM_OCInitStruct)
 918:../Libraries/STM32F30x_StdPeriph_Driver/src/stm32f30x_tim.c **** {
 1375              		.loc 1 918 0
 1376              		.cfi_startproc
 1377              		@ args = 0, pretend = 0, frame = 24
 1378              		@ frame_needed = 0, uses_anonymous_args = 0
 1379              		@ link register save eliminated.
 1380 0830 86B0     		sub	sp, sp, #24
 1381              	.LCFI20:
 1382              		.cfi_def_cfa_offset 24
 1383 0832 0190     		str	r0, [sp, #4]
 1384 0834 0091     		str	r1, [sp, #0]
 919:../Libraries/STM32F30x_StdPeriph_Driver/src/stm32f30x_tim.c ****   uint32_t tmpccmrx = 0, tmpccer = 0, tmpcr2 = 0;
 1385              		.loc 1 919 0
 1386 0836 4FF00003 		mov	r3, #0
 1387 083a 0493     		str	r3, [sp, #16]
 1388 083c 4FF00003 		mov	r3, #0
 1389 0840 0393     		str	r3, [sp, #12]
 1390 0842 4FF00003 		mov	r3, #0
 1391 0846 0593     		str	r3, [sp, #20]
 920:../Libraries/STM32F30x_StdPeriph_Driver/src/stm32f30x_tim.c ****    
 921:../Libraries/STM32F30x_StdPeriph_Driver/src/stm32f30x_tim.c ****   /* Check the parameters */
 922:../Libraries/STM32F30x_StdPeriph_Driver/src/stm32f30x_tim.c ****   assert_param(IS_TIM_LIST3_PERIPH(TIMx)); 
 923:../Libraries/STM32F30x_StdPeriph_Driver/src/stm32f30x_tim.c ****   assert_param(IS_TIM_OC_MODE(TIM_OCInitStruct->TIM_OCMode));
 924:../Libraries/STM32F30x_StdPeriph_Driver/src/stm32f30x_tim.c ****   assert_param(IS_TIM_OUTPUT_STATE(TIM_OCInitStruct->TIM_OutputState));
 925:../Libraries/STM32F30x_StdPeriph_Driver/src/stm32f30x_tim.c ****   assert_param(IS_TIM_OC_POLARITY(TIM_OCInitStruct->TIM_OCPolarity));   
 926:../Libraries/STM32F30x_StdPeriph_Driver/src/stm32f30x_tim.c **** 
 927:../Libraries/STM32F30x_StdPeriph_Driver/src/stm32f30x_tim.c ****   /* Disable the Channel 4: Reset the CC4E Bit */
 928:../Libraries/STM32F30x_StdPeriph_Driver/src/stm32f30x_tim.c ****   TIMx->CCER &= (uint32_t)~TIM_CCER_CC4E;
 1392              		.loc 1 928 0
 1393 0848 019B     		ldr	r3, [sp, #4]
 1394 084a 1B6A     		ldr	r3, [r3, #32]
 1395 084c 23F48052 		bic	r2, r3, #4096
 1396 0850 019B     		ldr	r3, [sp, #4]
 1397 0852 1A62     		str	r2, [r3, #32]
 929:../Libraries/STM32F30x_StdPeriph_Driver/src/stm32f30x_tim.c ****   
 930:../Libraries/STM32F30x_StdPeriph_Driver/src/stm32f30x_tim.c ****   /* Get the TIMx CCER register value */
 931:../Libraries/STM32F30x_StdPeriph_Driver/src/stm32f30x_tim.c ****   tmpccer = TIMx->CCER;
 1398              		.loc 1 931 0
 1399 0854 019B     		ldr	r3, [sp, #4]
 1400 0856 1B6A     		ldr	r3, [r3, #32]
 1401 0858 0393     		str	r3, [sp, #12]
 932:../Libraries/STM32F30x_StdPeriph_Driver/src/stm32f30x_tim.c ****   /* Get the TIMx CR2 register value */
 933:../Libraries/STM32F30x_StdPeriph_Driver/src/stm32f30x_tim.c ****   tmpcr2 =  TIMx->CR2;
 1402              		.loc 1 933 0
 1403 085a 019B     		ldr	r3, [sp, #4]
 1404 085c 5B68     		ldr	r3, [r3, #4]
 1405 085e 0593     		str	r3, [sp, #20]
 934:../Libraries/STM32F30x_StdPeriph_Driver/src/stm32f30x_tim.c ****   
 935:../Libraries/STM32F30x_StdPeriph_Driver/src/stm32f30x_tim.c ****   /* Get the TIMx CCMR2 register value */
 936:../Libraries/STM32F30x_StdPeriph_Driver/src/stm32f30x_tim.c ****   tmpccmrx = TIMx->CCMR2;
 1406              		.loc 1 936 0
 1407 0860 019B     		ldr	r3, [sp, #4]
 1408 0862 DB69     		ldr	r3, [r3, #28]
 1409 0864 0493     		str	r3, [sp, #16]
 937:../Libraries/STM32F30x_StdPeriph_Driver/src/stm32f30x_tim.c ****     
 938:../Libraries/STM32F30x_StdPeriph_Driver/src/stm32f30x_tim.c ****   /* Reset the Output Compare mode and Capture/Compare selection Bits */
 939:../Libraries/STM32F30x_StdPeriph_Driver/src/stm32f30x_tim.c ****   tmpccmrx &= (uint32_t)~TIM_CCMR2_OC4M;
 1410              		.loc 1 939 0
 1411 0866 049B     		ldr	r3, [sp, #16]
 1412 0868 23F4E043 		bic	r3, r3, #28672
 1413 086c 0493     		str	r3, [sp, #16]
 940:../Libraries/STM32F30x_StdPeriph_Driver/src/stm32f30x_tim.c ****   tmpccmrx &= (uint32_t)~TIM_CCMR2_CC4S;
 1414              		.loc 1 940 0
 1415 086e 049B     		ldr	r3, [sp, #16]
 1416 0870 23F44073 		bic	r3, r3, #768
 1417 0874 0493     		str	r3, [sp, #16]
 941:../Libraries/STM32F30x_StdPeriph_Driver/src/stm32f30x_tim.c ****   
 942:../Libraries/STM32F30x_StdPeriph_Driver/src/stm32f30x_tim.c ****   /* Select the Output Compare Mode */
 943:../Libraries/STM32F30x_StdPeriph_Driver/src/stm32f30x_tim.c ****   tmpccmrx |= (uint32_t)(TIM_OCInitStruct->TIM_OCMode << 8);
 1418              		.loc 1 943 0
 1419 0876 009B     		ldr	r3, [sp, #0]
 1420 0878 1B68     		ldr	r3, [r3, #0]
 1421 087a 4FEA0323 		lsl	r3, r3, #8
 1422 087e 049A     		ldr	r2, [sp, #16]
 1423 0880 1343     		orrs	r3, r3, r2
 1424 0882 0493     		str	r3, [sp, #16]
 944:../Libraries/STM32F30x_StdPeriph_Driver/src/stm32f30x_tim.c ****   
 945:../Libraries/STM32F30x_StdPeriph_Driver/src/stm32f30x_tim.c ****   /* Reset the Output Polarity level */
 946:../Libraries/STM32F30x_StdPeriph_Driver/src/stm32f30x_tim.c ****   tmpccer &= (uint32_t)~TIM_CCER_CC4P;
 1425              		.loc 1 946 0
 1426 0884 039B     		ldr	r3, [sp, #12]
 1427 0886 23F40053 		bic	r3, r3, #8192
 1428 088a 0393     		str	r3, [sp, #12]
 947:../Libraries/STM32F30x_StdPeriph_Driver/src/stm32f30x_tim.c ****   /* Set the Output Compare Polarity */
 948:../Libraries/STM32F30x_StdPeriph_Driver/src/stm32f30x_tim.c ****   tmpccer |= (uint32_t)((uint32_t)TIM_OCInitStruct->TIM_OCPolarity << 12);
 1429              		.loc 1 948 0
 1430 088c 009B     		ldr	r3, [sp, #0]
 1431 088e 9B89     		ldrh	r3, [r3, #12]
 1432 0890 4FEA0333 		lsl	r3, r3, #12
 1433 0894 039A     		ldr	r2, [sp, #12]
 1434 0896 1343     		orrs	r3, r3, r2
 1435 0898 0393     		str	r3, [sp, #12]
 949:../Libraries/STM32F30x_StdPeriph_Driver/src/stm32f30x_tim.c ****   
 950:../Libraries/STM32F30x_StdPeriph_Driver/src/stm32f30x_tim.c ****   /* Set the Output State */
 951:../Libraries/STM32F30x_StdPeriph_Driver/src/stm32f30x_tim.c ****   tmpccer |= (uint32_t)((uint32_t)TIM_OCInitStruct->TIM_OutputState << 12);
 1436              		.loc 1 951 0
 1437 089a 009B     		ldr	r3, [sp, #0]
 1438 089c 9B88     		ldrh	r3, [r3, #4]
 1439 089e 4FEA0333 		lsl	r3, r3, #12
 1440 08a2 039A     		ldr	r2, [sp, #12]
 1441 08a4 1343     		orrs	r3, r3, r2
 1442 08a6 0393     		str	r3, [sp, #12]
 952:../Libraries/STM32F30x_StdPeriph_Driver/src/stm32f30x_tim.c ****   
 953:../Libraries/STM32F30x_StdPeriph_Driver/src/stm32f30x_tim.c ****   if((TIMx == TIM1) || (TIMx == TIM8))
 1443              		.loc 1 953 0
 1444 08a8 019A     		ldr	r2, [sp, #4]
 1445 08aa 4FF43053 		mov	r3, #11264
 1446 08ae C4F20103 		movt	r3, 16385
 1447 08b2 9A42     		cmp	r2, r3
 1448 08b4 06D0     		beq	.L52
 1449              		.loc 1 953 0 is_stmt 0 discriminator 1
 1450 08b6 019A     		ldr	r2, [sp, #4]
 1451 08b8 4FF45053 		mov	r3, #13312
 1452 08bc C4F20103 		movt	r3, 16385
 1453 08c0 9A42     		cmp	r2, r3
 1454 08c2 0AD1     		bne	.L53
 1455              	.L52:
 954:../Libraries/STM32F30x_StdPeriph_Driver/src/stm32f30x_tim.c ****   {
 955:../Libraries/STM32F30x_StdPeriph_Driver/src/stm32f30x_tim.c ****     assert_param(IS_TIM_OCIDLE_STATE(TIM_OCInitStruct->TIM_OCIdleState));
 956:../Libraries/STM32F30x_StdPeriph_Driver/src/stm32f30x_tim.c ****     /* Reset the Output Compare IDLE State */
 957:../Libraries/STM32F30x_StdPeriph_Driver/src/stm32f30x_tim.c ****     tmpcr2 &=(uint32_t) ~TIM_CR2_OIS4;
 1456              		.loc 1 957 0 is_stmt 1
 1457 08c4 059B     		ldr	r3, [sp, #20]
 1458 08c6 23F48043 		bic	r3, r3, #16384
 1459 08ca 0593     		str	r3, [sp, #20]
 958:../Libraries/STM32F30x_StdPeriph_Driver/src/stm32f30x_tim.c ****     /* Set the Output Idle state */
 959:../Libraries/STM32F30x_StdPeriph_Driver/src/stm32f30x_tim.c ****     tmpcr2 |= (uint32_t)((uint32_t)TIM_OCInitStruct->TIM_OCIdleState << 6);
 1460              		.loc 1 959 0
 1461 08cc 009B     		ldr	r3, [sp, #0]
 1462 08ce 1B8A     		ldrh	r3, [r3, #16]
 1463 08d0 4FEA8313 		lsl	r3, r3, #6
 1464 08d4 059A     		ldr	r2, [sp, #20]
 1465 08d6 1343     		orrs	r3, r3, r2
 1466 08d8 0593     		str	r3, [sp, #20]
 1467              	.L53:
 960:../Libraries/STM32F30x_StdPeriph_Driver/src/stm32f30x_tim.c ****   }
 961:../Libraries/STM32F30x_StdPeriph_Driver/src/stm32f30x_tim.c ****   /* Write to TIMx CR2 */
 962:../Libraries/STM32F30x_StdPeriph_Driver/src/stm32f30x_tim.c ****   TIMx->CR2 = tmpcr2;
 1468              		.loc 1 962 0
 1469 08da 019B     		ldr	r3, [sp, #4]
 1470 08dc 059A     		ldr	r2, [sp, #20]
 1471 08de 5A60     		str	r2, [r3, #4]
 963:../Libraries/STM32F30x_StdPeriph_Driver/src/stm32f30x_tim.c ****   
 964:../Libraries/STM32F30x_StdPeriph_Driver/src/stm32f30x_tim.c ****   /* Write to TIMx CCMR2 */  
 965:../Libraries/STM32F30x_StdPeriph_Driver/src/stm32f30x_tim.c ****   TIMx->CCMR2 = tmpccmrx;
 1472              		.loc 1 965 0
 1473 08e0 019B     		ldr	r3, [sp, #4]
 1474 08e2 049A     		ldr	r2, [sp, #16]
 1475 08e4 DA61     		str	r2, [r3, #28]
 966:../Libraries/STM32F30x_StdPeriph_Driver/src/stm32f30x_tim.c ****     
 967:../Libraries/STM32F30x_StdPeriph_Driver/src/stm32f30x_tim.c ****   /* Set the Capture Compare Register value */
 968:../Libraries/STM32F30x_StdPeriph_Driver/src/stm32f30x_tim.c ****   TIMx->CCR4 = TIM_OCInitStruct->TIM_Pulse;
 1476              		.loc 1 968 0
 1477 08e6 009B     		ldr	r3, [sp, #0]
 1478 08e8 9A68     		ldr	r2, [r3, #8]
 1479 08ea 019B     		ldr	r3, [sp, #4]
 1480 08ec 1A64     		str	r2, [r3, #64]
 969:../Libraries/STM32F30x_StdPeriph_Driver/src/stm32f30x_tim.c ****   
 970:../Libraries/STM32F30x_StdPeriph_Driver/src/stm32f30x_tim.c ****   /* Write to TIMx CCER */
 971:../Libraries/STM32F30x_StdPeriph_Driver/src/stm32f30x_tim.c ****   TIMx->CCER = tmpccer;
 1481              		.loc 1 971 0
 1482 08ee 019B     		ldr	r3, [sp, #4]
 1483 08f0 039A     		ldr	r2, [sp, #12]
 1484 08f2 1A62     		str	r2, [r3, #32]
 972:../Libraries/STM32F30x_StdPeriph_Driver/src/stm32f30x_tim.c **** }
 1485              		.loc 1 972 0
 1486 08f4 06B0     		add	sp, sp, #24
 1487 08f6 7047     		bx	lr
 1488              		.cfi_endproc
 1489              	.LFE130:
 1491              		.align	2
 1492              		.global	TIM_OC5Init
 1493              		.thumb
 1494              		.thumb_func
 1496              	TIM_OC5Init:
 1497              	.LFB131:
 973:../Libraries/STM32F30x_StdPeriph_Driver/src/stm32f30x_tim.c **** 
 974:../Libraries/STM32F30x_StdPeriph_Driver/src/stm32f30x_tim.c **** /**
 975:../Libraries/STM32F30x_StdPeriph_Driver/src/stm32f30x_tim.c ****   * @brief  Initializes the TIMx Channel5 according to the specified parameters
 976:../Libraries/STM32F30x_StdPeriph_Driver/src/stm32f30x_tim.c ****   *         in the TIM_OCInitStruct.
 977:../Libraries/STM32F30x_StdPeriph_Driver/src/stm32f30x_tim.c ****   * @param  TIMx: where x can be 1 or 8 to select the TIM peripheral.
 978:../Libraries/STM32F30x_StdPeriph_Driver/src/stm32f30x_tim.c ****   * @param  TIM_OCInitStruct: pointer to a TIM_OCInitTypeDef structure that contains
 979:../Libraries/STM32F30x_StdPeriph_Driver/src/stm32f30x_tim.c ****   *         the configuration information for the specified TIM peripheral.
 980:../Libraries/STM32F30x_StdPeriph_Driver/src/stm32f30x_tim.c ****   * @retval None
 981:../Libraries/STM32F30x_StdPeriph_Driver/src/stm32f30x_tim.c ****   */
 982:../Libraries/STM32F30x_StdPeriph_Driver/src/stm32f30x_tim.c **** void TIM_OC5Init(TIM_TypeDef* TIMx, TIM_OCInitTypeDef* TIM_OCInitStruct)
 983:../Libraries/STM32F30x_StdPeriph_Driver/src/stm32f30x_tim.c **** {
 1498              		.loc 1 983 0
 1499              		.cfi_startproc
 1500              		@ args = 0, pretend = 0, frame = 24
 1501              		@ frame_needed = 0, uses_anonymous_args = 0
 1502              		@ link register save eliminated.
 1503 08f8 86B0     		sub	sp, sp, #24
 1504              	.LCFI21:
 1505              		.cfi_def_cfa_offset 24
 1506 08fa 0190     		str	r0, [sp, #4]
 1507 08fc 0091     		str	r1, [sp, #0]
 984:../Libraries/STM32F30x_StdPeriph_Driver/src/stm32f30x_tim.c ****   uint32_t tmpccmrx = 0, tmpccer = 0, tmpcr2 = 0;
 1508              		.loc 1 984 0
 1509 08fe 4FF00003 		mov	r3, #0
 1510 0902 0493     		str	r3, [sp, #16]
 1511 0904 4FF00003 		mov	r3, #0
 1512 0908 0393     		str	r3, [sp, #12]
 1513 090a 4FF00003 		mov	r3, #0
 1514 090e 0593     		str	r3, [sp, #20]
 985:../Libraries/STM32F30x_StdPeriph_Driver/src/stm32f30x_tim.c ****    
 986:../Libraries/STM32F30x_StdPeriph_Driver/src/stm32f30x_tim.c ****   /* Check the parameters */
 987:../Libraries/STM32F30x_StdPeriph_Driver/src/stm32f30x_tim.c ****   assert_param(IS_TIM_LIST4_PERIPH(TIMx)); 
 988:../Libraries/STM32F30x_StdPeriph_Driver/src/stm32f30x_tim.c ****   assert_param(IS_TIM_OC_MODE(TIM_OCInitStruct->TIM_OCMode));
 989:../Libraries/STM32F30x_StdPeriph_Driver/src/stm32f30x_tim.c ****   assert_param(IS_TIM_OUTPUT_STATE(TIM_OCInitStruct->TIM_OutputState));
 990:../Libraries/STM32F30x_StdPeriph_Driver/src/stm32f30x_tim.c ****   assert_param(IS_TIM_OC_POLARITY(TIM_OCInitStruct->TIM_OCPolarity));   
 991:../Libraries/STM32F30x_StdPeriph_Driver/src/stm32f30x_tim.c **** 
 992:../Libraries/STM32F30x_StdPeriph_Driver/src/stm32f30x_tim.c ****   /* Disable the Channel 5: Reset the CC5E Bit */
 993:../Libraries/STM32F30x_StdPeriph_Driver/src/stm32f30x_tim.c ****   TIMx->CCER &= (uint32_t)~TIM_CCER_CC5E; /* to be verified*/
 1515              		.loc 1 993 0
 1516 0910 019B     		ldr	r3, [sp, #4]
 1517 0912 1B6A     		ldr	r3, [r3, #32]
 1518 0914 23F48032 		bic	r2, r3, #65536
 1519 0918 019B     		ldr	r3, [sp, #4]
 1520 091a 1A62     		str	r2, [r3, #32]
 994:../Libraries/STM32F30x_StdPeriph_Driver/src/stm32f30x_tim.c ****   
 995:../Libraries/STM32F30x_StdPeriph_Driver/src/stm32f30x_tim.c ****   /* Get the TIMx CCER register value */
 996:../Libraries/STM32F30x_StdPeriph_Driver/src/stm32f30x_tim.c ****   tmpccer = TIMx->CCER;
 1521              		.loc 1 996 0
 1522 091c 019B     		ldr	r3, [sp, #4]
 1523 091e 1B6A     		ldr	r3, [r3, #32]
 1524 0920 0393     		str	r3, [sp, #12]
 997:../Libraries/STM32F30x_StdPeriph_Driver/src/stm32f30x_tim.c ****   /* Get the TIMx CR2 register value */
 998:../Libraries/STM32F30x_StdPeriph_Driver/src/stm32f30x_tim.c ****   tmpcr2 =  TIMx->CR2;
 1525              		.loc 1 998 0
 1526 0922 019B     		ldr	r3, [sp, #4]
 1527 0924 5B68     		ldr	r3, [r3, #4]
 1528 0926 0593     		str	r3, [sp, #20]
 999:../Libraries/STM32F30x_StdPeriph_Driver/src/stm32f30x_tim.c ****   
1000:../Libraries/STM32F30x_StdPeriph_Driver/src/stm32f30x_tim.c ****   /* Get the TIMx CCMR3 register value */
1001:../Libraries/STM32F30x_StdPeriph_Driver/src/stm32f30x_tim.c ****   tmpccmrx = TIMx->CCMR3;
 1529              		.loc 1 1001 0
 1530 0928 019B     		ldr	r3, [sp, #4]
 1531 092a 5B6D     		ldr	r3, [r3, #84]
 1532 092c 0493     		str	r3, [sp, #16]
1002:../Libraries/STM32F30x_StdPeriph_Driver/src/stm32f30x_tim.c ****   
1003:../Libraries/STM32F30x_StdPeriph_Driver/src/stm32f30x_tim.c ****   /* Reset the Output Compare mode and Capture/Compare selection Bits */
1004:../Libraries/STM32F30x_StdPeriph_Driver/src/stm32f30x_tim.c ****   tmpccmrx &= (uint32_t)~TIM_CCMR3_OC5M;
 1533              		.loc 1 1004 0
 1534 092e 049B     		ldr	r3, [sp, #16]
 1535 0930 23F07003 		bic	r3, r3, #112
 1536 0934 0493     		str	r3, [sp, #16]
1005:../Libraries/STM32F30x_StdPeriph_Driver/src/stm32f30x_tim.c ****   
1006:../Libraries/STM32F30x_StdPeriph_Driver/src/stm32f30x_tim.c ****   /* Select the Output Compare Mode */
1007:../Libraries/STM32F30x_StdPeriph_Driver/src/stm32f30x_tim.c ****   tmpccmrx |= (uint32_t)(TIM_OCInitStruct->TIM_OCMode);
 1537              		.loc 1 1007 0
 1538 0936 009B     		ldr	r3, [sp, #0]
 1539 0938 1B68     		ldr	r3, [r3, #0]
 1540 093a 049A     		ldr	r2, [sp, #16]
 1541 093c 1343     		orrs	r3, r3, r2
 1542 093e 0493     		str	r3, [sp, #16]
1008:../Libraries/STM32F30x_StdPeriph_Driver/src/stm32f30x_tim.c ****   
1009:../Libraries/STM32F30x_StdPeriph_Driver/src/stm32f30x_tim.c ****   /* Reset the Output Polarity level */
1010:../Libraries/STM32F30x_StdPeriph_Driver/src/stm32f30x_tim.c ****   tmpccer &= (uint32_t)~TIM_CCER_CC5P;
 1543              		.loc 1 1010 0
 1544 0940 039B     		ldr	r3, [sp, #12]
 1545 0942 23F40033 		bic	r3, r3, #131072
 1546 0946 0393     		str	r3, [sp, #12]
1011:../Libraries/STM32F30x_StdPeriph_Driver/src/stm32f30x_tim.c ****   /* Set the Output Compare Polarity */
1012:../Libraries/STM32F30x_StdPeriph_Driver/src/stm32f30x_tim.c ****   tmpccer |= (uint32_t)((uint32_t)TIM_OCInitStruct->TIM_OCPolarity << 16);
 1547              		.loc 1 1012 0
 1548 0948 009B     		ldr	r3, [sp, #0]
 1549 094a 9B89     		ldrh	r3, [r3, #12]
 1550 094c 4FEA0343 		lsl	r3, r3, #16
 1551 0950 039A     		ldr	r2, [sp, #12]
 1552 0952 1343     		orrs	r3, r3, r2
 1553 0954 0393     		str	r3, [sp, #12]
1013:../Libraries/STM32F30x_StdPeriph_Driver/src/stm32f30x_tim.c **** 
1014:../Libraries/STM32F30x_StdPeriph_Driver/src/stm32f30x_tim.c ****   /* Set the Output State */
1015:../Libraries/STM32F30x_StdPeriph_Driver/src/stm32f30x_tim.c ****   tmpccer |= (uint32_t)((uint32_t)TIM_OCInitStruct->TIM_OutputState << 16);
 1554              		.loc 1 1015 0
 1555 0956 009B     		ldr	r3, [sp, #0]
 1556 0958 9B88     		ldrh	r3, [r3, #4]
 1557 095a 4FEA0343 		lsl	r3, r3, #16
 1558 095e 039A     		ldr	r2, [sp, #12]
 1559 0960 1343     		orrs	r3, r3, r2
 1560 0962 0393     		str	r3, [sp, #12]
1016:../Libraries/STM32F30x_StdPeriph_Driver/src/stm32f30x_tim.c ****   
1017:../Libraries/STM32F30x_StdPeriph_Driver/src/stm32f30x_tim.c ****   if((TIMx == TIM1) || (TIMx == TIM8))
 1561              		.loc 1 1017 0
 1562 0964 019A     		ldr	r2, [sp, #4]
 1563 0966 4FF43053 		mov	r3, #11264
 1564 096a C4F20103 		movt	r3, 16385
 1565 096e 9A42     		cmp	r2, r3
 1566 0970 06D0     		beq	.L55
 1567              		.loc 1 1017 0 is_stmt 0 discriminator 1
 1568 0972 019A     		ldr	r2, [sp, #4]
 1569 0974 4FF45053 		mov	r3, #13312
 1570 0978 C4F20103 		movt	r3, 16385
 1571 097c 9A42     		cmp	r2, r3
 1572 097e 0AD1     		bne	.L56
 1573              	.L55:
1018:../Libraries/STM32F30x_StdPeriph_Driver/src/stm32f30x_tim.c ****   {
1019:../Libraries/STM32F30x_StdPeriph_Driver/src/stm32f30x_tim.c ****     assert_param(IS_TIM_OCIDLE_STATE(TIM_OCInitStruct->TIM_OCIdleState));
1020:../Libraries/STM32F30x_StdPeriph_Driver/src/stm32f30x_tim.c ****     /* Reset the Output Compare IDLE State */
1021:../Libraries/STM32F30x_StdPeriph_Driver/src/stm32f30x_tim.c ****     tmpcr2 &=(uint32_t) ~TIM_CR2_OIS5;
 1574              		.loc 1 1021 0 is_stmt 1
 1575 0980 059B     		ldr	r3, [sp, #20]
 1576 0982 23F48033 		bic	r3, r3, #65536
 1577 0986 0593     		str	r3, [sp, #20]
1022:../Libraries/STM32F30x_StdPeriph_Driver/src/stm32f30x_tim.c ****     /* Set the Output Idle state */
1023:../Libraries/STM32F30x_StdPeriph_Driver/src/stm32f30x_tim.c ****     tmpcr2 |= (uint32_t)((uint32_t)TIM_OCInitStruct->TIM_OCIdleState << 16);
 1578              		.loc 1 1023 0
 1579 0988 009B     		ldr	r3, [sp, #0]
 1580 098a 1B8A     		ldrh	r3, [r3, #16]
 1581 098c 4FEA0343 		lsl	r3, r3, #16
 1582 0990 059A     		ldr	r2, [sp, #20]
 1583 0992 1343     		orrs	r3, r3, r2
 1584 0994 0593     		str	r3, [sp, #20]
 1585              	.L56:
1024:../Libraries/STM32F30x_StdPeriph_Driver/src/stm32f30x_tim.c ****   }
1025:../Libraries/STM32F30x_StdPeriph_Driver/src/stm32f30x_tim.c ****   /* Write to TIMx CR2 */
1026:../Libraries/STM32F30x_StdPeriph_Driver/src/stm32f30x_tim.c ****   TIMx->CR2 = tmpcr2;
 1586              		.loc 1 1026 0
 1587 0996 019B     		ldr	r3, [sp, #4]
 1588 0998 059A     		ldr	r2, [sp, #20]
 1589 099a 5A60     		str	r2, [r3, #4]
1027:../Libraries/STM32F30x_StdPeriph_Driver/src/stm32f30x_tim.c ****   
1028:../Libraries/STM32F30x_StdPeriph_Driver/src/stm32f30x_tim.c ****   /* Write to TIMx CCMR2 */  
1029:../Libraries/STM32F30x_StdPeriph_Driver/src/stm32f30x_tim.c ****   TIMx->CCMR3 = tmpccmrx;
 1590              		.loc 1 1029 0
 1591 099c 019B     		ldr	r3, [sp, #4]
 1592 099e 049A     		ldr	r2, [sp, #16]
 1593 09a0 5A65     		str	r2, [r3, #84]
1030:../Libraries/STM32F30x_StdPeriph_Driver/src/stm32f30x_tim.c ****     
1031:../Libraries/STM32F30x_StdPeriph_Driver/src/stm32f30x_tim.c ****   /* Set the Capture Compare Register value */
1032:../Libraries/STM32F30x_StdPeriph_Driver/src/stm32f30x_tim.c ****   TIMx->CCR5 = TIM_OCInitStruct->TIM_Pulse;
 1594              		.loc 1 1032 0
 1595 09a2 009B     		ldr	r3, [sp, #0]
 1596 09a4 9A68     		ldr	r2, [r3, #8]
 1597 09a6 019B     		ldr	r3, [sp, #4]
 1598 09a8 9A65     		str	r2, [r3, #88]
1033:../Libraries/STM32F30x_StdPeriph_Driver/src/stm32f30x_tim.c ****   
1034:../Libraries/STM32F30x_StdPeriph_Driver/src/stm32f30x_tim.c ****   /* Write to TIMx CCER */
1035:../Libraries/STM32F30x_StdPeriph_Driver/src/stm32f30x_tim.c ****   TIMx->CCER = tmpccer;
 1599              		.loc 1 1035 0
 1600 09aa 019B     		ldr	r3, [sp, #4]
 1601 09ac 039A     		ldr	r2, [sp, #12]
 1602 09ae 1A62     		str	r2, [r3, #32]
1036:../Libraries/STM32F30x_StdPeriph_Driver/src/stm32f30x_tim.c **** }
 1603              		.loc 1 1036 0
 1604 09b0 06B0     		add	sp, sp, #24
 1605 09b2 7047     		bx	lr
 1606              		.cfi_endproc
 1607              	.LFE131:
 1609              		.align	2
 1610              		.global	TIM_OC6Init
 1611              		.thumb
 1612              		.thumb_func
 1614              	TIM_OC6Init:
 1615              	.LFB132:
1037:../Libraries/STM32F30x_StdPeriph_Driver/src/stm32f30x_tim.c **** 
1038:../Libraries/STM32F30x_StdPeriph_Driver/src/stm32f30x_tim.c **** /**
1039:../Libraries/STM32F30x_StdPeriph_Driver/src/stm32f30x_tim.c ****   * @brief  Initializes the TIMx Channel6 according to the specified parameters
1040:../Libraries/STM32F30x_StdPeriph_Driver/src/stm32f30x_tim.c ****   *         in the TIM_OCInitStruct.
1041:../Libraries/STM32F30x_StdPeriph_Driver/src/stm32f30x_tim.c ****   * @param  TIMx: where x can be 1 or 8 to select the TIM peripheral.
1042:../Libraries/STM32F30x_StdPeriph_Driver/src/stm32f30x_tim.c ****   * @param  TIM_OCInitStruct: pointer to a TIM_OCInitTypeDef structure that contains
1043:../Libraries/STM32F30x_StdPeriph_Driver/src/stm32f30x_tim.c ****   *         the configuration information for the specified TIM peripheral.
1044:../Libraries/STM32F30x_StdPeriph_Driver/src/stm32f30x_tim.c ****   * @retval None
1045:../Libraries/STM32F30x_StdPeriph_Driver/src/stm32f30x_tim.c ****   */
1046:../Libraries/STM32F30x_StdPeriph_Driver/src/stm32f30x_tim.c **** void TIM_OC6Init(TIM_TypeDef* TIMx, TIM_OCInitTypeDef* TIM_OCInitStruct)
1047:../Libraries/STM32F30x_StdPeriph_Driver/src/stm32f30x_tim.c **** {
 1616              		.loc 1 1047 0
 1617              		.cfi_startproc
 1618              		@ args = 0, pretend = 0, frame = 24
 1619              		@ frame_needed = 0, uses_anonymous_args = 0
 1620              		@ link register save eliminated.
 1621 09b4 86B0     		sub	sp, sp, #24
 1622              	.LCFI22:
 1623              		.cfi_def_cfa_offset 24
 1624 09b6 0190     		str	r0, [sp, #4]
 1625 09b8 0091     		str	r1, [sp, #0]
1048:../Libraries/STM32F30x_StdPeriph_Driver/src/stm32f30x_tim.c ****   uint32_t tmpccmrx = 0, tmpccer = 0, tmpcr2 = 0;
 1626              		.loc 1 1048 0
 1627 09ba 4FF00003 		mov	r3, #0
 1628 09be 0493     		str	r3, [sp, #16]
 1629 09c0 4FF00003 		mov	r3, #0
 1630 09c4 0393     		str	r3, [sp, #12]
 1631 09c6 4FF00003 		mov	r3, #0
 1632 09ca 0593     		str	r3, [sp, #20]
1049:../Libraries/STM32F30x_StdPeriph_Driver/src/stm32f30x_tim.c ****    
1050:../Libraries/STM32F30x_StdPeriph_Driver/src/stm32f30x_tim.c ****   /* Check the parameters */
1051:../Libraries/STM32F30x_StdPeriph_Driver/src/stm32f30x_tim.c ****   assert_param(IS_TIM_LIST4_PERIPH(TIMx)); 
1052:../Libraries/STM32F30x_StdPeriph_Driver/src/stm32f30x_tim.c ****   assert_param(IS_TIM_OC_MODE(TIM_OCInitStruct->TIM_OCMode));
1053:../Libraries/STM32F30x_StdPeriph_Driver/src/stm32f30x_tim.c ****   assert_param(IS_TIM_OUTPUT_STATE(TIM_OCInitStruct->TIM_OutputState));
1054:../Libraries/STM32F30x_StdPeriph_Driver/src/stm32f30x_tim.c ****   assert_param(IS_TIM_OC_POLARITY(TIM_OCInitStruct->TIM_OCPolarity));   
1055:../Libraries/STM32F30x_StdPeriph_Driver/src/stm32f30x_tim.c **** 
1056:../Libraries/STM32F30x_StdPeriph_Driver/src/stm32f30x_tim.c ****   /* Disable the Channel 5: Reset the CC5E Bit */
1057:../Libraries/STM32F30x_StdPeriph_Driver/src/stm32f30x_tim.c ****   TIMx->CCER &= (uint32_t)~TIM_CCER_CC6E; /* to be verified*/
 1633              		.loc 1 1057 0
 1634 09cc 019B     		ldr	r3, [sp, #4]
 1635 09ce 1B6A     		ldr	r3, [r3, #32]
 1636 09d0 23F48012 		bic	r2, r3, #1048576
 1637 09d4 019B     		ldr	r3, [sp, #4]
 1638 09d6 1A62     		str	r2, [r3, #32]
1058:../Libraries/STM32F30x_StdPeriph_Driver/src/stm32f30x_tim.c ****   
1059:../Libraries/STM32F30x_StdPeriph_Driver/src/stm32f30x_tim.c ****   /* Get the TIMx CCER register value */
1060:../Libraries/STM32F30x_StdPeriph_Driver/src/stm32f30x_tim.c ****   tmpccer = TIMx->CCER;
 1639              		.loc 1 1060 0
 1640 09d8 019B     		ldr	r3, [sp, #4]
 1641 09da 1B6A     		ldr	r3, [r3, #32]
 1642 09dc 0393     		str	r3, [sp, #12]
1061:../Libraries/STM32F30x_StdPeriph_Driver/src/stm32f30x_tim.c ****   /* Get the TIMx CR2 register value */
1062:../Libraries/STM32F30x_StdPeriph_Driver/src/stm32f30x_tim.c ****   tmpcr2 =  TIMx->CR2;
 1643              		.loc 1 1062 0
 1644 09de 019B     		ldr	r3, [sp, #4]
 1645 09e0 5B68     		ldr	r3, [r3, #4]
 1646 09e2 0593     		str	r3, [sp, #20]
1063:../Libraries/STM32F30x_StdPeriph_Driver/src/stm32f30x_tim.c ****   
1064:../Libraries/STM32F30x_StdPeriph_Driver/src/stm32f30x_tim.c ****   /* Get the TIMx CCMR3 register value */
1065:../Libraries/STM32F30x_StdPeriph_Driver/src/stm32f30x_tim.c ****   tmpccmrx = TIMx->CCMR3;
 1647              		.loc 1 1065 0
 1648 09e4 019B     		ldr	r3, [sp, #4]
 1649 09e6 5B6D     		ldr	r3, [r3, #84]
 1650 09e8 0493     		str	r3, [sp, #16]
1066:../Libraries/STM32F30x_StdPeriph_Driver/src/stm32f30x_tim.c ****   
1067:../Libraries/STM32F30x_StdPeriph_Driver/src/stm32f30x_tim.c ****   /* Reset the Output Compare mode and Capture/Compare selection Bits */
1068:../Libraries/STM32F30x_StdPeriph_Driver/src/stm32f30x_tim.c ****   tmpccmrx &= (uint32_t)~TIM_CCMR3_OC6M;
 1651              		.loc 1 1068 0
 1652 09ea 049B     		ldr	r3, [sp, #16]
 1653 09ec 23F4E043 		bic	r3, r3, #28672
 1654 09f0 0493     		str	r3, [sp, #16]
1069:../Libraries/STM32F30x_StdPeriph_Driver/src/stm32f30x_tim.c ****   
1070:../Libraries/STM32F30x_StdPeriph_Driver/src/stm32f30x_tim.c ****   /* Select the Output Compare Mode */
1071:../Libraries/STM32F30x_StdPeriph_Driver/src/stm32f30x_tim.c ****   tmpccmrx |= (uint32_t)(TIM_OCInitStruct->TIM_OCMode << 8);
 1655              		.loc 1 1071 0
 1656 09f2 009B     		ldr	r3, [sp, #0]
 1657 09f4 1B68     		ldr	r3, [r3, #0]
 1658 09f6 4FEA0323 		lsl	r3, r3, #8
 1659 09fa 049A     		ldr	r2, [sp, #16]
 1660 09fc 1343     		orrs	r3, r3, r2
 1661 09fe 0493     		str	r3, [sp, #16]
1072:../Libraries/STM32F30x_StdPeriph_Driver/src/stm32f30x_tim.c ****   
1073:../Libraries/STM32F30x_StdPeriph_Driver/src/stm32f30x_tim.c ****   /* Reset the Output Polarity level */
1074:../Libraries/STM32F30x_StdPeriph_Driver/src/stm32f30x_tim.c ****   tmpccer &= (uint32_t)~TIM_CCER_CC6P;
 1662              		.loc 1 1074 0
 1663 0a00 039B     		ldr	r3, [sp, #12]
 1664 0a02 23F40013 		bic	r3, r3, #2097152
 1665 0a06 0393     		str	r3, [sp, #12]
1075:../Libraries/STM32F30x_StdPeriph_Driver/src/stm32f30x_tim.c ****   /* Set the Output Compare Polarity */
1076:../Libraries/STM32F30x_StdPeriph_Driver/src/stm32f30x_tim.c ****   tmpccer |= (uint32_t)((uint32_t)TIM_OCInitStruct->TIM_OCPolarity << 20);
 1666              		.loc 1 1076 0
 1667 0a08 009B     		ldr	r3, [sp, #0]
 1668 0a0a 9B89     		ldrh	r3, [r3, #12]
 1669 0a0c 4FEA0353 		lsl	r3, r3, #20
 1670 0a10 039A     		ldr	r2, [sp, #12]
 1671 0a12 1343     		orrs	r3, r3, r2
 1672 0a14 0393     		str	r3, [sp, #12]
1077:../Libraries/STM32F30x_StdPeriph_Driver/src/stm32f30x_tim.c **** 
1078:../Libraries/STM32F30x_StdPeriph_Driver/src/stm32f30x_tim.c ****   /* Set the Output State */
1079:../Libraries/STM32F30x_StdPeriph_Driver/src/stm32f30x_tim.c ****   tmpccer |= (uint32_t)((uint32_t)TIM_OCInitStruct->TIM_OutputState << 20);
 1673              		.loc 1 1079 0
 1674 0a16 009B     		ldr	r3, [sp, #0]
 1675 0a18 9B88     		ldrh	r3, [r3, #4]
 1676 0a1a 4FEA0353 		lsl	r3, r3, #20
 1677 0a1e 039A     		ldr	r2, [sp, #12]
 1678 0a20 1343     		orrs	r3, r3, r2
 1679 0a22 0393     		str	r3, [sp, #12]
1080:../Libraries/STM32F30x_StdPeriph_Driver/src/stm32f30x_tim.c ****   
1081:../Libraries/STM32F30x_StdPeriph_Driver/src/stm32f30x_tim.c ****   if((TIMx == TIM1) || (TIMx == TIM8))
 1680              		.loc 1 1081 0
 1681 0a24 019A     		ldr	r2, [sp, #4]
 1682 0a26 4FF43053 		mov	r3, #11264
 1683 0a2a C4F20103 		movt	r3, 16385
 1684 0a2e 9A42     		cmp	r2, r3
 1685 0a30 06D0     		beq	.L58
 1686              		.loc 1 1081 0 is_stmt 0 discriminator 1
 1687 0a32 019A     		ldr	r2, [sp, #4]
 1688 0a34 4FF45053 		mov	r3, #13312
 1689 0a38 C4F20103 		movt	r3, 16385
 1690 0a3c 9A42     		cmp	r2, r3
 1691 0a3e 03D1     		bne	.L59
 1692              	.L58:
1082:../Libraries/STM32F30x_StdPeriph_Driver/src/stm32f30x_tim.c ****   {
1083:../Libraries/STM32F30x_StdPeriph_Driver/src/stm32f30x_tim.c ****     assert_param(IS_TIM_OCIDLE_STATE(TIM_OCInitStruct->TIM_OCIdleState));
1084:../Libraries/STM32F30x_StdPeriph_Driver/src/stm32f30x_tim.c ****     /* Reset the Output Compare IDLE State */
1085:../Libraries/STM32F30x_StdPeriph_Driver/src/stm32f30x_tim.c ****     tmpcr2 &=(uint32_t) ~TIM_CR2_OIS6;
 1693              		.loc 1 1085 0 is_stmt 1
 1694 0a40 059B     		ldr	r3, [sp, #20]
 1695 0a42 23F40033 		bic	r3, r3, #131072
 1696 0a46 0593     		str	r3, [sp, #20]
 1697              	.L59:
1086:../Libraries/STM32F30x_StdPeriph_Driver/src/stm32f30x_tim.c ****     /* Set the Output Idle state */
1087:../Libraries/STM32F30x_StdPeriph_Driver/src/stm32f30x_tim.c ****     tmpcr2 |= (uint16_t)(TIM_OCInitStruct->TIM_OCIdleState << 18);
1088:../Libraries/STM32F30x_StdPeriph_Driver/src/stm32f30x_tim.c ****   }
1089:../Libraries/STM32F30x_StdPeriph_Driver/src/stm32f30x_tim.c ****   /* Write to TIMx CR2 */
1090:../Libraries/STM32F30x_StdPeriph_Driver/src/stm32f30x_tim.c ****   TIMx->CR2 = tmpcr2;
 1698              		.loc 1 1090 0
 1699 0a48 019B     		ldr	r3, [sp, #4]
 1700 0a4a 059A     		ldr	r2, [sp, #20]
 1701 0a4c 5A60     		str	r2, [r3, #4]
1091:../Libraries/STM32F30x_StdPeriph_Driver/src/stm32f30x_tim.c ****   
1092:../Libraries/STM32F30x_StdPeriph_Driver/src/stm32f30x_tim.c ****   /* Write to TIMx CCMR2 */  
1093:../Libraries/STM32F30x_StdPeriph_Driver/src/stm32f30x_tim.c ****   TIMx->CCMR3 = tmpccmrx;
 1702              		.loc 1 1093 0
 1703 0a4e 019B     		ldr	r3, [sp, #4]
 1704 0a50 049A     		ldr	r2, [sp, #16]
 1705 0a52 5A65     		str	r2, [r3, #84]
1094:../Libraries/STM32F30x_StdPeriph_Driver/src/stm32f30x_tim.c ****     
1095:../Libraries/STM32F30x_StdPeriph_Driver/src/stm32f30x_tim.c ****   /* Set the Capture Compare Register value */
1096:../Libraries/STM32F30x_StdPeriph_Driver/src/stm32f30x_tim.c ****   TIMx->CCR6 = TIM_OCInitStruct->TIM_Pulse;
 1706              		.loc 1 1096 0
 1707 0a54 009B     		ldr	r3, [sp, #0]
 1708 0a56 9A68     		ldr	r2, [r3, #8]
 1709 0a58 019B     		ldr	r3, [sp, #4]
 1710 0a5a DA65     		str	r2, [r3, #92]
1097:../Libraries/STM32F30x_StdPeriph_Driver/src/stm32f30x_tim.c ****   
1098:../Libraries/STM32F30x_StdPeriph_Driver/src/stm32f30x_tim.c ****   /* Write to TIMx CCER */
1099:../Libraries/STM32F30x_StdPeriph_Driver/src/stm32f30x_tim.c ****   TIMx->CCER = tmpccer;
 1711              		.loc 1 1099 0
 1712 0a5c 019B     		ldr	r3, [sp, #4]
 1713 0a5e 039A     		ldr	r2, [sp, #12]
 1714 0a60 1A62     		str	r2, [r3, #32]
1100:../Libraries/STM32F30x_StdPeriph_Driver/src/stm32f30x_tim.c **** }
 1715              		.loc 1 1100 0
 1716 0a62 06B0     		add	sp, sp, #24
 1717 0a64 7047     		bx	lr
 1718              		.cfi_endproc
 1719              	.LFE132:
 1721 0a66 00BF     		.align	2
 1722              		.global	TIM_SelectGC5C1
 1723              		.thumb
 1724              		.thumb_func
 1726              	TIM_SelectGC5C1:
 1727              	.LFB133:
1101:../Libraries/STM32F30x_StdPeriph_Driver/src/stm32f30x_tim.c **** 
1102:../Libraries/STM32F30x_StdPeriph_Driver/src/stm32f30x_tim.c **** /**
1103:../Libraries/STM32F30x_StdPeriph_Driver/src/stm32f30x_tim.c ****   * @brief  Selects the TIM Group Channel 5 and Channel 1, 
1104:../Libraries/STM32F30x_StdPeriph_Driver/src/stm32f30x_tim.c ****             OC1REFC is the logical AND of OC1REFC and OC5REF.
1105:../Libraries/STM32F30x_StdPeriph_Driver/src/stm32f30x_tim.c ****   * @param  TIMx: where x can be  1 or 8 to select the TIMx peripheral
1106:../Libraries/STM32F30x_StdPeriph_Driver/src/stm32f30x_tim.c ****   * @param  NewState: new state of the Commutation event.
1107:../Libraries/STM32F30x_StdPeriph_Driver/src/stm32f30x_tim.c ****   *          This parameter can be: ENABLE or DISABLE.
1108:../Libraries/STM32F30x_StdPeriph_Driver/src/stm32f30x_tim.c ****   * @retval None
1109:../Libraries/STM32F30x_StdPeriph_Driver/src/stm32f30x_tim.c ****   */
1110:../Libraries/STM32F30x_StdPeriph_Driver/src/stm32f30x_tim.c **** void TIM_SelectGC5C1(TIM_TypeDef* TIMx, FunctionalState NewState)
1111:../Libraries/STM32F30x_StdPeriph_Driver/src/stm32f30x_tim.c **** {
 1728              		.loc 1 1111 0
 1729              		.cfi_startproc
 1730              		@ args = 0, pretend = 0, frame = 8
 1731              		@ frame_needed = 0, uses_anonymous_args = 0
 1732              		@ link register save eliminated.
 1733 0a68 82B0     		sub	sp, sp, #8
 1734              	.LCFI23:
 1735              		.cfi_def_cfa_offset 8
 1736 0a6a 0190     		str	r0, [sp, #4]
 1737 0a6c 0B46     		mov	r3, r1
 1738 0a6e 8DF80330 		strb	r3, [sp, #3]
1112:../Libraries/STM32F30x_StdPeriph_Driver/src/stm32f30x_tim.c ****   /* Check the parameters */
1113:../Libraries/STM32F30x_StdPeriph_Driver/src/stm32f30x_tim.c ****   assert_param(IS_TIM_LIST4_PERIPH(TIMx));
1114:../Libraries/STM32F30x_StdPeriph_Driver/src/stm32f30x_tim.c ****   assert_param(IS_FUNCTIONAL_STATE(NewState));
1115:../Libraries/STM32F30x_StdPeriph_Driver/src/stm32f30x_tim.c **** 
1116:../Libraries/STM32F30x_StdPeriph_Driver/src/stm32f30x_tim.c ****   if (NewState != DISABLE)
 1739              		.loc 1 1116 0
 1740 0a72 9DF80330 		ldrb	r3, [sp, #3]	@ zero_extendqisi2
 1741 0a76 002B     		cmp	r3, #0
 1742 0a78 06D0     		beq	.L61
1117:../Libraries/STM32F30x_StdPeriph_Driver/src/stm32f30x_tim.c ****   {
1118:../Libraries/STM32F30x_StdPeriph_Driver/src/stm32f30x_tim.c ****     /* Set the GC5C1 Bit */
1119:../Libraries/STM32F30x_StdPeriph_Driver/src/stm32f30x_tim.c ****     TIMx->CCR5 |= TIM_CCR5_GC5C1;
 1743              		.loc 1 1119 0
 1744 0a7a 019B     		ldr	r3, [sp, #4]
 1745 0a7c 9B6D     		ldr	r3, [r3, #88]
 1746 0a7e 43F00052 		orr	r2, r3, #536870912
 1747 0a82 019B     		ldr	r3, [sp, #4]
 1748 0a84 9A65     		str	r2, [r3, #88]
 1749 0a86 05E0     		b	.L60
 1750              	.L61:
1120:../Libraries/STM32F30x_StdPeriph_Driver/src/stm32f30x_tim.c ****   }
1121:../Libraries/STM32F30x_StdPeriph_Driver/src/stm32f30x_tim.c ****   else
1122:../Libraries/STM32F30x_StdPeriph_Driver/src/stm32f30x_tim.c ****   {
1123:../Libraries/STM32F30x_StdPeriph_Driver/src/stm32f30x_tim.c ****     /* Reset the GC5C1 Bit */
1124:../Libraries/STM32F30x_StdPeriph_Driver/src/stm32f30x_tim.c ****     TIMx->CCR5 &= (uint32_t)~TIM_CCR5_GC5C1;
 1751              		.loc 1 1124 0
 1752 0a88 019B     		ldr	r3, [sp, #4]
 1753 0a8a 9B6D     		ldr	r3, [r3, #88]
 1754 0a8c 23F00052 		bic	r2, r3, #536870912
 1755 0a90 019B     		ldr	r3, [sp, #4]
 1756 0a92 9A65     		str	r2, [r3, #88]
 1757              	.L60:
1125:../Libraries/STM32F30x_StdPeriph_Driver/src/stm32f30x_tim.c ****   }
1126:../Libraries/STM32F30x_StdPeriph_Driver/src/stm32f30x_tim.c **** }
 1758              		.loc 1 1126 0
 1759 0a94 02B0     		add	sp, sp, #8
 1760 0a96 7047     		bx	lr
 1761              		.cfi_endproc
 1762              	.LFE133:
 1764              		.align	2
 1765              		.global	TIM_SelectGC5C2
 1766              		.thumb
 1767              		.thumb_func
 1769              	TIM_SelectGC5C2:
 1770              	.LFB134:
1127:../Libraries/STM32F30x_StdPeriph_Driver/src/stm32f30x_tim.c **** 
1128:../Libraries/STM32F30x_StdPeriph_Driver/src/stm32f30x_tim.c **** /**
1129:../Libraries/STM32F30x_StdPeriph_Driver/src/stm32f30x_tim.c ****   * @brief  Selects the TIM Group Channel 5 and Channel 2, 
1130:../Libraries/STM32F30x_StdPeriph_Driver/src/stm32f30x_tim.c ****             OC2REFC is the logical AND of OC2REFC and OC5REF.
1131:../Libraries/STM32F30x_StdPeriph_Driver/src/stm32f30x_tim.c ****   * @param  TIMx: where x can be  1 or 8 to select the TIMx peripheral
1132:../Libraries/STM32F30x_StdPeriph_Driver/src/stm32f30x_tim.c ****   * @param  NewState: new state of the Commutation event.
1133:../Libraries/STM32F30x_StdPeriph_Driver/src/stm32f30x_tim.c ****   *          This parameter can be: ENABLE or DISABLE.
1134:../Libraries/STM32F30x_StdPeriph_Driver/src/stm32f30x_tim.c ****   * @retval None
1135:../Libraries/STM32F30x_StdPeriph_Driver/src/stm32f30x_tim.c ****   */
1136:../Libraries/STM32F30x_StdPeriph_Driver/src/stm32f30x_tim.c **** void TIM_SelectGC5C2(TIM_TypeDef* TIMx, FunctionalState NewState)
1137:../Libraries/STM32F30x_StdPeriph_Driver/src/stm32f30x_tim.c **** {
 1771              		.loc 1 1137 0
 1772              		.cfi_startproc
 1773              		@ args = 0, pretend = 0, frame = 8
 1774              		@ frame_needed = 0, uses_anonymous_args = 0
 1775              		@ link register save eliminated.
 1776 0a98 82B0     		sub	sp, sp, #8
 1777              	.LCFI24:
 1778              		.cfi_def_cfa_offset 8
 1779 0a9a 0190     		str	r0, [sp, #4]
 1780 0a9c 0B46     		mov	r3, r1
 1781 0a9e 8DF80330 		strb	r3, [sp, #3]
1138:../Libraries/STM32F30x_StdPeriph_Driver/src/stm32f30x_tim.c ****   /* Check the parameters */
1139:../Libraries/STM32F30x_StdPeriph_Driver/src/stm32f30x_tim.c ****   assert_param(IS_TIM_LIST4_PERIPH(TIMx));
1140:../Libraries/STM32F30x_StdPeriph_Driver/src/stm32f30x_tim.c ****   assert_param(IS_FUNCTIONAL_STATE(NewState));
1141:../Libraries/STM32F30x_StdPeriph_Driver/src/stm32f30x_tim.c **** 
1142:../Libraries/STM32F30x_StdPeriph_Driver/src/stm32f30x_tim.c ****   if (NewState != DISABLE)
 1782              		.loc 1 1142 0
 1783 0aa2 9DF80330 		ldrb	r3, [sp, #3]	@ zero_extendqisi2
 1784 0aa6 002B     		cmp	r3, #0
 1785 0aa8 06D0     		beq	.L64
1143:../Libraries/STM32F30x_StdPeriph_Driver/src/stm32f30x_tim.c ****   {
1144:../Libraries/STM32F30x_StdPeriph_Driver/src/stm32f30x_tim.c ****     /* Set the GC5C2 Bit */
1145:../Libraries/STM32F30x_StdPeriph_Driver/src/stm32f30x_tim.c ****     TIMx->CCR5 |= TIM_CCR5_GC5C2;
 1786              		.loc 1 1145 0
 1787 0aaa 019B     		ldr	r3, [sp, #4]
 1788 0aac 9B6D     		ldr	r3, [r3, #88]
 1789 0aae 43F08042 		orr	r2, r3, #1073741824
 1790 0ab2 019B     		ldr	r3, [sp, #4]
 1791 0ab4 9A65     		str	r2, [r3, #88]
 1792 0ab6 05E0     		b	.L63
 1793              	.L64:
1146:../Libraries/STM32F30x_StdPeriph_Driver/src/stm32f30x_tim.c ****   }
1147:../Libraries/STM32F30x_StdPeriph_Driver/src/stm32f30x_tim.c ****   else
1148:../Libraries/STM32F30x_StdPeriph_Driver/src/stm32f30x_tim.c ****   {
1149:../Libraries/STM32F30x_StdPeriph_Driver/src/stm32f30x_tim.c ****     /* Reset the GC5C2 Bit */
1150:../Libraries/STM32F30x_StdPeriph_Driver/src/stm32f30x_tim.c ****     TIMx->CCR5 &= (uint32_t)~TIM_CCR5_GC5C2;
 1794              		.loc 1 1150 0
 1795 0ab8 019B     		ldr	r3, [sp, #4]
 1796 0aba 9B6D     		ldr	r3, [r3, #88]
 1797 0abc 23F08042 		bic	r2, r3, #1073741824
 1798 0ac0 019B     		ldr	r3, [sp, #4]
 1799 0ac2 9A65     		str	r2, [r3, #88]
 1800              	.L63:
1151:../Libraries/STM32F30x_StdPeriph_Driver/src/stm32f30x_tim.c ****   }
1152:../Libraries/STM32F30x_StdPeriph_Driver/src/stm32f30x_tim.c **** }
 1801              		.loc 1 1152 0
 1802 0ac4 02B0     		add	sp, sp, #8
 1803 0ac6 7047     		bx	lr
 1804              		.cfi_endproc
 1805              	.LFE134:
 1807              		.align	2
 1808              		.global	TIM_SelectGC5C3
 1809              		.thumb
 1810              		.thumb_func
 1812              	TIM_SelectGC5C3:
 1813              	.LFB135:
1153:../Libraries/STM32F30x_StdPeriph_Driver/src/stm32f30x_tim.c **** 
1154:../Libraries/STM32F30x_StdPeriph_Driver/src/stm32f30x_tim.c **** 
1155:../Libraries/STM32F30x_StdPeriph_Driver/src/stm32f30x_tim.c **** /**
1156:../Libraries/STM32F30x_StdPeriph_Driver/src/stm32f30x_tim.c ****   * @brief  Selects the TIM Group Channel 5 and Channel 3, 
1157:../Libraries/STM32F30x_StdPeriph_Driver/src/stm32f30x_tim.c ****             OC3REFC is the logical AND of OC3REFC and OC5REF.
1158:../Libraries/STM32F30x_StdPeriph_Driver/src/stm32f30x_tim.c ****   * @param  TIMx: where x can be  1 or 8 to select the TIMx peripheral
1159:../Libraries/STM32F30x_StdPeriph_Driver/src/stm32f30x_tim.c ****   * @param  NewState: new state of the Commutation event.
1160:../Libraries/STM32F30x_StdPeriph_Driver/src/stm32f30x_tim.c ****   *          This parameter can be: ENABLE or DISABLE.
1161:../Libraries/STM32F30x_StdPeriph_Driver/src/stm32f30x_tim.c ****   * @retval None
1162:../Libraries/STM32F30x_StdPeriph_Driver/src/stm32f30x_tim.c ****   */
1163:../Libraries/STM32F30x_StdPeriph_Driver/src/stm32f30x_tim.c **** void TIM_SelectGC5C3(TIM_TypeDef* TIMx, FunctionalState NewState)
1164:../Libraries/STM32F30x_StdPeriph_Driver/src/stm32f30x_tim.c **** {
 1814              		.loc 1 1164 0
 1815              		.cfi_startproc
 1816              		@ args = 0, pretend = 0, frame = 8
 1817              		@ frame_needed = 0, uses_anonymous_args = 0
 1818              		@ link register save eliminated.
 1819 0ac8 82B0     		sub	sp, sp, #8
 1820              	.LCFI25:
 1821              		.cfi_def_cfa_offset 8
 1822 0aca 0190     		str	r0, [sp, #4]
 1823 0acc 0B46     		mov	r3, r1
 1824 0ace 8DF80330 		strb	r3, [sp, #3]
1165:../Libraries/STM32F30x_StdPeriph_Driver/src/stm32f30x_tim.c ****   /* Check the parameters */
1166:../Libraries/STM32F30x_StdPeriph_Driver/src/stm32f30x_tim.c ****   assert_param(IS_TIM_LIST4_PERIPH(TIMx));
1167:../Libraries/STM32F30x_StdPeriph_Driver/src/stm32f30x_tim.c ****   assert_param(IS_FUNCTIONAL_STATE(NewState));
1168:../Libraries/STM32F30x_StdPeriph_Driver/src/stm32f30x_tim.c **** 
1169:../Libraries/STM32F30x_StdPeriph_Driver/src/stm32f30x_tim.c ****   if (NewState != DISABLE)
 1825              		.loc 1 1169 0
 1826 0ad2 9DF80330 		ldrb	r3, [sp, #3]	@ zero_extendqisi2
 1827 0ad6 002B     		cmp	r3, #0
 1828 0ad8 06D0     		beq	.L67
1170:../Libraries/STM32F30x_StdPeriph_Driver/src/stm32f30x_tim.c ****   {
1171:../Libraries/STM32F30x_StdPeriph_Driver/src/stm32f30x_tim.c ****     /* Set the GC5C3 Bit */
1172:../Libraries/STM32F30x_StdPeriph_Driver/src/stm32f30x_tim.c ****     TIMx->CCR5 |= TIM_CCR5_GC5C3;
 1829              		.loc 1 1172 0
 1830 0ada 019B     		ldr	r3, [sp, #4]
 1831 0adc 9B6D     		ldr	r3, [r3, #88]
 1832 0ade 43F00042 		orr	r2, r3, #-2147483648
 1833 0ae2 019B     		ldr	r3, [sp, #4]
 1834 0ae4 9A65     		str	r2, [r3, #88]
 1835 0ae6 05E0     		b	.L66
 1836              	.L67:
1173:../Libraries/STM32F30x_StdPeriph_Driver/src/stm32f30x_tim.c ****   }
1174:../Libraries/STM32F30x_StdPeriph_Driver/src/stm32f30x_tim.c ****   else
1175:../Libraries/STM32F30x_StdPeriph_Driver/src/stm32f30x_tim.c ****   {
1176:../Libraries/STM32F30x_StdPeriph_Driver/src/stm32f30x_tim.c ****     /* Reset the GC5C3 Bit */
1177:../Libraries/STM32F30x_StdPeriph_Driver/src/stm32f30x_tim.c ****     TIMx->CCR5 &= (uint32_t)~TIM_CCR5_GC5C3;
 1837              		.loc 1 1177 0
 1838 0ae8 019B     		ldr	r3, [sp, #4]
 1839 0aea 9B6D     		ldr	r3, [r3, #88]
 1840 0aec 23F00042 		bic	r2, r3, #-2147483648
 1841 0af0 019B     		ldr	r3, [sp, #4]
 1842 0af2 9A65     		str	r2, [r3, #88]
 1843              	.L66:
1178:../Libraries/STM32F30x_StdPeriph_Driver/src/stm32f30x_tim.c ****   }
1179:../Libraries/STM32F30x_StdPeriph_Driver/src/stm32f30x_tim.c **** }
 1844              		.loc 1 1179 0
 1845 0af4 02B0     		add	sp, sp, #8
 1846 0af6 7047     		bx	lr
 1847              		.cfi_endproc
 1848              	.LFE135:
 1850              		.align	2
 1851              		.global	TIM_OCStructInit
 1852              		.thumb
 1853              		.thumb_func
 1855              	TIM_OCStructInit:
 1856              	.LFB136:
1180:../Libraries/STM32F30x_StdPeriph_Driver/src/stm32f30x_tim.c **** 
1181:../Libraries/STM32F30x_StdPeriph_Driver/src/stm32f30x_tim.c **** /**
1182:../Libraries/STM32F30x_StdPeriph_Driver/src/stm32f30x_tim.c ****   * @brief  Fills each TIM_OCInitStruct member with its default value.
1183:../Libraries/STM32F30x_StdPeriph_Driver/src/stm32f30x_tim.c ****   * @param  TIM_OCInitStruct: pointer to a TIM_OCInitTypeDef structure which will
1184:../Libraries/STM32F30x_StdPeriph_Driver/src/stm32f30x_tim.c ****   *         be initialized.
1185:../Libraries/STM32F30x_StdPeriph_Driver/src/stm32f30x_tim.c ****   * @retval None
1186:../Libraries/STM32F30x_StdPeriph_Driver/src/stm32f30x_tim.c ****   */
1187:../Libraries/STM32F30x_StdPeriph_Driver/src/stm32f30x_tim.c **** void TIM_OCStructInit(TIM_OCInitTypeDef* TIM_OCInitStruct)
1188:../Libraries/STM32F30x_StdPeriph_Driver/src/stm32f30x_tim.c **** {
 1857              		.loc 1 1188 0
 1858              		.cfi_startproc
 1859              		@ args = 0, pretend = 0, frame = 8
 1860              		@ frame_needed = 0, uses_anonymous_args = 0
 1861              		@ link register save eliminated.
 1862 0af8 82B0     		sub	sp, sp, #8
 1863              	.LCFI26:
 1864              		.cfi_def_cfa_offset 8
 1865 0afa 0190     		str	r0, [sp, #4]
1189:../Libraries/STM32F30x_StdPeriph_Driver/src/stm32f30x_tim.c ****   /* Set the default configuration */
1190:../Libraries/STM32F30x_StdPeriph_Driver/src/stm32f30x_tim.c ****   TIM_OCInitStruct->TIM_OCMode = TIM_OCMode_Timing;
 1866              		.loc 1 1190 0
 1867 0afc 019B     		ldr	r3, [sp, #4]
 1868 0afe 4FF00002 		mov	r2, #0
 1869 0b02 1A60     		str	r2, [r3, #0]
1191:../Libraries/STM32F30x_StdPeriph_Driver/src/stm32f30x_tim.c ****   TIM_OCInitStruct->TIM_OutputState = TIM_OutputState_Disable;
 1870              		.loc 1 1191 0
 1871 0b04 019B     		ldr	r3, [sp, #4]
 1872 0b06 4FF00002 		mov	r2, #0
 1873 0b0a 9A80     		strh	r2, [r3, #4]	@ movhi
1192:../Libraries/STM32F30x_StdPeriph_Driver/src/stm32f30x_tim.c ****   TIM_OCInitStruct->TIM_OutputNState = TIM_OutputNState_Disable;
 1874              		.loc 1 1192 0
 1875 0b0c 019B     		ldr	r3, [sp, #4]
 1876 0b0e 4FF00002 		mov	r2, #0
 1877 0b12 DA80     		strh	r2, [r3, #6]	@ movhi
1193:../Libraries/STM32F30x_StdPeriph_Driver/src/stm32f30x_tim.c ****   TIM_OCInitStruct->TIM_Pulse = 0x00000000;
 1878              		.loc 1 1193 0
 1879 0b14 019B     		ldr	r3, [sp, #4]
 1880 0b16 4FF00002 		mov	r2, #0
 1881 0b1a 9A60     		str	r2, [r3, #8]
1194:../Libraries/STM32F30x_StdPeriph_Driver/src/stm32f30x_tim.c ****   TIM_OCInitStruct->TIM_OCPolarity = TIM_OCPolarity_High;
 1882              		.loc 1 1194 0
 1883 0b1c 019B     		ldr	r3, [sp, #4]
 1884 0b1e 4FF00002 		mov	r2, #0
 1885 0b22 9A81     		strh	r2, [r3, #12]	@ movhi
1195:../Libraries/STM32F30x_StdPeriph_Driver/src/stm32f30x_tim.c ****   TIM_OCInitStruct->TIM_OCNPolarity = TIM_OCPolarity_High;
 1886              		.loc 1 1195 0
 1887 0b24 019B     		ldr	r3, [sp, #4]
 1888 0b26 4FF00002 		mov	r2, #0
 1889 0b2a DA81     		strh	r2, [r3, #14]	@ movhi
1196:../Libraries/STM32F30x_StdPeriph_Driver/src/stm32f30x_tim.c ****   TIM_OCInitStruct->TIM_OCIdleState = TIM_OCIdleState_Reset;
 1890              		.loc 1 1196 0
 1891 0b2c 019B     		ldr	r3, [sp, #4]
 1892 0b2e 4FF00002 		mov	r2, #0
 1893 0b32 1A82     		strh	r2, [r3, #16]	@ movhi
1197:../Libraries/STM32F30x_StdPeriph_Driver/src/stm32f30x_tim.c ****   TIM_OCInitStruct->TIM_OCNIdleState = TIM_OCNIdleState_Reset;
 1894              		.loc 1 1197 0
 1895 0b34 019B     		ldr	r3, [sp, #4]
 1896 0b36 4FF00002 		mov	r2, #0
 1897 0b3a 5A82     		strh	r2, [r3, #18]	@ movhi
1198:../Libraries/STM32F30x_StdPeriph_Driver/src/stm32f30x_tim.c **** }
 1898              		.loc 1 1198 0
 1899 0b3c 02B0     		add	sp, sp, #8
 1900 0b3e 7047     		bx	lr
 1901              		.cfi_endproc
 1902              	.LFE136:
 1904              		.align	2
 1905              		.global	TIM_SelectOCxM
 1906              		.thumb
 1907              		.thumb_func
 1909              	TIM_SelectOCxM:
 1910              	.LFB137:
1199:../Libraries/STM32F30x_StdPeriph_Driver/src/stm32f30x_tim.c **** 
1200:../Libraries/STM32F30x_StdPeriph_Driver/src/stm32f30x_tim.c **** /**
1201:../Libraries/STM32F30x_StdPeriph_Driver/src/stm32f30x_tim.c ****   * @brief  Selects the TIM Output Compare Mode.
1202:../Libraries/STM32F30x_StdPeriph_Driver/src/stm32f30x_tim.c ****   * @note   This function disables the selected channel before changing the Output
1203:../Libraries/STM32F30x_StdPeriph_Driver/src/stm32f30x_tim.c ****   *         Compare Mode. If needed, user has to enable this channel using
1204:../Libraries/STM32F30x_StdPeriph_Driver/src/stm32f30x_tim.c ****   *         TIM_CCxCmd() and TIM_CCxNCmd() functions.
1205:../Libraries/STM32F30x_StdPeriph_Driver/src/stm32f30x_tim.c ****   * @param  TIMx: where x can be 1, 2, 3, 4, 8, 15, 16 or 17 to select the TIM peripheral.
1206:../Libraries/STM32F30x_StdPeriph_Driver/src/stm32f30x_tim.c ****   * @param  TIM_Channel: specifies the TIM Channel
1207:../Libraries/STM32F30x_StdPeriph_Driver/src/stm32f30x_tim.c ****   *          This parameter can be one of the following values:
1208:../Libraries/STM32F30x_StdPeriph_Driver/src/stm32f30x_tim.c ****   *            @arg TIM_Channel_1: TIM Channel 1
1209:../Libraries/STM32F30x_StdPeriph_Driver/src/stm32f30x_tim.c ****   *            @arg TIM_Channel_2: TIM Channel 2
1210:../Libraries/STM32F30x_StdPeriph_Driver/src/stm32f30x_tim.c ****   *            @arg TIM_Channel_3: TIM Channel 3
1211:../Libraries/STM32F30x_StdPeriph_Driver/src/stm32f30x_tim.c ****   *            @arg TIM_Channel_4: TIM Channel 4
1212:../Libraries/STM32F30x_StdPeriph_Driver/src/stm32f30x_tim.c ****   * @param  TIM_OCMode: specifies the TIM Output Compare Mode.
1213:../Libraries/STM32F30x_StdPeriph_Driver/src/stm32f30x_tim.c ****   *           This parameter can be one of the following values:
1214:../Libraries/STM32F30x_StdPeriph_Driver/src/stm32f30x_tim.c ****   *            @arg TIM_OCMode_Timing
1215:../Libraries/STM32F30x_StdPeriph_Driver/src/stm32f30x_tim.c ****   *            @arg TIM_OCMode_Active
1216:../Libraries/STM32F30x_StdPeriph_Driver/src/stm32f30x_tim.c ****   *            @arg TIM_OCMode_Toggle
1217:../Libraries/STM32F30x_StdPeriph_Driver/src/stm32f30x_tim.c ****   *            @arg TIM_OCMode_PWM1
1218:../Libraries/STM32F30x_StdPeriph_Driver/src/stm32f30x_tim.c ****   *            @arg TIM_OCMode_PWM2
1219:../Libraries/STM32F30x_StdPeriph_Driver/src/stm32f30x_tim.c ****   *            @arg TIM_ForcedAction_Active
1220:../Libraries/STM32F30x_StdPeriph_Driver/src/stm32f30x_tim.c ****   *            @arg TIM_ForcedAction_InActive
1221:../Libraries/STM32F30x_StdPeriph_Driver/src/stm32f30x_tim.c ****   *            @arg TIM_OCMode_Retrigerrable_OPM1
1222:../Libraries/STM32F30x_StdPeriph_Driver/src/stm32f30x_tim.c ****   *            @arg TIM_OCMode_Retrigerrable_OPM2
1223:../Libraries/STM32F30x_StdPeriph_Driver/src/stm32f30x_tim.c ****   *            @arg TIM_OCMode_Combined_PWM1
1224:../Libraries/STM32F30x_StdPeriph_Driver/src/stm32f30x_tim.c ****   *            @arg TIM_OCMode_Combined_PWM2
1225:../Libraries/STM32F30x_StdPeriph_Driver/src/stm32f30x_tim.c ****   *            @arg TIM_OCMode_Asymmetric_PWM1
1226:../Libraries/STM32F30x_StdPeriph_Driver/src/stm32f30x_tim.c ****   *            @arg TIM_OCMode_Asymmetric_PWM2            
1227:../Libraries/STM32F30x_StdPeriph_Driver/src/stm32f30x_tim.c ****   * @retval None
1228:../Libraries/STM32F30x_StdPeriph_Driver/src/stm32f30x_tim.c ****   */
1229:../Libraries/STM32F30x_StdPeriph_Driver/src/stm32f30x_tim.c **** void TIM_SelectOCxM(TIM_TypeDef* TIMx, uint16_t TIM_Channel, uint32_t TIM_OCMode) /* to be updated*
1230:../Libraries/STM32F30x_StdPeriph_Driver/src/stm32f30x_tim.c **** {
 1911              		.loc 1 1230 0
 1912              		.cfi_startproc
 1913              		@ args = 0, pretend = 0, frame = 24
 1914              		@ frame_needed = 0, uses_anonymous_args = 0
 1915              		@ link register save eliminated.
 1916 0b40 86B0     		sub	sp, sp, #24
 1917              	.LCFI27:
 1918              		.cfi_def_cfa_offset 24
 1919 0b42 0390     		str	r0, [sp, #12]
 1920 0b44 0B46     		mov	r3, r1
 1921 0b46 0192     		str	r2, [sp, #4]
 1922 0b48 ADF80A30 		strh	r3, [sp, #10]	@ movhi
1231:../Libraries/STM32F30x_StdPeriph_Driver/src/stm32f30x_tim.c ****   uint32_t tmp = 0;
 1923              		.loc 1 1231 0
 1924 0b4c 4FF00003 		mov	r3, #0
 1925 0b50 0593     		str	r3, [sp, #20]
1232:../Libraries/STM32F30x_StdPeriph_Driver/src/stm32f30x_tim.c ****   uint16_t tmp1 = 0;
 1926              		.loc 1 1232 0
 1927 0b52 4FF00003 		mov	r3, #0
 1928 0b56 ADF81230 		strh	r3, [sp, #18]	@ movhi
1233:../Libraries/STM32F30x_StdPeriph_Driver/src/stm32f30x_tim.c **** 
1234:../Libraries/STM32F30x_StdPeriph_Driver/src/stm32f30x_tim.c ****   /* Check the parameters */
1235:../Libraries/STM32F30x_StdPeriph_Driver/src/stm32f30x_tim.c ****   assert_param(IS_TIM_LIST1_PERIPH(TIMx));
1236:../Libraries/STM32F30x_StdPeriph_Driver/src/stm32f30x_tim.c ****   assert_param(IS_TIM_CHANNEL(TIM_Channel));
1237:../Libraries/STM32F30x_StdPeriph_Driver/src/stm32f30x_tim.c ****   assert_param(IS_TIM_OCM(TIM_OCMode));
1238:../Libraries/STM32F30x_StdPeriph_Driver/src/stm32f30x_tim.c **** 
1239:../Libraries/STM32F30x_StdPeriph_Driver/src/stm32f30x_tim.c ****   tmp = (uint32_t) TIMx;
 1929              		.loc 1 1239 0
 1930 0b5a 039B     		ldr	r3, [sp, #12]
 1931 0b5c 0593     		str	r3, [sp, #20]
1240:../Libraries/STM32F30x_StdPeriph_Driver/src/stm32f30x_tim.c ****   tmp += CCMR_OFFSET;
 1932              		.loc 1 1240 0
 1933 0b5e 059B     		ldr	r3, [sp, #20]
 1934 0b60 03F11803 		add	r3, r3, #24
 1935 0b64 0593     		str	r3, [sp, #20]
1241:../Libraries/STM32F30x_StdPeriph_Driver/src/stm32f30x_tim.c **** 
1242:../Libraries/STM32F30x_StdPeriph_Driver/src/stm32f30x_tim.c ****   tmp1 = CCER_CCE_SET << (uint16_t)TIM_Channel;
 1936              		.loc 1 1242 0
 1937 0b66 BDF80A30 		ldrh	r3, [sp, #10]
 1938 0b6a 4FF00102 		mov	r2, #1
 1939 0b6e 02FA03F3 		lsl	r3, r2, r3
 1940 0b72 ADF81230 		strh	r3, [sp, #18]	@ movhi
1243:../Libraries/STM32F30x_StdPeriph_Driver/src/stm32f30x_tim.c **** 
1244:../Libraries/STM32F30x_StdPeriph_Driver/src/stm32f30x_tim.c ****   /* Disable the Channel: Reset the CCxE Bit */
1245:../Libraries/STM32F30x_StdPeriph_Driver/src/stm32f30x_tim.c ****   TIMx->CCER &= (uint16_t) ~tmp1;
 1941              		.loc 1 1245 0
 1942 0b76 039B     		ldr	r3, [sp, #12]
 1943 0b78 1A6A     		ldr	r2, [r3, #32]
 1944 0b7a BDF81230 		ldrh	r3, [sp, #18]	@ movhi
 1945 0b7e 6FEA0303 		mvn	r3, r3
 1946 0b82 9BB2     		uxth	r3, r3
 1947 0b84 1A40     		ands	r2, r2, r3
 1948 0b86 039B     		ldr	r3, [sp, #12]
 1949 0b88 1A62     		str	r2, [r3, #32]
1246:../Libraries/STM32F30x_StdPeriph_Driver/src/stm32f30x_tim.c **** 
1247:../Libraries/STM32F30x_StdPeriph_Driver/src/stm32f30x_tim.c ****   if((TIM_Channel == TIM_Channel_1) ||(TIM_Channel == TIM_Channel_3))
 1950              		.loc 1 1247 0
 1951 0b8a BDF80A30 		ldrh	r3, [sp, #10]
 1952 0b8e 002B     		cmp	r3, #0
 1953 0b90 03D0     		beq	.L71
 1954              		.loc 1 1247 0 is_stmt 0 discriminator 1
 1955 0b92 BDF80A30 		ldrh	r3, [sp, #10]
 1956 0b96 082B     		cmp	r3, #8
 1957 0b98 16D1     		bne	.L72
 1958              	.L71:
1248:../Libraries/STM32F30x_StdPeriph_Driver/src/stm32f30x_tim.c ****   {
1249:../Libraries/STM32F30x_StdPeriph_Driver/src/stm32f30x_tim.c ****     tmp += (TIM_Channel>>1);
 1959              		.loc 1 1249 0 is_stmt 1
 1960 0b9a BDF80A30 		ldrh	r3, [sp, #10]
 1961 0b9e 4FEA5303 		lsr	r3, r3, #1
 1962 0ba2 9BB2     		uxth	r3, r3
 1963 0ba4 059A     		ldr	r2, [sp, #20]
 1964 0ba6 D318     		adds	r3, r2, r3
 1965 0ba8 0593     		str	r3, [sp, #20]
1250:../Libraries/STM32F30x_StdPeriph_Driver/src/stm32f30x_tim.c **** 
1251:../Libraries/STM32F30x_StdPeriph_Driver/src/stm32f30x_tim.c ****     /* Reset the OCxM bits in the CCMRx register */
1252:../Libraries/STM32F30x_StdPeriph_Driver/src/stm32f30x_tim.c ****     *(__IO uint32_t *) tmp &= CCMR_OC13M_MASK;
 1966              		.loc 1 1252 0
 1967 0baa 059A     		ldr	r2, [sp, #20]
 1968 0bac 059B     		ldr	r3, [sp, #20]
 1969 0bae 1B68     		ldr	r3, [r3, #0]
 1970 0bb0 23F48033 		bic	r3, r3, #65536
 1971 0bb4 23F07003 		bic	r3, r3, #112
 1972 0bb8 1360     		str	r3, [r2, #0]
1253:../Libraries/STM32F30x_StdPeriph_Driver/src/stm32f30x_tim.c ****    
1254:../Libraries/STM32F30x_StdPeriph_Driver/src/stm32f30x_tim.c ****     /* Configure the OCxM bits in the CCMRx register */
1255:../Libraries/STM32F30x_StdPeriph_Driver/src/stm32f30x_tim.c ****     *(__IO uint32_t *) tmp |= TIM_OCMode;
 1973              		.loc 1 1255 0
 1974 0bba 059B     		ldr	r3, [sp, #20]
 1975 0bbc 059A     		ldr	r2, [sp, #20]
 1976 0bbe 1168     		ldr	r1, [r2, #0]
 1977 0bc0 019A     		ldr	r2, [sp, #4]
 1978 0bc2 0A43     		orrs	r2, r2, r1
 1979 0bc4 1A60     		str	r2, [r3, #0]
 1980 0bc6 1AE0     		b	.L70
 1981              	.L72:
1256:../Libraries/STM32F30x_StdPeriph_Driver/src/stm32f30x_tim.c ****   }
1257:../Libraries/STM32F30x_StdPeriph_Driver/src/stm32f30x_tim.c ****   else
1258:../Libraries/STM32F30x_StdPeriph_Driver/src/stm32f30x_tim.c ****   {
1259:../Libraries/STM32F30x_StdPeriph_Driver/src/stm32f30x_tim.c ****     tmp += (uint32_t)(TIM_Channel - (uint32_t)4)>> (uint32_t)1;
 1982              		.loc 1 1259 0
 1983 0bc8 BDF80A30 		ldrh	r3, [sp, #10]
 1984 0bcc A3F10403 		sub	r3, r3, #4
 1985 0bd0 4FEA5303 		lsr	r3, r3, #1
 1986 0bd4 059A     		ldr	r2, [sp, #20]
 1987 0bd6 D318     		adds	r3, r2, r3
 1988 0bd8 0593     		str	r3, [sp, #20]
1260:../Libraries/STM32F30x_StdPeriph_Driver/src/stm32f30x_tim.c **** 
1261:../Libraries/STM32F30x_StdPeriph_Driver/src/stm32f30x_tim.c ****     /* Reset the OCxM bits in the CCMRx register */
1262:../Libraries/STM32F30x_StdPeriph_Driver/src/stm32f30x_tim.c ****     *(__IO uint32_t *) tmp &= CCMR_OC24M_MASK;
 1989              		.loc 1 1262 0
 1990 0bda 059A     		ldr	r2, [sp, #20]
 1991 0bdc 059B     		ldr	r3, [sp, #20]
 1992 0bde 1B68     		ldr	r3, [r3, #0]
 1993 0be0 23F08073 		bic	r3, r3, #16777216
 1994 0be4 23F4E043 		bic	r3, r3, #28672
 1995 0be8 1360     		str	r3, [r2, #0]
1263:../Libraries/STM32F30x_StdPeriph_Driver/src/stm32f30x_tim.c ****     
1264:../Libraries/STM32F30x_StdPeriph_Driver/src/stm32f30x_tim.c ****     /* Configure the OCxM bits in the CCMRx register */
1265:../Libraries/STM32F30x_StdPeriph_Driver/src/stm32f30x_tim.c ****     *(__IO uint32_t *) tmp |= (uint16_t)(TIM_OCMode << 8);
 1996              		.loc 1 1265 0
 1997 0bea 059B     		ldr	r3, [sp, #20]
 1998 0bec 059A     		ldr	r2, [sp, #20]
 1999 0bee 1168     		ldr	r1, [r2, #0]
 2000 0bf0 019A     		ldr	r2, [sp, #4]
 2001 0bf2 92B2     		uxth	r2, r2
 2002 0bf4 4FEA0222 		lsl	r2, r2, #8
 2003 0bf8 92B2     		uxth	r2, r2
 2004 0bfa 0A43     		orrs	r2, r2, r1
 2005 0bfc 1A60     		str	r2, [r3, #0]
 2006              	.L70:
1266:../Libraries/STM32F30x_StdPeriph_Driver/src/stm32f30x_tim.c ****   }
1267:../Libraries/STM32F30x_StdPeriph_Driver/src/stm32f30x_tim.c **** }
 2007              		.loc 1 1267 0
 2008 0bfe 06B0     		add	sp, sp, #24
 2009 0c00 7047     		bx	lr
 2010              		.cfi_endproc
 2011              	.LFE137:
 2013 0c02 00BF     		.align	2
 2014              		.global	TIM_SetCompare1
 2015              		.thumb
 2016              		.thumb_func
 2018              	TIM_SetCompare1:
 2019              	.LFB138:
1268:../Libraries/STM32F30x_StdPeriph_Driver/src/stm32f30x_tim.c **** 
1269:../Libraries/STM32F30x_StdPeriph_Driver/src/stm32f30x_tim.c **** /**
1270:../Libraries/STM32F30x_StdPeriph_Driver/src/stm32f30x_tim.c ****   * @brief  Sets the TIMx Capture Compare1 Register value
1271:../Libraries/STM32F30x_StdPeriph_Driver/src/stm32f30x_tim.c ****   * @param  TIMx: where x can be 1, 2, 3, 4, 8, 15, 16 or 17 to select the TIM peripheral.
1272:../Libraries/STM32F30x_StdPeriph_Driver/src/stm32f30x_tim.c ****   * @param  Compare1: specifies the Capture Compare1 register new value.
1273:../Libraries/STM32F30x_StdPeriph_Driver/src/stm32f30x_tim.c ****   * @retval None
1274:../Libraries/STM32F30x_StdPeriph_Driver/src/stm32f30x_tim.c ****   */
1275:../Libraries/STM32F30x_StdPeriph_Driver/src/stm32f30x_tim.c **** void TIM_SetCompare1(TIM_TypeDef* TIMx, uint32_t Compare1)
1276:../Libraries/STM32F30x_StdPeriph_Driver/src/stm32f30x_tim.c **** {
 2020              		.loc 1 1276 0
 2021              		.cfi_startproc
 2022              		@ args = 0, pretend = 0, frame = 8
 2023              		@ frame_needed = 0, uses_anonymous_args = 0
 2024              		@ link register save eliminated.
 2025 0c04 82B0     		sub	sp, sp, #8
 2026              	.LCFI28:
 2027              		.cfi_def_cfa_offset 8
 2028 0c06 0190     		str	r0, [sp, #4]
 2029 0c08 0091     		str	r1, [sp, #0]
1277:../Libraries/STM32F30x_StdPeriph_Driver/src/stm32f30x_tim.c ****   /* Check the parameters */
1278:../Libraries/STM32F30x_StdPeriph_Driver/src/stm32f30x_tim.c ****   assert_param(IS_TIM_LIST1_PERIPH(TIMx));
1279:../Libraries/STM32F30x_StdPeriph_Driver/src/stm32f30x_tim.c **** 
1280:../Libraries/STM32F30x_StdPeriph_Driver/src/stm32f30x_tim.c ****   /* Set the Capture Compare1 Register value */
1281:../Libraries/STM32F30x_StdPeriph_Driver/src/stm32f30x_tim.c ****   TIMx->CCR1 = Compare1;
 2030              		.loc 1 1281 0
 2031 0c0a 019B     		ldr	r3, [sp, #4]
 2032 0c0c 009A     		ldr	r2, [sp, #0]
 2033 0c0e 5A63     		str	r2, [r3, #52]
1282:../Libraries/STM32F30x_StdPeriph_Driver/src/stm32f30x_tim.c **** }
 2034              		.loc 1 1282 0
 2035 0c10 02B0     		add	sp, sp, #8
 2036 0c12 7047     		bx	lr
 2037              		.cfi_endproc
 2038              	.LFE138:
 2040              		.align	2
 2041              		.global	TIM_SetCompare2
 2042              		.thumb
 2043              		.thumb_func
 2045              	TIM_SetCompare2:
 2046              	.LFB139:
1283:../Libraries/STM32F30x_StdPeriph_Driver/src/stm32f30x_tim.c **** 
1284:../Libraries/STM32F30x_StdPeriph_Driver/src/stm32f30x_tim.c **** /**
1285:../Libraries/STM32F30x_StdPeriph_Driver/src/stm32f30x_tim.c ****   * @brief  Sets the TIMx Capture Compare2 Register value
1286:../Libraries/STM32F30x_StdPeriph_Driver/src/stm32f30x_tim.c ****   * @param  TIMx: where x can be 1, 2, 3, 4, 8 or 15 to select the TIM 
1287:../Libraries/STM32F30x_StdPeriph_Driver/src/stm32f30x_tim.c ****   *         peripheral.
1288:../Libraries/STM32F30x_StdPeriph_Driver/src/stm32f30x_tim.c ****   * @param  Compare2: specifies the Capture Compare2 register new value.
1289:../Libraries/STM32F30x_StdPeriph_Driver/src/stm32f30x_tim.c ****   * @retval None
1290:../Libraries/STM32F30x_StdPeriph_Driver/src/stm32f30x_tim.c ****   */
1291:../Libraries/STM32F30x_StdPeriph_Driver/src/stm32f30x_tim.c **** void TIM_SetCompare2(TIM_TypeDef* TIMx, uint32_t Compare2)
1292:../Libraries/STM32F30x_StdPeriph_Driver/src/stm32f30x_tim.c **** {
 2047              		.loc 1 1292 0
 2048              		.cfi_startproc
 2049              		@ args = 0, pretend = 0, frame = 8
 2050              		@ frame_needed = 0, uses_anonymous_args = 0
 2051              		@ link register save eliminated.
 2052 0c14 82B0     		sub	sp, sp, #8
 2053              	.LCFI29:
 2054              		.cfi_def_cfa_offset 8
 2055 0c16 0190     		str	r0, [sp, #4]
 2056 0c18 0091     		str	r1, [sp, #0]
1293:../Libraries/STM32F30x_StdPeriph_Driver/src/stm32f30x_tim.c ****   /* Check the parameters */
1294:../Libraries/STM32F30x_StdPeriph_Driver/src/stm32f30x_tim.c ****   assert_param(IS_TIM_LIST2_PERIPH(TIMx));
1295:../Libraries/STM32F30x_StdPeriph_Driver/src/stm32f30x_tim.c **** 
1296:../Libraries/STM32F30x_StdPeriph_Driver/src/stm32f30x_tim.c ****   /* Set the Capture Compare2 Register value */
1297:../Libraries/STM32F30x_StdPeriph_Driver/src/stm32f30x_tim.c ****   TIMx->CCR2 = Compare2;
 2057              		.loc 1 1297 0
 2058 0c1a 019B     		ldr	r3, [sp, #4]
 2059 0c1c 009A     		ldr	r2, [sp, #0]
 2060 0c1e 9A63     		str	r2, [r3, #56]
1298:../Libraries/STM32F30x_StdPeriph_Driver/src/stm32f30x_tim.c **** }
 2061              		.loc 1 1298 0
 2062 0c20 02B0     		add	sp, sp, #8
 2063 0c22 7047     		bx	lr
 2064              		.cfi_endproc
 2065              	.LFE139:
 2067              		.align	2
 2068              		.global	TIM_SetCompare3
 2069              		.thumb
 2070              		.thumb_func
 2072              	TIM_SetCompare3:
 2073              	.LFB140:
1299:../Libraries/STM32F30x_StdPeriph_Driver/src/stm32f30x_tim.c **** 
1300:../Libraries/STM32F30x_StdPeriph_Driver/src/stm32f30x_tim.c **** /**
1301:../Libraries/STM32F30x_StdPeriph_Driver/src/stm32f30x_tim.c ****   * @brief  Sets the TIMx Capture Compare3 Register value
1302:../Libraries/STM32F30x_StdPeriph_Driver/src/stm32f30x_tim.c ****   * @param  TIMx: where x can be 1, 2, 3, 4, 5 or 8 to select the TIM peripheral.
1303:../Libraries/STM32F30x_StdPeriph_Driver/src/stm32f30x_tim.c ****   * @param  Compare3: specifies the Capture Compare3 register new value.
1304:../Libraries/STM32F30x_StdPeriph_Driver/src/stm32f30x_tim.c ****   * @retval None
1305:../Libraries/STM32F30x_StdPeriph_Driver/src/stm32f30x_tim.c ****   */
1306:../Libraries/STM32F30x_StdPeriph_Driver/src/stm32f30x_tim.c **** void TIM_SetCompare3(TIM_TypeDef* TIMx, uint32_t Compare3)
1307:../Libraries/STM32F30x_StdPeriph_Driver/src/stm32f30x_tim.c **** {
 2074              		.loc 1 1307 0
 2075              		.cfi_startproc
 2076              		@ args = 0, pretend = 0, frame = 8
 2077              		@ frame_needed = 0, uses_anonymous_args = 0
 2078              		@ link register save eliminated.
 2079 0c24 82B0     		sub	sp, sp, #8
 2080              	.LCFI30:
 2081              		.cfi_def_cfa_offset 8
 2082 0c26 0190     		str	r0, [sp, #4]
 2083 0c28 0091     		str	r1, [sp, #0]
1308:../Libraries/STM32F30x_StdPeriph_Driver/src/stm32f30x_tim.c ****   /* Check the parameters */
1309:../Libraries/STM32F30x_StdPeriph_Driver/src/stm32f30x_tim.c ****   assert_param(IS_TIM_LIST3_PERIPH(TIMx));
1310:../Libraries/STM32F30x_StdPeriph_Driver/src/stm32f30x_tim.c **** 
1311:../Libraries/STM32F30x_StdPeriph_Driver/src/stm32f30x_tim.c ****   /* Set the Capture Compare3 Register value */
1312:../Libraries/STM32F30x_StdPeriph_Driver/src/stm32f30x_tim.c ****   TIMx->CCR3 = Compare3;
 2084              		.loc 1 1312 0
 2085 0c2a 019B     		ldr	r3, [sp, #4]
 2086 0c2c 009A     		ldr	r2, [sp, #0]
 2087 0c2e DA63     		str	r2, [r3, #60]
1313:../Libraries/STM32F30x_StdPeriph_Driver/src/stm32f30x_tim.c **** }
 2088              		.loc 1 1313 0
 2089 0c30 02B0     		add	sp, sp, #8
 2090 0c32 7047     		bx	lr
 2091              		.cfi_endproc
 2092              	.LFE140:
 2094              		.align	2
 2095              		.global	TIM_SetCompare4
 2096              		.thumb
 2097              		.thumb_func
 2099              	TIM_SetCompare4:
 2100              	.LFB141:
1314:../Libraries/STM32F30x_StdPeriph_Driver/src/stm32f30x_tim.c **** 
1315:../Libraries/STM32F30x_StdPeriph_Driver/src/stm32f30x_tim.c **** /**
1316:../Libraries/STM32F30x_StdPeriph_Driver/src/stm32f30x_tim.c ****   * @brief  Sets the TIMx Capture Compare4 Register value
1317:../Libraries/STM32F30x_StdPeriph_Driver/src/stm32f30x_tim.c ****   * @param  TIMx: where x can be 1, 2, 3, 4, 5 or 8 to select the TIM peripheral.
1318:../Libraries/STM32F30x_StdPeriph_Driver/src/stm32f30x_tim.c ****   * @param  Compare4: specifies the Capture Compare4 register new value.
1319:../Libraries/STM32F30x_StdPeriph_Driver/src/stm32f30x_tim.c ****   * @retval None
1320:../Libraries/STM32F30x_StdPeriph_Driver/src/stm32f30x_tim.c ****   */
1321:../Libraries/STM32F30x_StdPeriph_Driver/src/stm32f30x_tim.c **** void TIM_SetCompare4(TIM_TypeDef* TIMx, uint32_t Compare4)
1322:../Libraries/STM32F30x_StdPeriph_Driver/src/stm32f30x_tim.c **** {
 2101              		.loc 1 1322 0
 2102              		.cfi_startproc
 2103              		@ args = 0, pretend = 0, frame = 8
 2104              		@ frame_needed = 0, uses_anonymous_args = 0
 2105              		@ link register save eliminated.
 2106 0c34 82B0     		sub	sp, sp, #8
 2107              	.LCFI31:
 2108              		.cfi_def_cfa_offset 8
 2109 0c36 0190     		str	r0, [sp, #4]
 2110 0c38 0091     		str	r1, [sp, #0]
1323:../Libraries/STM32F30x_StdPeriph_Driver/src/stm32f30x_tim.c ****   /* Check the parameters */
1324:../Libraries/STM32F30x_StdPeriph_Driver/src/stm32f30x_tim.c ****   assert_param(IS_TIM_LIST3_PERIPH(TIMx));
1325:../Libraries/STM32F30x_StdPeriph_Driver/src/stm32f30x_tim.c **** 
1326:../Libraries/STM32F30x_StdPeriph_Driver/src/stm32f30x_tim.c ****   /* Set the Capture Compare4 Register value */
1327:../Libraries/STM32F30x_StdPeriph_Driver/src/stm32f30x_tim.c ****   TIMx->CCR4 = Compare4;
 2111              		.loc 1 1327 0
 2112 0c3a 019B     		ldr	r3, [sp, #4]
 2113 0c3c 009A     		ldr	r2, [sp, #0]
 2114 0c3e 1A64     		str	r2, [r3, #64]
1328:../Libraries/STM32F30x_StdPeriph_Driver/src/stm32f30x_tim.c **** }
 2115              		.loc 1 1328 0
 2116 0c40 02B0     		add	sp, sp, #8
 2117 0c42 7047     		bx	lr
 2118              		.cfi_endproc
 2119              	.LFE141:
 2121              		.align	2
 2122              		.global	TIM_SetCompare5
 2123              		.thumb
 2124              		.thumb_func
 2126              	TIM_SetCompare5:
 2127              	.LFB142:
1329:../Libraries/STM32F30x_StdPeriph_Driver/src/stm32f30x_tim.c **** 
1330:../Libraries/STM32F30x_StdPeriph_Driver/src/stm32f30x_tim.c **** /**
1331:../Libraries/STM32F30x_StdPeriph_Driver/src/stm32f30x_tim.c ****   * @brief  Sets the TIMx Capture Compare5 Register value
1332:../Libraries/STM32F30x_StdPeriph_Driver/src/stm32f30x_tim.c ****   * @param  TIMx: where x can be 1 or 8 to select the TIM peripheral.
1333:../Libraries/STM32F30x_StdPeriph_Driver/src/stm32f30x_tim.c ****   * @param  Compare5: specifies the Capture Compare5 register new value.
1334:../Libraries/STM32F30x_StdPeriph_Driver/src/stm32f30x_tim.c ****   * @retval None
1335:../Libraries/STM32F30x_StdPeriph_Driver/src/stm32f30x_tim.c ****   */
1336:../Libraries/STM32F30x_StdPeriph_Driver/src/stm32f30x_tim.c **** void TIM_SetCompare5(TIM_TypeDef* TIMx, uint32_t Compare5)
1337:../Libraries/STM32F30x_StdPeriph_Driver/src/stm32f30x_tim.c **** {
 2128              		.loc 1 1337 0
 2129              		.cfi_startproc
 2130              		@ args = 0, pretend = 0, frame = 8
 2131              		@ frame_needed = 0, uses_anonymous_args = 0
 2132              		@ link register save eliminated.
 2133 0c44 82B0     		sub	sp, sp, #8
 2134              	.LCFI32:
 2135              		.cfi_def_cfa_offset 8
 2136 0c46 0190     		str	r0, [sp, #4]
 2137 0c48 0091     		str	r1, [sp, #0]
1338:../Libraries/STM32F30x_StdPeriph_Driver/src/stm32f30x_tim.c ****   /* Check the parameters */
1339:../Libraries/STM32F30x_StdPeriph_Driver/src/stm32f30x_tim.c ****   assert_param(IS_TIM_LIST4_PERIPH(TIMx));
1340:../Libraries/STM32F30x_StdPeriph_Driver/src/stm32f30x_tim.c **** 
1341:../Libraries/STM32F30x_StdPeriph_Driver/src/stm32f30x_tim.c ****   /* Set the Capture Compare5 Register value */
1342:../Libraries/STM32F30x_StdPeriph_Driver/src/stm32f30x_tim.c ****   TIMx->CCR5 = Compare5;
 2138              		.loc 1 1342 0
 2139 0c4a 019B     		ldr	r3, [sp, #4]
 2140 0c4c 009A     		ldr	r2, [sp, #0]
 2141 0c4e 9A65     		str	r2, [r3, #88]
1343:../Libraries/STM32F30x_StdPeriph_Driver/src/stm32f30x_tim.c **** }
 2142              		.loc 1 1343 0
 2143 0c50 02B0     		add	sp, sp, #8
 2144 0c52 7047     		bx	lr
 2145              		.cfi_endproc
 2146              	.LFE142:
 2148              		.align	2
 2149              		.global	TIM_SetCompare6
 2150              		.thumb
 2151              		.thumb_func
 2153              	TIM_SetCompare6:
 2154              	.LFB143:
1344:../Libraries/STM32F30x_StdPeriph_Driver/src/stm32f30x_tim.c **** 
1345:../Libraries/STM32F30x_StdPeriph_Driver/src/stm32f30x_tim.c **** /**
1346:../Libraries/STM32F30x_StdPeriph_Driver/src/stm32f30x_tim.c ****   * @brief  Sets the TIMx Capture Compare6 Register value
1347:../Libraries/STM32F30x_StdPeriph_Driver/src/stm32f30x_tim.c ****   * @param  TIMx: where x can be 1 or 8 to select the TIM peripheral.
1348:../Libraries/STM32F30x_StdPeriph_Driver/src/stm32f30x_tim.c ****   * @param  Compare6: specifies the Capture Compare5 register new value.
1349:../Libraries/STM32F30x_StdPeriph_Driver/src/stm32f30x_tim.c ****   * @retval None
1350:../Libraries/STM32F30x_StdPeriph_Driver/src/stm32f30x_tim.c ****   */
1351:../Libraries/STM32F30x_StdPeriph_Driver/src/stm32f30x_tim.c **** void TIM_SetCompare6(TIM_TypeDef* TIMx, uint32_t Compare6)
1352:../Libraries/STM32F30x_StdPeriph_Driver/src/stm32f30x_tim.c **** {
 2155              		.loc 1 1352 0
 2156              		.cfi_startproc
 2157              		@ args = 0, pretend = 0, frame = 8
 2158              		@ frame_needed = 0, uses_anonymous_args = 0
 2159              		@ link register save eliminated.
 2160 0c54 82B0     		sub	sp, sp, #8
 2161              	.LCFI33:
 2162              		.cfi_def_cfa_offset 8
 2163 0c56 0190     		str	r0, [sp, #4]
 2164 0c58 0091     		str	r1, [sp, #0]
1353:../Libraries/STM32F30x_StdPeriph_Driver/src/stm32f30x_tim.c ****   /* Check the parameters */
1354:../Libraries/STM32F30x_StdPeriph_Driver/src/stm32f30x_tim.c ****   assert_param(IS_TIM_LIST4_PERIPH(TIMx));
1355:../Libraries/STM32F30x_StdPeriph_Driver/src/stm32f30x_tim.c **** 
1356:../Libraries/STM32F30x_StdPeriph_Driver/src/stm32f30x_tim.c ****   /* Set the Capture Compare6 Register value */
1357:../Libraries/STM32F30x_StdPeriph_Driver/src/stm32f30x_tim.c ****   TIMx->CCR6 = Compare6;
 2165              		.loc 1 1357 0
 2166 0c5a 019B     		ldr	r3, [sp, #4]
 2167 0c5c 009A     		ldr	r2, [sp, #0]
 2168 0c5e DA65     		str	r2, [r3, #92]
1358:../Libraries/STM32F30x_StdPeriph_Driver/src/stm32f30x_tim.c **** }
 2169              		.loc 1 1358 0
 2170 0c60 02B0     		add	sp, sp, #8
 2171 0c62 7047     		bx	lr
 2172              		.cfi_endproc
 2173              	.LFE143:
 2175              		.align	2
 2176              		.global	TIM_ForcedOC1Config
 2177              		.thumb
 2178              		.thumb_func
 2180              	TIM_ForcedOC1Config:
 2181              	.LFB144:
1359:../Libraries/STM32F30x_StdPeriph_Driver/src/stm32f30x_tim.c **** 
1360:../Libraries/STM32F30x_StdPeriph_Driver/src/stm32f30x_tim.c **** /**
1361:../Libraries/STM32F30x_StdPeriph_Driver/src/stm32f30x_tim.c ****   * @brief  Forces the TIMx output 1 waveform to active or inactive level.
1362:../Libraries/STM32F30x_StdPeriph_Driver/src/stm32f30x_tim.c ****   * @param  TIMx: where x can be 1, 2, 3, 4, 8, 15, 16 or 17 to select the TIM peripheral.
1363:../Libraries/STM32F30x_StdPeriph_Driver/src/stm32f30x_tim.c ****   * @param  TIM_ForcedAction: specifies the forced Action to be set to the output waveform.
1364:../Libraries/STM32F30x_StdPeriph_Driver/src/stm32f30x_tim.c ****   *          This parameter can be one of the following values:
1365:../Libraries/STM32F30x_StdPeriph_Driver/src/stm32f30x_tim.c ****   *            @arg TIM_ForcedAction_Active: Force active level on OC1REF
1366:../Libraries/STM32F30x_StdPeriph_Driver/src/stm32f30x_tim.c ****   *            @arg TIM_ForcedAction_InActive: Force inactive level on OC1REF.
1367:../Libraries/STM32F30x_StdPeriph_Driver/src/stm32f30x_tim.c ****   * @retval None
1368:../Libraries/STM32F30x_StdPeriph_Driver/src/stm32f30x_tim.c ****   */
1369:../Libraries/STM32F30x_StdPeriph_Driver/src/stm32f30x_tim.c **** void TIM_ForcedOC1Config(TIM_TypeDef* TIMx, uint16_t TIM_ForcedAction)
1370:../Libraries/STM32F30x_StdPeriph_Driver/src/stm32f30x_tim.c **** {
 2182              		.loc 1 1370 0
 2183              		.cfi_startproc
 2184              		@ args = 0, pretend = 0, frame = 16
 2185              		@ frame_needed = 0, uses_anonymous_args = 0
 2186              		@ link register save eliminated.
 2187 0c64 84B0     		sub	sp, sp, #16
 2188              	.LCFI34:
 2189              		.cfi_def_cfa_offset 16
 2190 0c66 0190     		str	r0, [sp, #4]
 2191 0c68 0B46     		mov	r3, r1
 2192 0c6a ADF80230 		strh	r3, [sp, #2]	@ movhi
1371:../Libraries/STM32F30x_StdPeriph_Driver/src/stm32f30x_tim.c ****   uint32_t tmpccmr1 = 0;
 2193              		.loc 1 1371 0
 2194 0c6e 4FF00003 		mov	r3, #0
 2195 0c72 0393     		str	r3, [sp, #12]
1372:../Libraries/STM32F30x_StdPeriph_Driver/src/stm32f30x_tim.c **** 
1373:../Libraries/STM32F30x_StdPeriph_Driver/src/stm32f30x_tim.c ****   /* Check the parameters */
1374:../Libraries/STM32F30x_StdPeriph_Driver/src/stm32f30x_tim.c ****   assert_param(IS_TIM_LIST1_PERIPH(TIMx));
1375:../Libraries/STM32F30x_StdPeriph_Driver/src/stm32f30x_tim.c ****   assert_param(IS_TIM_FORCED_ACTION(TIM_ForcedAction));
1376:../Libraries/STM32F30x_StdPeriph_Driver/src/stm32f30x_tim.c ****   tmpccmr1 = TIMx->CCMR1;
 2196              		.loc 1 1376 0
 2197 0c74 019B     		ldr	r3, [sp, #4]
 2198 0c76 9B69     		ldr	r3, [r3, #24]
 2199 0c78 0393     		str	r3, [sp, #12]
1377:../Libraries/STM32F30x_StdPeriph_Driver/src/stm32f30x_tim.c **** 
1378:../Libraries/STM32F30x_StdPeriph_Driver/src/stm32f30x_tim.c ****   /* Reset the OC1M Bits */
1379:../Libraries/STM32F30x_StdPeriph_Driver/src/stm32f30x_tim.c ****   tmpccmr1 &= (uint32_t)~TIM_CCMR1_OC1M;
 2200              		.loc 1 1379 0
 2201 0c7a 039B     		ldr	r3, [sp, #12]
 2202 0c7c 23F48033 		bic	r3, r3, #65536
 2203 0c80 23F07003 		bic	r3, r3, #112
 2204 0c84 0393     		str	r3, [sp, #12]
1380:../Libraries/STM32F30x_StdPeriph_Driver/src/stm32f30x_tim.c **** 
1381:../Libraries/STM32F30x_StdPeriph_Driver/src/stm32f30x_tim.c ****   /* Configure The Forced output Mode */
1382:../Libraries/STM32F30x_StdPeriph_Driver/src/stm32f30x_tim.c ****   tmpccmr1 |= TIM_ForcedAction;
 2205              		.loc 1 1382 0
 2206 0c86 BDF80230 		ldrh	r3, [sp, #2]
 2207 0c8a 039A     		ldr	r2, [sp, #12]
 2208 0c8c 1343     		orrs	r3, r3, r2
 2209 0c8e 0393     		str	r3, [sp, #12]
1383:../Libraries/STM32F30x_StdPeriph_Driver/src/stm32f30x_tim.c **** 
1384:../Libraries/STM32F30x_StdPeriph_Driver/src/stm32f30x_tim.c ****   /* Write to TIMx CCMR1 register */
1385:../Libraries/STM32F30x_StdPeriph_Driver/src/stm32f30x_tim.c ****   TIMx->CCMR1 = tmpccmr1;
 2210              		.loc 1 1385 0
 2211 0c90 019B     		ldr	r3, [sp, #4]
 2212 0c92 039A     		ldr	r2, [sp, #12]
 2213 0c94 9A61     		str	r2, [r3, #24]
1386:../Libraries/STM32F30x_StdPeriph_Driver/src/stm32f30x_tim.c **** }
 2214              		.loc 1 1386 0
 2215 0c96 04B0     		add	sp, sp, #16
 2216 0c98 7047     		bx	lr
 2217              		.cfi_endproc
 2218              	.LFE144:
 2220 0c9a 00BF     		.align	2
 2221              		.global	TIM_ForcedOC2Config
 2222              		.thumb
 2223              		.thumb_func
 2225              	TIM_ForcedOC2Config:
 2226              	.LFB145:
1387:../Libraries/STM32F30x_StdPeriph_Driver/src/stm32f30x_tim.c **** 
1388:../Libraries/STM32F30x_StdPeriph_Driver/src/stm32f30x_tim.c **** /**
1389:../Libraries/STM32F30x_StdPeriph_Driver/src/stm32f30x_tim.c ****   * @brief  Forces the TIMx output 2 waveform to active or inactive level.
1390:../Libraries/STM32F30x_StdPeriph_Driver/src/stm32f30x_tim.c ****   * @param  TIMx: where x can be   1, 2, 3, 4, 8 or 15 to select the TIM 
1391:../Libraries/STM32F30x_StdPeriph_Driver/src/stm32f30x_tim.c ****   *         peripheral.
1392:../Libraries/STM32F30x_StdPeriph_Driver/src/stm32f30x_tim.c ****   * @param  TIM_ForcedAction: specifies the forced Action to be set to the output waveform.
1393:../Libraries/STM32F30x_StdPeriph_Driver/src/stm32f30x_tim.c ****   *          This parameter can be one of the following values:
1394:../Libraries/STM32F30x_StdPeriph_Driver/src/stm32f30x_tim.c ****   *            @arg TIM_ForcedAction_Active: Force active level on OC2REF
1395:../Libraries/STM32F30x_StdPeriph_Driver/src/stm32f30x_tim.c ****   *            @arg TIM_ForcedAction_InActive: Force inactive level on OC2REF.
1396:../Libraries/STM32F30x_StdPeriph_Driver/src/stm32f30x_tim.c ****   * @retval None
1397:../Libraries/STM32F30x_StdPeriph_Driver/src/stm32f30x_tim.c ****   */
1398:../Libraries/STM32F30x_StdPeriph_Driver/src/stm32f30x_tim.c **** void TIM_ForcedOC2Config(TIM_TypeDef* TIMx, uint16_t TIM_ForcedAction)
1399:../Libraries/STM32F30x_StdPeriph_Driver/src/stm32f30x_tim.c **** {
 2227              		.loc 1 1399 0
 2228              		.cfi_startproc
 2229              		@ args = 0, pretend = 0, frame = 16
 2230              		@ frame_needed = 0, uses_anonymous_args = 0
 2231              		@ link register save eliminated.
 2232 0c9c 84B0     		sub	sp, sp, #16
 2233              	.LCFI35:
 2234              		.cfi_def_cfa_offset 16
 2235 0c9e 0190     		str	r0, [sp, #4]
 2236 0ca0 0B46     		mov	r3, r1
 2237 0ca2 ADF80230 		strh	r3, [sp, #2]	@ movhi
1400:../Libraries/STM32F30x_StdPeriph_Driver/src/stm32f30x_tim.c ****   uint32_t tmpccmr1 = 0;
 2238              		.loc 1 1400 0
 2239 0ca6 4FF00003 		mov	r3, #0
 2240 0caa 0393     		str	r3, [sp, #12]
1401:../Libraries/STM32F30x_StdPeriph_Driver/src/stm32f30x_tim.c **** 
1402:../Libraries/STM32F30x_StdPeriph_Driver/src/stm32f30x_tim.c ****   /* Check the parameters */
1403:../Libraries/STM32F30x_StdPeriph_Driver/src/stm32f30x_tim.c ****   assert_param(IS_TIM_LIST2_PERIPH(TIMx));
1404:../Libraries/STM32F30x_StdPeriph_Driver/src/stm32f30x_tim.c ****   assert_param(IS_TIM_FORCED_ACTION(TIM_ForcedAction));
1405:../Libraries/STM32F30x_StdPeriph_Driver/src/stm32f30x_tim.c ****   tmpccmr1 = TIMx->CCMR1;
 2241              		.loc 1 1405 0
 2242 0cac 019B     		ldr	r3, [sp, #4]
 2243 0cae 9B69     		ldr	r3, [r3, #24]
 2244 0cb0 0393     		str	r3, [sp, #12]
1406:../Libraries/STM32F30x_StdPeriph_Driver/src/stm32f30x_tim.c **** 
1407:../Libraries/STM32F30x_StdPeriph_Driver/src/stm32f30x_tim.c ****   /* Reset the OC2M Bits */
1408:../Libraries/STM32F30x_StdPeriph_Driver/src/stm32f30x_tim.c ****   tmpccmr1 &= (uint32_t)~TIM_CCMR1_OC2M;
 2245              		.loc 1 1408 0
 2246 0cb2 039B     		ldr	r3, [sp, #12]
 2247 0cb4 23F08073 		bic	r3, r3, #16777216
 2248 0cb8 23F4E043 		bic	r3, r3, #28672
 2249 0cbc 0393     		str	r3, [sp, #12]
1409:../Libraries/STM32F30x_StdPeriph_Driver/src/stm32f30x_tim.c **** 
1410:../Libraries/STM32F30x_StdPeriph_Driver/src/stm32f30x_tim.c ****   /* Configure The Forced output Mode */
1411:../Libraries/STM32F30x_StdPeriph_Driver/src/stm32f30x_tim.c ****   tmpccmr1 |= ((uint32_t)TIM_ForcedAction << 8);
 2250              		.loc 1 1411 0
 2251 0cbe BDF80230 		ldrh	r3, [sp, #2]
 2252 0cc2 4FEA0323 		lsl	r3, r3, #8
 2253 0cc6 039A     		ldr	r2, [sp, #12]
 2254 0cc8 1343     		orrs	r3, r3, r2
 2255 0cca 0393     		str	r3, [sp, #12]
1412:../Libraries/STM32F30x_StdPeriph_Driver/src/stm32f30x_tim.c **** 
1413:../Libraries/STM32F30x_StdPeriph_Driver/src/stm32f30x_tim.c ****   /* Write to TIMx CCMR1 register */
1414:../Libraries/STM32F30x_StdPeriph_Driver/src/stm32f30x_tim.c ****   TIMx->CCMR1 = tmpccmr1;
 2256              		.loc 1 1414 0
 2257 0ccc 019B     		ldr	r3, [sp, #4]
 2258 0cce 039A     		ldr	r2, [sp, #12]
 2259 0cd0 9A61     		str	r2, [r3, #24]
1415:../Libraries/STM32F30x_StdPeriph_Driver/src/stm32f30x_tim.c **** }
 2260              		.loc 1 1415 0
 2261 0cd2 04B0     		add	sp, sp, #16
 2262 0cd4 7047     		bx	lr
 2263              		.cfi_endproc
 2264              	.LFE145:
 2266 0cd6 00BF     		.align	2
 2267              		.global	TIM_ForcedOC3Config
 2268              		.thumb
 2269              		.thumb_func
 2271              	TIM_ForcedOC3Config:
 2272              	.LFB146:
1416:../Libraries/STM32F30x_StdPeriph_Driver/src/stm32f30x_tim.c **** 
1417:../Libraries/STM32F30x_StdPeriph_Driver/src/stm32f30x_tim.c **** /**
1418:../Libraries/STM32F30x_StdPeriph_Driver/src/stm32f30x_tim.c ****   * @brief  Forces the TIMx output 3 waveform to active or inactive level.
1419:../Libraries/STM32F30x_StdPeriph_Driver/src/stm32f30x_tim.c ****   * @param  TIMx: where x can be  1, 2, 3, 4 or 8 to select the TIM peripheral.
1420:../Libraries/STM32F30x_StdPeriph_Driver/src/stm32f30x_tim.c ****   * @param  TIM_ForcedAction: specifies the forced Action to be set to the output waveform.
1421:../Libraries/STM32F30x_StdPeriph_Driver/src/stm32f30x_tim.c ****   *          This parameter can be one of the following values:
1422:../Libraries/STM32F30x_StdPeriph_Driver/src/stm32f30x_tim.c ****   *            @arg TIM_ForcedAction_Active: Force active level on OC3REF
1423:../Libraries/STM32F30x_StdPeriph_Driver/src/stm32f30x_tim.c ****   *            @arg TIM_ForcedAction_InActive: Force inactive level on OC3REF.
1424:../Libraries/STM32F30x_StdPeriph_Driver/src/stm32f30x_tim.c ****   * @retval None
1425:../Libraries/STM32F30x_StdPeriph_Driver/src/stm32f30x_tim.c ****   */
1426:../Libraries/STM32F30x_StdPeriph_Driver/src/stm32f30x_tim.c **** void TIM_ForcedOC3Config(TIM_TypeDef* TIMx, uint16_t TIM_ForcedAction)
1427:../Libraries/STM32F30x_StdPeriph_Driver/src/stm32f30x_tim.c **** {
 2273              		.loc 1 1427 0
 2274              		.cfi_startproc
 2275              		@ args = 0, pretend = 0, frame = 16
 2276              		@ frame_needed = 0, uses_anonymous_args = 0
 2277              		@ link register save eliminated.
 2278 0cd8 84B0     		sub	sp, sp, #16
 2279              	.LCFI36:
 2280              		.cfi_def_cfa_offset 16
 2281 0cda 0190     		str	r0, [sp, #4]
 2282 0cdc 0B46     		mov	r3, r1
 2283 0cde ADF80230 		strh	r3, [sp, #2]	@ movhi
1428:../Libraries/STM32F30x_StdPeriph_Driver/src/stm32f30x_tim.c ****   uint32_t tmpccmr2 = 0;
 2284              		.loc 1 1428 0
 2285 0ce2 4FF00003 		mov	r3, #0
 2286 0ce6 0393     		str	r3, [sp, #12]
1429:../Libraries/STM32F30x_StdPeriph_Driver/src/stm32f30x_tim.c **** 
1430:../Libraries/STM32F30x_StdPeriph_Driver/src/stm32f30x_tim.c ****   /* Check the parameters */
1431:../Libraries/STM32F30x_StdPeriph_Driver/src/stm32f30x_tim.c ****   assert_param(IS_TIM_LIST3_PERIPH(TIMx));
1432:../Libraries/STM32F30x_StdPeriph_Driver/src/stm32f30x_tim.c ****   assert_param(IS_TIM_FORCED_ACTION(TIM_ForcedAction));
1433:../Libraries/STM32F30x_StdPeriph_Driver/src/stm32f30x_tim.c **** 
1434:../Libraries/STM32F30x_StdPeriph_Driver/src/stm32f30x_tim.c ****   tmpccmr2 = TIMx->CCMR2;
 2287              		.loc 1 1434 0
 2288 0ce8 019B     		ldr	r3, [sp, #4]
 2289 0cea DB69     		ldr	r3, [r3, #28]
 2290 0cec 0393     		str	r3, [sp, #12]
1435:../Libraries/STM32F30x_StdPeriph_Driver/src/stm32f30x_tim.c **** 
1436:../Libraries/STM32F30x_StdPeriph_Driver/src/stm32f30x_tim.c ****   /* Reset the OC1M Bits */
1437:../Libraries/STM32F30x_StdPeriph_Driver/src/stm32f30x_tim.c ****   tmpccmr2 &= (uint32_t)~TIM_CCMR2_OC3M;
 2291              		.loc 1 1437 0
 2292 0cee 039B     		ldr	r3, [sp, #12]
 2293 0cf0 23F07003 		bic	r3, r3, #112
 2294 0cf4 0393     		str	r3, [sp, #12]
1438:../Libraries/STM32F30x_StdPeriph_Driver/src/stm32f30x_tim.c **** 
1439:../Libraries/STM32F30x_StdPeriph_Driver/src/stm32f30x_tim.c ****   /* Configure The Forced output Mode */
1440:../Libraries/STM32F30x_StdPeriph_Driver/src/stm32f30x_tim.c ****   tmpccmr2 |= TIM_ForcedAction;
 2295              		.loc 1 1440 0
 2296 0cf6 BDF80230 		ldrh	r3, [sp, #2]
 2297 0cfa 039A     		ldr	r2, [sp, #12]
 2298 0cfc 1343     		orrs	r3, r3, r2
 2299 0cfe 0393     		str	r3, [sp, #12]
1441:../Libraries/STM32F30x_StdPeriph_Driver/src/stm32f30x_tim.c **** 
1442:../Libraries/STM32F30x_StdPeriph_Driver/src/stm32f30x_tim.c ****   /* Write to TIMx CCMR2 register */
1443:../Libraries/STM32F30x_StdPeriph_Driver/src/stm32f30x_tim.c ****   TIMx->CCMR2 = tmpccmr2;
 2300              		.loc 1 1443 0
 2301 0d00 019B     		ldr	r3, [sp, #4]
 2302 0d02 039A     		ldr	r2, [sp, #12]
 2303 0d04 DA61     		str	r2, [r3, #28]
1444:../Libraries/STM32F30x_StdPeriph_Driver/src/stm32f30x_tim.c **** }
 2304              		.loc 1 1444 0
 2305 0d06 04B0     		add	sp, sp, #16
 2306 0d08 7047     		bx	lr
 2307              		.cfi_endproc
 2308              	.LFE146:
 2310 0d0a 00BF     		.align	2
 2311              		.global	TIM_ForcedOC4Config
 2312              		.thumb
 2313              		.thumb_func
 2315              	TIM_ForcedOC4Config:
 2316              	.LFB147:
1445:../Libraries/STM32F30x_StdPeriph_Driver/src/stm32f30x_tim.c **** 
1446:../Libraries/STM32F30x_StdPeriph_Driver/src/stm32f30x_tim.c **** /**
1447:../Libraries/STM32F30x_StdPeriph_Driver/src/stm32f30x_tim.c ****   * @brief  Forces the TIMx output 4 waveform to active or inactive level.
1448:../Libraries/STM32F30x_StdPeriph_Driver/src/stm32f30x_tim.c ****   * @param  TIMx: where x can be  1, 2, 3, 4 or 8 to select the TIM peripheral.
1449:../Libraries/STM32F30x_StdPeriph_Driver/src/stm32f30x_tim.c ****   * @param  TIM_ForcedAction: specifies the forced Action to be set to the output waveform.
1450:../Libraries/STM32F30x_StdPeriph_Driver/src/stm32f30x_tim.c ****   *          This parameter can be one of the following values:
1451:../Libraries/STM32F30x_StdPeriph_Driver/src/stm32f30x_tim.c ****   *            @arg TIM_ForcedAction_Active: Force active level on OC4REF
1452:../Libraries/STM32F30x_StdPeriph_Driver/src/stm32f30x_tim.c ****   *            @arg TIM_ForcedAction_InActive: Force inactive level on OC4REF.
1453:../Libraries/STM32F30x_StdPeriph_Driver/src/stm32f30x_tim.c ****   * @retval None
1454:../Libraries/STM32F30x_StdPeriph_Driver/src/stm32f30x_tim.c ****   */
1455:../Libraries/STM32F30x_StdPeriph_Driver/src/stm32f30x_tim.c **** void TIM_ForcedOC4Config(TIM_TypeDef* TIMx, uint16_t TIM_ForcedAction)
1456:../Libraries/STM32F30x_StdPeriph_Driver/src/stm32f30x_tim.c **** {
 2317              		.loc 1 1456 0
 2318              		.cfi_startproc
 2319              		@ args = 0, pretend = 0, frame = 16
 2320              		@ frame_needed = 0, uses_anonymous_args = 0
 2321              		@ link register save eliminated.
 2322 0d0c 84B0     		sub	sp, sp, #16
 2323              	.LCFI37:
 2324              		.cfi_def_cfa_offset 16
 2325 0d0e 0190     		str	r0, [sp, #4]
 2326 0d10 0B46     		mov	r3, r1
 2327 0d12 ADF80230 		strh	r3, [sp, #2]	@ movhi
1457:../Libraries/STM32F30x_StdPeriph_Driver/src/stm32f30x_tim.c ****   uint32_t tmpccmr2 = 0;
 2328              		.loc 1 1457 0
 2329 0d16 4FF00003 		mov	r3, #0
 2330 0d1a 0393     		str	r3, [sp, #12]
1458:../Libraries/STM32F30x_StdPeriph_Driver/src/stm32f30x_tim.c **** 
1459:../Libraries/STM32F30x_StdPeriph_Driver/src/stm32f30x_tim.c ****   /* Check the parameters */
1460:../Libraries/STM32F30x_StdPeriph_Driver/src/stm32f30x_tim.c ****   assert_param(IS_TIM_LIST3_PERIPH(TIMx));
1461:../Libraries/STM32F30x_StdPeriph_Driver/src/stm32f30x_tim.c ****   assert_param(IS_TIM_FORCED_ACTION(TIM_ForcedAction));
1462:../Libraries/STM32F30x_StdPeriph_Driver/src/stm32f30x_tim.c ****   tmpccmr2 = TIMx->CCMR2;
 2331              		.loc 1 1462 0
 2332 0d1c 019B     		ldr	r3, [sp, #4]
 2333 0d1e DB69     		ldr	r3, [r3, #28]
 2334 0d20 0393     		str	r3, [sp, #12]
1463:../Libraries/STM32F30x_StdPeriph_Driver/src/stm32f30x_tim.c **** 
1464:../Libraries/STM32F30x_StdPeriph_Driver/src/stm32f30x_tim.c ****   /* Reset the OC2M Bits */
1465:../Libraries/STM32F30x_StdPeriph_Driver/src/stm32f30x_tim.c ****   tmpccmr2 &= (uint32_t)~TIM_CCMR2_OC4M;
 2335              		.loc 1 1465 0
 2336 0d22 039B     		ldr	r3, [sp, #12]
 2337 0d24 23F4E043 		bic	r3, r3, #28672
 2338 0d28 0393     		str	r3, [sp, #12]
1466:../Libraries/STM32F30x_StdPeriph_Driver/src/stm32f30x_tim.c **** 
1467:../Libraries/STM32F30x_StdPeriph_Driver/src/stm32f30x_tim.c ****   /* Configure The Forced output Mode */
1468:../Libraries/STM32F30x_StdPeriph_Driver/src/stm32f30x_tim.c ****   tmpccmr2 |= ((uint32_t)TIM_ForcedAction << 8);
 2339              		.loc 1 1468 0
 2340 0d2a BDF80230 		ldrh	r3, [sp, #2]
 2341 0d2e 4FEA0323 		lsl	r3, r3, #8
 2342 0d32 039A     		ldr	r2, [sp, #12]
 2343 0d34 1343     		orrs	r3, r3, r2
 2344 0d36 0393     		str	r3, [sp, #12]
1469:../Libraries/STM32F30x_StdPeriph_Driver/src/stm32f30x_tim.c **** 
1470:../Libraries/STM32F30x_StdPeriph_Driver/src/stm32f30x_tim.c ****   /* Write to TIMx CCMR2 register */
1471:../Libraries/STM32F30x_StdPeriph_Driver/src/stm32f30x_tim.c ****   TIMx->CCMR2 = tmpccmr2;
 2345              		.loc 1 1471 0
 2346 0d38 019B     		ldr	r3, [sp, #4]
 2347 0d3a 039A     		ldr	r2, [sp, #12]
 2348 0d3c DA61     		str	r2, [r3, #28]
1472:../Libraries/STM32F30x_StdPeriph_Driver/src/stm32f30x_tim.c **** }
 2349              		.loc 1 1472 0
 2350 0d3e 04B0     		add	sp, sp, #16
 2351 0d40 7047     		bx	lr
 2352              		.cfi_endproc
 2353              	.LFE147:
 2355 0d42 00BF     		.align	2
 2356              		.global	TIM_ForcedOC5Config
 2357              		.thumb
 2358              		.thumb_func
 2360              	TIM_ForcedOC5Config:
 2361              	.LFB148:
1473:../Libraries/STM32F30x_StdPeriph_Driver/src/stm32f30x_tim.c **** 
1474:../Libraries/STM32F30x_StdPeriph_Driver/src/stm32f30x_tim.c **** /**
1475:../Libraries/STM32F30x_StdPeriph_Driver/src/stm32f30x_tim.c ****   * @brief  Forces the TIMx output 5 waveform to active or inactive level.
1476:../Libraries/STM32F30x_StdPeriph_Driver/src/stm32f30x_tim.c ****   * @param  TIMx: where x can be  1 or 8 to select the TIM peripheral.
1477:../Libraries/STM32F30x_StdPeriph_Driver/src/stm32f30x_tim.c ****   * @param  TIM_ForcedAction: specifies the forced Action to be set to the output waveform.
1478:../Libraries/STM32F30x_StdPeriph_Driver/src/stm32f30x_tim.c ****   *          This parameter can be one of the following values:
1479:../Libraries/STM32F30x_StdPeriph_Driver/src/stm32f30x_tim.c ****   *            @arg TIM_ForcedAction_Active: Force active level on OC5REF
1480:../Libraries/STM32F30x_StdPeriph_Driver/src/stm32f30x_tim.c ****   *            @arg TIM_ForcedAction_InActive: Force inactive level on OC5REF.
1481:../Libraries/STM32F30x_StdPeriph_Driver/src/stm32f30x_tim.c ****   * @retval None
1482:../Libraries/STM32F30x_StdPeriph_Driver/src/stm32f30x_tim.c ****   */
1483:../Libraries/STM32F30x_StdPeriph_Driver/src/stm32f30x_tim.c **** void TIM_ForcedOC5Config(TIM_TypeDef* TIMx, uint16_t TIM_ForcedAction)
1484:../Libraries/STM32F30x_StdPeriph_Driver/src/stm32f30x_tim.c **** {
 2362              		.loc 1 1484 0
 2363              		.cfi_startproc
 2364              		@ args = 0, pretend = 0, frame = 16
 2365              		@ frame_needed = 0, uses_anonymous_args = 0
 2366              		@ link register save eliminated.
 2367 0d44 84B0     		sub	sp, sp, #16
 2368              	.LCFI38:
 2369              		.cfi_def_cfa_offset 16
 2370 0d46 0190     		str	r0, [sp, #4]
 2371 0d48 0B46     		mov	r3, r1
 2372 0d4a ADF80230 		strh	r3, [sp, #2]	@ movhi
1485:../Libraries/STM32F30x_StdPeriph_Driver/src/stm32f30x_tim.c ****   uint32_t tmpccmr3 = 0;
 2373              		.loc 1 1485 0
 2374 0d4e 4FF00003 		mov	r3, #0
 2375 0d52 0393     		str	r3, [sp, #12]
1486:../Libraries/STM32F30x_StdPeriph_Driver/src/stm32f30x_tim.c **** 
1487:../Libraries/STM32F30x_StdPeriph_Driver/src/stm32f30x_tim.c ****   /* Check the parameters */
1488:../Libraries/STM32F30x_StdPeriph_Driver/src/stm32f30x_tim.c ****   assert_param(IS_TIM_LIST4_PERIPH(TIMx));
1489:../Libraries/STM32F30x_StdPeriph_Driver/src/stm32f30x_tim.c ****   assert_param(IS_TIM_FORCED_ACTION(TIM_ForcedAction));
1490:../Libraries/STM32F30x_StdPeriph_Driver/src/stm32f30x_tim.c ****   tmpccmr3 = TIMx->CCMR3;
 2376              		.loc 1 1490 0
 2377 0d54 019B     		ldr	r3, [sp, #4]
 2378 0d56 5B6D     		ldr	r3, [r3, #84]
 2379 0d58 0393     		str	r3, [sp, #12]
1491:../Libraries/STM32F30x_StdPeriph_Driver/src/stm32f30x_tim.c **** 
1492:../Libraries/STM32F30x_StdPeriph_Driver/src/stm32f30x_tim.c ****   /* Reset the OC5M Bits */
1493:../Libraries/STM32F30x_StdPeriph_Driver/src/stm32f30x_tim.c ****   tmpccmr3 &= (uint32_t)~TIM_CCMR3_OC5M;
 2380              		.loc 1 1493 0
 2381 0d5a 039B     		ldr	r3, [sp, #12]
 2382 0d5c 23F07003 		bic	r3, r3, #112
 2383 0d60 0393     		str	r3, [sp, #12]
1494:../Libraries/STM32F30x_StdPeriph_Driver/src/stm32f30x_tim.c **** 
1495:../Libraries/STM32F30x_StdPeriph_Driver/src/stm32f30x_tim.c ****   /* Configure The Forced output Mode */
1496:../Libraries/STM32F30x_StdPeriph_Driver/src/stm32f30x_tim.c ****   tmpccmr3 |= (uint32_t)(TIM_ForcedAction);
 2384              		.loc 1 1496 0
 2385 0d62 BDF80230 		ldrh	r3, [sp, #2]
 2386 0d66 039A     		ldr	r2, [sp, #12]
 2387 0d68 1343     		orrs	r3, r3, r2
 2388 0d6a 0393     		str	r3, [sp, #12]
1497:../Libraries/STM32F30x_StdPeriph_Driver/src/stm32f30x_tim.c **** 
1498:../Libraries/STM32F30x_StdPeriph_Driver/src/stm32f30x_tim.c ****   /* Write to TIMx CCMR3 register */
1499:../Libraries/STM32F30x_StdPeriph_Driver/src/stm32f30x_tim.c ****   TIMx->CCMR3 = tmpccmr3;
 2389              		.loc 1 1499 0
 2390 0d6c 019B     		ldr	r3, [sp, #4]
 2391 0d6e 039A     		ldr	r2, [sp, #12]
 2392 0d70 5A65     		str	r2, [r3, #84]
1500:../Libraries/STM32F30x_StdPeriph_Driver/src/stm32f30x_tim.c **** }
 2393              		.loc 1 1500 0
 2394 0d72 04B0     		add	sp, sp, #16
 2395 0d74 7047     		bx	lr
 2396              		.cfi_endproc
 2397              	.LFE148:
 2399 0d76 00BF     		.align	2
 2400              		.global	TIM_ForcedOC6Config
 2401              		.thumb
 2402              		.thumb_func
 2404              	TIM_ForcedOC6Config:
 2405              	.LFB149:
1501:../Libraries/STM32F30x_StdPeriph_Driver/src/stm32f30x_tim.c **** 
1502:../Libraries/STM32F30x_StdPeriph_Driver/src/stm32f30x_tim.c **** /**
1503:../Libraries/STM32F30x_StdPeriph_Driver/src/stm32f30x_tim.c ****   * @brief  Forces the TIMx output 6 waveform to active or inactive level.
1504:../Libraries/STM32F30x_StdPeriph_Driver/src/stm32f30x_tim.c ****   * @param  TIMx: where x can be 1 or 8 to select the TIM peripheral.
1505:../Libraries/STM32F30x_StdPeriph_Driver/src/stm32f30x_tim.c ****   * @param  TIM_ForcedAction: specifies the forced Action to be set to the output waveform.
1506:../Libraries/STM32F30x_StdPeriph_Driver/src/stm32f30x_tim.c ****   *          This parameter can be one of the following values:
1507:../Libraries/STM32F30x_StdPeriph_Driver/src/stm32f30x_tim.c ****   *            @arg TIM_ForcedAction_Active: Force active level on OC5REF
1508:../Libraries/STM32F30x_StdPeriph_Driver/src/stm32f30x_tim.c ****   *            @arg TIM_ForcedAction_InActive: Force inactive level on OC5REF.
1509:../Libraries/STM32F30x_StdPeriph_Driver/src/stm32f30x_tim.c ****   * @retval None
1510:../Libraries/STM32F30x_StdPeriph_Driver/src/stm32f30x_tim.c ****   */
1511:../Libraries/STM32F30x_StdPeriph_Driver/src/stm32f30x_tim.c **** void TIM_ForcedOC6Config(TIM_TypeDef* TIMx, uint16_t TIM_ForcedAction)
1512:../Libraries/STM32F30x_StdPeriph_Driver/src/stm32f30x_tim.c **** {
 2406              		.loc 1 1512 0
 2407              		.cfi_startproc
 2408              		@ args = 0, pretend = 0, frame = 16
 2409              		@ frame_needed = 0, uses_anonymous_args = 0
 2410              		@ link register save eliminated.
 2411 0d78 84B0     		sub	sp, sp, #16
 2412              	.LCFI39:
 2413              		.cfi_def_cfa_offset 16
 2414 0d7a 0190     		str	r0, [sp, #4]
 2415 0d7c 0B46     		mov	r3, r1
 2416 0d7e ADF80230 		strh	r3, [sp, #2]	@ movhi
1513:../Libraries/STM32F30x_StdPeriph_Driver/src/stm32f30x_tim.c ****   uint32_t tmpccmr3 = 0;
 2417              		.loc 1 1513 0
 2418 0d82 4FF00003 		mov	r3, #0
 2419 0d86 0393     		str	r3, [sp, #12]
1514:../Libraries/STM32F30x_StdPeriph_Driver/src/stm32f30x_tim.c **** 
1515:../Libraries/STM32F30x_StdPeriph_Driver/src/stm32f30x_tim.c ****   /* Check the parameters */
1516:../Libraries/STM32F30x_StdPeriph_Driver/src/stm32f30x_tim.c ****   assert_param(IS_TIM_LIST4_PERIPH(TIMx));
1517:../Libraries/STM32F30x_StdPeriph_Driver/src/stm32f30x_tim.c ****   assert_param(IS_TIM_FORCED_ACTION(TIM_ForcedAction));
1518:../Libraries/STM32F30x_StdPeriph_Driver/src/stm32f30x_tim.c ****   tmpccmr3 = TIMx->CCMR3;
 2420              		.loc 1 1518 0
 2421 0d88 019B     		ldr	r3, [sp, #4]
 2422 0d8a 5B6D     		ldr	r3, [r3, #84]
 2423 0d8c 0393     		str	r3, [sp, #12]
1519:../Libraries/STM32F30x_StdPeriph_Driver/src/stm32f30x_tim.c **** 
1520:../Libraries/STM32F30x_StdPeriph_Driver/src/stm32f30x_tim.c ****   /* Reset the OC6M Bits */
1521:../Libraries/STM32F30x_StdPeriph_Driver/src/stm32f30x_tim.c ****   tmpccmr3 &= (uint32_t)~TIM_CCMR3_OC6M;
 2424              		.loc 1 1521 0
 2425 0d8e 039B     		ldr	r3, [sp, #12]
 2426 0d90 23F4E043 		bic	r3, r3, #28672
 2427 0d94 0393     		str	r3, [sp, #12]
1522:../Libraries/STM32F30x_StdPeriph_Driver/src/stm32f30x_tim.c **** 
1523:../Libraries/STM32F30x_StdPeriph_Driver/src/stm32f30x_tim.c ****   /* Configure The Forced output Mode */
1524:../Libraries/STM32F30x_StdPeriph_Driver/src/stm32f30x_tim.c ****   tmpccmr3 |= ((uint32_t)TIM_ForcedAction << 8);
 2428              		.loc 1 1524 0
 2429 0d96 BDF80230 		ldrh	r3, [sp, #2]
 2430 0d9a 4FEA0323 		lsl	r3, r3, #8
 2431 0d9e 039A     		ldr	r2, [sp, #12]
 2432 0da0 1343     		orrs	r3, r3, r2
 2433 0da2 0393     		str	r3, [sp, #12]
1525:../Libraries/STM32F30x_StdPeriph_Driver/src/stm32f30x_tim.c **** 
1526:../Libraries/STM32F30x_StdPeriph_Driver/src/stm32f30x_tim.c ****   /* Write to TIMx CCMR3 register */
1527:../Libraries/STM32F30x_StdPeriph_Driver/src/stm32f30x_tim.c ****   TIMx->CCMR3 = tmpccmr3;
 2434              		.loc 1 1527 0
 2435 0da4 019B     		ldr	r3, [sp, #4]
 2436 0da6 039A     		ldr	r2, [sp, #12]
 2437 0da8 5A65     		str	r2, [r3, #84]
1528:../Libraries/STM32F30x_StdPeriph_Driver/src/stm32f30x_tim.c **** }
 2438              		.loc 1 1528 0
 2439 0daa 04B0     		add	sp, sp, #16
 2440 0dac 7047     		bx	lr
 2441              		.cfi_endproc
 2442              	.LFE149:
 2444 0dae 00BF     		.align	2
 2445              		.global	TIM_OC1PreloadConfig
 2446              		.thumb
 2447              		.thumb_func
 2449              	TIM_OC1PreloadConfig:
 2450              	.LFB150:
1529:../Libraries/STM32F30x_StdPeriph_Driver/src/stm32f30x_tim.c **** 
1530:../Libraries/STM32F30x_StdPeriph_Driver/src/stm32f30x_tim.c **** /**
1531:../Libraries/STM32F30x_StdPeriph_Driver/src/stm32f30x_tim.c ****   * @brief  Enables or disables the TIMx peripheral Preload register on CCR1.
1532:../Libraries/STM32F30x_StdPeriph_Driver/src/stm32f30x_tim.c ****   * @param  TIMx: where x can be 1, 2, 3, 4, 8, 15, 16 or 17 to select the TIM peripheral.
1533:../Libraries/STM32F30x_StdPeriph_Driver/src/stm32f30x_tim.c ****   * @param  TIM_OCPreload: new state of the TIMx peripheral Preload register
1534:../Libraries/STM32F30x_StdPeriph_Driver/src/stm32f30x_tim.c ****   *          This parameter can be one of the following values:
1535:../Libraries/STM32F30x_StdPeriph_Driver/src/stm32f30x_tim.c ****   *            @arg TIM_OCPreload_Enable
1536:../Libraries/STM32F30x_StdPeriph_Driver/src/stm32f30x_tim.c ****   *            @arg TIM_OCPreload_Disable
1537:../Libraries/STM32F30x_StdPeriph_Driver/src/stm32f30x_tim.c ****   * @retval None
1538:../Libraries/STM32F30x_StdPeriph_Driver/src/stm32f30x_tim.c ****   */
1539:../Libraries/STM32F30x_StdPeriph_Driver/src/stm32f30x_tim.c **** void TIM_OC1PreloadConfig(TIM_TypeDef* TIMx, uint16_t TIM_OCPreload)
1540:../Libraries/STM32F30x_StdPeriph_Driver/src/stm32f30x_tim.c **** {
 2451              		.loc 1 1540 0
 2452              		.cfi_startproc
 2453              		@ args = 0, pretend = 0, frame = 16
 2454              		@ frame_needed = 0, uses_anonymous_args = 0
 2455              		@ link register save eliminated.
 2456 0db0 84B0     		sub	sp, sp, #16
 2457              	.LCFI40:
 2458              		.cfi_def_cfa_offset 16
 2459 0db2 0190     		str	r0, [sp, #4]
 2460 0db4 0B46     		mov	r3, r1
 2461 0db6 ADF80230 		strh	r3, [sp, #2]	@ movhi
1541:../Libraries/STM32F30x_StdPeriph_Driver/src/stm32f30x_tim.c ****   uint32_t tmpccmr1 = 0;
 2462              		.loc 1 1541 0
 2463 0dba 4FF00003 		mov	r3, #0
 2464 0dbe 0393     		str	r3, [sp, #12]
1542:../Libraries/STM32F30x_StdPeriph_Driver/src/stm32f30x_tim.c **** 
1543:../Libraries/STM32F30x_StdPeriph_Driver/src/stm32f30x_tim.c ****   /* Check the parameters */
1544:../Libraries/STM32F30x_StdPeriph_Driver/src/stm32f30x_tim.c ****   assert_param(IS_TIM_LIST1_PERIPH(TIMx));
1545:../Libraries/STM32F30x_StdPeriph_Driver/src/stm32f30x_tim.c ****   assert_param(IS_TIM_OCPRELOAD_STATE(TIM_OCPreload));
1546:../Libraries/STM32F30x_StdPeriph_Driver/src/stm32f30x_tim.c **** 
1547:../Libraries/STM32F30x_StdPeriph_Driver/src/stm32f30x_tim.c ****   tmpccmr1 = TIMx->CCMR1;
 2465              		.loc 1 1547 0
 2466 0dc0 019B     		ldr	r3, [sp, #4]
 2467 0dc2 9B69     		ldr	r3, [r3, #24]
 2468 0dc4 0393     		str	r3, [sp, #12]
1548:../Libraries/STM32F30x_StdPeriph_Driver/src/stm32f30x_tim.c **** 
1549:../Libraries/STM32F30x_StdPeriph_Driver/src/stm32f30x_tim.c ****   /* Reset the OC1PE Bit */
1550:../Libraries/STM32F30x_StdPeriph_Driver/src/stm32f30x_tim.c ****   tmpccmr1 &= (uint32_t)(~TIM_CCMR1_OC1PE);
 2469              		.loc 1 1550 0
 2470 0dc6 039B     		ldr	r3, [sp, #12]
 2471 0dc8 23F00803 		bic	r3, r3, #8
 2472 0dcc 0393     		str	r3, [sp, #12]
1551:../Libraries/STM32F30x_StdPeriph_Driver/src/stm32f30x_tim.c **** 
1552:../Libraries/STM32F30x_StdPeriph_Driver/src/stm32f30x_tim.c ****   /* Enable or Disable the Output Compare Preload feature */
1553:../Libraries/STM32F30x_StdPeriph_Driver/src/stm32f30x_tim.c ****   tmpccmr1 |= TIM_OCPreload;
 2473              		.loc 1 1553 0
 2474 0dce BDF80230 		ldrh	r3, [sp, #2]
 2475 0dd2 039A     		ldr	r2, [sp, #12]
 2476 0dd4 1343     		orrs	r3, r3, r2
 2477 0dd6 0393     		str	r3, [sp, #12]
1554:../Libraries/STM32F30x_StdPeriph_Driver/src/stm32f30x_tim.c **** 
1555:../Libraries/STM32F30x_StdPeriph_Driver/src/stm32f30x_tim.c ****   /* Write to TIMx CCMR1 register */
1556:../Libraries/STM32F30x_StdPeriph_Driver/src/stm32f30x_tim.c ****   TIMx->CCMR1 = tmpccmr1;
 2478              		.loc 1 1556 0
 2479 0dd8 019B     		ldr	r3, [sp, #4]
 2480 0dda 039A     		ldr	r2, [sp, #12]
 2481 0ddc 9A61     		str	r2, [r3, #24]
1557:../Libraries/STM32F30x_StdPeriph_Driver/src/stm32f30x_tim.c **** }
 2482              		.loc 1 1557 0
 2483 0dde 04B0     		add	sp, sp, #16
 2484 0de0 7047     		bx	lr
 2485              		.cfi_endproc
 2486              	.LFE150:
 2488 0de2 00BF     		.align	2
 2489              		.global	TIM_OC2PreloadConfig
 2490              		.thumb
 2491              		.thumb_func
 2493              	TIM_OC2PreloadConfig:
 2494              	.LFB151:
1558:../Libraries/STM32F30x_StdPeriph_Driver/src/stm32f30x_tim.c **** 
1559:../Libraries/STM32F30x_StdPeriph_Driver/src/stm32f30x_tim.c **** /**
1560:../Libraries/STM32F30x_StdPeriph_Driver/src/stm32f30x_tim.c ****   * @brief  Enables or disables the TIMx peripheral Preload register on CCR2.
1561:../Libraries/STM32F30x_StdPeriph_Driver/src/stm32f30x_tim.c ****   * @param  TIMx: where x can be  1, 2, 3, 4, 8 or 15 to select the TIM 
1562:../Libraries/STM32F30x_StdPeriph_Driver/src/stm32f30x_tim.c ****   *         peripheral.
1563:../Libraries/STM32F30x_StdPeriph_Driver/src/stm32f30x_tim.c ****   * @param  TIM_OCPreload: new state of the TIMx peripheral Preload register
1564:../Libraries/STM32F30x_StdPeriph_Driver/src/stm32f30x_tim.c ****   *          This parameter can be one of the following values:
1565:../Libraries/STM32F30x_StdPeriph_Driver/src/stm32f30x_tim.c ****   *            @arg TIM_OCPreload_Enable
1566:../Libraries/STM32F30x_StdPeriph_Driver/src/stm32f30x_tim.c ****   *            @arg TIM_OCPreload_Disable
1567:../Libraries/STM32F30x_StdPeriph_Driver/src/stm32f30x_tim.c ****   * @retval None
1568:../Libraries/STM32F30x_StdPeriph_Driver/src/stm32f30x_tim.c ****   */
1569:../Libraries/STM32F30x_StdPeriph_Driver/src/stm32f30x_tim.c **** void TIM_OC2PreloadConfig(TIM_TypeDef* TIMx, uint16_t TIM_OCPreload)
1570:../Libraries/STM32F30x_StdPeriph_Driver/src/stm32f30x_tim.c **** {
 2495              		.loc 1 1570 0
 2496              		.cfi_startproc
 2497              		@ args = 0, pretend = 0, frame = 16
 2498              		@ frame_needed = 0, uses_anonymous_args = 0
 2499              		@ link register save eliminated.
 2500 0de4 84B0     		sub	sp, sp, #16
 2501              	.LCFI41:
 2502              		.cfi_def_cfa_offset 16
 2503 0de6 0190     		str	r0, [sp, #4]
 2504 0de8 0B46     		mov	r3, r1
 2505 0dea ADF80230 		strh	r3, [sp, #2]	@ movhi
1571:../Libraries/STM32F30x_StdPeriph_Driver/src/stm32f30x_tim.c ****   uint32_t tmpccmr1 = 0;
 2506              		.loc 1 1571 0
 2507 0dee 4FF00003 		mov	r3, #0
 2508 0df2 0393     		str	r3, [sp, #12]
1572:../Libraries/STM32F30x_StdPeriph_Driver/src/stm32f30x_tim.c **** 
1573:../Libraries/STM32F30x_StdPeriph_Driver/src/stm32f30x_tim.c ****   /* Check the parameters */
1574:../Libraries/STM32F30x_StdPeriph_Driver/src/stm32f30x_tim.c ****   assert_param(IS_TIM_LIST2_PERIPH(TIMx));
1575:../Libraries/STM32F30x_StdPeriph_Driver/src/stm32f30x_tim.c ****   assert_param(IS_TIM_OCPRELOAD_STATE(TIM_OCPreload));
1576:../Libraries/STM32F30x_StdPeriph_Driver/src/stm32f30x_tim.c **** 
1577:../Libraries/STM32F30x_StdPeriph_Driver/src/stm32f30x_tim.c ****   tmpccmr1 = TIMx->CCMR1;
 2509              		.loc 1 1577 0
 2510 0df4 019B     		ldr	r3, [sp, #4]
 2511 0df6 9B69     		ldr	r3, [r3, #24]
 2512 0df8 0393     		str	r3, [sp, #12]
1578:../Libraries/STM32F30x_StdPeriph_Driver/src/stm32f30x_tim.c **** 
1579:../Libraries/STM32F30x_StdPeriph_Driver/src/stm32f30x_tim.c ****   /* Reset the OC2PE Bit */
1580:../Libraries/STM32F30x_StdPeriph_Driver/src/stm32f30x_tim.c ****   tmpccmr1 &= (uint32_t)(~TIM_CCMR1_OC2PE);
 2513              		.loc 1 1580 0
 2514 0dfa 039B     		ldr	r3, [sp, #12]
 2515 0dfc 23F40063 		bic	r3, r3, #2048
 2516 0e00 0393     		str	r3, [sp, #12]
1581:../Libraries/STM32F30x_StdPeriph_Driver/src/stm32f30x_tim.c **** 
1582:../Libraries/STM32F30x_StdPeriph_Driver/src/stm32f30x_tim.c ****   /* Enable or Disable the Output Compare Preload feature */
1583:../Libraries/STM32F30x_StdPeriph_Driver/src/stm32f30x_tim.c ****   tmpccmr1 |= ((uint32_t)TIM_OCPreload << 8);
 2517              		.loc 1 1583 0
 2518 0e02 BDF80230 		ldrh	r3, [sp, #2]
 2519 0e06 4FEA0323 		lsl	r3, r3, #8
 2520 0e0a 039A     		ldr	r2, [sp, #12]
 2521 0e0c 1343     		orrs	r3, r3, r2
 2522 0e0e 0393     		str	r3, [sp, #12]
1584:../Libraries/STM32F30x_StdPeriph_Driver/src/stm32f30x_tim.c **** 
1585:../Libraries/STM32F30x_StdPeriph_Driver/src/stm32f30x_tim.c ****   /* Write to TIMx CCMR1 register */
1586:../Libraries/STM32F30x_StdPeriph_Driver/src/stm32f30x_tim.c ****   TIMx->CCMR1 = tmpccmr1;
 2523              		.loc 1 1586 0
 2524 0e10 019B     		ldr	r3, [sp, #4]
 2525 0e12 039A     		ldr	r2, [sp, #12]
 2526 0e14 9A61     		str	r2, [r3, #24]
1587:../Libraries/STM32F30x_StdPeriph_Driver/src/stm32f30x_tim.c **** }
 2527              		.loc 1 1587 0
 2528 0e16 04B0     		add	sp, sp, #16
 2529 0e18 7047     		bx	lr
 2530              		.cfi_endproc
 2531              	.LFE151:
 2533 0e1a 00BF     		.align	2
 2534              		.global	TIM_OC3PreloadConfig
 2535              		.thumb
 2536              		.thumb_func
 2538              	TIM_OC3PreloadConfig:
 2539              	.LFB152:
1588:../Libraries/STM32F30x_StdPeriph_Driver/src/stm32f30x_tim.c **** 
1589:../Libraries/STM32F30x_StdPeriph_Driver/src/stm32f30x_tim.c **** /**
1590:../Libraries/STM32F30x_StdPeriph_Driver/src/stm32f30x_tim.c ****   * @brief  Enables or disables the TIMx peripheral Preload register on CCR3.
1591:../Libraries/STM32F30x_StdPeriph_Driver/src/stm32f30x_tim.c ****   * @param  TIMx: where x can be  1, 2, 3, 4 or 8 to select the TIM peripheral.
1592:../Libraries/STM32F30x_StdPeriph_Driver/src/stm32f30x_tim.c ****   * @param  TIM_OCPreload: new state of the TIMx peripheral Preload register
1593:../Libraries/STM32F30x_StdPeriph_Driver/src/stm32f30x_tim.c ****   *          This parameter can be one of the following values:
1594:../Libraries/STM32F30x_StdPeriph_Driver/src/stm32f30x_tim.c ****   *            @arg TIM_OCPreload_Enable
1595:../Libraries/STM32F30x_StdPeriph_Driver/src/stm32f30x_tim.c ****   *            @arg TIM_OCPreload_Disable
1596:../Libraries/STM32F30x_StdPeriph_Driver/src/stm32f30x_tim.c ****   * @retval None
1597:../Libraries/STM32F30x_StdPeriph_Driver/src/stm32f30x_tim.c ****   */
1598:../Libraries/STM32F30x_StdPeriph_Driver/src/stm32f30x_tim.c **** void TIM_OC3PreloadConfig(TIM_TypeDef* TIMx, uint16_t TIM_OCPreload)
1599:../Libraries/STM32F30x_StdPeriph_Driver/src/stm32f30x_tim.c **** {
 2540              		.loc 1 1599 0
 2541              		.cfi_startproc
 2542              		@ args = 0, pretend = 0, frame = 16
 2543              		@ frame_needed = 0, uses_anonymous_args = 0
 2544              		@ link register save eliminated.
 2545 0e1c 84B0     		sub	sp, sp, #16
 2546              	.LCFI42:
 2547              		.cfi_def_cfa_offset 16
 2548 0e1e 0190     		str	r0, [sp, #4]
 2549 0e20 0B46     		mov	r3, r1
 2550 0e22 ADF80230 		strh	r3, [sp, #2]	@ movhi
1600:../Libraries/STM32F30x_StdPeriph_Driver/src/stm32f30x_tim.c ****   uint32_t tmpccmr2 = 0;
 2551              		.loc 1 1600 0
 2552 0e26 4FF00003 		mov	r3, #0
 2553 0e2a 0393     		str	r3, [sp, #12]
1601:../Libraries/STM32F30x_StdPeriph_Driver/src/stm32f30x_tim.c **** 
1602:../Libraries/STM32F30x_StdPeriph_Driver/src/stm32f30x_tim.c ****   /* Check the parameters */
1603:../Libraries/STM32F30x_StdPeriph_Driver/src/stm32f30x_tim.c ****   assert_param(IS_TIM_LIST3_PERIPH(TIMx));
1604:../Libraries/STM32F30x_StdPeriph_Driver/src/stm32f30x_tim.c ****   assert_param(IS_TIM_OCPRELOAD_STATE(TIM_OCPreload));
1605:../Libraries/STM32F30x_StdPeriph_Driver/src/stm32f30x_tim.c **** 
1606:../Libraries/STM32F30x_StdPeriph_Driver/src/stm32f30x_tim.c ****   tmpccmr2 = TIMx->CCMR2;
 2554              		.loc 1 1606 0
 2555 0e2c 019B     		ldr	r3, [sp, #4]
 2556 0e2e DB69     		ldr	r3, [r3, #28]
 2557 0e30 0393     		str	r3, [sp, #12]
1607:../Libraries/STM32F30x_StdPeriph_Driver/src/stm32f30x_tim.c **** 
1608:../Libraries/STM32F30x_StdPeriph_Driver/src/stm32f30x_tim.c ****   /* Reset the OC3PE Bit */
1609:../Libraries/STM32F30x_StdPeriph_Driver/src/stm32f30x_tim.c ****   tmpccmr2 &= (uint32_t)(~TIM_CCMR2_OC3PE);
 2558              		.loc 1 1609 0
 2559 0e32 039B     		ldr	r3, [sp, #12]
 2560 0e34 23F00803 		bic	r3, r3, #8
 2561 0e38 0393     		str	r3, [sp, #12]
1610:../Libraries/STM32F30x_StdPeriph_Driver/src/stm32f30x_tim.c **** 
1611:../Libraries/STM32F30x_StdPeriph_Driver/src/stm32f30x_tim.c ****   /* Enable or Disable the Output Compare Preload feature */
1612:../Libraries/STM32F30x_StdPeriph_Driver/src/stm32f30x_tim.c ****   tmpccmr2 |= TIM_OCPreload;
 2562              		.loc 1 1612 0
 2563 0e3a BDF80230 		ldrh	r3, [sp, #2]
 2564 0e3e 039A     		ldr	r2, [sp, #12]
 2565 0e40 1343     		orrs	r3, r3, r2
 2566 0e42 0393     		str	r3, [sp, #12]
1613:../Libraries/STM32F30x_StdPeriph_Driver/src/stm32f30x_tim.c **** 
1614:../Libraries/STM32F30x_StdPeriph_Driver/src/stm32f30x_tim.c ****   /* Write to TIMx CCMR2 register */
1615:../Libraries/STM32F30x_StdPeriph_Driver/src/stm32f30x_tim.c ****   TIMx->CCMR2 = tmpccmr2;
 2567              		.loc 1 1615 0
 2568 0e44 019B     		ldr	r3, [sp, #4]
 2569 0e46 039A     		ldr	r2, [sp, #12]
 2570 0e48 DA61     		str	r2, [r3, #28]
1616:../Libraries/STM32F30x_StdPeriph_Driver/src/stm32f30x_tim.c **** }
 2571              		.loc 1 1616 0
 2572 0e4a 04B0     		add	sp, sp, #16
 2573 0e4c 7047     		bx	lr
 2574              		.cfi_endproc
 2575              	.LFE152:
 2577 0e4e 00BF     		.align	2
 2578              		.global	TIM_OC4PreloadConfig
 2579              		.thumb
 2580              		.thumb_func
 2582              	TIM_OC4PreloadConfig:
 2583              	.LFB153:
1617:../Libraries/STM32F30x_StdPeriph_Driver/src/stm32f30x_tim.c **** 
1618:../Libraries/STM32F30x_StdPeriph_Driver/src/stm32f30x_tim.c **** /**
1619:../Libraries/STM32F30x_StdPeriph_Driver/src/stm32f30x_tim.c ****   * @brief  Enables or disables the TIMx peripheral Preload register on CCR4.
1620:../Libraries/STM32F30x_StdPeriph_Driver/src/stm32f30x_tim.c ****   * @param  TIMx: where x can be  1, 2, 3, 4 or 8 to select the TIM peripheral.
1621:../Libraries/STM32F30x_StdPeriph_Driver/src/stm32f30x_tim.c ****   * @param  TIM_OCPreload: new state of the TIMx peripheral Preload register
1622:../Libraries/STM32F30x_StdPeriph_Driver/src/stm32f30x_tim.c ****   *          This parameter can be one of the following values:
1623:../Libraries/STM32F30x_StdPeriph_Driver/src/stm32f30x_tim.c ****   *            @arg TIM_OCPreload_Enable
1624:../Libraries/STM32F30x_StdPeriph_Driver/src/stm32f30x_tim.c ****   *            @arg TIM_OCPreload_Disable
1625:../Libraries/STM32F30x_StdPeriph_Driver/src/stm32f30x_tim.c ****   * @retval None
1626:../Libraries/STM32F30x_StdPeriph_Driver/src/stm32f30x_tim.c ****   */
1627:../Libraries/STM32F30x_StdPeriph_Driver/src/stm32f30x_tim.c **** void TIM_OC4PreloadConfig(TIM_TypeDef* TIMx, uint16_t TIM_OCPreload)
1628:../Libraries/STM32F30x_StdPeriph_Driver/src/stm32f30x_tim.c **** {
 2584              		.loc 1 1628 0
 2585              		.cfi_startproc
 2586              		@ args = 0, pretend = 0, frame = 16
 2587              		@ frame_needed = 0, uses_anonymous_args = 0
 2588              		@ link register save eliminated.
 2589 0e50 84B0     		sub	sp, sp, #16
 2590              	.LCFI43:
 2591              		.cfi_def_cfa_offset 16
 2592 0e52 0190     		str	r0, [sp, #4]
 2593 0e54 0B46     		mov	r3, r1
 2594 0e56 ADF80230 		strh	r3, [sp, #2]	@ movhi
1629:../Libraries/STM32F30x_StdPeriph_Driver/src/stm32f30x_tim.c ****   uint32_t tmpccmr2 = 0;
 2595              		.loc 1 1629 0
 2596 0e5a 4FF00003 		mov	r3, #0
 2597 0e5e 0393     		str	r3, [sp, #12]
1630:../Libraries/STM32F30x_StdPeriph_Driver/src/stm32f30x_tim.c **** 
1631:../Libraries/STM32F30x_StdPeriph_Driver/src/stm32f30x_tim.c ****   /* Check the parameters */
1632:../Libraries/STM32F30x_StdPeriph_Driver/src/stm32f30x_tim.c ****   assert_param(IS_TIM_LIST3_PERIPH(TIMx));
1633:../Libraries/STM32F30x_StdPeriph_Driver/src/stm32f30x_tim.c ****   assert_param(IS_TIM_OCPRELOAD_STATE(TIM_OCPreload));
1634:../Libraries/STM32F30x_StdPeriph_Driver/src/stm32f30x_tim.c **** 
1635:../Libraries/STM32F30x_StdPeriph_Driver/src/stm32f30x_tim.c ****   tmpccmr2 = TIMx->CCMR2;
 2598              		.loc 1 1635 0
 2599 0e60 019B     		ldr	r3, [sp, #4]
 2600 0e62 DB69     		ldr	r3, [r3, #28]
 2601 0e64 0393     		str	r3, [sp, #12]
1636:../Libraries/STM32F30x_StdPeriph_Driver/src/stm32f30x_tim.c **** 
1637:../Libraries/STM32F30x_StdPeriph_Driver/src/stm32f30x_tim.c ****   /* Reset the OC4PE Bit */
1638:../Libraries/STM32F30x_StdPeriph_Driver/src/stm32f30x_tim.c ****   tmpccmr2 &= (uint32_t)(~TIM_CCMR2_OC4PE);
 2602              		.loc 1 1638 0
 2603 0e66 039B     		ldr	r3, [sp, #12]
 2604 0e68 23F40063 		bic	r3, r3, #2048
 2605 0e6c 0393     		str	r3, [sp, #12]
1639:../Libraries/STM32F30x_StdPeriph_Driver/src/stm32f30x_tim.c **** 
1640:../Libraries/STM32F30x_StdPeriph_Driver/src/stm32f30x_tim.c ****   /* Enable or Disable the Output Compare Preload feature */
1641:../Libraries/STM32F30x_StdPeriph_Driver/src/stm32f30x_tim.c ****   tmpccmr2 |= ((uint32_t)TIM_OCPreload << 8);
 2606              		.loc 1 1641 0
 2607 0e6e BDF80230 		ldrh	r3, [sp, #2]
 2608 0e72 4FEA0323 		lsl	r3, r3, #8
 2609 0e76 039A     		ldr	r2, [sp, #12]
 2610 0e78 1343     		orrs	r3, r3, r2
 2611 0e7a 0393     		str	r3, [sp, #12]
1642:../Libraries/STM32F30x_StdPeriph_Driver/src/stm32f30x_tim.c **** 
1643:../Libraries/STM32F30x_StdPeriph_Driver/src/stm32f30x_tim.c ****   /* Write to TIMx CCMR2 register */
1644:../Libraries/STM32F30x_StdPeriph_Driver/src/stm32f30x_tim.c ****   TIMx->CCMR2 = tmpccmr2;
 2612              		.loc 1 1644 0
 2613 0e7c 019B     		ldr	r3, [sp, #4]
 2614 0e7e 039A     		ldr	r2, [sp, #12]
 2615 0e80 DA61     		str	r2, [r3, #28]
1645:../Libraries/STM32F30x_StdPeriph_Driver/src/stm32f30x_tim.c **** }
 2616              		.loc 1 1645 0
 2617 0e82 04B0     		add	sp, sp, #16
 2618 0e84 7047     		bx	lr
 2619              		.cfi_endproc
 2620              	.LFE153:
 2622 0e86 00BF     		.align	2
 2623              		.global	TIM_OC5PreloadConfig
 2624              		.thumb
 2625              		.thumb_func
 2627              	TIM_OC5PreloadConfig:
 2628              	.LFB154:
1646:../Libraries/STM32F30x_StdPeriph_Driver/src/stm32f30x_tim.c **** 
1647:../Libraries/STM32F30x_StdPeriph_Driver/src/stm32f30x_tim.c **** /**
1648:../Libraries/STM32F30x_StdPeriph_Driver/src/stm32f30x_tim.c ****   * @brief  Enables or disables the TIMx peripheral Preload register on CCR5.
1649:../Libraries/STM32F30x_StdPeriph_Driver/src/stm32f30x_tim.c ****   * @param  TIMx: where x can be  1 or 8 to select the TIM peripheral.
1650:../Libraries/STM32F30x_StdPeriph_Driver/src/stm32f30x_tim.c ****   * @param  TIM_OCPreload: new state of the TIMx peripheral Preload register
1651:../Libraries/STM32F30x_StdPeriph_Driver/src/stm32f30x_tim.c ****   *          This parameter can be one of the following values:
1652:../Libraries/STM32F30x_StdPeriph_Driver/src/stm32f30x_tim.c ****   *            @arg TIM_OCPreload_Enable
1653:../Libraries/STM32F30x_StdPeriph_Driver/src/stm32f30x_tim.c ****   *            @arg TIM_OCPreload_Disable
1654:../Libraries/STM32F30x_StdPeriph_Driver/src/stm32f30x_tim.c ****   * @retval None
1655:../Libraries/STM32F30x_StdPeriph_Driver/src/stm32f30x_tim.c ****   */
1656:../Libraries/STM32F30x_StdPeriph_Driver/src/stm32f30x_tim.c **** void TIM_OC5PreloadConfig(TIM_TypeDef* TIMx, uint16_t TIM_OCPreload)
1657:../Libraries/STM32F30x_StdPeriph_Driver/src/stm32f30x_tim.c **** {
 2629              		.loc 1 1657 0
 2630              		.cfi_startproc
 2631              		@ args = 0, pretend = 0, frame = 16
 2632              		@ frame_needed = 0, uses_anonymous_args = 0
 2633              		@ link register save eliminated.
 2634 0e88 84B0     		sub	sp, sp, #16
 2635              	.LCFI44:
 2636              		.cfi_def_cfa_offset 16
 2637 0e8a 0190     		str	r0, [sp, #4]
 2638 0e8c 0B46     		mov	r3, r1
 2639 0e8e ADF80230 		strh	r3, [sp, #2]	@ movhi
1658:../Libraries/STM32F30x_StdPeriph_Driver/src/stm32f30x_tim.c ****   uint32_t tmpccmr3 = 0;
 2640              		.loc 1 1658 0
 2641 0e92 4FF00003 		mov	r3, #0
 2642 0e96 0393     		str	r3, [sp, #12]
1659:../Libraries/STM32F30x_StdPeriph_Driver/src/stm32f30x_tim.c **** 
1660:../Libraries/STM32F30x_StdPeriph_Driver/src/stm32f30x_tim.c ****   /* Check the parameters */
1661:../Libraries/STM32F30x_StdPeriph_Driver/src/stm32f30x_tim.c ****   assert_param(IS_TIM_LIST4_PERIPH(TIMx));
1662:../Libraries/STM32F30x_StdPeriph_Driver/src/stm32f30x_tim.c ****   assert_param(IS_TIM_OCPRELOAD_STATE(TIM_OCPreload));
1663:../Libraries/STM32F30x_StdPeriph_Driver/src/stm32f30x_tim.c **** 
1664:../Libraries/STM32F30x_StdPeriph_Driver/src/stm32f30x_tim.c ****   tmpccmr3 = TIMx->CCMR3;
 2643              		.loc 1 1664 0
 2644 0e98 019B     		ldr	r3, [sp, #4]
 2645 0e9a 5B6D     		ldr	r3, [r3, #84]
 2646 0e9c 0393     		str	r3, [sp, #12]
1665:../Libraries/STM32F30x_StdPeriph_Driver/src/stm32f30x_tim.c **** 
1666:../Libraries/STM32F30x_StdPeriph_Driver/src/stm32f30x_tim.c ****   /* Reset the OC5PE Bit */
1667:../Libraries/STM32F30x_StdPeriph_Driver/src/stm32f30x_tim.c ****   tmpccmr3 &= (uint32_t)(~TIM_CCMR3_OC5PE);
 2647              		.loc 1 1667 0
 2648 0e9e 039B     		ldr	r3, [sp, #12]
 2649 0ea0 23F00803 		bic	r3, r3, #8
 2650 0ea4 0393     		str	r3, [sp, #12]
1668:../Libraries/STM32F30x_StdPeriph_Driver/src/stm32f30x_tim.c **** 
1669:../Libraries/STM32F30x_StdPeriph_Driver/src/stm32f30x_tim.c ****   /* Enable or Disable the Output Compare Preload feature */
1670:../Libraries/STM32F30x_StdPeriph_Driver/src/stm32f30x_tim.c ****   tmpccmr3 |= (uint32_t)(TIM_OCPreload);
 2651              		.loc 1 1670 0
 2652 0ea6 BDF80230 		ldrh	r3, [sp, #2]
 2653 0eaa 039A     		ldr	r2, [sp, #12]
 2654 0eac 1343     		orrs	r3, r3, r2
 2655 0eae 0393     		str	r3, [sp, #12]
1671:../Libraries/STM32F30x_StdPeriph_Driver/src/stm32f30x_tim.c **** 
1672:../Libraries/STM32F30x_StdPeriph_Driver/src/stm32f30x_tim.c ****   /* Write to TIMx CCMR3 register */
1673:../Libraries/STM32F30x_StdPeriph_Driver/src/stm32f30x_tim.c ****   TIMx->CCMR3 = tmpccmr3;
 2656              		.loc 1 1673 0
 2657 0eb0 019B     		ldr	r3, [sp, #4]
 2658 0eb2 039A     		ldr	r2, [sp, #12]
 2659 0eb4 5A65     		str	r2, [r3, #84]
1674:../Libraries/STM32F30x_StdPeriph_Driver/src/stm32f30x_tim.c **** }
 2660              		.loc 1 1674 0
 2661 0eb6 04B0     		add	sp, sp, #16
 2662 0eb8 7047     		bx	lr
 2663              		.cfi_endproc
 2664              	.LFE154:
 2666 0eba 00BF     		.align	2
 2667              		.global	TIM_OC6PreloadConfig
 2668              		.thumb
 2669              		.thumb_func
 2671              	TIM_OC6PreloadConfig:
 2672              	.LFB155:
1675:../Libraries/STM32F30x_StdPeriph_Driver/src/stm32f30x_tim.c **** 
1676:../Libraries/STM32F30x_StdPeriph_Driver/src/stm32f30x_tim.c **** /**
1677:../Libraries/STM32F30x_StdPeriph_Driver/src/stm32f30x_tim.c ****   * @brief  Enables or disables the TIMx peripheral Preload register on CCR6.
1678:../Libraries/STM32F30x_StdPeriph_Driver/src/stm32f30x_tim.c ****   * @param  TIMx: where x can be  1 or 8 to select the TIM peripheral.
1679:../Libraries/STM32F30x_StdPeriph_Driver/src/stm32f30x_tim.c ****   * @param  TIM_OCPreload: new state of the TIMx peripheral Preload register
1680:../Libraries/STM32F30x_StdPeriph_Driver/src/stm32f30x_tim.c ****   *          This parameter can be one of the following values:
1681:../Libraries/STM32F30x_StdPeriph_Driver/src/stm32f30x_tim.c ****   *            @arg TIM_OCPreload_Enable
1682:../Libraries/STM32F30x_StdPeriph_Driver/src/stm32f30x_tim.c ****   *            @arg TIM_OCPreload_Disable
1683:../Libraries/STM32F30x_StdPeriph_Driver/src/stm32f30x_tim.c ****   * @retval None
1684:../Libraries/STM32F30x_StdPeriph_Driver/src/stm32f30x_tim.c ****   */
1685:../Libraries/STM32F30x_StdPeriph_Driver/src/stm32f30x_tim.c **** void TIM_OC6PreloadConfig(TIM_TypeDef* TIMx, uint16_t TIM_OCPreload)
1686:../Libraries/STM32F30x_StdPeriph_Driver/src/stm32f30x_tim.c **** {
 2673              		.loc 1 1686 0
 2674              		.cfi_startproc
 2675              		@ args = 0, pretend = 0, frame = 16
 2676              		@ frame_needed = 0, uses_anonymous_args = 0
 2677              		@ link register save eliminated.
 2678 0ebc 84B0     		sub	sp, sp, #16
 2679              	.LCFI45:
 2680              		.cfi_def_cfa_offset 16
 2681 0ebe 0190     		str	r0, [sp, #4]
 2682 0ec0 0B46     		mov	r3, r1
 2683 0ec2 ADF80230 		strh	r3, [sp, #2]	@ movhi
1687:../Libraries/STM32F30x_StdPeriph_Driver/src/stm32f30x_tim.c ****   uint32_t tmpccmr3 = 0;
 2684              		.loc 1 1687 0
 2685 0ec6 4FF00003 		mov	r3, #0
 2686 0eca 0393     		str	r3, [sp, #12]
1688:../Libraries/STM32F30x_StdPeriph_Driver/src/stm32f30x_tim.c **** 
1689:../Libraries/STM32F30x_StdPeriph_Driver/src/stm32f30x_tim.c ****   /* Check the parameters */
1690:../Libraries/STM32F30x_StdPeriph_Driver/src/stm32f30x_tim.c ****   assert_param(IS_TIM_LIST4_PERIPH(TIMx));
1691:../Libraries/STM32F30x_StdPeriph_Driver/src/stm32f30x_tim.c ****   assert_param(IS_TIM_OCPRELOAD_STATE(TIM_OCPreload));
1692:../Libraries/STM32F30x_StdPeriph_Driver/src/stm32f30x_tim.c **** 
1693:../Libraries/STM32F30x_StdPeriph_Driver/src/stm32f30x_tim.c ****   tmpccmr3 = TIMx->CCMR3;
 2687              		.loc 1 1693 0
 2688 0ecc 019B     		ldr	r3, [sp, #4]
 2689 0ece 5B6D     		ldr	r3, [r3, #84]
 2690 0ed0 0393     		str	r3, [sp, #12]
1694:../Libraries/STM32F30x_StdPeriph_Driver/src/stm32f30x_tim.c **** 
1695:../Libraries/STM32F30x_StdPeriph_Driver/src/stm32f30x_tim.c ****   /* Reset the OC5PE Bit */
1696:../Libraries/STM32F30x_StdPeriph_Driver/src/stm32f30x_tim.c ****   tmpccmr3 &= (uint32_t)(~TIM_CCMR3_OC6PE);
 2691              		.loc 1 1696 0
 2692 0ed2 039B     		ldr	r3, [sp, #12]
 2693 0ed4 23F40063 		bic	r3, r3, #2048
 2694 0ed8 0393     		str	r3, [sp, #12]
1697:../Libraries/STM32F30x_StdPeriph_Driver/src/stm32f30x_tim.c **** 
1698:../Libraries/STM32F30x_StdPeriph_Driver/src/stm32f30x_tim.c ****   /* Enable or Disable the Output Compare Preload feature */
1699:../Libraries/STM32F30x_StdPeriph_Driver/src/stm32f30x_tim.c ****   tmpccmr3 |= ((uint32_t)TIM_OCPreload << 8);
 2695              		.loc 1 1699 0
 2696 0eda BDF80230 		ldrh	r3, [sp, #2]
 2697 0ede 4FEA0323 		lsl	r3, r3, #8
 2698 0ee2 039A     		ldr	r2, [sp, #12]
 2699 0ee4 1343     		orrs	r3, r3, r2
 2700 0ee6 0393     		str	r3, [sp, #12]
1700:../Libraries/STM32F30x_StdPeriph_Driver/src/stm32f30x_tim.c **** 
1701:../Libraries/STM32F30x_StdPeriph_Driver/src/stm32f30x_tim.c ****   /* Write to TIMx CCMR3 register */
1702:../Libraries/STM32F30x_StdPeriph_Driver/src/stm32f30x_tim.c ****   TIMx->CCMR3 = tmpccmr3;
 2701              		.loc 1 1702 0
 2702 0ee8 019B     		ldr	r3, [sp, #4]
 2703 0eea 039A     		ldr	r2, [sp, #12]
 2704 0eec 5A65     		str	r2, [r3, #84]
1703:../Libraries/STM32F30x_StdPeriph_Driver/src/stm32f30x_tim.c **** }
 2705              		.loc 1 1703 0
 2706 0eee 04B0     		add	sp, sp, #16
 2707 0ef0 7047     		bx	lr
 2708              		.cfi_endproc
 2709              	.LFE155:
 2711 0ef2 00BF     		.align	2
 2712              		.global	TIM_OC1FastConfig
 2713              		.thumb
 2714              		.thumb_func
 2716              	TIM_OC1FastConfig:
 2717              	.LFB156:
1704:../Libraries/STM32F30x_StdPeriph_Driver/src/stm32f30x_tim.c **** 
1705:../Libraries/STM32F30x_StdPeriph_Driver/src/stm32f30x_tim.c **** /**
1706:../Libraries/STM32F30x_StdPeriph_Driver/src/stm32f30x_tim.c ****   * @brief  Configures the TIMx Output Compare 1 Fast feature.
1707:../Libraries/STM32F30x_StdPeriph_Driver/src/stm32f30x_tim.c ****   * @param  TIMx: where x can be 1, 2, 3, 4, 8, 15, 16 or 17 to select the TIM peripheral.
1708:../Libraries/STM32F30x_StdPeriph_Driver/src/stm32f30x_tim.c ****   * @param  TIM_OCFast: new state of the Output Compare Fast Enable Bit.
1709:../Libraries/STM32F30x_StdPeriph_Driver/src/stm32f30x_tim.c ****   *          This parameter can be one of the following values:
1710:../Libraries/STM32F30x_StdPeriph_Driver/src/stm32f30x_tim.c ****   *            @arg TIM_OCFast_Enable: TIM output compare fast enable
1711:../Libraries/STM32F30x_StdPeriph_Driver/src/stm32f30x_tim.c ****   *            @arg TIM_OCFast_Disable: TIM output compare fast disable
1712:../Libraries/STM32F30x_StdPeriph_Driver/src/stm32f30x_tim.c ****   * @retval None
1713:../Libraries/STM32F30x_StdPeriph_Driver/src/stm32f30x_tim.c ****   */
1714:../Libraries/STM32F30x_StdPeriph_Driver/src/stm32f30x_tim.c **** void TIM_OC1FastConfig(TIM_TypeDef* TIMx, uint16_t TIM_OCFast)
1715:../Libraries/STM32F30x_StdPeriph_Driver/src/stm32f30x_tim.c **** {
 2718              		.loc 1 1715 0
 2719              		.cfi_startproc
 2720              		@ args = 0, pretend = 0, frame = 16
 2721              		@ frame_needed = 0, uses_anonymous_args = 0
 2722              		@ link register save eliminated.
 2723 0ef4 84B0     		sub	sp, sp, #16
 2724              	.LCFI46:
 2725              		.cfi_def_cfa_offset 16
 2726 0ef6 0190     		str	r0, [sp, #4]
 2727 0ef8 0B46     		mov	r3, r1
 2728 0efa ADF80230 		strh	r3, [sp, #2]	@ movhi
1716:../Libraries/STM32F30x_StdPeriph_Driver/src/stm32f30x_tim.c ****   uint32_t tmpccmr1 = 0;
 2729              		.loc 1 1716 0
 2730 0efe 4FF00003 		mov	r3, #0
 2731 0f02 0393     		str	r3, [sp, #12]
1717:../Libraries/STM32F30x_StdPeriph_Driver/src/stm32f30x_tim.c **** 
1718:../Libraries/STM32F30x_StdPeriph_Driver/src/stm32f30x_tim.c ****   /* Check the parameters */
1719:../Libraries/STM32F30x_StdPeriph_Driver/src/stm32f30x_tim.c ****   assert_param(IS_TIM_LIST1_PERIPH(TIMx));
1720:../Libraries/STM32F30x_StdPeriph_Driver/src/stm32f30x_tim.c ****   assert_param(IS_TIM_OCFAST_STATE(TIM_OCFast));
1721:../Libraries/STM32F30x_StdPeriph_Driver/src/stm32f30x_tim.c **** 
1722:../Libraries/STM32F30x_StdPeriph_Driver/src/stm32f30x_tim.c ****   /* Get the TIMx CCMR1 register value */
1723:../Libraries/STM32F30x_StdPeriph_Driver/src/stm32f30x_tim.c ****   tmpccmr1 = TIMx->CCMR1;
 2732              		.loc 1 1723 0
 2733 0f04 019B     		ldr	r3, [sp, #4]
 2734 0f06 9B69     		ldr	r3, [r3, #24]
 2735 0f08 0393     		str	r3, [sp, #12]
1724:../Libraries/STM32F30x_StdPeriph_Driver/src/stm32f30x_tim.c **** 
1725:../Libraries/STM32F30x_StdPeriph_Driver/src/stm32f30x_tim.c ****   /* Reset the OC1FE Bit */
1726:../Libraries/STM32F30x_StdPeriph_Driver/src/stm32f30x_tim.c ****   tmpccmr1 &= (uint32_t)~TIM_CCMR1_OC1FE;
 2736              		.loc 1 1726 0
 2737 0f0a 039B     		ldr	r3, [sp, #12]
 2738 0f0c 23F00403 		bic	r3, r3, #4
 2739 0f10 0393     		str	r3, [sp, #12]
1727:../Libraries/STM32F30x_StdPeriph_Driver/src/stm32f30x_tim.c **** 
1728:../Libraries/STM32F30x_StdPeriph_Driver/src/stm32f30x_tim.c ****   /* Enable or Disable the Output Compare Fast Bit */
1729:../Libraries/STM32F30x_StdPeriph_Driver/src/stm32f30x_tim.c ****   tmpccmr1 |= TIM_OCFast;
 2740              		.loc 1 1729 0
 2741 0f12 BDF80230 		ldrh	r3, [sp, #2]
 2742 0f16 039A     		ldr	r2, [sp, #12]
 2743 0f18 1343     		orrs	r3, r3, r2
 2744 0f1a 0393     		str	r3, [sp, #12]
1730:../Libraries/STM32F30x_StdPeriph_Driver/src/stm32f30x_tim.c **** 
1731:../Libraries/STM32F30x_StdPeriph_Driver/src/stm32f30x_tim.c ****   /* Write to TIMx CCMR1 */
1732:../Libraries/STM32F30x_StdPeriph_Driver/src/stm32f30x_tim.c ****   TIMx->CCMR1 = tmpccmr1;
 2745              		.loc 1 1732 0
 2746 0f1c 019B     		ldr	r3, [sp, #4]
 2747 0f1e 039A     		ldr	r2, [sp, #12]
 2748 0f20 9A61     		str	r2, [r3, #24]
1733:../Libraries/STM32F30x_StdPeriph_Driver/src/stm32f30x_tim.c **** }
 2749              		.loc 1 1733 0
 2750 0f22 04B0     		add	sp, sp, #16
 2751 0f24 7047     		bx	lr
 2752              		.cfi_endproc
 2753              	.LFE156:
 2755 0f26 00BF     		.align	2
 2756              		.global	TIM_OC2FastConfig
 2757              		.thumb
 2758              		.thumb_func
 2760              	TIM_OC2FastConfig:
 2761              	.LFB157:
1734:../Libraries/STM32F30x_StdPeriph_Driver/src/stm32f30x_tim.c **** 
1735:../Libraries/STM32F30x_StdPeriph_Driver/src/stm32f30x_tim.c **** /**
1736:../Libraries/STM32F30x_StdPeriph_Driver/src/stm32f30x_tim.c ****   * @brief  Configures the TIMx Output Compare 2 Fast feature.
1737:../Libraries/STM32F30x_StdPeriph_Driver/src/stm32f30x_tim.c ****   * @param  TIMx: where x can be 1, 2, 3, 4, 8 or 15 to select the TIM 
1738:../Libraries/STM32F30x_StdPeriph_Driver/src/stm32f30x_tim.c ****   *         peripheral.
1739:../Libraries/STM32F30x_StdPeriph_Driver/src/stm32f30x_tim.c ****   * @param  TIM_OCFast: new state of the Output Compare Fast Enable Bit.
1740:../Libraries/STM32F30x_StdPeriph_Driver/src/stm32f30x_tim.c ****   *          This parameter can be one of the following values:
1741:../Libraries/STM32F30x_StdPeriph_Driver/src/stm32f30x_tim.c ****   *            @arg TIM_OCFast_Enable: TIM output compare fast enable
1742:../Libraries/STM32F30x_StdPeriph_Driver/src/stm32f30x_tim.c ****   *            @arg TIM_OCFast_Disable: TIM output compare fast disable
1743:../Libraries/STM32F30x_StdPeriph_Driver/src/stm32f30x_tim.c ****   * @retval None
1744:../Libraries/STM32F30x_StdPeriph_Driver/src/stm32f30x_tim.c ****   */
1745:../Libraries/STM32F30x_StdPeriph_Driver/src/stm32f30x_tim.c **** void TIM_OC2FastConfig(TIM_TypeDef* TIMx, uint16_t TIM_OCFast)
1746:../Libraries/STM32F30x_StdPeriph_Driver/src/stm32f30x_tim.c **** {
 2762              		.loc 1 1746 0
 2763              		.cfi_startproc
 2764              		@ args = 0, pretend = 0, frame = 16
 2765              		@ frame_needed = 0, uses_anonymous_args = 0
 2766              		@ link register save eliminated.
 2767 0f28 84B0     		sub	sp, sp, #16
 2768              	.LCFI47:
 2769              		.cfi_def_cfa_offset 16
 2770 0f2a 0190     		str	r0, [sp, #4]
 2771 0f2c 0B46     		mov	r3, r1
 2772 0f2e ADF80230 		strh	r3, [sp, #2]	@ movhi
1747:../Libraries/STM32F30x_StdPeriph_Driver/src/stm32f30x_tim.c ****   uint32_t tmpccmr1 = 0;
 2773              		.loc 1 1747 0
 2774 0f32 4FF00003 		mov	r3, #0
 2775 0f36 0393     		str	r3, [sp, #12]
1748:../Libraries/STM32F30x_StdPeriph_Driver/src/stm32f30x_tim.c **** 
1749:../Libraries/STM32F30x_StdPeriph_Driver/src/stm32f30x_tim.c ****   /* Check the parameters */
1750:../Libraries/STM32F30x_StdPeriph_Driver/src/stm32f30x_tim.c ****   assert_param(IS_TIM_LIST2_PERIPH(TIMx));
1751:../Libraries/STM32F30x_StdPeriph_Driver/src/stm32f30x_tim.c ****   assert_param(IS_TIM_OCFAST_STATE(TIM_OCFast));
1752:../Libraries/STM32F30x_StdPeriph_Driver/src/stm32f30x_tim.c **** 
1753:../Libraries/STM32F30x_StdPeriph_Driver/src/stm32f30x_tim.c ****   /* Get the TIMx CCMR1 register value */
1754:../Libraries/STM32F30x_StdPeriph_Driver/src/stm32f30x_tim.c ****   tmpccmr1 = TIMx->CCMR1;
 2776              		.loc 1 1754 0
 2777 0f38 019B     		ldr	r3, [sp, #4]
 2778 0f3a 9B69     		ldr	r3, [r3, #24]
 2779 0f3c 0393     		str	r3, [sp, #12]
1755:../Libraries/STM32F30x_StdPeriph_Driver/src/stm32f30x_tim.c **** 
1756:../Libraries/STM32F30x_StdPeriph_Driver/src/stm32f30x_tim.c ****   /* Reset the OC2FE Bit */
1757:../Libraries/STM32F30x_StdPeriph_Driver/src/stm32f30x_tim.c ****   tmpccmr1 &= (uint32_t)(~TIM_CCMR1_OC2FE);
 2780              		.loc 1 1757 0
 2781 0f3e 039B     		ldr	r3, [sp, #12]
 2782 0f40 23F48063 		bic	r3, r3, #1024
 2783 0f44 0393     		str	r3, [sp, #12]
1758:../Libraries/STM32F30x_StdPeriph_Driver/src/stm32f30x_tim.c **** 
1759:../Libraries/STM32F30x_StdPeriph_Driver/src/stm32f30x_tim.c ****   /* Enable or Disable the Output Compare Fast Bit */
1760:../Libraries/STM32F30x_StdPeriph_Driver/src/stm32f30x_tim.c ****   tmpccmr1 |= ((uint32_t)TIM_OCFast << 8);
 2784              		.loc 1 1760 0
 2785 0f46 BDF80230 		ldrh	r3, [sp, #2]
 2786 0f4a 4FEA0323 		lsl	r3, r3, #8
 2787 0f4e 039A     		ldr	r2, [sp, #12]
 2788 0f50 1343     		orrs	r3, r3, r2
 2789 0f52 0393     		str	r3, [sp, #12]
1761:../Libraries/STM32F30x_StdPeriph_Driver/src/stm32f30x_tim.c **** 
1762:../Libraries/STM32F30x_StdPeriph_Driver/src/stm32f30x_tim.c ****   /* Write to TIMx CCMR1 */
1763:../Libraries/STM32F30x_StdPeriph_Driver/src/stm32f30x_tim.c ****   TIMx->CCMR1 = tmpccmr1;
 2790              		.loc 1 1763 0
 2791 0f54 019B     		ldr	r3, [sp, #4]
 2792 0f56 039A     		ldr	r2, [sp, #12]
 2793 0f58 9A61     		str	r2, [r3, #24]
1764:../Libraries/STM32F30x_StdPeriph_Driver/src/stm32f30x_tim.c **** }
 2794              		.loc 1 1764 0
 2795 0f5a 04B0     		add	sp, sp, #16
 2796 0f5c 7047     		bx	lr
 2797              		.cfi_endproc
 2798              	.LFE157:
 2800 0f5e 00BF     		.align	2
 2801              		.global	TIM_OC3FastConfig
 2802              		.thumb
 2803              		.thumb_func
 2805              	TIM_OC3FastConfig:
 2806              	.LFB158:
1765:../Libraries/STM32F30x_StdPeriph_Driver/src/stm32f30x_tim.c **** 
1766:../Libraries/STM32F30x_StdPeriph_Driver/src/stm32f30x_tim.c **** /**
1767:../Libraries/STM32F30x_StdPeriph_Driver/src/stm32f30x_tim.c ****   * @brief  Configures the TIMx Output Compare 3 Fast feature.
1768:../Libraries/STM32F30x_StdPeriph_Driver/src/stm32f30x_tim.c ****   * @param  TIMx: where x can be  1, 2, 3, 4 or 8 to select the TIM peripheral.
1769:../Libraries/STM32F30x_StdPeriph_Driver/src/stm32f30x_tim.c ****   * @param  TIM_OCFast: new state of the Output Compare Fast Enable Bit.
1770:../Libraries/STM32F30x_StdPeriph_Driver/src/stm32f30x_tim.c ****   *          This parameter can be one of the following values:
1771:../Libraries/STM32F30x_StdPeriph_Driver/src/stm32f30x_tim.c ****   *            @arg TIM_OCFast_Enable: TIM output compare fast enable
1772:../Libraries/STM32F30x_StdPeriph_Driver/src/stm32f30x_tim.c ****   *            @arg TIM_OCFast_Disable: TIM output compare fast disable
1773:../Libraries/STM32F30x_StdPeriph_Driver/src/stm32f30x_tim.c ****   * @retval None
1774:../Libraries/STM32F30x_StdPeriph_Driver/src/stm32f30x_tim.c ****   */
1775:../Libraries/STM32F30x_StdPeriph_Driver/src/stm32f30x_tim.c **** void TIM_OC3FastConfig(TIM_TypeDef* TIMx, uint16_t TIM_OCFast)
1776:../Libraries/STM32F30x_StdPeriph_Driver/src/stm32f30x_tim.c **** {
 2807              		.loc 1 1776 0
 2808              		.cfi_startproc
 2809              		@ args = 0, pretend = 0, frame = 16
 2810              		@ frame_needed = 0, uses_anonymous_args = 0
 2811              		@ link register save eliminated.
 2812 0f60 84B0     		sub	sp, sp, #16
 2813              	.LCFI48:
 2814              		.cfi_def_cfa_offset 16
 2815 0f62 0190     		str	r0, [sp, #4]
 2816 0f64 0B46     		mov	r3, r1
 2817 0f66 ADF80230 		strh	r3, [sp, #2]	@ movhi
1777:../Libraries/STM32F30x_StdPeriph_Driver/src/stm32f30x_tim.c ****   uint32_t tmpccmr2 = 0;
 2818              		.loc 1 1777 0
 2819 0f6a 4FF00003 		mov	r3, #0
 2820 0f6e 0393     		str	r3, [sp, #12]
1778:../Libraries/STM32F30x_StdPeriph_Driver/src/stm32f30x_tim.c ****   
1779:../Libraries/STM32F30x_StdPeriph_Driver/src/stm32f30x_tim.c ****   /* Check the parameters */
1780:../Libraries/STM32F30x_StdPeriph_Driver/src/stm32f30x_tim.c ****   assert_param(IS_TIM_LIST3_PERIPH(TIMx));
1781:../Libraries/STM32F30x_StdPeriph_Driver/src/stm32f30x_tim.c ****   assert_param(IS_TIM_OCFAST_STATE(TIM_OCFast));
1782:../Libraries/STM32F30x_StdPeriph_Driver/src/stm32f30x_tim.c **** 
1783:../Libraries/STM32F30x_StdPeriph_Driver/src/stm32f30x_tim.c ****   /* Get the TIMx CCMR2 register value */
1784:../Libraries/STM32F30x_StdPeriph_Driver/src/stm32f30x_tim.c ****   tmpccmr2 = TIMx->CCMR2;
 2821              		.loc 1 1784 0
 2822 0f70 019B     		ldr	r3, [sp, #4]
 2823 0f72 DB69     		ldr	r3, [r3, #28]
 2824 0f74 0393     		str	r3, [sp, #12]
1785:../Libraries/STM32F30x_StdPeriph_Driver/src/stm32f30x_tim.c **** 
1786:../Libraries/STM32F30x_StdPeriph_Driver/src/stm32f30x_tim.c ****   /* Reset the OC3FE Bit */
1787:../Libraries/STM32F30x_StdPeriph_Driver/src/stm32f30x_tim.c ****   tmpccmr2 &= (uint32_t)~TIM_CCMR2_OC3FE;
 2825              		.loc 1 1787 0
 2826 0f76 039B     		ldr	r3, [sp, #12]
 2827 0f78 23F00403 		bic	r3, r3, #4
 2828 0f7c 0393     		str	r3, [sp, #12]
1788:../Libraries/STM32F30x_StdPeriph_Driver/src/stm32f30x_tim.c **** 
1789:../Libraries/STM32F30x_StdPeriph_Driver/src/stm32f30x_tim.c ****   /* Enable or Disable the Output Compare Fast Bit */
1790:../Libraries/STM32F30x_StdPeriph_Driver/src/stm32f30x_tim.c ****   tmpccmr2 |= TIM_OCFast;
 2829              		.loc 1 1790 0
 2830 0f7e BDF80230 		ldrh	r3, [sp, #2]
 2831 0f82 039A     		ldr	r2, [sp, #12]
 2832 0f84 1343     		orrs	r3, r3, r2
 2833 0f86 0393     		str	r3, [sp, #12]
1791:../Libraries/STM32F30x_StdPeriph_Driver/src/stm32f30x_tim.c **** 
1792:../Libraries/STM32F30x_StdPeriph_Driver/src/stm32f30x_tim.c ****   /* Write to TIMx CCMR2 */
1793:../Libraries/STM32F30x_StdPeriph_Driver/src/stm32f30x_tim.c ****   TIMx->CCMR2 = tmpccmr2;
 2834              		.loc 1 1793 0
 2835 0f88 019B     		ldr	r3, [sp, #4]
 2836 0f8a 039A     		ldr	r2, [sp, #12]
 2837 0f8c DA61     		str	r2, [r3, #28]
1794:../Libraries/STM32F30x_StdPeriph_Driver/src/stm32f30x_tim.c **** }
 2838              		.loc 1 1794 0
 2839 0f8e 04B0     		add	sp, sp, #16
 2840 0f90 7047     		bx	lr
 2841              		.cfi_endproc
 2842              	.LFE158:
 2844 0f92 00BF     		.align	2
 2845              		.global	TIM_OC4FastConfig
 2846              		.thumb
 2847              		.thumb_func
 2849              	TIM_OC4FastConfig:
 2850              	.LFB159:
1795:../Libraries/STM32F30x_StdPeriph_Driver/src/stm32f30x_tim.c **** 
1796:../Libraries/STM32F30x_StdPeriph_Driver/src/stm32f30x_tim.c **** /**
1797:../Libraries/STM32F30x_StdPeriph_Driver/src/stm32f30x_tim.c ****   * @brief  Configures the TIMx Output Compare 4 Fast feature.
1798:../Libraries/STM32F30x_StdPeriph_Driver/src/stm32f30x_tim.c ****   * @param  TIMx: where x can be  1, 2, 3, 4 or 8 to select the TIM peripheral.
1799:../Libraries/STM32F30x_StdPeriph_Driver/src/stm32f30x_tim.c ****   * @param  TIM_OCFast: new state of the Output Compare Fast Enable Bit.
1800:../Libraries/STM32F30x_StdPeriph_Driver/src/stm32f30x_tim.c ****   *          This parameter can be one of the following values:
1801:../Libraries/STM32F30x_StdPeriph_Driver/src/stm32f30x_tim.c ****   *            @arg TIM_OCFast_Enable: TIM output compare fast enable
1802:../Libraries/STM32F30x_StdPeriph_Driver/src/stm32f30x_tim.c ****   *            @arg TIM_OCFast_Disable: TIM output compare fast disable
1803:../Libraries/STM32F30x_StdPeriph_Driver/src/stm32f30x_tim.c ****   * @retval None
1804:../Libraries/STM32F30x_StdPeriph_Driver/src/stm32f30x_tim.c ****   */
1805:../Libraries/STM32F30x_StdPeriph_Driver/src/stm32f30x_tim.c **** void TIM_OC4FastConfig(TIM_TypeDef* TIMx, uint16_t TIM_OCFast)
1806:../Libraries/STM32F30x_StdPeriph_Driver/src/stm32f30x_tim.c **** {
 2851              		.loc 1 1806 0
 2852              		.cfi_startproc
 2853              		@ args = 0, pretend = 0, frame = 16
 2854              		@ frame_needed = 0, uses_anonymous_args = 0
 2855              		@ link register save eliminated.
 2856 0f94 84B0     		sub	sp, sp, #16
 2857              	.LCFI49:
 2858              		.cfi_def_cfa_offset 16
 2859 0f96 0190     		str	r0, [sp, #4]
 2860 0f98 0B46     		mov	r3, r1
 2861 0f9a ADF80230 		strh	r3, [sp, #2]	@ movhi
1807:../Libraries/STM32F30x_StdPeriph_Driver/src/stm32f30x_tim.c ****   uint32_t tmpccmr2 = 0;
 2862              		.loc 1 1807 0
 2863 0f9e 4FF00003 		mov	r3, #0
 2864 0fa2 0393     		str	r3, [sp, #12]
1808:../Libraries/STM32F30x_StdPeriph_Driver/src/stm32f30x_tim.c **** 
1809:../Libraries/STM32F30x_StdPeriph_Driver/src/stm32f30x_tim.c ****   /* Check the parameters */
1810:../Libraries/STM32F30x_StdPeriph_Driver/src/stm32f30x_tim.c ****   assert_param(IS_TIM_LIST3_PERIPH(TIMx));
1811:../Libraries/STM32F30x_StdPeriph_Driver/src/stm32f30x_tim.c ****   assert_param(IS_TIM_OCFAST_STATE(TIM_OCFast));
1812:../Libraries/STM32F30x_StdPeriph_Driver/src/stm32f30x_tim.c **** 
1813:../Libraries/STM32F30x_StdPeriph_Driver/src/stm32f30x_tim.c ****   /* Get the TIMx CCMR2 register value */
1814:../Libraries/STM32F30x_StdPeriph_Driver/src/stm32f30x_tim.c ****   tmpccmr2 = TIMx->CCMR2;
 2865              		.loc 1 1814 0
 2866 0fa4 019B     		ldr	r3, [sp, #4]
 2867 0fa6 DB69     		ldr	r3, [r3, #28]
 2868 0fa8 0393     		str	r3, [sp, #12]
1815:../Libraries/STM32F30x_StdPeriph_Driver/src/stm32f30x_tim.c **** 
1816:../Libraries/STM32F30x_StdPeriph_Driver/src/stm32f30x_tim.c ****   /* Reset the OC4FE Bit */
1817:../Libraries/STM32F30x_StdPeriph_Driver/src/stm32f30x_tim.c ****   tmpccmr2 &= (uint32_t)(~TIM_CCMR2_OC4FE);
 2869              		.loc 1 1817 0
 2870 0faa 039B     		ldr	r3, [sp, #12]
 2871 0fac 23F48063 		bic	r3, r3, #1024
 2872 0fb0 0393     		str	r3, [sp, #12]
1818:../Libraries/STM32F30x_StdPeriph_Driver/src/stm32f30x_tim.c **** 
1819:../Libraries/STM32F30x_StdPeriph_Driver/src/stm32f30x_tim.c ****   /* Enable or Disable the Output Compare Fast Bit */
1820:../Libraries/STM32F30x_StdPeriph_Driver/src/stm32f30x_tim.c ****   tmpccmr2 |= ((uint32_t)TIM_OCFast << 8);
 2873              		.loc 1 1820 0
 2874 0fb2 BDF80230 		ldrh	r3, [sp, #2]
 2875 0fb6 4FEA0323 		lsl	r3, r3, #8
 2876 0fba 039A     		ldr	r2, [sp, #12]
 2877 0fbc 1343     		orrs	r3, r3, r2
 2878 0fbe 0393     		str	r3, [sp, #12]
1821:../Libraries/STM32F30x_StdPeriph_Driver/src/stm32f30x_tim.c **** 
1822:../Libraries/STM32F30x_StdPeriph_Driver/src/stm32f30x_tim.c ****   /* Write to TIMx CCMR2 */
1823:../Libraries/STM32F30x_StdPeriph_Driver/src/stm32f30x_tim.c ****   TIMx->CCMR2 = tmpccmr2;
 2879              		.loc 1 1823 0
 2880 0fc0 019B     		ldr	r3, [sp, #4]
 2881 0fc2 039A     		ldr	r2, [sp, #12]
 2882 0fc4 DA61     		str	r2, [r3, #28]
1824:../Libraries/STM32F30x_StdPeriph_Driver/src/stm32f30x_tim.c **** }
 2883              		.loc 1 1824 0
 2884 0fc6 04B0     		add	sp, sp, #16
 2885 0fc8 7047     		bx	lr
 2886              		.cfi_endproc
 2887              	.LFE159:
 2889 0fca 00BF     		.align	2
 2890              		.global	TIM_ClearOC1Ref
 2891              		.thumb
 2892              		.thumb_func
 2894              	TIM_ClearOC1Ref:
 2895              	.LFB160:
1825:../Libraries/STM32F30x_StdPeriph_Driver/src/stm32f30x_tim.c **** 
1826:../Libraries/STM32F30x_StdPeriph_Driver/src/stm32f30x_tim.c **** /**
1827:../Libraries/STM32F30x_StdPeriph_Driver/src/stm32f30x_tim.c ****   * @brief  Clears or safeguards the OCREF1 signal on an external event
1828:../Libraries/STM32F30x_StdPeriph_Driver/src/stm32f30x_tim.c ****   * @param  TIMx: where x can be 1, 2, 3, 4, 8, 15, 16 or 17 to select the TIM peripheral.
1829:../Libraries/STM32F30x_StdPeriph_Driver/src/stm32f30x_tim.c ****   * @param  TIM_OCClear: new state of the Output Compare Clear Enable Bit.
1830:../Libraries/STM32F30x_StdPeriph_Driver/src/stm32f30x_tim.c ****   *          This parameter can be one of the following values:
1831:../Libraries/STM32F30x_StdPeriph_Driver/src/stm32f30x_tim.c ****   *            @arg TIM_OCClear_Enable: TIM Output clear enable
1832:../Libraries/STM32F30x_StdPeriph_Driver/src/stm32f30x_tim.c ****   *            @arg TIM_OCClear_Disable: TIM Output clear disable
1833:../Libraries/STM32F30x_StdPeriph_Driver/src/stm32f30x_tim.c ****   * @retval None
1834:../Libraries/STM32F30x_StdPeriph_Driver/src/stm32f30x_tim.c ****   */
1835:../Libraries/STM32F30x_StdPeriph_Driver/src/stm32f30x_tim.c **** void TIM_ClearOC1Ref(TIM_TypeDef* TIMx, uint16_t TIM_OCClear)
1836:../Libraries/STM32F30x_StdPeriph_Driver/src/stm32f30x_tim.c **** {
 2896              		.loc 1 1836 0
 2897              		.cfi_startproc
 2898              		@ args = 0, pretend = 0, frame = 16
 2899              		@ frame_needed = 0, uses_anonymous_args = 0
 2900              		@ link register save eliminated.
 2901 0fcc 84B0     		sub	sp, sp, #16
 2902              	.LCFI50:
 2903              		.cfi_def_cfa_offset 16
 2904 0fce 0190     		str	r0, [sp, #4]
 2905 0fd0 0B46     		mov	r3, r1
 2906 0fd2 ADF80230 		strh	r3, [sp, #2]	@ movhi
1837:../Libraries/STM32F30x_StdPeriph_Driver/src/stm32f30x_tim.c ****   uint32_t tmpccmr1 = 0;
 2907              		.loc 1 1837 0
 2908 0fd6 4FF00003 		mov	r3, #0
 2909 0fda 0393     		str	r3, [sp, #12]
1838:../Libraries/STM32F30x_StdPeriph_Driver/src/stm32f30x_tim.c **** 
1839:../Libraries/STM32F30x_StdPeriph_Driver/src/stm32f30x_tim.c ****   /* Check the parameters */
1840:../Libraries/STM32F30x_StdPeriph_Driver/src/stm32f30x_tim.c ****   assert_param(IS_TIM_LIST1_PERIPH(TIMx));
1841:../Libraries/STM32F30x_StdPeriph_Driver/src/stm32f30x_tim.c ****   assert_param(IS_TIM_OCCLEAR_STATE(TIM_OCClear));
1842:../Libraries/STM32F30x_StdPeriph_Driver/src/stm32f30x_tim.c **** 
1843:../Libraries/STM32F30x_StdPeriph_Driver/src/stm32f30x_tim.c ****   tmpccmr1 = TIMx->CCMR1;
 2910              		.loc 1 1843 0
 2911 0fdc 019B     		ldr	r3, [sp, #4]
 2912 0fde 9B69     		ldr	r3, [r3, #24]
 2913 0fe0 0393     		str	r3, [sp, #12]
1844:../Libraries/STM32F30x_StdPeriph_Driver/src/stm32f30x_tim.c **** 
1845:../Libraries/STM32F30x_StdPeriph_Driver/src/stm32f30x_tim.c ****   /* Reset the OC1CE Bit */
1846:../Libraries/STM32F30x_StdPeriph_Driver/src/stm32f30x_tim.c ****   tmpccmr1 &= (uint32_t)~TIM_CCMR1_OC1CE;
 2914              		.loc 1 1846 0
 2915 0fe2 039B     		ldr	r3, [sp, #12]
 2916 0fe4 23F08003 		bic	r3, r3, #128
 2917 0fe8 0393     		str	r3, [sp, #12]
1847:../Libraries/STM32F30x_StdPeriph_Driver/src/stm32f30x_tim.c **** 
1848:../Libraries/STM32F30x_StdPeriph_Driver/src/stm32f30x_tim.c ****   /* Enable or Disable the Output Compare Clear Bit */
1849:../Libraries/STM32F30x_StdPeriph_Driver/src/stm32f30x_tim.c ****   tmpccmr1 |= TIM_OCClear;
 2918              		.loc 1 1849 0
 2919 0fea BDF80230 		ldrh	r3, [sp, #2]
 2920 0fee 039A     		ldr	r2, [sp, #12]
 2921 0ff0 1343     		orrs	r3, r3, r2
 2922 0ff2 0393     		str	r3, [sp, #12]
1850:../Libraries/STM32F30x_StdPeriph_Driver/src/stm32f30x_tim.c **** 
1851:../Libraries/STM32F30x_StdPeriph_Driver/src/stm32f30x_tim.c ****   /* Write to TIMx CCMR1 register */
1852:../Libraries/STM32F30x_StdPeriph_Driver/src/stm32f30x_tim.c ****   TIMx->CCMR1 = tmpccmr1;
 2923              		.loc 1 1852 0
 2924 0ff4 019B     		ldr	r3, [sp, #4]
 2925 0ff6 039A     		ldr	r2, [sp, #12]
 2926 0ff8 9A61     		str	r2, [r3, #24]
1853:../Libraries/STM32F30x_StdPeriph_Driver/src/stm32f30x_tim.c **** }
 2927              		.loc 1 1853 0
 2928 0ffa 04B0     		add	sp, sp, #16
 2929 0ffc 7047     		bx	lr
 2930              		.cfi_endproc
 2931              	.LFE160:
 2933 0ffe 00BF     		.align	2
 2934              		.global	TIM_ClearOC2Ref
 2935              		.thumb
 2936              		.thumb_func
 2938              	TIM_ClearOC2Ref:
 2939              	.LFB161:
1854:../Libraries/STM32F30x_StdPeriph_Driver/src/stm32f30x_tim.c **** 
1855:../Libraries/STM32F30x_StdPeriph_Driver/src/stm32f30x_tim.c **** /**
1856:../Libraries/STM32F30x_StdPeriph_Driver/src/stm32f30x_tim.c ****   * @brief  Clears or safeguards the OCREF2 signal on an external event
1857:../Libraries/STM32F30x_StdPeriph_Driver/src/stm32f30x_tim.c ****   * @param  TIMx: where x can be 1, 2, 3, 4, 8 or 15 to select the TIM 
1858:../Libraries/STM32F30x_StdPeriph_Driver/src/stm32f30x_tim.c ****   *         peripheral.
1859:../Libraries/STM32F30x_StdPeriph_Driver/src/stm32f30x_tim.c ****   * @param  TIM_OCClear: new state of the Output Compare Clear Enable Bit.
1860:../Libraries/STM32F30x_StdPeriph_Driver/src/stm32f30x_tim.c ****   *          This parameter can be one of the following values:
1861:../Libraries/STM32F30x_StdPeriph_Driver/src/stm32f30x_tim.c ****   *            @arg TIM_OCClear_Enable: TIM Output clear enable
1862:../Libraries/STM32F30x_StdPeriph_Driver/src/stm32f30x_tim.c ****   *            @arg TIM_OCClear_Disable: TIM Output clear disable
1863:../Libraries/STM32F30x_StdPeriph_Driver/src/stm32f30x_tim.c ****   * @retval None
1864:../Libraries/STM32F30x_StdPeriph_Driver/src/stm32f30x_tim.c ****   */
1865:../Libraries/STM32F30x_StdPeriph_Driver/src/stm32f30x_tim.c **** void TIM_ClearOC2Ref(TIM_TypeDef* TIMx, uint16_t TIM_OCClear)
1866:../Libraries/STM32F30x_StdPeriph_Driver/src/stm32f30x_tim.c **** {
 2940              		.loc 1 1866 0
 2941              		.cfi_startproc
 2942              		@ args = 0, pretend = 0, frame = 16
 2943              		@ frame_needed = 0, uses_anonymous_args = 0
 2944              		@ link register save eliminated.
 2945 1000 84B0     		sub	sp, sp, #16
 2946              	.LCFI51:
 2947              		.cfi_def_cfa_offset 16
 2948 1002 0190     		str	r0, [sp, #4]
 2949 1004 0B46     		mov	r3, r1
 2950 1006 ADF80230 		strh	r3, [sp, #2]	@ movhi
1867:../Libraries/STM32F30x_StdPeriph_Driver/src/stm32f30x_tim.c ****   uint32_t tmpccmr1 = 0;
 2951              		.loc 1 1867 0
 2952 100a 4FF00003 		mov	r3, #0
 2953 100e 0393     		str	r3, [sp, #12]
1868:../Libraries/STM32F30x_StdPeriph_Driver/src/stm32f30x_tim.c **** 
1869:../Libraries/STM32F30x_StdPeriph_Driver/src/stm32f30x_tim.c ****   /* Check the parameters */
1870:../Libraries/STM32F30x_StdPeriph_Driver/src/stm32f30x_tim.c ****   assert_param(IS_TIM_LIST2_PERIPH(TIMx));
1871:../Libraries/STM32F30x_StdPeriph_Driver/src/stm32f30x_tim.c ****   assert_param(IS_TIM_OCCLEAR_STATE(TIM_OCClear));
1872:../Libraries/STM32F30x_StdPeriph_Driver/src/stm32f30x_tim.c **** 
1873:../Libraries/STM32F30x_StdPeriph_Driver/src/stm32f30x_tim.c ****   tmpccmr1 = TIMx->CCMR1;
 2954              		.loc 1 1873 0
 2955 1010 019B     		ldr	r3, [sp, #4]
 2956 1012 9B69     		ldr	r3, [r3, #24]
 2957 1014 0393     		str	r3, [sp, #12]
1874:../Libraries/STM32F30x_StdPeriph_Driver/src/stm32f30x_tim.c **** 
1875:../Libraries/STM32F30x_StdPeriph_Driver/src/stm32f30x_tim.c ****   /* Reset the OC2CE Bit */
1876:../Libraries/STM32F30x_StdPeriph_Driver/src/stm32f30x_tim.c ****   tmpccmr1 &= (uint32_t)~TIM_CCMR1_OC2CE;
 2958              		.loc 1 1876 0
 2959 1016 039B     		ldr	r3, [sp, #12]
 2960 1018 23F40043 		bic	r3, r3, #32768
 2961 101c 0393     		str	r3, [sp, #12]
1877:../Libraries/STM32F30x_StdPeriph_Driver/src/stm32f30x_tim.c **** 
1878:../Libraries/STM32F30x_StdPeriph_Driver/src/stm32f30x_tim.c ****   /* Enable or Disable the Output Compare Clear Bit */
1879:../Libraries/STM32F30x_StdPeriph_Driver/src/stm32f30x_tim.c ****   tmpccmr1 |= ((uint32_t)TIM_OCClear << 8);
 2962              		.loc 1 1879 0
 2963 101e BDF80230 		ldrh	r3, [sp, #2]
 2964 1022 4FEA0323 		lsl	r3, r3, #8
 2965 1026 039A     		ldr	r2, [sp, #12]
 2966 1028 1343     		orrs	r3, r3, r2
 2967 102a 0393     		str	r3, [sp, #12]
1880:../Libraries/STM32F30x_StdPeriph_Driver/src/stm32f30x_tim.c **** 
1881:../Libraries/STM32F30x_StdPeriph_Driver/src/stm32f30x_tim.c ****   /* Write to TIMx CCMR1 register */
1882:../Libraries/STM32F30x_StdPeriph_Driver/src/stm32f30x_tim.c ****   TIMx->CCMR1 = tmpccmr1;
 2968              		.loc 1 1882 0
 2969 102c 019B     		ldr	r3, [sp, #4]
 2970 102e 039A     		ldr	r2, [sp, #12]
 2971 1030 9A61     		str	r2, [r3, #24]
1883:../Libraries/STM32F30x_StdPeriph_Driver/src/stm32f30x_tim.c **** }
 2972              		.loc 1 1883 0
 2973 1032 04B0     		add	sp, sp, #16
 2974 1034 7047     		bx	lr
 2975              		.cfi_endproc
 2976              	.LFE161:
 2978 1036 00BF     		.align	2
 2979              		.global	TIM_ClearOC3Ref
 2980              		.thumb
 2981              		.thumb_func
 2983              	TIM_ClearOC3Ref:
 2984              	.LFB162:
1884:../Libraries/STM32F30x_StdPeriph_Driver/src/stm32f30x_tim.c **** 
1885:../Libraries/STM32F30x_StdPeriph_Driver/src/stm32f30x_tim.c **** /**
1886:../Libraries/STM32F30x_StdPeriph_Driver/src/stm32f30x_tim.c ****   * @brief  Clears or safeguards the OCREF3 signal on an external event
1887:../Libraries/STM32F30x_StdPeriph_Driver/src/stm32f30x_tim.c ****   * @param  TIMx: where x can be  1, 2, 3, 4 or 8 to select the TIM peripheral.
1888:../Libraries/STM32F30x_StdPeriph_Driver/src/stm32f30x_tim.c ****   * @param  TIM_OCClear: new state of the Output Compare Clear Enable Bit.
1889:../Libraries/STM32F30x_StdPeriph_Driver/src/stm32f30x_tim.c ****   *          This parameter can be one of the following values:
1890:../Libraries/STM32F30x_StdPeriph_Driver/src/stm32f30x_tim.c ****   *            @arg TIM_OCClear_Enable: TIM Output clear enable
1891:../Libraries/STM32F30x_StdPeriph_Driver/src/stm32f30x_tim.c ****   *            @arg TIM_OCClear_Disable: TIM Output clear disable
1892:../Libraries/STM32F30x_StdPeriph_Driver/src/stm32f30x_tim.c ****   * @retval None
1893:../Libraries/STM32F30x_StdPeriph_Driver/src/stm32f30x_tim.c ****   */
1894:../Libraries/STM32F30x_StdPeriph_Driver/src/stm32f30x_tim.c **** void TIM_ClearOC3Ref(TIM_TypeDef* TIMx, uint16_t TIM_OCClear)
1895:../Libraries/STM32F30x_StdPeriph_Driver/src/stm32f30x_tim.c **** {
 2985              		.loc 1 1895 0
 2986              		.cfi_startproc
 2987              		@ args = 0, pretend = 0, frame = 16
 2988              		@ frame_needed = 0, uses_anonymous_args = 0
 2989              		@ link register save eliminated.
 2990 1038 84B0     		sub	sp, sp, #16
 2991              	.LCFI52:
 2992              		.cfi_def_cfa_offset 16
 2993 103a 0190     		str	r0, [sp, #4]
 2994 103c 0B46     		mov	r3, r1
 2995 103e ADF80230 		strh	r3, [sp, #2]	@ movhi
1896:../Libraries/STM32F30x_StdPeriph_Driver/src/stm32f30x_tim.c ****   uint32_t tmpccmr2 = 0;
 2996              		.loc 1 1896 0
 2997 1042 4FF00003 		mov	r3, #0
 2998 1046 0393     		str	r3, [sp, #12]
1897:../Libraries/STM32F30x_StdPeriph_Driver/src/stm32f30x_tim.c **** 
1898:../Libraries/STM32F30x_StdPeriph_Driver/src/stm32f30x_tim.c ****   /* Check the parameters */
1899:../Libraries/STM32F30x_StdPeriph_Driver/src/stm32f30x_tim.c ****   assert_param(IS_TIM_LIST3_PERIPH(TIMx));
1900:../Libraries/STM32F30x_StdPeriph_Driver/src/stm32f30x_tim.c ****   assert_param(IS_TIM_OCCLEAR_STATE(TIM_OCClear));
1901:../Libraries/STM32F30x_StdPeriph_Driver/src/stm32f30x_tim.c **** 
1902:../Libraries/STM32F30x_StdPeriph_Driver/src/stm32f30x_tim.c ****   tmpccmr2 = TIMx->CCMR2;
 2999              		.loc 1 1902 0
 3000 1048 019B     		ldr	r3, [sp, #4]
 3001 104a DB69     		ldr	r3, [r3, #28]
 3002 104c 0393     		str	r3, [sp, #12]
1903:../Libraries/STM32F30x_StdPeriph_Driver/src/stm32f30x_tim.c **** 
1904:../Libraries/STM32F30x_StdPeriph_Driver/src/stm32f30x_tim.c ****   /* Reset the OC3CE Bit */
1905:../Libraries/STM32F30x_StdPeriph_Driver/src/stm32f30x_tim.c ****   tmpccmr2 &= (uint32_t)~TIM_CCMR2_OC3CE;
 3003              		.loc 1 1905 0
 3004 104e 039B     		ldr	r3, [sp, #12]
 3005 1050 23F08003 		bic	r3, r3, #128
 3006 1054 0393     		str	r3, [sp, #12]
1906:../Libraries/STM32F30x_StdPeriph_Driver/src/stm32f30x_tim.c **** 
1907:../Libraries/STM32F30x_StdPeriph_Driver/src/stm32f30x_tim.c ****   /* Enable or Disable the Output Compare Clear Bit */
1908:../Libraries/STM32F30x_StdPeriph_Driver/src/stm32f30x_tim.c ****   tmpccmr2 |= TIM_OCClear;
 3007              		.loc 1 1908 0
 3008 1056 BDF80230 		ldrh	r3, [sp, #2]
 3009 105a 039A     		ldr	r2, [sp, #12]
 3010 105c 1343     		orrs	r3, r3, r2
 3011 105e 0393     		str	r3, [sp, #12]
1909:../Libraries/STM32F30x_StdPeriph_Driver/src/stm32f30x_tim.c **** 
1910:../Libraries/STM32F30x_StdPeriph_Driver/src/stm32f30x_tim.c ****   /* Write to TIMx CCMR2 register */
1911:../Libraries/STM32F30x_StdPeriph_Driver/src/stm32f30x_tim.c ****   TIMx->CCMR2 = tmpccmr2;
 3012              		.loc 1 1911 0
 3013 1060 019B     		ldr	r3, [sp, #4]
 3014 1062 039A     		ldr	r2, [sp, #12]
 3015 1064 DA61     		str	r2, [r3, #28]
1912:../Libraries/STM32F30x_StdPeriph_Driver/src/stm32f30x_tim.c **** }
 3016              		.loc 1 1912 0
 3017 1066 04B0     		add	sp, sp, #16
 3018 1068 7047     		bx	lr
 3019              		.cfi_endproc
 3020              	.LFE162:
 3022 106a 00BF     		.align	2
 3023              		.global	TIM_ClearOC4Ref
 3024              		.thumb
 3025              		.thumb_func
 3027              	TIM_ClearOC4Ref:
 3028              	.LFB163:
1913:../Libraries/STM32F30x_StdPeriph_Driver/src/stm32f30x_tim.c **** 
1914:../Libraries/STM32F30x_StdPeriph_Driver/src/stm32f30x_tim.c **** /**
1915:../Libraries/STM32F30x_StdPeriph_Driver/src/stm32f30x_tim.c ****   * @brief  Clears or safeguards the OCREF4 signal on an external event
1916:../Libraries/STM32F30x_StdPeriph_Driver/src/stm32f30x_tim.c ****   * @param  TIMx: where x can be  1, 2, 3, 4 or 8 to select the TIM peripheral.
1917:../Libraries/STM32F30x_StdPeriph_Driver/src/stm32f30x_tim.c ****   * @param  TIM_OCClear: new state of the Output Compare Clear Enable Bit.
1918:../Libraries/STM32F30x_StdPeriph_Driver/src/stm32f30x_tim.c ****   *          This parameter can be one of the following values:
1919:../Libraries/STM32F30x_StdPeriph_Driver/src/stm32f30x_tim.c ****   *            @arg TIM_OCClear_Enable: TIM Output clear enable
1920:../Libraries/STM32F30x_StdPeriph_Driver/src/stm32f30x_tim.c ****   *            @arg TIM_OCClear_Disable: TIM Output clear disable
1921:../Libraries/STM32F30x_StdPeriph_Driver/src/stm32f30x_tim.c ****   * @retval None
1922:../Libraries/STM32F30x_StdPeriph_Driver/src/stm32f30x_tim.c ****   */
1923:../Libraries/STM32F30x_StdPeriph_Driver/src/stm32f30x_tim.c **** void TIM_ClearOC4Ref(TIM_TypeDef* TIMx, uint16_t TIM_OCClear)
1924:../Libraries/STM32F30x_StdPeriph_Driver/src/stm32f30x_tim.c **** {
 3029              		.loc 1 1924 0
 3030              		.cfi_startproc
 3031              		@ args = 0, pretend = 0, frame = 16
 3032              		@ frame_needed = 0, uses_anonymous_args = 0
 3033              		@ link register save eliminated.
 3034 106c 84B0     		sub	sp, sp, #16
 3035              	.LCFI53:
 3036              		.cfi_def_cfa_offset 16
 3037 106e 0190     		str	r0, [sp, #4]
 3038 1070 0B46     		mov	r3, r1
 3039 1072 ADF80230 		strh	r3, [sp, #2]	@ movhi
1925:../Libraries/STM32F30x_StdPeriph_Driver/src/stm32f30x_tim.c ****   uint32_t tmpccmr2 = 0;
 3040              		.loc 1 1925 0
 3041 1076 4FF00003 		mov	r3, #0
 3042 107a 0393     		str	r3, [sp, #12]
1926:../Libraries/STM32F30x_StdPeriph_Driver/src/stm32f30x_tim.c **** 
1927:../Libraries/STM32F30x_StdPeriph_Driver/src/stm32f30x_tim.c ****   /* Check the parameters */
1928:../Libraries/STM32F30x_StdPeriph_Driver/src/stm32f30x_tim.c ****   assert_param(IS_TIM_LIST3_PERIPH(TIMx));
1929:../Libraries/STM32F30x_StdPeriph_Driver/src/stm32f30x_tim.c ****   assert_param(IS_TIM_OCCLEAR_STATE(TIM_OCClear));
1930:../Libraries/STM32F30x_StdPeriph_Driver/src/stm32f30x_tim.c **** 
1931:../Libraries/STM32F30x_StdPeriph_Driver/src/stm32f30x_tim.c ****   tmpccmr2 = TIMx->CCMR2;
 3043              		.loc 1 1931 0
 3044 107c 019B     		ldr	r3, [sp, #4]
 3045 107e DB69     		ldr	r3, [r3, #28]
 3046 1080 0393     		str	r3, [sp, #12]
1932:../Libraries/STM32F30x_StdPeriph_Driver/src/stm32f30x_tim.c **** 
1933:../Libraries/STM32F30x_StdPeriph_Driver/src/stm32f30x_tim.c ****   /* Reset the OC4CE Bit */
1934:../Libraries/STM32F30x_StdPeriph_Driver/src/stm32f30x_tim.c ****   tmpccmr2 &= (uint32_t)~TIM_CCMR2_OC4CE;
 3047              		.loc 1 1934 0
 3048 1082 039B     		ldr	r3, [sp, #12]
 3049 1084 23F40043 		bic	r3, r3, #32768
 3050 1088 0393     		str	r3, [sp, #12]
1935:../Libraries/STM32F30x_StdPeriph_Driver/src/stm32f30x_tim.c **** 
1936:../Libraries/STM32F30x_StdPeriph_Driver/src/stm32f30x_tim.c ****   /* Enable or Disable the Output Compare Clear Bit */
1937:../Libraries/STM32F30x_StdPeriph_Driver/src/stm32f30x_tim.c ****   tmpccmr2 |= ((uint32_t)TIM_OCClear << 8);
 3051              		.loc 1 1937 0
 3052 108a BDF80230 		ldrh	r3, [sp, #2]
 3053 108e 4FEA0323 		lsl	r3, r3, #8
 3054 1092 039A     		ldr	r2, [sp, #12]
 3055 1094 1343     		orrs	r3, r3, r2
 3056 1096 0393     		str	r3, [sp, #12]
1938:../Libraries/STM32F30x_StdPeriph_Driver/src/stm32f30x_tim.c **** 
1939:../Libraries/STM32F30x_StdPeriph_Driver/src/stm32f30x_tim.c ****   /* Write to TIMx CCMR2 register */
1940:../Libraries/STM32F30x_StdPeriph_Driver/src/stm32f30x_tim.c ****   TIMx->CCMR2 = tmpccmr2;
 3057              		.loc 1 1940 0
 3058 1098 019B     		ldr	r3, [sp, #4]
 3059 109a 039A     		ldr	r2, [sp, #12]
 3060 109c DA61     		str	r2, [r3, #28]
1941:../Libraries/STM32F30x_StdPeriph_Driver/src/stm32f30x_tim.c **** }
 3061              		.loc 1 1941 0
 3062 109e 04B0     		add	sp, sp, #16
 3063 10a0 7047     		bx	lr
 3064              		.cfi_endproc
 3065              	.LFE163:
 3067 10a2 00BF     		.align	2
 3068              		.global	TIM_ClearOC5Ref
 3069              		.thumb
 3070              		.thumb_func
 3072              	TIM_ClearOC5Ref:
 3073              	.LFB164:
1942:../Libraries/STM32F30x_StdPeriph_Driver/src/stm32f30x_tim.c **** 
1943:../Libraries/STM32F30x_StdPeriph_Driver/src/stm32f30x_tim.c **** /**
1944:../Libraries/STM32F30x_StdPeriph_Driver/src/stm32f30x_tim.c ****   * @brief  Clears or safeguards the OCREF5 signal on an external event
1945:../Libraries/STM32F30x_StdPeriph_Driver/src/stm32f30x_tim.c ****   * @param  TIMx: where x can be  1 or 8 to select the TIM peripheral.
1946:../Libraries/STM32F30x_StdPeriph_Driver/src/stm32f30x_tim.c ****   * @param  TIM_OCClear: new state of the Output Compare Clear Enable Bit.
1947:../Libraries/STM32F30x_StdPeriph_Driver/src/stm32f30x_tim.c ****   *          This parameter can be one of the following values:
1948:../Libraries/STM32F30x_StdPeriph_Driver/src/stm32f30x_tim.c ****   *            @arg TIM_OCClear_Enable: TIM Output clear enable
1949:../Libraries/STM32F30x_StdPeriph_Driver/src/stm32f30x_tim.c ****   *            @arg TIM_OCClear_Disable: TIM Output clear disable
1950:../Libraries/STM32F30x_StdPeriph_Driver/src/stm32f30x_tim.c ****   * @retval None
1951:../Libraries/STM32F30x_StdPeriph_Driver/src/stm32f30x_tim.c ****   */
1952:../Libraries/STM32F30x_StdPeriph_Driver/src/stm32f30x_tim.c **** void TIM_ClearOC5Ref(TIM_TypeDef* TIMx, uint16_t TIM_OCClear)
1953:../Libraries/STM32F30x_StdPeriph_Driver/src/stm32f30x_tim.c **** {
 3074              		.loc 1 1953 0
 3075              		.cfi_startproc
 3076              		@ args = 0, pretend = 0, frame = 16
 3077              		@ frame_needed = 0, uses_anonymous_args = 0
 3078              		@ link register save eliminated.
 3079 10a4 84B0     		sub	sp, sp, #16
 3080              	.LCFI54:
 3081              		.cfi_def_cfa_offset 16
 3082 10a6 0190     		str	r0, [sp, #4]
 3083 10a8 0B46     		mov	r3, r1
 3084 10aa ADF80230 		strh	r3, [sp, #2]	@ movhi
1954:../Libraries/STM32F30x_StdPeriph_Driver/src/stm32f30x_tim.c ****   uint32_t tmpccmr3 = 0;
 3085              		.loc 1 1954 0
 3086 10ae 4FF00003 		mov	r3, #0
 3087 10b2 0393     		str	r3, [sp, #12]
1955:../Libraries/STM32F30x_StdPeriph_Driver/src/stm32f30x_tim.c **** 
1956:../Libraries/STM32F30x_StdPeriph_Driver/src/stm32f30x_tim.c ****   /* Check the parameters */
1957:../Libraries/STM32F30x_StdPeriph_Driver/src/stm32f30x_tim.c ****   assert_param(IS_TIM_LIST4_PERIPH(TIMx));
1958:../Libraries/STM32F30x_StdPeriph_Driver/src/stm32f30x_tim.c ****   assert_param(IS_TIM_OCCLEAR_STATE(TIM_OCClear));
1959:../Libraries/STM32F30x_StdPeriph_Driver/src/stm32f30x_tim.c **** 
1960:../Libraries/STM32F30x_StdPeriph_Driver/src/stm32f30x_tim.c ****   tmpccmr3 = TIMx->CCMR3;
 3088              		.loc 1 1960 0
 3089 10b4 019B     		ldr	r3, [sp, #4]
 3090 10b6 5B6D     		ldr	r3, [r3, #84]
 3091 10b8 0393     		str	r3, [sp, #12]
1961:../Libraries/STM32F30x_StdPeriph_Driver/src/stm32f30x_tim.c **** 
1962:../Libraries/STM32F30x_StdPeriph_Driver/src/stm32f30x_tim.c ****   /* Reset the OC5CE Bit */
1963:../Libraries/STM32F30x_StdPeriph_Driver/src/stm32f30x_tim.c ****   tmpccmr3 &= (uint32_t)~TIM_CCMR3_OC5CE;
 3092              		.loc 1 1963 0
 3093 10ba 039B     		ldr	r3, [sp, #12]
 3094 10bc 23F08003 		bic	r3, r3, #128
 3095 10c0 0393     		str	r3, [sp, #12]
1964:../Libraries/STM32F30x_StdPeriph_Driver/src/stm32f30x_tim.c **** 
1965:../Libraries/STM32F30x_StdPeriph_Driver/src/stm32f30x_tim.c ****   /* Enable or Disable the Output Compare Clear Bit */
1966:../Libraries/STM32F30x_StdPeriph_Driver/src/stm32f30x_tim.c ****   tmpccmr3 |= (uint32_t)(TIM_OCClear);
 3096              		.loc 1 1966 0
 3097 10c2 BDF80230 		ldrh	r3, [sp, #2]
 3098 10c6 039A     		ldr	r2, [sp, #12]
 3099 10c8 1343     		orrs	r3, r3, r2
 3100 10ca 0393     		str	r3, [sp, #12]
1967:../Libraries/STM32F30x_StdPeriph_Driver/src/stm32f30x_tim.c **** 
1968:../Libraries/STM32F30x_StdPeriph_Driver/src/stm32f30x_tim.c ****   /* Write to TIMx CCMR3 register */
1969:../Libraries/STM32F30x_StdPeriph_Driver/src/stm32f30x_tim.c ****   TIMx->CCMR3 = tmpccmr3;
 3101              		.loc 1 1969 0
 3102 10cc 019B     		ldr	r3, [sp, #4]
 3103 10ce 039A     		ldr	r2, [sp, #12]
 3104 10d0 5A65     		str	r2, [r3, #84]
1970:../Libraries/STM32F30x_StdPeriph_Driver/src/stm32f30x_tim.c **** }
 3105              		.loc 1 1970 0
 3106 10d2 04B0     		add	sp, sp, #16
 3107 10d4 7047     		bx	lr
 3108              		.cfi_endproc
 3109              	.LFE164:
 3111 10d6 00BF     		.align	2
 3112              		.global	TIM_ClearOC6Ref
 3113              		.thumb
 3114              		.thumb_func
 3116              	TIM_ClearOC6Ref:
 3117              	.LFB165:
1971:../Libraries/STM32F30x_StdPeriph_Driver/src/stm32f30x_tim.c **** 
1972:../Libraries/STM32F30x_StdPeriph_Driver/src/stm32f30x_tim.c **** /**
1973:../Libraries/STM32F30x_StdPeriph_Driver/src/stm32f30x_tim.c ****   * @brief  Clears or safeguards the OCREF6 signal on an external event
1974:../Libraries/STM32F30x_StdPeriph_Driver/src/stm32f30x_tim.c ****   * @param  TIMx: where x can be  1 or 8 to select the TIM peripheral.
1975:../Libraries/STM32F30x_StdPeriph_Driver/src/stm32f30x_tim.c ****   * @param  TIM_OCClear: new state of the Output Compare Clear Enable Bit.
1976:../Libraries/STM32F30x_StdPeriph_Driver/src/stm32f30x_tim.c ****   *          This parameter can be one of the following values:
1977:../Libraries/STM32F30x_StdPeriph_Driver/src/stm32f30x_tim.c ****   *            @arg TIM_OCClear_Enable: TIM Output clear enable
1978:../Libraries/STM32F30x_StdPeriph_Driver/src/stm32f30x_tim.c ****   *            @arg TIM_OCClear_Disable: TIM Output clear disable
1979:../Libraries/STM32F30x_StdPeriph_Driver/src/stm32f30x_tim.c ****   * @retval None
1980:../Libraries/STM32F30x_StdPeriph_Driver/src/stm32f30x_tim.c ****   */
1981:../Libraries/STM32F30x_StdPeriph_Driver/src/stm32f30x_tim.c **** void TIM_ClearOC6Ref(TIM_TypeDef* TIMx, uint16_t TIM_OCClear)
1982:../Libraries/STM32F30x_StdPeriph_Driver/src/stm32f30x_tim.c **** {
 3118              		.loc 1 1982 0
 3119              		.cfi_startproc
 3120              		@ args = 0, pretend = 0, frame = 16
 3121              		@ frame_needed = 0, uses_anonymous_args = 0
 3122              		@ link register save eliminated.
 3123 10d8 84B0     		sub	sp, sp, #16
 3124              	.LCFI55:
 3125              		.cfi_def_cfa_offset 16
 3126 10da 0190     		str	r0, [sp, #4]
 3127 10dc 0B46     		mov	r3, r1
 3128 10de ADF80230 		strh	r3, [sp, #2]	@ movhi
1983:../Libraries/STM32F30x_StdPeriph_Driver/src/stm32f30x_tim.c ****   uint32_t tmpccmr3 = 0;
 3129              		.loc 1 1983 0
 3130 10e2 4FF00003 		mov	r3, #0
 3131 10e6 0393     		str	r3, [sp, #12]
1984:../Libraries/STM32F30x_StdPeriph_Driver/src/stm32f30x_tim.c **** 
1985:../Libraries/STM32F30x_StdPeriph_Driver/src/stm32f30x_tim.c ****   /* Check the parameters */
1986:../Libraries/STM32F30x_StdPeriph_Driver/src/stm32f30x_tim.c ****   assert_param(IS_TIM_LIST4_PERIPH(TIMx));
1987:../Libraries/STM32F30x_StdPeriph_Driver/src/stm32f30x_tim.c ****   assert_param(IS_TIM_OCCLEAR_STATE(TIM_OCClear));
1988:../Libraries/STM32F30x_StdPeriph_Driver/src/stm32f30x_tim.c **** 
1989:../Libraries/STM32F30x_StdPeriph_Driver/src/stm32f30x_tim.c ****   tmpccmr3 = TIMx->CCMR3;
 3132              		.loc 1 1989 0
 3133 10e8 019B     		ldr	r3, [sp, #4]
 3134 10ea 5B6D     		ldr	r3, [r3, #84]
 3135 10ec 0393     		str	r3, [sp, #12]
1990:../Libraries/STM32F30x_StdPeriph_Driver/src/stm32f30x_tim.c **** 
1991:../Libraries/STM32F30x_StdPeriph_Driver/src/stm32f30x_tim.c ****   /* Reset the OC5CE Bit */
1992:../Libraries/STM32F30x_StdPeriph_Driver/src/stm32f30x_tim.c ****   tmpccmr3 &= (uint32_t)~TIM_CCMR3_OC6CE;
 3136              		.loc 1 1992 0
 3137 10ee 039B     		ldr	r3, [sp, #12]
 3138 10f0 23F40043 		bic	r3, r3, #32768
 3139 10f4 0393     		str	r3, [sp, #12]
1993:../Libraries/STM32F30x_StdPeriph_Driver/src/stm32f30x_tim.c **** 
1994:../Libraries/STM32F30x_StdPeriph_Driver/src/stm32f30x_tim.c ****   /* Enable or Disable the Output Compare Clear Bit */
1995:../Libraries/STM32F30x_StdPeriph_Driver/src/stm32f30x_tim.c ****   tmpccmr3 |= ((uint32_t)TIM_OCClear << 8);
 3140              		.loc 1 1995 0
 3141 10f6 BDF80230 		ldrh	r3, [sp, #2]
 3142 10fa 4FEA0323 		lsl	r3, r3, #8
 3143 10fe 039A     		ldr	r2, [sp, #12]
 3144 1100 1343     		orrs	r3, r3, r2
 3145 1102 0393     		str	r3, [sp, #12]
1996:../Libraries/STM32F30x_StdPeriph_Driver/src/stm32f30x_tim.c **** 
1997:../Libraries/STM32F30x_StdPeriph_Driver/src/stm32f30x_tim.c ****   /* Write to TIMx CCMR3 register */
1998:../Libraries/STM32F30x_StdPeriph_Driver/src/stm32f30x_tim.c ****   TIMx->CCMR3 = tmpccmr3;
 3146              		.loc 1 1998 0
 3147 1104 019B     		ldr	r3, [sp, #4]
 3148 1106 039A     		ldr	r2, [sp, #12]
 3149 1108 5A65     		str	r2, [r3, #84]
1999:../Libraries/STM32F30x_StdPeriph_Driver/src/stm32f30x_tim.c **** }
 3150              		.loc 1 1999 0
 3151 110a 04B0     		add	sp, sp, #16
 3152 110c 7047     		bx	lr
 3153              		.cfi_endproc
 3154              	.LFE165:
 3156 110e 00BF     		.align	2
 3157              		.global	TIM_SelectOCREFClear
 3158              		.thumb
 3159              		.thumb_func
 3161              	TIM_SelectOCREFClear:
 3162              	.LFB166:
2000:../Libraries/STM32F30x_StdPeriph_Driver/src/stm32f30x_tim.c **** 
2001:../Libraries/STM32F30x_StdPeriph_Driver/src/stm32f30x_tim.c **** /**
2002:../Libraries/STM32F30x_StdPeriph_Driver/src/stm32f30x_tim.c ****   * @brief  Selects the OCReference Clear source.
2003:../Libraries/STM32F30x_StdPeriph_Driver/src/stm32f30x_tim.c ****   * @param  TIMx: where x can be 1, 2, 3, 4, 8, 15, 16 or 17 to select the TIM peripheral.
2004:../Libraries/STM32F30x_StdPeriph_Driver/src/stm32f30x_tim.c ****   * @param  TIM_OCReferenceClear: specifies the OCReference Clear source.
2005:../Libraries/STM32F30x_StdPeriph_Driver/src/stm32f30x_tim.c ****   *   This parameter can be one of the following values:
2006:../Libraries/STM32F30x_StdPeriph_Driver/src/stm32f30x_tim.c ****   *     @arg TIM_OCReferenceClear_ETRF: The internal OCreference clear input is connected to ETRF.
2007:../Libraries/STM32F30x_StdPeriph_Driver/src/stm32f30x_tim.c ****   *     @arg TIM_OCReferenceClear_OCREFCLR: The internal OCreference clear input is connected to OC
2008:../Libraries/STM32F30x_StdPeriph_Driver/src/stm32f30x_tim.c ****   * @retval None
2009:../Libraries/STM32F30x_StdPeriph_Driver/src/stm32f30x_tim.c ****   */
2010:../Libraries/STM32F30x_StdPeriph_Driver/src/stm32f30x_tim.c **** void TIM_SelectOCREFClear(TIM_TypeDef* TIMx, uint16_t TIM_OCReferenceClear)
2011:../Libraries/STM32F30x_StdPeriph_Driver/src/stm32f30x_tim.c **** {
 3163              		.loc 1 2011 0
 3164              		.cfi_startproc
 3165              		@ args = 0, pretend = 0, frame = 8
 3166              		@ frame_needed = 0, uses_anonymous_args = 0
 3167              		@ link register save eliminated.
 3168 1110 82B0     		sub	sp, sp, #8
 3169              	.LCFI56:
 3170              		.cfi_def_cfa_offset 8
 3171 1112 0190     		str	r0, [sp, #4]
 3172 1114 0B46     		mov	r3, r1
 3173 1116 ADF80230 		strh	r3, [sp, #2]	@ movhi
2012:../Libraries/STM32F30x_StdPeriph_Driver/src/stm32f30x_tim.c ****   /* Check the parameters */
2013:../Libraries/STM32F30x_StdPeriph_Driver/src/stm32f30x_tim.c ****   assert_param(IS_TIM_LIST2_PERIPH(TIMx));
2014:../Libraries/STM32F30x_StdPeriph_Driver/src/stm32f30x_tim.c ****   assert_param(TIM_OCREFERENCECECLEAR_SOURCE(TIM_OCReferenceClear));
2015:../Libraries/STM32F30x_StdPeriph_Driver/src/stm32f30x_tim.c **** 
2016:../Libraries/STM32F30x_StdPeriph_Driver/src/stm32f30x_tim.c ****   /* Set the TIM_OCReferenceClear source */
2017:../Libraries/STM32F30x_StdPeriph_Driver/src/stm32f30x_tim.c ****   TIMx->SMCR &=  (uint16_t)~((uint16_t)TIM_SMCR_OCCS);
 3174              		.loc 1 2017 0
 3175 111a 019B     		ldr	r3, [sp, #4]
 3176 111c 9A68     		ldr	r2, [r3, #8]
 3177 111e 4FF6F773 		movw	r3, #65527
 3178 1122 1340     		ands	r3, r3, r2
 3179 1124 019A     		ldr	r2, [sp, #4]
 3180 1126 9360     		str	r3, [r2, #8]
2018:../Libraries/STM32F30x_StdPeriph_Driver/src/stm32f30x_tim.c ****   TIMx->SMCR |=  TIM_OCReferenceClear;
 3181              		.loc 1 2018 0
 3182 1128 019B     		ldr	r3, [sp, #4]
 3183 112a 9A68     		ldr	r2, [r3, #8]
 3184 112c BDF80230 		ldrh	r3, [sp, #2]
 3185 1130 1A43     		orrs	r2, r2, r3
 3186 1132 019B     		ldr	r3, [sp, #4]
 3187 1134 9A60     		str	r2, [r3, #8]
2019:../Libraries/STM32F30x_StdPeriph_Driver/src/stm32f30x_tim.c **** }
 3188              		.loc 1 2019 0
 3189 1136 02B0     		add	sp, sp, #8
 3190 1138 7047     		bx	lr
 3191              		.cfi_endproc
 3192              	.LFE166:
 3194 113a 00BF     		.align	2
 3195              		.global	TIM_OC1PolarityConfig
 3196              		.thumb
 3197              		.thumb_func
 3199              	TIM_OC1PolarityConfig:
 3200              	.LFB167:
2020:../Libraries/STM32F30x_StdPeriph_Driver/src/stm32f30x_tim.c **** 
2021:../Libraries/STM32F30x_StdPeriph_Driver/src/stm32f30x_tim.c **** /**
2022:../Libraries/STM32F30x_StdPeriph_Driver/src/stm32f30x_tim.c ****   * @brief  Configures the TIMx channel 1 polarity.
2023:../Libraries/STM32F30x_StdPeriph_Driver/src/stm32f30x_tim.c ****   * @param  TIMx: where x can be 1, 2, 3, 4, 8, 15, 16 or 17 to select the TIM peripheral.
2024:../Libraries/STM32F30x_StdPeriph_Driver/src/stm32f30x_tim.c ****   * @param  TIM_OCPolarity: specifies the OC1 Polarity
2025:../Libraries/STM32F30x_StdPeriph_Driver/src/stm32f30x_tim.c ****   *          This parameter can be one of the following values:
2026:../Libraries/STM32F30x_StdPeriph_Driver/src/stm32f30x_tim.c ****   *            @arg TIM_OCPolarity_High: Output Compare active high
2027:../Libraries/STM32F30x_StdPeriph_Driver/src/stm32f30x_tim.c ****   *            @arg TIM_OCPolarity_Low: Output Compare active low
2028:../Libraries/STM32F30x_StdPeriph_Driver/src/stm32f30x_tim.c ****   * @retval None
2029:../Libraries/STM32F30x_StdPeriph_Driver/src/stm32f30x_tim.c ****   */
2030:../Libraries/STM32F30x_StdPeriph_Driver/src/stm32f30x_tim.c **** void TIM_OC1PolarityConfig(TIM_TypeDef* TIMx, uint16_t TIM_OCPolarity)
2031:../Libraries/STM32F30x_StdPeriph_Driver/src/stm32f30x_tim.c **** {
 3201              		.loc 1 2031 0
 3202              		.cfi_startproc
 3203              		@ args = 0, pretend = 0, frame = 16
 3204              		@ frame_needed = 0, uses_anonymous_args = 0
 3205              		@ link register save eliminated.
 3206 113c 84B0     		sub	sp, sp, #16
 3207              	.LCFI57:
 3208              		.cfi_def_cfa_offset 16
 3209 113e 0190     		str	r0, [sp, #4]
 3210 1140 0B46     		mov	r3, r1
 3211 1142 ADF80230 		strh	r3, [sp, #2]	@ movhi
2032:../Libraries/STM32F30x_StdPeriph_Driver/src/stm32f30x_tim.c ****   uint32_t tmpccer = 0;
 3212              		.loc 1 2032 0
 3213 1146 4FF00003 		mov	r3, #0
 3214 114a 0393     		str	r3, [sp, #12]
2033:../Libraries/STM32F30x_StdPeriph_Driver/src/stm32f30x_tim.c **** 
2034:../Libraries/STM32F30x_StdPeriph_Driver/src/stm32f30x_tim.c ****   /* Check the parameters */
2035:../Libraries/STM32F30x_StdPeriph_Driver/src/stm32f30x_tim.c ****   assert_param(IS_TIM_LIST1_PERIPH(TIMx));
2036:../Libraries/STM32F30x_StdPeriph_Driver/src/stm32f30x_tim.c ****   assert_param(IS_TIM_OC_POLARITY(TIM_OCPolarity));
2037:../Libraries/STM32F30x_StdPeriph_Driver/src/stm32f30x_tim.c **** 
2038:../Libraries/STM32F30x_StdPeriph_Driver/src/stm32f30x_tim.c ****   tmpccer = TIMx->CCER;
 3215              		.loc 1 2038 0
 3216 114c 019B     		ldr	r3, [sp, #4]
 3217 114e 1B6A     		ldr	r3, [r3, #32]
 3218 1150 0393     		str	r3, [sp, #12]
2039:../Libraries/STM32F30x_StdPeriph_Driver/src/stm32f30x_tim.c **** 
2040:../Libraries/STM32F30x_StdPeriph_Driver/src/stm32f30x_tim.c ****   /* Set or Reset the CC1P Bit */
2041:../Libraries/STM32F30x_StdPeriph_Driver/src/stm32f30x_tim.c ****   tmpccer &= (uint32_t)(~TIM_CCER_CC1P);
 3219              		.loc 1 2041 0
 3220 1152 039B     		ldr	r3, [sp, #12]
 3221 1154 23F00203 		bic	r3, r3, #2
 3222 1158 0393     		str	r3, [sp, #12]
2042:../Libraries/STM32F30x_StdPeriph_Driver/src/stm32f30x_tim.c ****   tmpccer |= TIM_OCPolarity;
 3223              		.loc 1 2042 0
 3224 115a BDF80230 		ldrh	r3, [sp, #2]
 3225 115e 039A     		ldr	r2, [sp, #12]
 3226 1160 1343     		orrs	r3, r3, r2
 3227 1162 0393     		str	r3, [sp, #12]
2043:../Libraries/STM32F30x_StdPeriph_Driver/src/stm32f30x_tim.c **** 
2044:../Libraries/STM32F30x_StdPeriph_Driver/src/stm32f30x_tim.c ****   /* Write to TIMx CCER register */
2045:../Libraries/STM32F30x_StdPeriph_Driver/src/stm32f30x_tim.c ****   TIMx->CCER = tmpccer;
 3228              		.loc 1 2045 0
 3229 1164 019B     		ldr	r3, [sp, #4]
 3230 1166 039A     		ldr	r2, [sp, #12]
 3231 1168 1A62     		str	r2, [r3, #32]
2046:../Libraries/STM32F30x_StdPeriph_Driver/src/stm32f30x_tim.c **** }
 3232              		.loc 1 2046 0
 3233 116a 04B0     		add	sp, sp, #16
 3234 116c 7047     		bx	lr
 3235              		.cfi_endproc
 3236              	.LFE167:
 3238 116e 00BF     		.align	2
 3239              		.global	TIM_OC1NPolarityConfig
 3240              		.thumb
 3241              		.thumb_func
 3243              	TIM_OC1NPolarityConfig:
 3244              	.LFB168:
2047:../Libraries/STM32F30x_StdPeriph_Driver/src/stm32f30x_tim.c **** 
2048:../Libraries/STM32F30x_StdPeriph_Driver/src/stm32f30x_tim.c **** /**
2049:../Libraries/STM32F30x_StdPeriph_Driver/src/stm32f30x_tim.c ****   * @brief  Configures the TIMx Channel 1N polarity.
2050:../Libraries/STM32F30x_StdPeriph_Driver/src/stm32f30x_tim.c ****   * @param  TIMx: where x can be 1, 8, 15, 16 or 17 to select the TIM peripheral.
2051:../Libraries/STM32F30x_StdPeriph_Driver/src/stm32f30x_tim.c ****   * @param  TIM_OCNPolarity: specifies the OC1N Polarity
2052:../Libraries/STM32F30x_StdPeriph_Driver/src/stm32f30x_tim.c ****   *          This parameter can be one of the following values:
2053:../Libraries/STM32F30x_StdPeriph_Driver/src/stm32f30x_tim.c ****   *            @arg TIM_OCNPolarity_High: Output Compare active high
2054:../Libraries/STM32F30x_StdPeriph_Driver/src/stm32f30x_tim.c ****   *            @arg TIM_OCNPolarity_Low: Output Compare active low
2055:../Libraries/STM32F30x_StdPeriph_Driver/src/stm32f30x_tim.c ****   * @retval None
2056:../Libraries/STM32F30x_StdPeriph_Driver/src/stm32f30x_tim.c ****   */
2057:../Libraries/STM32F30x_StdPeriph_Driver/src/stm32f30x_tim.c **** void TIM_OC1NPolarityConfig(TIM_TypeDef* TIMx, uint16_t TIM_OCNPolarity)
2058:../Libraries/STM32F30x_StdPeriph_Driver/src/stm32f30x_tim.c **** {
 3245              		.loc 1 2058 0
 3246              		.cfi_startproc
 3247              		@ args = 0, pretend = 0, frame = 16
 3248              		@ frame_needed = 0, uses_anonymous_args = 0
 3249              		@ link register save eliminated.
 3250 1170 84B0     		sub	sp, sp, #16
 3251              	.LCFI58:
 3252              		.cfi_def_cfa_offset 16
 3253 1172 0190     		str	r0, [sp, #4]
 3254 1174 0B46     		mov	r3, r1
 3255 1176 ADF80230 		strh	r3, [sp, #2]	@ movhi
2059:../Libraries/STM32F30x_StdPeriph_Driver/src/stm32f30x_tim.c ****   uint32_t tmpccer = 0;
 3256              		.loc 1 2059 0
 3257 117a 4FF00003 		mov	r3, #0
 3258 117e 0393     		str	r3, [sp, #12]
2060:../Libraries/STM32F30x_StdPeriph_Driver/src/stm32f30x_tim.c ****   /* Check the parameters */
2061:../Libraries/STM32F30x_StdPeriph_Driver/src/stm32f30x_tim.c ****   assert_param(IS_TIM_LIST6_PERIPH(TIMx));
2062:../Libraries/STM32F30x_StdPeriph_Driver/src/stm32f30x_tim.c ****   assert_param(IS_TIM_OCN_POLARITY(TIM_OCNPolarity));
2063:../Libraries/STM32F30x_StdPeriph_Driver/src/stm32f30x_tim.c ****    
2064:../Libraries/STM32F30x_StdPeriph_Driver/src/stm32f30x_tim.c ****   tmpccer = TIMx->CCER;
 3259              		.loc 1 2064 0
 3260 1180 019B     		ldr	r3, [sp, #4]
 3261 1182 1B6A     		ldr	r3, [r3, #32]
 3262 1184 0393     		str	r3, [sp, #12]
2065:../Libraries/STM32F30x_StdPeriph_Driver/src/stm32f30x_tim.c **** 
2066:../Libraries/STM32F30x_StdPeriph_Driver/src/stm32f30x_tim.c ****   /* Set or Reset the CC1NP Bit */
2067:../Libraries/STM32F30x_StdPeriph_Driver/src/stm32f30x_tim.c ****   tmpccer &= (uint32_t)~TIM_CCER_CC1NP;
 3263              		.loc 1 2067 0
 3264 1186 039B     		ldr	r3, [sp, #12]
 3265 1188 23F00803 		bic	r3, r3, #8
 3266 118c 0393     		str	r3, [sp, #12]
2068:../Libraries/STM32F30x_StdPeriph_Driver/src/stm32f30x_tim.c ****   tmpccer |= TIM_OCNPolarity;
 3267              		.loc 1 2068 0
 3268 118e BDF80230 		ldrh	r3, [sp, #2]
 3269 1192 039A     		ldr	r2, [sp, #12]
 3270 1194 1343     		orrs	r3, r3, r2
 3271 1196 0393     		str	r3, [sp, #12]
2069:../Libraries/STM32F30x_StdPeriph_Driver/src/stm32f30x_tim.c **** 
2070:../Libraries/STM32F30x_StdPeriph_Driver/src/stm32f30x_tim.c ****   /* Write to TIMx CCER register */
2071:../Libraries/STM32F30x_StdPeriph_Driver/src/stm32f30x_tim.c ****   TIMx->CCER = tmpccer;
 3272              		.loc 1 2071 0
 3273 1198 019B     		ldr	r3, [sp, #4]
 3274 119a 039A     		ldr	r2, [sp, #12]
 3275 119c 1A62     		str	r2, [r3, #32]
2072:../Libraries/STM32F30x_StdPeriph_Driver/src/stm32f30x_tim.c **** }
 3276              		.loc 1 2072 0
 3277 119e 04B0     		add	sp, sp, #16
 3278 11a0 7047     		bx	lr
 3279              		.cfi_endproc
 3280              	.LFE168:
 3282 11a2 00BF     		.align	2
 3283              		.global	TIM_OC2PolarityConfig
 3284              		.thumb
 3285              		.thumb_func
 3287              	TIM_OC2PolarityConfig:
 3288              	.LFB169:
2073:../Libraries/STM32F30x_StdPeriph_Driver/src/stm32f30x_tim.c **** 
2074:../Libraries/STM32F30x_StdPeriph_Driver/src/stm32f30x_tim.c **** /**
2075:../Libraries/STM32F30x_StdPeriph_Driver/src/stm32f30x_tim.c ****   * @brief  Configures the TIMx channel 2 polarity.
2076:../Libraries/STM32F30x_StdPeriph_Driver/src/stm32f30x_tim.c ****   * @param  TIMx: where x can be 1, 2, 3, 4 8 or 15 to select the TIM 
2077:../Libraries/STM32F30x_StdPeriph_Driver/src/stm32f30x_tim.c ****   *         peripheral.
2078:../Libraries/STM32F30x_StdPeriph_Driver/src/stm32f30x_tim.c ****   * @param  TIM_OCPolarity: specifies the OC2 Polarity
2079:../Libraries/STM32F30x_StdPeriph_Driver/src/stm32f30x_tim.c ****   *          This parameter can be one of the following values:
2080:../Libraries/STM32F30x_StdPeriph_Driver/src/stm32f30x_tim.c ****   *            @arg TIM_OCPolarity_High: Output Compare active high
2081:../Libraries/STM32F30x_StdPeriph_Driver/src/stm32f30x_tim.c ****   *            @arg TIM_OCPolarity_Low: Output Compare active low
2082:../Libraries/STM32F30x_StdPeriph_Driver/src/stm32f30x_tim.c ****   * @retval None
2083:../Libraries/STM32F30x_StdPeriph_Driver/src/stm32f30x_tim.c ****   */
2084:../Libraries/STM32F30x_StdPeriph_Driver/src/stm32f30x_tim.c **** void TIM_OC2PolarityConfig(TIM_TypeDef* TIMx, uint16_t TIM_OCPolarity)
2085:../Libraries/STM32F30x_StdPeriph_Driver/src/stm32f30x_tim.c **** {
 3289              		.loc 1 2085 0
 3290              		.cfi_startproc
 3291              		@ args = 0, pretend = 0, frame = 16
 3292              		@ frame_needed = 0, uses_anonymous_args = 0
 3293              		@ link register save eliminated.
 3294 11a4 84B0     		sub	sp, sp, #16
 3295              	.LCFI59:
 3296              		.cfi_def_cfa_offset 16
 3297 11a6 0190     		str	r0, [sp, #4]
 3298 11a8 0B46     		mov	r3, r1
 3299 11aa ADF80230 		strh	r3, [sp, #2]	@ movhi
2086:../Libraries/STM32F30x_StdPeriph_Driver/src/stm32f30x_tim.c ****   uint32_t tmpccer = 0;
 3300              		.loc 1 2086 0
 3301 11ae 4FF00003 		mov	r3, #0
 3302 11b2 0393     		str	r3, [sp, #12]
2087:../Libraries/STM32F30x_StdPeriph_Driver/src/stm32f30x_tim.c **** 
2088:../Libraries/STM32F30x_StdPeriph_Driver/src/stm32f30x_tim.c ****   /* Check the parameters */
2089:../Libraries/STM32F30x_StdPeriph_Driver/src/stm32f30x_tim.c ****   assert_param(IS_TIM_LIST2_PERIPH(TIMx));
2090:../Libraries/STM32F30x_StdPeriph_Driver/src/stm32f30x_tim.c ****   assert_param(IS_TIM_OC_POLARITY(TIM_OCPolarity));
2091:../Libraries/STM32F30x_StdPeriph_Driver/src/stm32f30x_tim.c **** 
2092:../Libraries/STM32F30x_StdPeriph_Driver/src/stm32f30x_tim.c ****   tmpccer = TIMx->CCER;
 3303              		.loc 1 2092 0
 3304 11b4 019B     		ldr	r3, [sp, #4]
 3305 11b6 1B6A     		ldr	r3, [r3, #32]
 3306 11b8 0393     		str	r3, [sp, #12]
2093:../Libraries/STM32F30x_StdPeriph_Driver/src/stm32f30x_tim.c **** 
2094:../Libraries/STM32F30x_StdPeriph_Driver/src/stm32f30x_tim.c ****   /* Set or Reset the CC2P Bit */
2095:../Libraries/STM32F30x_StdPeriph_Driver/src/stm32f30x_tim.c ****   tmpccer &= (uint32_t)(~TIM_CCER_CC2P);
 3307              		.loc 1 2095 0
 3308 11ba 039B     		ldr	r3, [sp, #12]
 3309 11bc 23F02003 		bic	r3, r3, #32
 3310 11c0 0393     		str	r3, [sp, #12]
2096:../Libraries/STM32F30x_StdPeriph_Driver/src/stm32f30x_tim.c ****   tmpccer |= ((uint32_t)TIM_OCPolarity << 4);
 3311              		.loc 1 2096 0
 3312 11c2 BDF80230 		ldrh	r3, [sp, #2]
 3313 11c6 4FEA0313 		lsl	r3, r3, #4
 3314 11ca 039A     		ldr	r2, [sp, #12]
 3315 11cc 1343     		orrs	r3, r3, r2
 3316 11ce 0393     		str	r3, [sp, #12]
2097:../Libraries/STM32F30x_StdPeriph_Driver/src/stm32f30x_tim.c **** 
2098:../Libraries/STM32F30x_StdPeriph_Driver/src/stm32f30x_tim.c ****   /* Write to TIMx CCER register */
2099:../Libraries/STM32F30x_StdPeriph_Driver/src/stm32f30x_tim.c ****   TIMx->CCER = tmpccer;
 3317              		.loc 1 2099 0
 3318 11d0 019B     		ldr	r3, [sp, #4]
 3319 11d2 039A     		ldr	r2, [sp, #12]
 3320 11d4 1A62     		str	r2, [r3, #32]
2100:../Libraries/STM32F30x_StdPeriph_Driver/src/stm32f30x_tim.c **** }
 3321              		.loc 1 2100 0
 3322 11d6 04B0     		add	sp, sp, #16
 3323 11d8 7047     		bx	lr
 3324              		.cfi_endproc
 3325              	.LFE169:
 3327 11da 00BF     		.align	2
 3328              		.global	TIM_OC2NPolarityConfig
 3329              		.thumb
 3330              		.thumb_func
 3332              	TIM_OC2NPolarityConfig:
 3333              	.LFB170:
2101:../Libraries/STM32F30x_StdPeriph_Driver/src/stm32f30x_tim.c **** 
2102:../Libraries/STM32F30x_StdPeriph_Driver/src/stm32f30x_tim.c **** /**
2103:../Libraries/STM32F30x_StdPeriph_Driver/src/stm32f30x_tim.c ****   * @brief  Configures the TIMx Channel 2N polarity.
2104:../Libraries/STM32F30x_StdPeriph_Driver/src/stm32f30x_tim.c ****   * @param  TIMx: where x can be 1 or 8 to select the TIM peripheral.
2105:../Libraries/STM32F30x_StdPeriph_Driver/src/stm32f30x_tim.c ****   * @param  TIM_OCNPolarity: specifies the OC2N Polarity
2106:../Libraries/STM32F30x_StdPeriph_Driver/src/stm32f30x_tim.c ****   *          This parameter can be one of the following values:
2107:../Libraries/STM32F30x_StdPeriph_Driver/src/stm32f30x_tim.c ****   *            @arg TIM_OCNPolarity_High: Output Compare active high
2108:../Libraries/STM32F30x_StdPeriph_Driver/src/stm32f30x_tim.c ****   *            @arg TIM_OCNPolarity_Low: Output Compare active low
2109:../Libraries/STM32F30x_StdPeriph_Driver/src/stm32f30x_tim.c ****   * @retval None
2110:../Libraries/STM32F30x_StdPeriph_Driver/src/stm32f30x_tim.c ****   */
2111:../Libraries/STM32F30x_StdPeriph_Driver/src/stm32f30x_tim.c **** void TIM_OC2NPolarityConfig(TIM_TypeDef* TIMx, uint16_t TIM_OCNPolarity)
2112:../Libraries/STM32F30x_StdPeriph_Driver/src/stm32f30x_tim.c **** {
 3334              		.loc 1 2112 0
 3335              		.cfi_startproc
 3336              		@ args = 0, pretend = 0, frame = 16
 3337              		@ frame_needed = 0, uses_anonymous_args = 0
 3338              		@ link register save eliminated.
 3339 11dc 84B0     		sub	sp, sp, #16
 3340              	.LCFI60:
 3341              		.cfi_def_cfa_offset 16
 3342 11de 0190     		str	r0, [sp, #4]
 3343 11e0 0B46     		mov	r3, r1
 3344 11e2 ADF80230 		strh	r3, [sp, #2]	@ movhi
2113:../Libraries/STM32F30x_StdPeriph_Driver/src/stm32f30x_tim.c ****   uint32_t tmpccer = 0;
 3345              		.loc 1 2113 0
 3346 11e6 4FF00003 		mov	r3, #0
 3347 11ea 0393     		str	r3, [sp, #12]
2114:../Libraries/STM32F30x_StdPeriph_Driver/src/stm32f30x_tim.c **** 
2115:../Libraries/STM32F30x_StdPeriph_Driver/src/stm32f30x_tim.c ****   /* Check the parameters */
2116:../Libraries/STM32F30x_StdPeriph_Driver/src/stm32f30x_tim.c ****   assert_param(IS_TIM_LIST4_PERIPH(TIMx));
2117:../Libraries/STM32F30x_StdPeriph_Driver/src/stm32f30x_tim.c ****   assert_param(IS_TIM_OCN_POLARITY(TIM_OCNPolarity));
2118:../Libraries/STM32F30x_StdPeriph_Driver/src/stm32f30x_tim.c ****   
2119:../Libraries/STM32F30x_StdPeriph_Driver/src/stm32f30x_tim.c ****   tmpccer = TIMx->CCER;
 3348              		.loc 1 2119 0
 3349 11ec 019B     		ldr	r3, [sp, #4]
 3350 11ee 1B6A     		ldr	r3, [r3, #32]
 3351 11f0 0393     		str	r3, [sp, #12]
2120:../Libraries/STM32F30x_StdPeriph_Driver/src/stm32f30x_tim.c **** 
2121:../Libraries/STM32F30x_StdPeriph_Driver/src/stm32f30x_tim.c ****   /* Set or Reset the CC2NP Bit */
2122:../Libraries/STM32F30x_StdPeriph_Driver/src/stm32f30x_tim.c ****   tmpccer &= (uint32_t)~TIM_CCER_CC2NP;
 3352              		.loc 1 2122 0
 3353 11f2 039B     		ldr	r3, [sp, #12]
 3354 11f4 23F08003 		bic	r3, r3, #128
 3355 11f8 0393     		str	r3, [sp, #12]
2123:../Libraries/STM32F30x_StdPeriph_Driver/src/stm32f30x_tim.c ****   tmpccer |= ((uint32_t)TIM_OCNPolarity << 4);
 3356              		.loc 1 2123 0
 3357 11fa BDF80230 		ldrh	r3, [sp, #2]
 3358 11fe 4FEA0313 		lsl	r3, r3, #4
 3359 1202 039A     		ldr	r2, [sp, #12]
 3360 1204 1343     		orrs	r3, r3, r2
 3361 1206 0393     		str	r3, [sp, #12]
2124:../Libraries/STM32F30x_StdPeriph_Driver/src/stm32f30x_tim.c **** 
2125:../Libraries/STM32F30x_StdPeriph_Driver/src/stm32f30x_tim.c ****   /* Write to TIMx CCER register */
2126:../Libraries/STM32F30x_StdPeriph_Driver/src/stm32f30x_tim.c ****   TIMx->CCER = tmpccer;
 3362              		.loc 1 2126 0
 3363 1208 019B     		ldr	r3, [sp, #4]
 3364 120a 039A     		ldr	r2, [sp, #12]
 3365 120c 1A62     		str	r2, [r3, #32]
2127:../Libraries/STM32F30x_StdPeriph_Driver/src/stm32f30x_tim.c **** }
 3366              		.loc 1 2127 0
 3367 120e 04B0     		add	sp, sp, #16
 3368 1210 7047     		bx	lr
 3369              		.cfi_endproc
 3370              	.LFE170:
 3372 1212 00BF     		.align	2
 3373              		.global	TIM_OC3PolarityConfig
 3374              		.thumb
 3375              		.thumb_func
 3377              	TIM_OC3PolarityConfig:
 3378              	.LFB171:
2128:../Libraries/STM32F30x_StdPeriph_Driver/src/stm32f30x_tim.c **** 
2129:../Libraries/STM32F30x_StdPeriph_Driver/src/stm32f30x_tim.c **** /**
2130:../Libraries/STM32F30x_StdPeriph_Driver/src/stm32f30x_tim.c ****   * @brief  Configures the TIMx channel 3 polarity.
2131:../Libraries/STM32F30x_StdPeriph_Driver/src/stm32f30x_tim.c ****   * @param  TIMx: where x can be 1, 2, 3, 4 or 8 to select the TIM peripheral.
2132:../Libraries/STM32F30x_StdPeriph_Driver/src/stm32f30x_tim.c ****   * @param  TIM_OCPolarity: specifies the OC3 Polarity
2133:../Libraries/STM32F30x_StdPeriph_Driver/src/stm32f30x_tim.c ****   *          This parameter can be one of the following values:
2134:../Libraries/STM32F30x_StdPeriph_Driver/src/stm32f30x_tim.c ****   *            @arg TIM_OCPolarity_High: Output Compare active high
2135:../Libraries/STM32F30x_StdPeriph_Driver/src/stm32f30x_tim.c ****   *            @arg TIM_OCPolarity_Low: Output Compare active low
2136:../Libraries/STM32F30x_StdPeriph_Driver/src/stm32f30x_tim.c ****   * @retval None
2137:../Libraries/STM32F30x_StdPeriph_Driver/src/stm32f30x_tim.c ****   */
2138:../Libraries/STM32F30x_StdPeriph_Driver/src/stm32f30x_tim.c **** void TIM_OC3PolarityConfig(TIM_TypeDef* TIMx, uint16_t TIM_OCPolarity)
2139:../Libraries/STM32F30x_StdPeriph_Driver/src/stm32f30x_tim.c **** {
 3379              		.loc 1 2139 0
 3380              		.cfi_startproc
 3381              		@ args = 0, pretend = 0, frame = 16
 3382              		@ frame_needed = 0, uses_anonymous_args = 0
 3383              		@ link register save eliminated.
 3384 1214 84B0     		sub	sp, sp, #16
 3385              	.LCFI61:
 3386              		.cfi_def_cfa_offset 16
 3387 1216 0190     		str	r0, [sp, #4]
 3388 1218 0B46     		mov	r3, r1
 3389 121a ADF80230 		strh	r3, [sp, #2]	@ movhi
2140:../Libraries/STM32F30x_StdPeriph_Driver/src/stm32f30x_tim.c ****   uint32_t tmpccer = 0;
 3390              		.loc 1 2140 0
 3391 121e 4FF00003 		mov	r3, #0
 3392 1222 0393     		str	r3, [sp, #12]
2141:../Libraries/STM32F30x_StdPeriph_Driver/src/stm32f30x_tim.c **** 
2142:../Libraries/STM32F30x_StdPeriph_Driver/src/stm32f30x_tim.c ****   /* Check the parameters */
2143:../Libraries/STM32F30x_StdPeriph_Driver/src/stm32f30x_tim.c ****   assert_param(IS_TIM_LIST3_PERIPH(TIMx));
2144:../Libraries/STM32F30x_StdPeriph_Driver/src/stm32f30x_tim.c ****   assert_param(IS_TIM_OC_POLARITY(TIM_OCPolarity));
2145:../Libraries/STM32F30x_StdPeriph_Driver/src/stm32f30x_tim.c **** 
2146:../Libraries/STM32F30x_StdPeriph_Driver/src/stm32f30x_tim.c ****   tmpccer = TIMx->CCER;
 3393              		.loc 1 2146 0
 3394 1224 019B     		ldr	r3, [sp, #4]
 3395 1226 1B6A     		ldr	r3, [r3, #32]
 3396 1228 0393     		str	r3, [sp, #12]
2147:../Libraries/STM32F30x_StdPeriph_Driver/src/stm32f30x_tim.c **** 
2148:../Libraries/STM32F30x_StdPeriph_Driver/src/stm32f30x_tim.c ****   /* Set or Reset the CC3P Bit */
2149:../Libraries/STM32F30x_StdPeriph_Driver/src/stm32f30x_tim.c ****   tmpccer &= (uint32_t)~TIM_CCER_CC3P;
 3397              		.loc 1 2149 0
 3398 122a 039B     		ldr	r3, [sp, #12]
 3399 122c 23F40073 		bic	r3, r3, #512
 3400 1230 0393     		str	r3, [sp, #12]
2150:../Libraries/STM32F30x_StdPeriph_Driver/src/stm32f30x_tim.c ****   tmpccer |= ((uint32_t)TIM_OCPolarity << 8);
 3401              		.loc 1 2150 0
 3402 1232 BDF80230 		ldrh	r3, [sp, #2]
 3403 1236 4FEA0323 		lsl	r3, r3, #8
 3404 123a 039A     		ldr	r2, [sp, #12]
 3405 123c 1343     		orrs	r3, r3, r2
 3406 123e 0393     		str	r3, [sp, #12]
2151:../Libraries/STM32F30x_StdPeriph_Driver/src/stm32f30x_tim.c **** 
2152:../Libraries/STM32F30x_StdPeriph_Driver/src/stm32f30x_tim.c ****   /* Write to TIMx CCER register */
2153:../Libraries/STM32F30x_StdPeriph_Driver/src/stm32f30x_tim.c ****   TIMx->CCER = tmpccer;
 3407              		.loc 1 2153 0
 3408 1240 019B     		ldr	r3, [sp, #4]
 3409 1242 039A     		ldr	r2, [sp, #12]
 3410 1244 1A62     		str	r2, [r3, #32]
2154:../Libraries/STM32F30x_StdPeriph_Driver/src/stm32f30x_tim.c **** }
 3411              		.loc 1 2154 0
 3412 1246 04B0     		add	sp, sp, #16
 3413 1248 7047     		bx	lr
 3414              		.cfi_endproc
 3415              	.LFE171:
 3417 124a 00BF     		.align	2
 3418              		.global	TIM_OC3NPolarityConfig
 3419              		.thumb
 3420              		.thumb_func
 3422              	TIM_OC3NPolarityConfig:
 3423              	.LFB172:
2155:../Libraries/STM32F30x_StdPeriph_Driver/src/stm32f30x_tim.c **** 
2156:../Libraries/STM32F30x_StdPeriph_Driver/src/stm32f30x_tim.c **** /**
2157:../Libraries/STM32F30x_StdPeriph_Driver/src/stm32f30x_tim.c ****   * @brief  Configures the TIMx Channel 3N polarity.
2158:../Libraries/STM32F30x_StdPeriph_Driver/src/stm32f30x_tim.c ****   * @param  TIMx: where x can be 1 or 8 to select the TIM peripheral.
2159:../Libraries/STM32F30x_StdPeriph_Driver/src/stm32f30x_tim.c ****   * @param  TIM_OCNPolarity: specifies the OC3N Polarity
2160:../Libraries/STM32F30x_StdPeriph_Driver/src/stm32f30x_tim.c ****   *          This parameter can be one of the following values:
2161:../Libraries/STM32F30x_StdPeriph_Driver/src/stm32f30x_tim.c ****   *            @arg TIM_OCNPolarity_High: Output Compare active high
2162:../Libraries/STM32F30x_StdPeriph_Driver/src/stm32f30x_tim.c ****   *            @arg TIM_OCNPolarity_Low: Output Compare active low
2163:../Libraries/STM32F30x_StdPeriph_Driver/src/stm32f30x_tim.c ****   * @retval None
2164:../Libraries/STM32F30x_StdPeriph_Driver/src/stm32f30x_tim.c ****   */
2165:../Libraries/STM32F30x_StdPeriph_Driver/src/stm32f30x_tim.c **** void TIM_OC3NPolarityConfig(TIM_TypeDef* TIMx, uint16_t TIM_OCNPolarity)
2166:../Libraries/STM32F30x_StdPeriph_Driver/src/stm32f30x_tim.c **** {
 3424              		.loc 1 2166 0
 3425              		.cfi_startproc
 3426              		@ args = 0, pretend = 0, frame = 16
 3427              		@ frame_needed = 0, uses_anonymous_args = 0
 3428              		@ link register save eliminated.
 3429 124c 84B0     		sub	sp, sp, #16
 3430              	.LCFI62:
 3431              		.cfi_def_cfa_offset 16
 3432 124e 0190     		str	r0, [sp, #4]
 3433 1250 0B46     		mov	r3, r1
 3434 1252 ADF80230 		strh	r3, [sp, #2]	@ movhi
2167:../Libraries/STM32F30x_StdPeriph_Driver/src/stm32f30x_tim.c ****   uint32_t tmpccer = 0;
 3435              		.loc 1 2167 0
 3436 1256 4FF00003 		mov	r3, #0
 3437 125a 0393     		str	r3, [sp, #12]
2168:../Libraries/STM32F30x_StdPeriph_Driver/src/stm32f30x_tim.c ****  
2169:../Libraries/STM32F30x_StdPeriph_Driver/src/stm32f30x_tim.c ****   /* Check the parameters */
2170:../Libraries/STM32F30x_StdPeriph_Driver/src/stm32f30x_tim.c ****   assert_param(IS_TIM_LIST4_PERIPH(TIMx));
2171:../Libraries/STM32F30x_StdPeriph_Driver/src/stm32f30x_tim.c ****   assert_param(IS_TIM_OCN_POLARITY(TIM_OCNPolarity));
2172:../Libraries/STM32F30x_StdPeriph_Driver/src/stm32f30x_tim.c ****     
2173:../Libraries/STM32F30x_StdPeriph_Driver/src/stm32f30x_tim.c ****   tmpccer = TIMx->CCER;
 3438              		.loc 1 2173 0
 3439 125c 019B     		ldr	r3, [sp, #4]
 3440 125e 1B6A     		ldr	r3, [r3, #32]
 3441 1260 0393     		str	r3, [sp, #12]
2174:../Libraries/STM32F30x_StdPeriph_Driver/src/stm32f30x_tim.c **** 
2175:../Libraries/STM32F30x_StdPeriph_Driver/src/stm32f30x_tim.c ****   /* Set or Reset the CC3NP Bit */
2176:../Libraries/STM32F30x_StdPeriph_Driver/src/stm32f30x_tim.c ****   tmpccer &= (uint32_t)~TIM_CCER_CC3NP;
 3442              		.loc 1 2176 0
 3443 1262 039B     		ldr	r3, [sp, #12]
 3444 1264 23F40063 		bic	r3, r3, #2048
 3445 1268 0393     		str	r3, [sp, #12]
2177:../Libraries/STM32F30x_StdPeriph_Driver/src/stm32f30x_tim.c ****   tmpccer |= ((uint32_t)TIM_OCNPolarity << 8);
 3446              		.loc 1 2177 0
 3447 126a BDF80230 		ldrh	r3, [sp, #2]
 3448 126e 4FEA0323 		lsl	r3, r3, #8
 3449 1272 039A     		ldr	r2, [sp, #12]
 3450 1274 1343     		orrs	r3, r3, r2
 3451 1276 0393     		str	r3, [sp, #12]
2178:../Libraries/STM32F30x_StdPeriph_Driver/src/stm32f30x_tim.c **** 
2179:../Libraries/STM32F30x_StdPeriph_Driver/src/stm32f30x_tim.c ****   /* Write to TIMx CCER register */
2180:../Libraries/STM32F30x_StdPeriph_Driver/src/stm32f30x_tim.c ****   TIMx->CCER = tmpccer;
 3452              		.loc 1 2180 0
 3453 1278 019B     		ldr	r3, [sp, #4]
 3454 127a 039A     		ldr	r2, [sp, #12]
 3455 127c 1A62     		str	r2, [r3, #32]
2181:../Libraries/STM32F30x_StdPeriph_Driver/src/stm32f30x_tim.c **** }
 3456              		.loc 1 2181 0
 3457 127e 04B0     		add	sp, sp, #16
 3458 1280 7047     		bx	lr
 3459              		.cfi_endproc
 3460              	.LFE172:
 3462 1282 00BF     		.align	2
 3463              		.global	TIM_OC4PolarityConfig
 3464              		.thumb
 3465              		.thumb_func
 3467              	TIM_OC4PolarityConfig:
 3468              	.LFB173:
2182:../Libraries/STM32F30x_StdPeriph_Driver/src/stm32f30x_tim.c **** 
2183:../Libraries/STM32F30x_StdPeriph_Driver/src/stm32f30x_tim.c **** /**
2184:../Libraries/STM32F30x_StdPeriph_Driver/src/stm32f30x_tim.c ****   * @brief  Configures the TIMx channel 4 polarity.
2185:../Libraries/STM32F30x_StdPeriph_Driver/src/stm32f30x_tim.c ****   * @param  TIMx: where x can be 1, 2, 3, 4 or 8 to select the TIM peripheral.
2186:../Libraries/STM32F30x_StdPeriph_Driver/src/stm32f30x_tim.c ****   * @param  TIM_OCPolarity: specifies the OC4 Polarity
2187:../Libraries/STM32F30x_StdPeriph_Driver/src/stm32f30x_tim.c ****   *          This parameter can be one of the following values:
2188:../Libraries/STM32F30x_StdPeriph_Driver/src/stm32f30x_tim.c ****   *            @arg TIM_OCPolarity_High: Output Compare active high
2189:../Libraries/STM32F30x_StdPeriph_Driver/src/stm32f30x_tim.c ****   *            @arg TIM_OCPolarity_Low: Output Compare active low
2190:../Libraries/STM32F30x_StdPeriph_Driver/src/stm32f30x_tim.c ****   * @retval None
2191:../Libraries/STM32F30x_StdPeriph_Driver/src/stm32f30x_tim.c ****   */
2192:../Libraries/STM32F30x_StdPeriph_Driver/src/stm32f30x_tim.c **** void TIM_OC4PolarityConfig(TIM_TypeDef* TIMx, uint16_t TIM_OCPolarity)
2193:../Libraries/STM32F30x_StdPeriph_Driver/src/stm32f30x_tim.c **** {
 3469              		.loc 1 2193 0
 3470              		.cfi_startproc
 3471              		@ args = 0, pretend = 0, frame = 16
 3472              		@ frame_needed = 0, uses_anonymous_args = 0
 3473              		@ link register save eliminated.
 3474 1284 84B0     		sub	sp, sp, #16
 3475              	.LCFI63:
 3476              		.cfi_def_cfa_offset 16
 3477 1286 0190     		str	r0, [sp, #4]
 3478 1288 0B46     		mov	r3, r1
 3479 128a ADF80230 		strh	r3, [sp, #2]	@ movhi
2194:../Libraries/STM32F30x_StdPeriph_Driver/src/stm32f30x_tim.c ****   uint32_t tmpccer = 0;
 3480              		.loc 1 2194 0
 3481 128e 4FF00003 		mov	r3, #0
 3482 1292 0393     		str	r3, [sp, #12]
2195:../Libraries/STM32F30x_StdPeriph_Driver/src/stm32f30x_tim.c **** 
2196:../Libraries/STM32F30x_StdPeriph_Driver/src/stm32f30x_tim.c ****   /* Check the parameters */
2197:../Libraries/STM32F30x_StdPeriph_Driver/src/stm32f30x_tim.c ****   assert_param(IS_TIM_LIST3_PERIPH(TIMx));
2198:../Libraries/STM32F30x_StdPeriph_Driver/src/stm32f30x_tim.c ****   assert_param(IS_TIM_OC_POLARITY(TIM_OCPolarity));
2199:../Libraries/STM32F30x_StdPeriph_Driver/src/stm32f30x_tim.c **** 
2200:../Libraries/STM32F30x_StdPeriph_Driver/src/stm32f30x_tim.c ****   tmpccer = TIMx->CCER;
 3483              		.loc 1 2200 0
 3484 1294 019B     		ldr	r3, [sp, #4]
 3485 1296 1B6A     		ldr	r3, [r3, #32]
 3486 1298 0393     		str	r3, [sp, #12]
2201:../Libraries/STM32F30x_StdPeriph_Driver/src/stm32f30x_tim.c **** 
2202:../Libraries/STM32F30x_StdPeriph_Driver/src/stm32f30x_tim.c ****   /* Set or Reset the CC4P Bit */
2203:../Libraries/STM32F30x_StdPeriph_Driver/src/stm32f30x_tim.c ****   tmpccer &= (uint32_t)~TIM_CCER_CC4P;
 3487              		.loc 1 2203 0
 3488 129a 039B     		ldr	r3, [sp, #12]
 3489 129c 23F40053 		bic	r3, r3, #8192
 3490 12a0 0393     		str	r3, [sp, #12]
2204:../Libraries/STM32F30x_StdPeriph_Driver/src/stm32f30x_tim.c ****   tmpccer |= ((uint32_t)TIM_OCPolarity << 12);
 3491              		.loc 1 2204 0
 3492 12a2 BDF80230 		ldrh	r3, [sp, #2]
 3493 12a6 4FEA0333 		lsl	r3, r3, #12
 3494 12aa 039A     		ldr	r2, [sp, #12]
 3495 12ac 1343     		orrs	r3, r3, r2
 3496 12ae 0393     		str	r3, [sp, #12]
2205:../Libraries/STM32F30x_StdPeriph_Driver/src/stm32f30x_tim.c **** 
2206:../Libraries/STM32F30x_StdPeriph_Driver/src/stm32f30x_tim.c ****   /* Write to TIMx CCER register */
2207:../Libraries/STM32F30x_StdPeriph_Driver/src/stm32f30x_tim.c ****   TIMx->CCER = tmpccer;
 3497              		.loc 1 2207 0
 3498 12b0 019B     		ldr	r3, [sp, #4]
 3499 12b2 039A     		ldr	r2, [sp, #12]
 3500 12b4 1A62     		str	r2, [r3, #32]
2208:../Libraries/STM32F30x_StdPeriph_Driver/src/stm32f30x_tim.c **** }
 3501              		.loc 1 2208 0
 3502 12b6 04B0     		add	sp, sp, #16
 3503 12b8 7047     		bx	lr
 3504              		.cfi_endproc
 3505              	.LFE173:
 3507 12ba 00BF     		.align	2
 3508              		.global	TIM_OC5PolarityConfig
 3509              		.thumb
 3510              		.thumb_func
 3512              	TIM_OC5PolarityConfig:
 3513              	.LFB174:
2209:../Libraries/STM32F30x_StdPeriph_Driver/src/stm32f30x_tim.c **** 
2210:../Libraries/STM32F30x_StdPeriph_Driver/src/stm32f30x_tim.c **** /**
2211:../Libraries/STM32F30x_StdPeriph_Driver/src/stm32f30x_tim.c ****   * @brief  Configures the TIMx channel 5 polarity.
2212:../Libraries/STM32F30x_StdPeriph_Driver/src/stm32f30x_tim.c ****   * @param  TIMx: where x can be 1 or 8 to select the TIM peripheral.
2213:../Libraries/STM32F30x_StdPeriph_Driver/src/stm32f30x_tim.c ****   * @param  TIM_OCPolarity: specifies the OC5 Polarity
2214:../Libraries/STM32F30x_StdPeriph_Driver/src/stm32f30x_tim.c ****   *          This parameter can be one of the following values:
2215:../Libraries/STM32F30x_StdPeriph_Driver/src/stm32f30x_tim.c ****   *            @arg TIM_OCPolarity_High: Output Compare active high
2216:../Libraries/STM32F30x_StdPeriph_Driver/src/stm32f30x_tim.c ****   *            @arg TIM_OCPolarity_Low: Output Compare active low
2217:../Libraries/STM32F30x_StdPeriph_Driver/src/stm32f30x_tim.c ****   * @retval None
2218:../Libraries/STM32F30x_StdPeriph_Driver/src/stm32f30x_tim.c ****   */
2219:../Libraries/STM32F30x_StdPeriph_Driver/src/stm32f30x_tim.c **** void TIM_OC5PolarityConfig(TIM_TypeDef* TIMx, uint16_t TIM_OCPolarity)
2220:../Libraries/STM32F30x_StdPeriph_Driver/src/stm32f30x_tim.c **** {
 3514              		.loc 1 2220 0
 3515              		.cfi_startproc
 3516              		@ args = 0, pretend = 0, frame = 16
 3517              		@ frame_needed = 0, uses_anonymous_args = 0
 3518              		@ link register save eliminated.
 3519 12bc 84B0     		sub	sp, sp, #16
 3520              	.LCFI64:
 3521              		.cfi_def_cfa_offset 16
 3522 12be 0190     		str	r0, [sp, #4]
 3523 12c0 0B46     		mov	r3, r1
 3524 12c2 ADF80230 		strh	r3, [sp, #2]	@ movhi
2221:../Libraries/STM32F30x_StdPeriph_Driver/src/stm32f30x_tim.c ****   uint32_t tmpccer = 0;
 3525              		.loc 1 2221 0
 3526 12c6 4FF00003 		mov	r3, #0
 3527 12ca 0393     		str	r3, [sp, #12]
2222:../Libraries/STM32F30x_StdPeriph_Driver/src/stm32f30x_tim.c **** 
2223:../Libraries/STM32F30x_StdPeriph_Driver/src/stm32f30x_tim.c ****   /* Check the parameters */
2224:../Libraries/STM32F30x_StdPeriph_Driver/src/stm32f30x_tim.c ****   assert_param(IS_TIM_LIST4_PERIPH(TIMx));
2225:../Libraries/STM32F30x_StdPeriph_Driver/src/stm32f30x_tim.c ****   assert_param(IS_TIM_OC_POLARITY(TIM_OCPolarity));
2226:../Libraries/STM32F30x_StdPeriph_Driver/src/stm32f30x_tim.c **** 
2227:../Libraries/STM32F30x_StdPeriph_Driver/src/stm32f30x_tim.c ****   tmpccer = TIMx->CCER;
 3528              		.loc 1 2227 0
 3529 12cc 019B     		ldr	r3, [sp, #4]
 3530 12ce 1B6A     		ldr	r3, [r3, #32]
 3531 12d0 0393     		str	r3, [sp, #12]
2228:../Libraries/STM32F30x_StdPeriph_Driver/src/stm32f30x_tim.c **** 
2229:../Libraries/STM32F30x_StdPeriph_Driver/src/stm32f30x_tim.c ****   /* Set or Reset the CC5P Bit */
2230:../Libraries/STM32F30x_StdPeriph_Driver/src/stm32f30x_tim.c ****   tmpccer &= (uint32_t)~TIM_CCER_CC5P;
 3532              		.loc 1 2230 0
 3533 12d2 039B     		ldr	r3, [sp, #12]
 3534 12d4 23F40033 		bic	r3, r3, #131072
 3535 12d8 0393     		str	r3, [sp, #12]
2231:../Libraries/STM32F30x_StdPeriph_Driver/src/stm32f30x_tim.c ****   tmpccer |= ((uint32_t)TIM_OCPolarity << 16);
 3536              		.loc 1 2231 0
 3537 12da BDF80230 		ldrh	r3, [sp, #2]
 3538 12de 4FEA0343 		lsl	r3, r3, #16
 3539 12e2 039A     		ldr	r2, [sp, #12]
 3540 12e4 1343     		orrs	r3, r3, r2
 3541 12e6 0393     		str	r3, [sp, #12]
2232:../Libraries/STM32F30x_StdPeriph_Driver/src/stm32f30x_tim.c **** 
2233:../Libraries/STM32F30x_StdPeriph_Driver/src/stm32f30x_tim.c ****   /* Write to TIMx CCER register */
2234:../Libraries/STM32F30x_StdPeriph_Driver/src/stm32f30x_tim.c ****   TIMx->CCER = tmpccer;
 3542              		.loc 1 2234 0
 3543 12e8 019B     		ldr	r3, [sp, #4]
 3544 12ea 039A     		ldr	r2, [sp, #12]
 3545 12ec 1A62     		str	r2, [r3, #32]
2235:../Libraries/STM32F30x_StdPeriph_Driver/src/stm32f30x_tim.c **** }
 3546              		.loc 1 2235 0
 3547 12ee 04B0     		add	sp, sp, #16
 3548 12f0 7047     		bx	lr
 3549              		.cfi_endproc
 3550              	.LFE174:
 3552 12f2 00BF     		.align	2
 3553              		.global	TIM_OC6PolarityConfig
 3554              		.thumb
 3555              		.thumb_func
 3557              	TIM_OC6PolarityConfig:
 3558              	.LFB175:
2236:../Libraries/STM32F30x_StdPeriph_Driver/src/stm32f30x_tim.c **** 
2237:../Libraries/STM32F30x_StdPeriph_Driver/src/stm32f30x_tim.c **** /**
2238:../Libraries/STM32F30x_StdPeriph_Driver/src/stm32f30x_tim.c ****   * @brief  Configures the TIMx channel 6 polarity.
2239:../Libraries/STM32F30x_StdPeriph_Driver/src/stm32f30x_tim.c ****   * @param  TIMx: where x can be 1 or 8 to select the TIM peripheral.
2240:../Libraries/STM32F30x_StdPeriph_Driver/src/stm32f30x_tim.c ****   * @param  TIM_OCPolarity: specifies the OC6 Polarity
2241:../Libraries/STM32F30x_StdPeriph_Driver/src/stm32f30x_tim.c ****   *          This parameter can be one of the following values:
2242:../Libraries/STM32F30x_StdPeriph_Driver/src/stm32f30x_tim.c ****   *            @arg TIM_OCPolarity_High: Output Compare active high
2243:../Libraries/STM32F30x_StdPeriph_Driver/src/stm32f30x_tim.c ****   *            @arg TIM_OCPolarity_Low: Output Compare active low
2244:../Libraries/STM32F30x_StdPeriph_Driver/src/stm32f30x_tim.c ****   * @retval None
2245:../Libraries/STM32F30x_StdPeriph_Driver/src/stm32f30x_tim.c ****   */
2246:../Libraries/STM32F30x_StdPeriph_Driver/src/stm32f30x_tim.c **** void TIM_OC6PolarityConfig(TIM_TypeDef* TIMx, uint16_t TIM_OCPolarity)
2247:../Libraries/STM32F30x_StdPeriph_Driver/src/stm32f30x_tim.c **** {
 3559              		.loc 1 2247 0
 3560              		.cfi_startproc
 3561              		@ args = 0, pretend = 0, frame = 16
 3562              		@ frame_needed = 0, uses_anonymous_args = 0
 3563              		@ link register save eliminated.
 3564 12f4 84B0     		sub	sp, sp, #16
 3565              	.LCFI65:
 3566              		.cfi_def_cfa_offset 16
 3567 12f6 0190     		str	r0, [sp, #4]
 3568 12f8 0B46     		mov	r3, r1
 3569 12fa ADF80230 		strh	r3, [sp, #2]	@ movhi
2248:../Libraries/STM32F30x_StdPeriph_Driver/src/stm32f30x_tim.c ****   uint32_t tmpccer = 0;
 3570              		.loc 1 2248 0
 3571 12fe 4FF00003 		mov	r3, #0
 3572 1302 0393     		str	r3, [sp, #12]
2249:../Libraries/STM32F30x_StdPeriph_Driver/src/stm32f30x_tim.c **** 
2250:../Libraries/STM32F30x_StdPeriph_Driver/src/stm32f30x_tim.c ****   /* Check the parameters */
2251:../Libraries/STM32F30x_StdPeriph_Driver/src/stm32f30x_tim.c ****   assert_param(IS_TIM_LIST4_PERIPH(TIMx));
2252:../Libraries/STM32F30x_StdPeriph_Driver/src/stm32f30x_tim.c ****   assert_param(IS_TIM_OC_POLARITY(TIM_OCPolarity));
2253:../Libraries/STM32F30x_StdPeriph_Driver/src/stm32f30x_tim.c **** 
2254:../Libraries/STM32F30x_StdPeriph_Driver/src/stm32f30x_tim.c ****   tmpccer = TIMx->CCER;
 3573              		.loc 1 2254 0
 3574 1304 019B     		ldr	r3, [sp, #4]
 3575 1306 1B6A     		ldr	r3, [r3, #32]
 3576 1308 0393     		str	r3, [sp, #12]
2255:../Libraries/STM32F30x_StdPeriph_Driver/src/stm32f30x_tim.c **** 
2256:../Libraries/STM32F30x_StdPeriph_Driver/src/stm32f30x_tim.c ****   /* Set or Reset the CC6P Bit */
2257:../Libraries/STM32F30x_StdPeriph_Driver/src/stm32f30x_tim.c ****   tmpccer &= (uint32_t)~TIM_CCER_CC6P;
 3577              		.loc 1 2257 0
 3578 130a 039B     		ldr	r3, [sp, #12]
 3579 130c 23F40013 		bic	r3, r3, #2097152
 3580 1310 0393     		str	r3, [sp, #12]
2258:../Libraries/STM32F30x_StdPeriph_Driver/src/stm32f30x_tim.c ****   tmpccer |= ((uint32_t)TIM_OCPolarity << 20);
 3581              		.loc 1 2258 0
 3582 1312 BDF80230 		ldrh	r3, [sp, #2]
 3583 1316 4FEA0353 		lsl	r3, r3, #20
 3584 131a 039A     		ldr	r2, [sp, #12]
 3585 131c 1343     		orrs	r3, r3, r2
 3586 131e 0393     		str	r3, [sp, #12]
2259:../Libraries/STM32F30x_StdPeriph_Driver/src/stm32f30x_tim.c **** 
2260:../Libraries/STM32F30x_StdPeriph_Driver/src/stm32f30x_tim.c ****   /* Write to TIMx CCER register */
2261:../Libraries/STM32F30x_StdPeriph_Driver/src/stm32f30x_tim.c ****   TIMx->CCER = tmpccer;
 3587              		.loc 1 2261 0
 3588 1320 019B     		ldr	r3, [sp, #4]
 3589 1322 039A     		ldr	r2, [sp, #12]
 3590 1324 1A62     		str	r2, [r3, #32]
2262:../Libraries/STM32F30x_StdPeriph_Driver/src/stm32f30x_tim.c **** }
 3591              		.loc 1 2262 0
 3592 1326 04B0     		add	sp, sp, #16
 3593 1328 7047     		bx	lr
 3594              		.cfi_endproc
 3595              	.LFE175:
 3597 132a 00BF     		.align	2
 3598              		.global	TIM_CCxCmd
 3599              		.thumb
 3600              		.thumb_func
 3602              	TIM_CCxCmd:
 3603              	.LFB176:
2263:../Libraries/STM32F30x_StdPeriph_Driver/src/stm32f30x_tim.c **** 
2264:../Libraries/STM32F30x_StdPeriph_Driver/src/stm32f30x_tim.c **** /**
2265:../Libraries/STM32F30x_StdPeriph_Driver/src/stm32f30x_tim.c ****   * @brief  Enables or disables the TIM Capture Compare Channel x.
2266:../Libraries/STM32F30x_StdPeriph_Driver/src/stm32f30x_tim.c ****   * @param  TIMx: where x can be 1, 2, 3, 4, 8, 15, 16 or 17 to select the TIM peripheral.
2267:../Libraries/STM32F30x_StdPeriph_Driver/src/stm32f30x_tim.c ****   * @param  TIM_Channel: specifies the TIM Channel
2268:../Libraries/STM32F30x_StdPeriph_Driver/src/stm32f30x_tim.c ****   *          This parameter can be one of the following values:
2269:../Libraries/STM32F30x_StdPeriph_Driver/src/stm32f30x_tim.c ****   *            @arg TIM_Channel_1: TIM Channel 1
2270:../Libraries/STM32F30x_StdPeriph_Driver/src/stm32f30x_tim.c ****   *            @arg TIM_Channel_2: TIM Channel 2
2271:../Libraries/STM32F30x_StdPeriph_Driver/src/stm32f30x_tim.c ****   *            @arg TIM_Channel_3: TIM Channel 3
2272:../Libraries/STM32F30x_StdPeriph_Driver/src/stm32f30x_tim.c ****   *            @arg TIM_Channel_4: TIM Channel 4
2273:../Libraries/STM32F30x_StdPeriph_Driver/src/stm32f30x_tim.c ****   *            @arg TIM_Channel_5: TIM Channel 5
2274:../Libraries/STM32F30x_StdPeriph_Driver/src/stm32f30x_tim.c ****   *            @arg TIM_Channel_6: TIM Channel 6    
2275:../Libraries/STM32F30x_StdPeriph_Driver/src/stm32f30x_tim.c ****   * @param  TIM_CCx: specifies the TIM Channel CCxE bit new state.
2276:../Libraries/STM32F30x_StdPeriph_Driver/src/stm32f30x_tim.c ****   *          This parameter can be: TIM_CCx_Enable or TIM_CCx_Disable. 
2277:../Libraries/STM32F30x_StdPeriph_Driver/src/stm32f30x_tim.c ****   * @retval None
2278:../Libraries/STM32F30x_StdPeriph_Driver/src/stm32f30x_tim.c ****   */
2279:../Libraries/STM32F30x_StdPeriph_Driver/src/stm32f30x_tim.c **** void TIM_CCxCmd(TIM_TypeDef* TIMx, uint16_t TIM_Channel, uint16_t TIM_CCx)
2280:../Libraries/STM32F30x_StdPeriph_Driver/src/stm32f30x_tim.c **** {
 3604              		.loc 1 2280 0
 3605              		.cfi_startproc
 3606              		@ args = 0, pretend = 0, frame = 16
 3607              		@ frame_needed = 0, uses_anonymous_args = 0
 3608              		@ link register save eliminated.
 3609 132c 84B0     		sub	sp, sp, #16
 3610              	.LCFI66:
 3611              		.cfi_def_cfa_offset 16
 3612 132e 0190     		str	r0, [sp, #4]
 3613 1330 1346     		mov	r3, r2
 3614 1332 0A46     		mov	r2, r1	@ movhi
 3615 1334 ADF80220 		strh	r2, [sp, #2]	@ movhi
 3616 1338 ADF80030 		strh	r3, [sp, #0]	@ movhi
2281:../Libraries/STM32F30x_StdPeriph_Driver/src/stm32f30x_tim.c ****   uint32_t tmp = 0;
 3617              		.loc 1 2281 0
 3618 133c 4FF00003 		mov	r3, #0
 3619 1340 0393     		str	r3, [sp, #12]
2282:../Libraries/STM32F30x_StdPeriph_Driver/src/stm32f30x_tim.c **** 
2283:../Libraries/STM32F30x_StdPeriph_Driver/src/stm32f30x_tim.c ****   /* Check the parameters */
2284:../Libraries/STM32F30x_StdPeriph_Driver/src/stm32f30x_tim.c ****   assert_param(IS_TIM_LIST1_PERIPH(TIMx)); 
2285:../Libraries/STM32F30x_StdPeriph_Driver/src/stm32f30x_tim.c ****   assert_param(IS_TIM_CHANNEL(TIM_Channel));
2286:../Libraries/STM32F30x_StdPeriph_Driver/src/stm32f30x_tim.c ****   assert_param(IS_TIM_CCX(TIM_CCx));
2287:../Libraries/STM32F30x_StdPeriph_Driver/src/stm32f30x_tim.c **** 
2288:../Libraries/STM32F30x_StdPeriph_Driver/src/stm32f30x_tim.c ****   tmp = (uint32_t)CCER_CCE_SET << (uint32_t)TIM_Channel;
 3620              		.loc 1 2288 0
 3621 1342 BDF80230 		ldrh	r3, [sp, #2]
 3622 1346 4FF00102 		mov	r2, #1
 3623 134a 02FA03F3 		lsl	r3, r2, r3
 3624 134e 0393     		str	r3, [sp, #12]
2289:../Libraries/STM32F30x_StdPeriph_Driver/src/stm32f30x_tim.c **** 
2290:../Libraries/STM32F30x_StdPeriph_Driver/src/stm32f30x_tim.c ****   /* Reset the CCxE Bit */
2291:../Libraries/STM32F30x_StdPeriph_Driver/src/stm32f30x_tim.c ****   TIMx->CCER &= (uint32_t)(~tmp);
 3625              		.loc 1 2291 0
 3626 1350 019B     		ldr	r3, [sp, #4]
 3627 1352 1A6A     		ldr	r2, [r3, #32]
 3628 1354 039B     		ldr	r3, [sp, #12]
 3629 1356 6FEA0303 		mvn	r3, r3
 3630 135a 1A40     		ands	r2, r2, r3
 3631 135c 019B     		ldr	r3, [sp, #4]
 3632 135e 1A62     		str	r2, [r3, #32]
2292:../Libraries/STM32F30x_StdPeriph_Driver/src/stm32f30x_tim.c **** 
2293:../Libraries/STM32F30x_StdPeriph_Driver/src/stm32f30x_tim.c ****   /* Set or reset the CCxE Bit */ 
2294:../Libraries/STM32F30x_StdPeriph_Driver/src/stm32f30x_tim.c ****   TIMx->CCER |=  ((uint32_t)TIM_CCx << (uint32_t)TIM_Channel);
 3633              		.loc 1 2294 0
 3634 1360 019B     		ldr	r3, [sp, #4]
 3635 1362 1A6A     		ldr	r2, [r3, #32]
 3636 1364 BDF80010 		ldrh	r1, [sp, #0]
 3637 1368 BDF80230 		ldrh	r3, [sp, #2]
 3638 136c 01FA03F3 		lsl	r3, r1, r3
 3639 1370 1A43     		orrs	r2, r2, r3
 3640 1372 019B     		ldr	r3, [sp, #4]
 3641 1374 1A62     		str	r2, [r3, #32]
2295:../Libraries/STM32F30x_StdPeriph_Driver/src/stm32f30x_tim.c **** }
 3642              		.loc 1 2295 0
 3643 1376 04B0     		add	sp, sp, #16
 3644 1378 7047     		bx	lr
 3645              		.cfi_endproc
 3646              	.LFE176:
 3648 137a 00BF     		.align	2
 3649              		.global	TIM_CCxNCmd
 3650              		.thumb
 3651              		.thumb_func
 3653              	TIM_CCxNCmd:
 3654              	.LFB177:
2296:../Libraries/STM32F30x_StdPeriph_Driver/src/stm32f30x_tim.c **** 
2297:../Libraries/STM32F30x_StdPeriph_Driver/src/stm32f30x_tim.c **** /**
2298:../Libraries/STM32F30x_StdPeriph_Driver/src/stm32f30x_tim.c ****   * @brief  Enables or disables the TIM Capture Compare Channel xN.
2299:../Libraries/STM32F30x_StdPeriph_Driver/src/stm32f30x_tim.c ****   * @param  TIMx: where x can be 1, 8, 15, 16 or 17 to select the TIM peripheral.
2300:../Libraries/STM32F30x_StdPeriph_Driver/src/stm32f30x_tim.c ****   * @param  TIM_Channel: specifies the TIM Channel
2301:../Libraries/STM32F30x_StdPeriph_Driver/src/stm32f30x_tim.c ****   *          This parameter can be one of the following values:
2302:../Libraries/STM32F30x_StdPeriph_Driver/src/stm32f30x_tim.c ****   *            @arg TIM_Channel_1: TIM Channel 1
2303:../Libraries/STM32F30x_StdPeriph_Driver/src/stm32f30x_tim.c ****   *            @arg TIM_Channel_2: TIM Channel 2
2304:../Libraries/STM32F30x_StdPeriph_Driver/src/stm32f30x_tim.c ****   *            @arg TIM_Channel_3: TIM Channel 3
2305:../Libraries/STM32F30x_StdPeriph_Driver/src/stm32f30x_tim.c ****   * @param  TIM_CCxN: specifies the TIM Channel CCxNE bit new state.
2306:../Libraries/STM32F30x_StdPeriph_Driver/src/stm32f30x_tim.c ****   *          This parameter can be: TIM_CCxN_Enable or TIM_CCxN_Disable. 
2307:../Libraries/STM32F30x_StdPeriph_Driver/src/stm32f30x_tim.c ****   * @retval None
2308:../Libraries/STM32F30x_StdPeriph_Driver/src/stm32f30x_tim.c ****   */
2309:../Libraries/STM32F30x_StdPeriph_Driver/src/stm32f30x_tim.c **** void TIM_CCxNCmd(TIM_TypeDef* TIMx, uint16_t TIM_Channel, uint16_t TIM_CCxN)
2310:../Libraries/STM32F30x_StdPeriph_Driver/src/stm32f30x_tim.c **** {
 3655              		.loc 1 2310 0
 3656              		.cfi_startproc
 3657              		@ args = 0, pretend = 0, frame = 16
 3658              		@ frame_needed = 0, uses_anonymous_args = 0
 3659              		@ link register save eliminated.
 3660 137c 84B0     		sub	sp, sp, #16
 3661              	.LCFI67:
 3662              		.cfi_def_cfa_offset 16
 3663 137e 0190     		str	r0, [sp, #4]
 3664 1380 1346     		mov	r3, r2
 3665 1382 0A46     		mov	r2, r1	@ movhi
 3666 1384 ADF80220 		strh	r2, [sp, #2]	@ movhi
 3667 1388 ADF80030 		strh	r3, [sp, #0]	@ movhi
2311:../Libraries/STM32F30x_StdPeriph_Driver/src/stm32f30x_tim.c ****   uint32_t tmp = 0;
 3668              		.loc 1 2311 0
 3669 138c 4FF00003 		mov	r3, #0
 3670 1390 0393     		str	r3, [sp, #12]
2312:../Libraries/STM32F30x_StdPeriph_Driver/src/stm32f30x_tim.c **** 
2313:../Libraries/STM32F30x_StdPeriph_Driver/src/stm32f30x_tim.c ****   /* Check the parameters */
2314:../Libraries/STM32F30x_StdPeriph_Driver/src/stm32f30x_tim.c ****   assert_param(IS_TIM_LIST6_PERIPH(TIMx));
2315:../Libraries/STM32F30x_StdPeriph_Driver/src/stm32f30x_tim.c ****   assert_param(IS_TIM_COMPLEMENTARY_CHANNEL(TIM_Channel));
2316:../Libraries/STM32F30x_StdPeriph_Driver/src/stm32f30x_tim.c ****   assert_param(IS_TIM_CCXN(TIM_CCxN));
2317:../Libraries/STM32F30x_StdPeriph_Driver/src/stm32f30x_tim.c **** 
2318:../Libraries/STM32F30x_StdPeriph_Driver/src/stm32f30x_tim.c ****   tmp = (uint32_t)CCER_CCNE_SET << (uint32_t)TIM_Channel;
 3671              		.loc 1 2318 0
 3672 1392 BDF80230 		ldrh	r3, [sp, #2]
 3673 1396 4FF00402 		mov	r2, #4
 3674 139a 02FA03F3 		lsl	r3, r2, r3
 3675 139e 0393     		str	r3, [sp, #12]
2319:../Libraries/STM32F30x_StdPeriph_Driver/src/stm32f30x_tim.c **** 
2320:../Libraries/STM32F30x_StdPeriph_Driver/src/stm32f30x_tim.c ****   /* Reset the CCxNE Bit */
2321:../Libraries/STM32F30x_StdPeriph_Driver/src/stm32f30x_tim.c ****   TIMx->CCER &= (uint32_t) ~tmp;
 3676              		.loc 1 2321 0
 3677 13a0 019B     		ldr	r3, [sp, #4]
 3678 13a2 1A6A     		ldr	r2, [r3, #32]
 3679 13a4 039B     		ldr	r3, [sp, #12]
 3680 13a6 6FEA0303 		mvn	r3, r3
 3681 13aa 1A40     		ands	r2, r2, r3
 3682 13ac 019B     		ldr	r3, [sp, #4]
 3683 13ae 1A62     		str	r2, [r3, #32]
2322:../Libraries/STM32F30x_StdPeriph_Driver/src/stm32f30x_tim.c **** 
2323:../Libraries/STM32F30x_StdPeriph_Driver/src/stm32f30x_tim.c ****   /* Set or reset the CCxNE Bit */ 
2324:../Libraries/STM32F30x_StdPeriph_Driver/src/stm32f30x_tim.c ****   TIMx->CCER |=  ((uint32_t)TIM_CCxN << (uint32_t)TIM_Channel);
 3684              		.loc 1 2324 0
 3685 13b0 019B     		ldr	r3, [sp, #4]
 3686 13b2 1A6A     		ldr	r2, [r3, #32]
 3687 13b4 BDF80010 		ldrh	r1, [sp, #0]
 3688 13b8 BDF80230 		ldrh	r3, [sp, #2]
 3689 13bc 01FA03F3 		lsl	r3, r1, r3
 3690 13c0 1A43     		orrs	r2, r2, r3
 3691 13c2 019B     		ldr	r3, [sp, #4]
 3692 13c4 1A62     		str	r2, [r3, #32]
2325:../Libraries/STM32F30x_StdPeriph_Driver/src/stm32f30x_tim.c **** }
 3693              		.loc 1 2325 0
 3694 13c6 04B0     		add	sp, sp, #16
 3695 13c8 7047     		bx	lr
 3696              		.cfi_endproc
 3697              	.LFE177:
 3699 13ca 00BF     		.align	2
 3700              		.global	TIM_ICInit
 3701              		.thumb
 3702              		.thumb_func
 3704              	TIM_ICInit:
 3705              	.LFB178:
2326:../Libraries/STM32F30x_StdPeriph_Driver/src/stm32f30x_tim.c **** /**
2327:../Libraries/STM32F30x_StdPeriph_Driver/src/stm32f30x_tim.c ****   * @}
2328:../Libraries/STM32F30x_StdPeriph_Driver/src/stm32f30x_tim.c ****   */
2329:../Libraries/STM32F30x_StdPeriph_Driver/src/stm32f30x_tim.c **** 
2330:../Libraries/STM32F30x_StdPeriph_Driver/src/stm32f30x_tim.c **** /** @defgroup TIM_Group3 Input Capture management functions
2331:../Libraries/STM32F30x_StdPeriph_Driver/src/stm32f30x_tim.c ****  *  @brief    Input Capture management functions 
2332:../Libraries/STM32F30x_StdPeriph_Driver/src/stm32f30x_tim.c ****  *
2333:../Libraries/STM32F30x_StdPeriph_Driver/src/stm32f30x_tim.c **** @verbatim   
2334:../Libraries/STM32F30x_StdPeriph_Driver/src/stm32f30x_tim.c ****  ===============================================================================
2335:../Libraries/STM32F30x_StdPeriph_Driver/src/stm32f30x_tim.c ****                ##### Input Capture management functions #####
2336:../Libraries/STM32F30x_StdPeriph_Driver/src/stm32f30x_tim.c ****  ===============================================================================  
2337:../Libraries/STM32F30x_StdPeriph_Driver/src/stm32f30x_tim.c ****          
2338:../Libraries/STM32F30x_StdPeriph_Driver/src/stm32f30x_tim.c ****   *** TIM Driver: how to use it in Input Capture Mode ***
2339:../Libraries/STM32F30x_StdPeriph_Driver/src/stm32f30x_tim.c ****   =======================================================
2340:../Libraries/STM32F30x_StdPeriph_Driver/src/stm32f30x_tim.c ****   [..] 
2341:../Libraries/STM32F30x_StdPeriph_Driver/src/stm32f30x_tim.c ****   To use the Timer in Input Capture mode, the following steps are mandatory:
2342:../Libraries/STM32F30x_StdPeriph_Driver/src/stm32f30x_tim.c ****        
2343:../Libraries/STM32F30x_StdPeriph_Driver/src/stm32f30x_tim.c ****       (#) Enable TIM clock using RCC_APBxPeriphClockCmd(RCC_APBxPeriph_TIMx, ENABLE) function
2344:../Libraries/STM32F30x_StdPeriph_Driver/src/stm32f30x_tim.c ****        
2345:../Libraries/STM32F30x_StdPeriph_Driver/src/stm32f30x_tim.c ****       (#) Configure the TIM pins by configuring the corresponding GPIO pins
2346:../Libraries/STM32F30x_StdPeriph_Driver/src/stm32f30x_tim.c ****        
2347:../Libraries/STM32F30x_StdPeriph_Driver/src/stm32f30x_tim.c ****       (#) Configure the Time base unit as described in the first part of this driver,
2348:../Libraries/STM32F30x_StdPeriph_Driver/src/stm32f30x_tim.c ****           if needed, else the Timer will run with the default configuration:
2349:../Libraries/STM32F30x_StdPeriph_Driver/src/stm32f30x_tim.c ****           (++) Autoreload value = 0xFFFF
2350:../Libraries/STM32F30x_StdPeriph_Driver/src/stm32f30x_tim.c ****           (++) Prescaler value = 0x0000
2351:../Libraries/STM32F30x_StdPeriph_Driver/src/stm32f30x_tim.c ****           (++) Counter mode = Up counting
2352:../Libraries/STM32F30x_StdPeriph_Driver/src/stm32f30x_tim.c ****           (++) Clock Division = TIM_CKD_DIV1
2353:../Libraries/STM32F30x_StdPeriph_Driver/src/stm32f30x_tim.c ****           
2354:../Libraries/STM32F30x_StdPeriph_Driver/src/stm32f30x_tim.c ****       (#) Fill the TIM_ICInitStruct with the desired parameters including:
2355:../Libraries/STM32F30x_StdPeriph_Driver/src/stm32f30x_tim.c ****           (++) TIM Channel: TIM_Channel
2356:../Libraries/STM32F30x_StdPeriph_Driver/src/stm32f30x_tim.c ****           (++) TIM Input Capture polarity: TIM_ICPolarity
2357:../Libraries/STM32F30x_StdPeriph_Driver/src/stm32f30x_tim.c ****           (++) TIM Input Capture selection: TIM_ICSelection
2358:../Libraries/STM32F30x_StdPeriph_Driver/src/stm32f30x_tim.c ****           (++) TIM Input Capture Prescaler: TIM_ICPrescaler
2359:../Libraries/STM32F30x_StdPeriph_Driver/src/stm32f30x_tim.c ****           (++) TIM Input CApture filter value: TIM_ICFilter
2360:../Libraries/STM32F30x_StdPeriph_Driver/src/stm32f30x_tim.c ****        
2361:../Libraries/STM32F30x_StdPeriph_Driver/src/stm32f30x_tim.c ****       (#) Call TIM_ICInit(TIMx, &TIM_ICInitStruct) to configure the desired channel with the 
2362:../Libraries/STM32F30x_StdPeriph_Driver/src/stm32f30x_tim.c ****           corresponding configuration and to measure only frequency or duty cycle of the input sign
2363:../Libraries/STM32F30x_StdPeriph_Driver/src/stm32f30x_tim.c ****           or,
2364:../Libraries/STM32F30x_StdPeriph_Driver/src/stm32f30x_tim.c ****           Call TIM_PWMIConfig(TIMx, &TIM_ICInitStruct) to configure the desired channels with the 
2365:../Libraries/STM32F30x_StdPeriph_Driver/src/stm32f30x_tim.c ****           corresponding configuration and to measure the frequency and the duty cycle of the input 
2366:../Libraries/STM32F30x_StdPeriph_Driver/src/stm32f30x_tim.c ****           
2367:../Libraries/STM32F30x_StdPeriph_Driver/src/stm32f30x_tim.c ****       (#) Enable the NVIC or the DMA to read the measured frequency. 
2368:../Libraries/STM32F30x_StdPeriph_Driver/src/stm32f30x_tim.c ****           
2369:../Libraries/STM32F30x_StdPeriph_Driver/src/stm32f30x_tim.c ****       (#) Enable the corresponding interrupt (or DMA request) to read the Captured value,
2370:../Libraries/STM32F30x_StdPeriph_Driver/src/stm32f30x_tim.c ****           using the function TIM_ITConfig(TIMx, TIM_IT_CCx) (or TIM_DMA_Cmd(TIMx, TIM_DMA_CCx)) 
2371:../Libraries/STM32F30x_StdPeriph_Driver/src/stm32f30x_tim.c ****        
2372:../Libraries/STM32F30x_StdPeriph_Driver/src/stm32f30x_tim.c ****       (#) Call the TIM_Cmd(ENABLE) function to enable the TIM counter.
2373:../Libraries/STM32F30x_StdPeriph_Driver/src/stm32f30x_tim.c ****        
2374:../Libraries/STM32F30x_StdPeriph_Driver/src/stm32f30x_tim.c ****       (#) Use TIM_GetCapturex(TIMx); to read the captured value.
2375:../Libraries/STM32F30x_StdPeriph_Driver/src/stm32f30x_tim.c ****   [..]        
2376:../Libraries/STM32F30x_StdPeriph_Driver/src/stm32f30x_tim.c ****       (@) All other functions can be used separately to modify, if needed,
2377:../Libraries/STM32F30x_StdPeriph_Driver/src/stm32f30x_tim.c ****           a specific feature of the Timer. 
2378:../Libraries/STM32F30x_StdPeriph_Driver/src/stm32f30x_tim.c **** 
2379:../Libraries/STM32F30x_StdPeriph_Driver/src/stm32f30x_tim.c **** @endverbatim
2380:../Libraries/STM32F30x_StdPeriph_Driver/src/stm32f30x_tim.c ****   * @{
2381:../Libraries/STM32F30x_StdPeriph_Driver/src/stm32f30x_tim.c ****   */
2382:../Libraries/STM32F30x_StdPeriph_Driver/src/stm32f30x_tim.c **** 
2383:../Libraries/STM32F30x_StdPeriph_Driver/src/stm32f30x_tim.c **** /**
2384:../Libraries/STM32F30x_StdPeriph_Driver/src/stm32f30x_tim.c ****   * @brief  Initializes the TIM peripheral according to the specified parameters
2385:../Libraries/STM32F30x_StdPeriph_Driver/src/stm32f30x_tim.c ****   *         in the TIM_ICInitStruct.
2386:../Libraries/STM32F30x_StdPeriph_Driver/src/stm32f30x_tim.c ****   * @param  TIMx: where x can be 1, 2, 3, 4, 8, 15, 16 or 17 to select the TIM peripheral.
2387:../Libraries/STM32F30x_StdPeriph_Driver/src/stm32f30x_tim.c ****   * @param  TIM_ICInitStruct: pointer to a TIM_ICInitTypeDef structure that contains
2388:../Libraries/STM32F30x_StdPeriph_Driver/src/stm32f30x_tim.c ****   *         the configuration information for the specified TIM peripheral.
2389:../Libraries/STM32F30x_StdPeriph_Driver/src/stm32f30x_tim.c ****   * @retval None
2390:../Libraries/STM32F30x_StdPeriph_Driver/src/stm32f30x_tim.c ****   */
2391:../Libraries/STM32F30x_StdPeriph_Driver/src/stm32f30x_tim.c **** void TIM_ICInit(TIM_TypeDef* TIMx, TIM_ICInitTypeDef* TIM_ICInitStruct)
2392:../Libraries/STM32F30x_StdPeriph_Driver/src/stm32f30x_tim.c **** {
 3706              		.loc 1 2392 0
 3707              		.cfi_startproc
 3708              		@ args = 0, pretend = 0, frame = 8
 3709              		@ frame_needed = 0, uses_anonymous_args = 0
 3710 13cc 00B5     		push	{lr}
 3711              	.LCFI68:
 3712              		.cfi_def_cfa_offset 4
 3713              		.cfi_offset 14, -4
 3714 13ce 83B0     		sub	sp, sp, #12
 3715              	.LCFI69:
 3716              		.cfi_def_cfa_offset 16
 3717 13d0 0190     		str	r0, [sp, #4]
 3718 13d2 0091     		str	r1, [sp, #0]
2393:../Libraries/STM32F30x_StdPeriph_Driver/src/stm32f30x_tim.c ****   /* Check the parameters */
2394:../Libraries/STM32F30x_StdPeriph_Driver/src/stm32f30x_tim.c ****   assert_param(IS_TIM_LIST1_PERIPH(TIMx));
2395:../Libraries/STM32F30x_StdPeriph_Driver/src/stm32f30x_tim.c ****   assert_param(IS_TIM_IC_POLARITY(TIM_ICInitStruct->TIM_ICPolarity));
2396:../Libraries/STM32F30x_StdPeriph_Driver/src/stm32f30x_tim.c ****   assert_param(IS_TIM_IC_SELECTION(TIM_ICInitStruct->TIM_ICSelection));
2397:../Libraries/STM32F30x_StdPeriph_Driver/src/stm32f30x_tim.c ****   assert_param(IS_TIM_IC_PRESCALER(TIM_ICInitStruct->TIM_ICPrescaler));
2398:../Libraries/STM32F30x_StdPeriph_Driver/src/stm32f30x_tim.c ****   assert_param(IS_TIM_IC_FILTER(TIM_ICInitStruct->TIM_ICFilter));
2399:../Libraries/STM32F30x_StdPeriph_Driver/src/stm32f30x_tim.c ****   
2400:../Libraries/STM32F30x_StdPeriph_Driver/src/stm32f30x_tim.c ****   if (TIM_ICInitStruct->TIM_Channel == TIM_Channel_1)
 3719              		.loc 1 2400 0
 3720 13d4 009B     		ldr	r3, [sp, #0]
 3721 13d6 1B88     		ldrh	r3, [r3, #0]
 3722 13d8 002B     		cmp	r3, #0
 3723 13da 0FD1     		bne	.L115
2401:../Libraries/STM32F30x_StdPeriph_Driver/src/stm32f30x_tim.c ****   {
2402:../Libraries/STM32F30x_StdPeriph_Driver/src/stm32f30x_tim.c ****     /* TI1 Configuration */
2403:../Libraries/STM32F30x_StdPeriph_Driver/src/stm32f30x_tim.c ****     TI1_Config(TIMx, TIM_ICInitStruct->TIM_ICPolarity,
 3724              		.loc 1 2403 0
 3725 13dc 009B     		ldr	r3, [sp, #0]
 3726 13de 5988     		ldrh	r1, [r3, #2]
2404:../Libraries/STM32F30x_StdPeriph_Driver/src/stm32f30x_tim.c ****                TIM_ICInitStruct->TIM_ICSelection,
 3727              		.loc 1 2404 0
 3728 13e0 009B     		ldr	r3, [sp, #0]
2403:../Libraries/STM32F30x_StdPeriph_Driver/src/stm32f30x_tim.c ****     TI1_Config(TIMx, TIM_ICInitStruct->TIM_ICPolarity,
 3729              		.loc 1 2403 0
 3730 13e2 9A88     		ldrh	r2, [r3, #4]
2405:../Libraries/STM32F30x_StdPeriph_Driver/src/stm32f30x_tim.c ****                TIM_ICInitStruct->TIM_ICFilter);
 3731              		.loc 1 2405 0
 3732 13e4 009B     		ldr	r3, [sp, #0]
2403:../Libraries/STM32F30x_StdPeriph_Driver/src/stm32f30x_tim.c ****     TI1_Config(TIMx, TIM_ICInitStruct->TIM_ICPolarity,
 3733              		.loc 1 2403 0
 3734 13e6 1B89     		ldrh	r3, [r3, #8]
 3735 13e8 0198     		ldr	r0, [sp, #4]
 3736 13ea 00F0E5FC 		bl	TI1_Config
2406:../Libraries/STM32F30x_StdPeriph_Driver/src/stm32f30x_tim.c ****     /* Set the Input Capture Prescaler value */
2407:../Libraries/STM32F30x_StdPeriph_Driver/src/stm32f30x_tim.c ****     TIM_SetIC1Prescaler(TIMx, TIM_ICInitStruct->TIM_ICPrescaler);
 3737              		.loc 1 2407 0
 3738 13ee 009B     		ldr	r3, [sp, #0]
 3739 13f0 DB88     		ldrh	r3, [r3, #6]
 3740 13f2 0198     		ldr	r0, [sp, #4]
 3741 13f4 1946     		mov	r1, r3
 3742 13f6 FFF7FEFF 		bl	TIM_SetIC1Prescaler
 3743 13fa 36E0     		b	.L114
 3744              	.L115:
2408:../Libraries/STM32F30x_StdPeriph_Driver/src/stm32f30x_tim.c ****   }
2409:../Libraries/STM32F30x_StdPeriph_Driver/src/stm32f30x_tim.c ****   else if (TIM_ICInitStruct->TIM_Channel == TIM_Channel_2)
 3745              		.loc 1 2409 0
 3746 13fc 009B     		ldr	r3, [sp, #0]
 3747 13fe 1B88     		ldrh	r3, [r3, #0]
 3748 1400 042B     		cmp	r3, #4
 3749 1402 0FD1     		bne	.L117
2410:../Libraries/STM32F30x_StdPeriph_Driver/src/stm32f30x_tim.c ****   {
2411:../Libraries/STM32F30x_StdPeriph_Driver/src/stm32f30x_tim.c ****     /* TI2 Configuration */
2412:../Libraries/STM32F30x_StdPeriph_Driver/src/stm32f30x_tim.c ****     TI2_Config(TIMx, TIM_ICInitStruct->TIM_ICPolarity,
 3750              		.loc 1 2412 0
 3751 1404 009B     		ldr	r3, [sp, #0]
 3752 1406 5988     		ldrh	r1, [r3, #2]
2413:../Libraries/STM32F30x_StdPeriph_Driver/src/stm32f30x_tim.c ****                TIM_ICInitStruct->TIM_ICSelection,
 3753              		.loc 1 2413 0
 3754 1408 009B     		ldr	r3, [sp, #0]
2412:../Libraries/STM32F30x_StdPeriph_Driver/src/stm32f30x_tim.c ****     TI2_Config(TIMx, TIM_ICInitStruct->TIM_ICPolarity,
 3755              		.loc 1 2412 0
 3756 140a 9A88     		ldrh	r2, [r3, #4]
2414:../Libraries/STM32F30x_StdPeriph_Driver/src/stm32f30x_tim.c ****                TIM_ICInitStruct->TIM_ICFilter);
 3757              		.loc 1 2414 0
 3758 140c 009B     		ldr	r3, [sp, #0]
2412:../Libraries/STM32F30x_StdPeriph_Driver/src/stm32f30x_tim.c ****     TI2_Config(TIMx, TIM_ICInitStruct->TIM_ICPolarity,
 3759              		.loc 1 2412 0
 3760 140e 1B89     		ldrh	r3, [r3, #8]
 3761 1410 0198     		ldr	r0, [sp, #4]
 3762 1412 00F00DFD 		bl	TI2_Config
2415:../Libraries/STM32F30x_StdPeriph_Driver/src/stm32f30x_tim.c ****     /* Set the Input Capture Prescaler value */
2416:../Libraries/STM32F30x_StdPeriph_Driver/src/stm32f30x_tim.c ****     TIM_SetIC2Prescaler(TIMx, TIM_ICInitStruct->TIM_ICPrescaler);
 3763              		.loc 1 2416 0
 3764 1416 009B     		ldr	r3, [sp, #0]
 3765 1418 DB88     		ldrh	r3, [r3, #6]
 3766 141a 0198     		ldr	r0, [sp, #4]
 3767 141c 1946     		mov	r1, r3
 3768 141e FFF7FEFF 		bl	TIM_SetIC2Prescaler
 3769 1422 22E0     		b	.L114
 3770              	.L117:
2417:../Libraries/STM32F30x_StdPeriph_Driver/src/stm32f30x_tim.c ****   }
2418:../Libraries/STM32F30x_StdPeriph_Driver/src/stm32f30x_tim.c ****   else if (TIM_ICInitStruct->TIM_Channel == TIM_Channel_3)
 3771              		.loc 1 2418 0
 3772 1424 009B     		ldr	r3, [sp, #0]
 3773 1426 1B88     		ldrh	r3, [r3, #0]
 3774 1428 082B     		cmp	r3, #8
 3775 142a 0FD1     		bne	.L118
2419:../Libraries/STM32F30x_StdPeriph_Driver/src/stm32f30x_tim.c ****   {
2420:../Libraries/STM32F30x_StdPeriph_Driver/src/stm32f30x_tim.c ****     /* TI3 Configuration */
2421:../Libraries/STM32F30x_StdPeriph_Driver/src/stm32f30x_tim.c ****     TI3_Config(TIMx,  TIM_ICInitStruct->TIM_ICPolarity,
 3776              		.loc 1 2421 0
 3777 142c 009B     		ldr	r3, [sp, #0]
 3778 142e 5988     		ldrh	r1, [r3, #2]
2422:../Libraries/STM32F30x_StdPeriph_Driver/src/stm32f30x_tim.c ****                TIM_ICInitStruct->TIM_ICSelection,
 3779              		.loc 1 2422 0
 3780 1430 009B     		ldr	r3, [sp, #0]
2421:../Libraries/STM32F30x_StdPeriph_Driver/src/stm32f30x_tim.c ****     TI3_Config(TIMx,  TIM_ICInitStruct->TIM_ICPolarity,
 3781              		.loc 1 2421 0
 3782 1432 9A88     		ldrh	r2, [r3, #4]
2423:../Libraries/STM32F30x_StdPeriph_Driver/src/stm32f30x_tim.c ****                TIM_ICInitStruct->TIM_ICFilter);
 3783              		.loc 1 2423 0
 3784 1434 009B     		ldr	r3, [sp, #0]
2421:../Libraries/STM32F30x_StdPeriph_Driver/src/stm32f30x_tim.c ****     TI3_Config(TIMx,  TIM_ICInitStruct->TIM_ICPolarity,
 3785              		.loc 1 2421 0
 3786 1436 1B89     		ldrh	r3, [r3, #8]
 3787 1438 0198     		ldr	r0, [sp, #4]
 3788 143a 00F045FD 		bl	TI3_Config
2424:../Libraries/STM32F30x_StdPeriph_Driver/src/stm32f30x_tim.c ****     /* Set the Input Capture Prescaler value */
2425:../Libraries/STM32F30x_StdPeriph_Driver/src/stm32f30x_tim.c ****     TIM_SetIC3Prescaler(TIMx, TIM_ICInitStruct->TIM_ICPrescaler);
 3789              		.loc 1 2425 0
 3790 143e 009B     		ldr	r3, [sp, #0]
 3791 1440 DB88     		ldrh	r3, [r3, #6]
 3792 1442 0198     		ldr	r0, [sp, #4]
 3793 1444 1946     		mov	r1, r3
 3794 1446 FFF7FEFF 		bl	TIM_SetIC3Prescaler
 3795 144a 0EE0     		b	.L114
 3796              	.L118:
2426:../Libraries/STM32F30x_StdPeriph_Driver/src/stm32f30x_tim.c ****   }
2427:../Libraries/STM32F30x_StdPeriph_Driver/src/stm32f30x_tim.c ****   else
2428:../Libraries/STM32F30x_StdPeriph_Driver/src/stm32f30x_tim.c ****   {
2429:../Libraries/STM32F30x_StdPeriph_Driver/src/stm32f30x_tim.c ****     /* TI4 Configuration */
2430:../Libraries/STM32F30x_StdPeriph_Driver/src/stm32f30x_tim.c ****     TI4_Config(TIMx, TIM_ICInitStruct->TIM_ICPolarity,
 3797              		.loc 1 2430 0
 3798 144c 009B     		ldr	r3, [sp, #0]
 3799 144e 5988     		ldrh	r1, [r3, #2]
2431:../Libraries/STM32F30x_StdPeriph_Driver/src/stm32f30x_tim.c ****                TIM_ICInitStruct->TIM_ICSelection,
 3800              		.loc 1 2431 0
 3801 1450 009B     		ldr	r3, [sp, #0]
2430:../Libraries/STM32F30x_StdPeriph_Driver/src/stm32f30x_tim.c ****     TI4_Config(TIMx, TIM_ICInitStruct->TIM_ICPolarity,
 3802              		.loc 1 2430 0
 3803 1452 9A88     		ldrh	r2, [r3, #4]
2432:../Libraries/STM32F30x_StdPeriph_Driver/src/stm32f30x_tim.c ****                TIM_ICInitStruct->TIM_ICFilter);
 3804              		.loc 1 2432 0
 3805 1454 009B     		ldr	r3, [sp, #0]
2430:../Libraries/STM32F30x_StdPeriph_Driver/src/stm32f30x_tim.c ****     TI4_Config(TIMx, TIM_ICInitStruct->TIM_ICPolarity,
 3806              		.loc 1 2430 0
 3807 1456 1B89     		ldrh	r3, [r3, #8]
 3808 1458 0198     		ldr	r0, [sp, #4]
 3809 145a 00F08DFD 		bl	TI4_Config
2433:../Libraries/STM32F30x_StdPeriph_Driver/src/stm32f30x_tim.c ****     /* Set the Input Capture Prescaler value */
2434:../Libraries/STM32F30x_StdPeriph_Driver/src/stm32f30x_tim.c ****     TIM_SetIC4Prescaler(TIMx, TIM_ICInitStruct->TIM_ICPrescaler);
 3810              		.loc 1 2434 0
 3811 145e 009B     		ldr	r3, [sp, #0]
 3812 1460 DB88     		ldrh	r3, [r3, #6]
 3813 1462 0198     		ldr	r0, [sp, #4]
 3814 1464 1946     		mov	r1, r3
 3815 1466 FFF7FEFF 		bl	TIM_SetIC4Prescaler
 3816              	.L114:
2435:../Libraries/STM32F30x_StdPeriph_Driver/src/stm32f30x_tim.c ****   }
2436:../Libraries/STM32F30x_StdPeriph_Driver/src/stm32f30x_tim.c **** }
 3817              		.loc 1 2436 0
 3818 146a 03B0     		add	sp, sp, #12
 3819 146c 00BD     		pop	{pc}
 3820              		.cfi_endproc
 3821              	.LFE178:
 3823 146e 00BF     		.align	2
 3824              		.global	TIM_ICStructInit
 3825              		.thumb
 3826              		.thumb_func
 3828              	TIM_ICStructInit:
 3829              	.LFB179:
2437:../Libraries/STM32F30x_StdPeriph_Driver/src/stm32f30x_tim.c **** 
2438:../Libraries/STM32F30x_StdPeriph_Driver/src/stm32f30x_tim.c **** /**
2439:../Libraries/STM32F30x_StdPeriph_Driver/src/stm32f30x_tim.c ****   * @brief  Fills each TIM_ICInitStruct member with its default value.
2440:../Libraries/STM32F30x_StdPeriph_Driver/src/stm32f30x_tim.c ****   * @param  TIM_ICInitStruct: pointer to a TIM_ICInitTypeDef structure which will
2441:../Libraries/STM32F30x_StdPeriph_Driver/src/stm32f30x_tim.c ****   *         be initialized.
2442:../Libraries/STM32F30x_StdPeriph_Driver/src/stm32f30x_tim.c ****   * @retval None
2443:../Libraries/STM32F30x_StdPeriph_Driver/src/stm32f30x_tim.c ****   */
2444:../Libraries/STM32F30x_StdPeriph_Driver/src/stm32f30x_tim.c **** void TIM_ICStructInit(TIM_ICInitTypeDef* TIM_ICInitStruct)
2445:../Libraries/STM32F30x_StdPeriph_Driver/src/stm32f30x_tim.c **** {
 3830              		.loc 1 2445 0
 3831              		.cfi_startproc
 3832              		@ args = 0, pretend = 0, frame = 8
 3833              		@ frame_needed = 0, uses_anonymous_args = 0
 3834              		@ link register save eliminated.
 3835 1470 82B0     		sub	sp, sp, #8
 3836              	.LCFI70:
 3837              		.cfi_def_cfa_offset 8
 3838 1472 0190     		str	r0, [sp, #4]
2446:../Libraries/STM32F30x_StdPeriph_Driver/src/stm32f30x_tim.c ****   /* Set the default configuration */
2447:../Libraries/STM32F30x_StdPeriph_Driver/src/stm32f30x_tim.c ****   TIM_ICInitStruct->TIM_Channel = TIM_Channel_1;
 3839              		.loc 1 2447 0
 3840 1474 019B     		ldr	r3, [sp, #4]
 3841 1476 4FF00002 		mov	r2, #0
 3842 147a 1A80     		strh	r2, [r3, #0]	@ movhi
2448:../Libraries/STM32F30x_StdPeriph_Driver/src/stm32f30x_tim.c ****   TIM_ICInitStruct->TIM_ICPolarity = TIM_ICPolarity_Rising;
 3843              		.loc 1 2448 0
 3844 147c 019B     		ldr	r3, [sp, #4]
 3845 147e 4FF00002 		mov	r2, #0
 3846 1482 5A80     		strh	r2, [r3, #2]	@ movhi
2449:../Libraries/STM32F30x_StdPeriph_Driver/src/stm32f30x_tim.c ****   TIM_ICInitStruct->TIM_ICSelection = TIM_ICSelection_DirectTI;
 3847              		.loc 1 2449 0
 3848 1484 019B     		ldr	r3, [sp, #4]
 3849 1486 4FF00102 		mov	r2, #1
 3850 148a 9A80     		strh	r2, [r3, #4]	@ movhi
2450:../Libraries/STM32F30x_StdPeriph_Driver/src/stm32f30x_tim.c ****   TIM_ICInitStruct->TIM_ICPrescaler = TIM_ICPSC_DIV1;
 3851              		.loc 1 2450 0
 3852 148c 019B     		ldr	r3, [sp, #4]
 3853 148e 4FF00002 		mov	r2, #0
 3854 1492 DA80     		strh	r2, [r3, #6]	@ movhi
2451:../Libraries/STM32F30x_StdPeriph_Driver/src/stm32f30x_tim.c ****   TIM_ICInitStruct->TIM_ICFilter = 0x00;
 3855              		.loc 1 2451 0
 3856 1494 019B     		ldr	r3, [sp, #4]
 3857 1496 4FF00002 		mov	r2, #0
 3858 149a 1A81     		strh	r2, [r3, #8]	@ movhi
2452:../Libraries/STM32F30x_StdPeriph_Driver/src/stm32f30x_tim.c **** }
 3859              		.loc 1 2452 0
 3860 149c 02B0     		add	sp, sp, #8
 3861 149e 7047     		bx	lr
 3862              		.cfi_endproc
 3863              	.LFE179:
 3865              		.align	2
 3866              		.global	TIM_PWMIConfig
 3867              		.thumb
 3868              		.thumb_func
 3870              	TIM_PWMIConfig:
 3871              	.LFB180:
2453:../Libraries/STM32F30x_StdPeriph_Driver/src/stm32f30x_tim.c **** 
2454:../Libraries/STM32F30x_StdPeriph_Driver/src/stm32f30x_tim.c **** /**
2455:../Libraries/STM32F30x_StdPeriph_Driver/src/stm32f30x_tim.c ****   * @brief  Configures the TIM peripheral according to the specified parameters
2456:../Libraries/STM32F30x_StdPeriph_Driver/src/stm32f30x_tim.c ****   *         in the TIM_ICInitStruct to measure an external PWM signal.
2457:../Libraries/STM32F30x_StdPeriph_Driver/src/stm32f30x_tim.c ****   * @param  TIMx: where x can be  1, 2, 3, 4, 8 or 15 to select the TIM 
2458:../Libraries/STM32F30x_StdPeriph_Driver/src/stm32f30x_tim.c ****   *         peripheral.
2459:../Libraries/STM32F30x_StdPeriph_Driver/src/stm32f30x_tim.c ****   * @param  TIM_ICInitStruct: pointer to a TIM_ICInitTypeDef structure that contains
2460:../Libraries/STM32F30x_StdPeriph_Driver/src/stm32f30x_tim.c ****   *         the configuration information for the specified TIM peripheral.
2461:../Libraries/STM32F30x_StdPeriph_Driver/src/stm32f30x_tim.c ****   * @retval None
2462:../Libraries/STM32F30x_StdPeriph_Driver/src/stm32f30x_tim.c ****   */
2463:../Libraries/STM32F30x_StdPeriph_Driver/src/stm32f30x_tim.c **** void TIM_PWMIConfig(TIM_TypeDef* TIMx, TIM_ICInitTypeDef* TIM_ICInitStruct)
2464:../Libraries/STM32F30x_StdPeriph_Driver/src/stm32f30x_tim.c **** {
 3872              		.loc 1 2464 0
 3873              		.cfi_startproc
 3874              		@ args = 0, pretend = 0, frame = 16
 3875              		@ frame_needed = 0, uses_anonymous_args = 0
 3876 14a0 00B5     		push	{lr}
 3877              	.LCFI71:
 3878              		.cfi_def_cfa_offset 4
 3879              		.cfi_offset 14, -4
 3880 14a2 85B0     		sub	sp, sp, #20
 3881              	.LCFI72:
 3882              		.cfi_def_cfa_offset 24
 3883 14a4 0190     		str	r0, [sp, #4]
 3884 14a6 0091     		str	r1, [sp, #0]
2465:../Libraries/STM32F30x_StdPeriph_Driver/src/stm32f30x_tim.c ****   uint16_t icoppositepolarity = TIM_ICPolarity_Rising;
 3885              		.loc 1 2465 0
 3886 14a8 4FF00003 		mov	r3, #0
 3887 14ac ADF80E30 		strh	r3, [sp, #14]	@ movhi
2466:../Libraries/STM32F30x_StdPeriph_Driver/src/stm32f30x_tim.c ****   uint16_t icoppositeselection = TIM_ICSelection_DirectTI;
 3888              		.loc 1 2466 0
 3889 14b0 4FF00103 		mov	r3, #1
 3890 14b4 ADF80C30 		strh	r3, [sp, #12]	@ movhi
2467:../Libraries/STM32F30x_StdPeriph_Driver/src/stm32f30x_tim.c **** 
2468:../Libraries/STM32F30x_StdPeriph_Driver/src/stm32f30x_tim.c ****   /* Check the parameters */
2469:../Libraries/STM32F30x_StdPeriph_Driver/src/stm32f30x_tim.c ****   assert_param(IS_TIM_LIST2_PERIPH(TIMx));
2470:../Libraries/STM32F30x_StdPeriph_Driver/src/stm32f30x_tim.c **** 
2471:../Libraries/STM32F30x_StdPeriph_Driver/src/stm32f30x_tim.c ****   /* Select the Opposite Input Polarity */
2472:../Libraries/STM32F30x_StdPeriph_Driver/src/stm32f30x_tim.c ****   if (TIM_ICInitStruct->TIM_ICPolarity == TIM_ICPolarity_Rising)
 3891              		.loc 1 2472 0
 3892 14b8 009B     		ldr	r3, [sp, #0]
 3893 14ba 5B88     		ldrh	r3, [r3, #2]
 3894 14bc 002B     		cmp	r3, #0
 3895 14be 04D1     		bne	.L121
2473:../Libraries/STM32F30x_StdPeriph_Driver/src/stm32f30x_tim.c ****   {
2474:../Libraries/STM32F30x_StdPeriph_Driver/src/stm32f30x_tim.c ****     icoppositepolarity = TIM_ICPolarity_Falling;
 3896              		.loc 1 2474 0
 3897 14c0 4FF00203 		mov	r3, #2
 3898 14c4 ADF80E30 		strh	r3, [sp, #14]	@ movhi
 3899 14c8 03E0     		b	.L122
 3900              	.L121:
2475:../Libraries/STM32F30x_StdPeriph_Driver/src/stm32f30x_tim.c ****   }
2476:../Libraries/STM32F30x_StdPeriph_Driver/src/stm32f30x_tim.c ****   else
2477:../Libraries/STM32F30x_StdPeriph_Driver/src/stm32f30x_tim.c ****   {
2478:../Libraries/STM32F30x_StdPeriph_Driver/src/stm32f30x_tim.c ****     icoppositepolarity = TIM_ICPolarity_Rising;
 3901              		.loc 1 2478 0
 3902 14ca 4FF00003 		mov	r3, #0
 3903 14ce ADF80E30 		strh	r3, [sp, #14]	@ movhi
 3904              	.L122:
2479:../Libraries/STM32F30x_StdPeriph_Driver/src/stm32f30x_tim.c ****   }
2480:../Libraries/STM32F30x_StdPeriph_Driver/src/stm32f30x_tim.c ****   /* Select the Opposite Input */
2481:../Libraries/STM32F30x_StdPeriph_Driver/src/stm32f30x_tim.c ****   if (TIM_ICInitStruct->TIM_ICSelection == TIM_ICSelection_DirectTI)
 3905              		.loc 1 2481 0
 3906 14d2 009B     		ldr	r3, [sp, #0]
 3907 14d4 9B88     		ldrh	r3, [r3, #4]
 3908 14d6 012B     		cmp	r3, #1
 3909 14d8 04D1     		bne	.L123
2482:../Libraries/STM32F30x_StdPeriph_Driver/src/stm32f30x_tim.c ****   {
2483:../Libraries/STM32F30x_StdPeriph_Driver/src/stm32f30x_tim.c ****     icoppositeselection = TIM_ICSelection_IndirectTI;
 3910              		.loc 1 2483 0
 3911 14da 4FF00203 		mov	r3, #2
 3912 14de ADF80C30 		strh	r3, [sp, #12]	@ movhi
 3913 14e2 03E0     		b	.L124
 3914              	.L123:
2484:../Libraries/STM32F30x_StdPeriph_Driver/src/stm32f30x_tim.c ****   }
2485:../Libraries/STM32F30x_StdPeriph_Driver/src/stm32f30x_tim.c ****   else
2486:../Libraries/STM32F30x_StdPeriph_Driver/src/stm32f30x_tim.c ****   {
2487:../Libraries/STM32F30x_StdPeriph_Driver/src/stm32f30x_tim.c ****     icoppositeselection = TIM_ICSelection_DirectTI;
 3915              		.loc 1 2487 0
 3916 14e4 4FF00103 		mov	r3, #1
 3917 14e8 ADF80C30 		strh	r3, [sp, #12]	@ movhi
 3918              	.L124:
2488:../Libraries/STM32F30x_StdPeriph_Driver/src/stm32f30x_tim.c ****   }
2489:../Libraries/STM32F30x_StdPeriph_Driver/src/stm32f30x_tim.c ****   if (TIM_ICInitStruct->TIM_Channel == TIM_Channel_1)
 3919              		.loc 1 2489 0
 3920 14ec 009B     		ldr	r3, [sp, #0]
 3921 14ee 1B88     		ldrh	r3, [r3, #0]
 3922 14f0 002B     		cmp	r3, #0
 3923 14f2 1ED1     		bne	.L125
2490:../Libraries/STM32F30x_StdPeriph_Driver/src/stm32f30x_tim.c ****   {
2491:../Libraries/STM32F30x_StdPeriph_Driver/src/stm32f30x_tim.c ****     /* TI1 Configuration */
2492:../Libraries/STM32F30x_StdPeriph_Driver/src/stm32f30x_tim.c ****     TI1_Config(TIMx, TIM_ICInitStruct->TIM_ICPolarity, TIM_ICInitStruct->TIM_ICSelection,
 3924              		.loc 1 2492 0
 3925 14f4 009B     		ldr	r3, [sp, #0]
 3926 14f6 5988     		ldrh	r1, [r3, #2]
 3927 14f8 009B     		ldr	r3, [sp, #0]
 3928 14fa 9A88     		ldrh	r2, [r3, #4]
2493:../Libraries/STM32F30x_StdPeriph_Driver/src/stm32f30x_tim.c ****                TIM_ICInitStruct->TIM_ICFilter);
 3929              		.loc 1 2493 0
 3930 14fc 009B     		ldr	r3, [sp, #0]
2492:../Libraries/STM32F30x_StdPeriph_Driver/src/stm32f30x_tim.c ****     TI1_Config(TIMx, TIM_ICInitStruct->TIM_ICPolarity, TIM_ICInitStruct->TIM_ICSelection,
 3931              		.loc 1 2492 0
 3932 14fe 1B89     		ldrh	r3, [r3, #8]
 3933 1500 0198     		ldr	r0, [sp, #4]
 3934 1502 00F059FC 		bl	TI1_Config
2494:../Libraries/STM32F30x_StdPeriph_Driver/src/stm32f30x_tim.c ****     /* Set the Input Capture Prescaler value */
2495:../Libraries/STM32F30x_StdPeriph_Driver/src/stm32f30x_tim.c ****     TIM_SetIC1Prescaler(TIMx, TIM_ICInitStruct->TIM_ICPrescaler);
 3935              		.loc 1 2495 0
 3936 1506 009B     		ldr	r3, [sp, #0]
 3937 1508 DB88     		ldrh	r3, [r3, #6]
 3938 150a 0198     		ldr	r0, [sp, #4]
 3939 150c 1946     		mov	r1, r3
 3940 150e FFF7FEFF 		bl	TIM_SetIC1Prescaler
2496:../Libraries/STM32F30x_StdPeriph_Driver/src/stm32f30x_tim.c ****     /* TI2 Configuration */
2497:../Libraries/STM32F30x_StdPeriph_Driver/src/stm32f30x_tim.c ****     TI2_Config(TIMx, icoppositepolarity, icoppositeselection, TIM_ICInitStruct->TIM_ICFilter);
 3941              		.loc 1 2497 0
 3942 1512 009B     		ldr	r3, [sp, #0]
 3943 1514 1B89     		ldrh	r3, [r3, #8]
 3944 1516 BDF80E10 		ldrh	r1, [sp, #14]
 3945 151a BDF80C20 		ldrh	r2, [sp, #12]
 3946 151e 0198     		ldr	r0, [sp, #4]
 3947 1520 00F086FC 		bl	TI2_Config
2498:../Libraries/STM32F30x_StdPeriph_Driver/src/stm32f30x_tim.c ****     /* Set the Input Capture Prescaler value */
2499:../Libraries/STM32F30x_StdPeriph_Driver/src/stm32f30x_tim.c ****     TIM_SetIC2Prescaler(TIMx, TIM_ICInitStruct->TIM_ICPrescaler);
 3948              		.loc 1 2499 0
 3949 1524 009B     		ldr	r3, [sp, #0]
 3950 1526 DB88     		ldrh	r3, [r3, #6]
 3951 1528 0198     		ldr	r0, [sp, #4]
 3952 152a 1946     		mov	r1, r3
 3953 152c FFF7FEFF 		bl	TIM_SetIC2Prescaler
 3954 1530 1DE0     		b	.L120
 3955              	.L125:
2500:../Libraries/STM32F30x_StdPeriph_Driver/src/stm32f30x_tim.c ****   }
2501:../Libraries/STM32F30x_StdPeriph_Driver/src/stm32f30x_tim.c ****   else
2502:../Libraries/STM32F30x_StdPeriph_Driver/src/stm32f30x_tim.c ****   { 
2503:../Libraries/STM32F30x_StdPeriph_Driver/src/stm32f30x_tim.c ****     /* TI2 Configuration */
2504:../Libraries/STM32F30x_StdPeriph_Driver/src/stm32f30x_tim.c ****     TI2_Config(TIMx, TIM_ICInitStruct->TIM_ICPolarity, TIM_ICInitStruct->TIM_ICSelection,
 3956              		.loc 1 2504 0
 3957 1532 009B     		ldr	r3, [sp, #0]
 3958 1534 5988     		ldrh	r1, [r3, #2]
 3959 1536 009B     		ldr	r3, [sp, #0]
 3960 1538 9A88     		ldrh	r2, [r3, #4]
2505:../Libraries/STM32F30x_StdPeriph_Driver/src/stm32f30x_tim.c ****                TIM_ICInitStruct->TIM_ICFilter);
 3961              		.loc 1 2505 0
 3962 153a 009B     		ldr	r3, [sp, #0]
2504:../Libraries/STM32F30x_StdPeriph_Driver/src/stm32f30x_tim.c ****     TI2_Config(TIMx, TIM_ICInitStruct->TIM_ICPolarity, TIM_ICInitStruct->TIM_ICSelection,
 3963              		.loc 1 2504 0
 3964 153c 1B89     		ldrh	r3, [r3, #8]
 3965 153e 0198     		ldr	r0, [sp, #4]
 3966 1540 00F076FC 		bl	TI2_Config
2506:../Libraries/STM32F30x_StdPeriph_Driver/src/stm32f30x_tim.c ****     /* Set the Input Capture Prescaler value */
2507:../Libraries/STM32F30x_StdPeriph_Driver/src/stm32f30x_tim.c ****     TIM_SetIC2Prescaler(TIMx, TIM_ICInitStruct->TIM_ICPrescaler);
 3967              		.loc 1 2507 0
 3968 1544 009B     		ldr	r3, [sp, #0]
 3969 1546 DB88     		ldrh	r3, [r3, #6]
 3970 1548 0198     		ldr	r0, [sp, #4]
 3971 154a 1946     		mov	r1, r3
 3972 154c FFF7FEFF 		bl	TIM_SetIC2Prescaler
2508:../Libraries/STM32F30x_StdPeriph_Driver/src/stm32f30x_tim.c ****     /* TI1 Configuration */
2509:../Libraries/STM32F30x_StdPeriph_Driver/src/stm32f30x_tim.c ****     TI1_Config(TIMx, icoppositepolarity, icoppositeselection, TIM_ICInitStruct->TIM_ICFilter);
 3973              		.loc 1 2509 0
 3974 1550 009B     		ldr	r3, [sp, #0]
 3975 1552 1B89     		ldrh	r3, [r3, #8]
 3976 1554 BDF80E10 		ldrh	r1, [sp, #14]
 3977 1558 BDF80C20 		ldrh	r2, [sp, #12]
 3978 155c 0198     		ldr	r0, [sp, #4]
 3979 155e 00F02BFC 		bl	TI1_Config
2510:../Libraries/STM32F30x_StdPeriph_Driver/src/stm32f30x_tim.c ****     /* Set the Input Capture Prescaler value */
2511:../Libraries/STM32F30x_StdPeriph_Driver/src/stm32f30x_tim.c ****     TIM_SetIC1Prescaler(TIMx, TIM_ICInitStruct->TIM_ICPrescaler);
 3980              		.loc 1 2511 0
 3981 1562 009B     		ldr	r3, [sp, #0]
 3982 1564 DB88     		ldrh	r3, [r3, #6]
 3983 1566 0198     		ldr	r0, [sp, #4]
 3984 1568 1946     		mov	r1, r3
 3985 156a FFF7FEFF 		bl	TIM_SetIC1Prescaler
 3986              	.L120:
2512:../Libraries/STM32F30x_StdPeriph_Driver/src/stm32f30x_tim.c ****   }
2513:../Libraries/STM32F30x_StdPeriph_Driver/src/stm32f30x_tim.c **** }
 3987              		.loc 1 2513 0
 3988 156e 05B0     		add	sp, sp, #20
 3989 1570 00BD     		pop	{pc}
 3990              		.cfi_endproc
 3991              	.LFE180:
 3993 1572 00BF     		.align	2
 3994              		.global	TIM_GetCapture1
 3995              		.thumb
 3996              		.thumb_func
 3998              	TIM_GetCapture1:
 3999              	.LFB181:
2514:../Libraries/STM32F30x_StdPeriph_Driver/src/stm32f30x_tim.c **** 
2515:../Libraries/STM32F30x_StdPeriph_Driver/src/stm32f30x_tim.c **** /**
2516:../Libraries/STM32F30x_StdPeriph_Driver/src/stm32f30x_tim.c ****   * @brief  Gets the TIMx Input Capture 1 value.
2517:../Libraries/STM32F30x_StdPeriph_Driver/src/stm32f30x_tim.c ****   * @param  TIMx: where x can be 1, 2, 3, 4, 8, 15, 16 or 17 to select the TIM peripheral.
2518:../Libraries/STM32F30x_StdPeriph_Driver/src/stm32f30x_tim.c ****   * @retval Capture Compare 1 Register value.
2519:../Libraries/STM32F30x_StdPeriph_Driver/src/stm32f30x_tim.c ****   */
2520:../Libraries/STM32F30x_StdPeriph_Driver/src/stm32f30x_tim.c **** uint32_t TIM_GetCapture1(TIM_TypeDef* TIMx)
2521:../Libraries/STM32F30x_StdPeriph_Driver/src/stm32f30x_tim.c **** {
 4000              		.loc 1 2521 0
 4001              		.cfi_startproc
 4002              		@ args = 0, pretend = 0, frame = 8
 4003              		@ frame_needed = 0, uses_anonymous_args = 0
 4004              		@ link register save eliminated.
 4005 1574 82B0     		sub	sp, sp, #8
 4006              	.LCFI73:
 4007              		.cfi_def_cfa_offset 8
 4008 1576 0190     		str	r0, [sp, #4]
2522:../Libraries/STM32F30x_StdPeriph_Driver/src/stm32f30x_tim.c ****   /* Check the parameters */
2523:../Libraries/STM32F30x_StdPeriph_Driver/src/stm32f30x_tim.c ****   assert_param(IS_TIM_LIST1_PERIPH(TIMx));
2524:../Libraries/STM32F30x_StdPeriph_Driver/src/stm32f30x_tim.c **** 
2525:../Libraries/STM32F30x_StdPeriph_Driver/src/stm32f30x_tim.c ****   /* Get the Capture 1 Register value */
2526:../Libraries/STM32F30x_StdPeriph_Driver/src/stm32f30x_tim.c ****   return TIMx->CCR1;
 4009              		.loc 1 2526 0
 4010 1578 019B     		ldr	r3, [sp, #4]
 4011 157a 5B6B     		ldr	r3, [r3, #52]
2527:../Libraries/STM32F30x_StdPeriph_Driver/src/stm32f30x_tim.c **** }
 4012              		.loc 1 2527 0
 4013 157c 1846     		mov	r0, r3
 4014 157e 02B0     		add	sp, sp, #8
 4015 1580 7047     		bx	lr
 4016              		.cfi_endproc
 4017              	.LFE181:
 4019 1582 00BF     		.align	2
 4020              		.global	TIM_GetCapture2
 4021              		.thumb
 4022              		.thumb_func
 4024              	TIM_GetCapture2:
 4025              	.LFB182:
2528:../Libraries/STM32F30x_StdPeriph_Driver/src/stm32f30x_tim.c **** 
2529:../Libraries/STM32F30x_StdPeriph_Driver/src/stm32f30x_tim.c **** /**
2530:../Libraries/STM32F30x_StdPeriph_Driver/src/stm32f30x_tim.c ****   * @brief  Gets the TIMx Input Capture 2 value.
2531:../Libraries/STM32F30x_StdPeriph_Driver/src/stm32f30x_tim.c ****   * @param  TIMx: where x can be 1, 2, 3, 4, 8 or 15 to select the TIM 
2532:../Libraries/STM32F30x_StdPeriph_Driver/src/stm32f30x_tim.c ****   *         peripheral.
2533:../Libraries/STM32F30x_StdPeriph_Driver/src/stm32f30x_tim.c ****   * @retval Capture Compare 2 Register value.
2534:../Libraries/STM32F30x_StdPeriph_Driver/src/stm32f30x_tim.c ****   */
2535:../Libraries/STM32F30x_StdPeriph_Driver/src/stm32f30x_tim.c **** uint32_t TIM_GetCapture2(TIM_TypeDef* TIMx)
2536:../Libraries/STM32F30x_StdPeriph_Driver/src/stm32f30x_tim.c **** {
 4026              		.loc 1 2536 0
 4027              		.cfi_startproc
 4028              		@ args = 0, pretend = 0, frame = 8
 4029              		@ frame_needed = 0, uses_anonymous_args = 0
 4030              		@ link register save eliminated.
 4031 1584 82B0     		sub	sp, sp, #8
 4032              	.LCFI74:
 4033              		.cfi_def_cfa_offset 8
 4034 1586 0190     		str	r0, [sp, #4]
2537:../Libraries/STM32F30x_StdPeriph_Driver/src/stm32f30x_tim.c ****   /* Check the parameters */
2538:../Libraries/STM32F30x_StdPeriph_Driver/src/stm32f30x_tim.c ****   assert_param(IS_TIM_LIST2_PERIPH(TIMx));
2539:../Libraries/STM32F30x_StdPeriph_Driver/src/stm32f30x_tim.c **** 
2540:../Libraries/STM32F30x_StdPeriph_Driver/src/stm32f30x_tim.c ****   /* Get the Capture 2 Register value */
2541:../Libraries/STM32F30x_StdPeriph_Driver/src/stm32f30x_tim.c ****   return TIMx->CCR2;
 4035              		.loc 1 2541 0
 4036 1588 019B     		ldr	r3, [sp, #4]
 4037 158a 9B6B     		ldr	r3, [r3, #56]
2542:../Libraries/STM32F30x_StdPeriph_Driver/src/stm32f30x_tim.c **** }
 4038              		.loc 1 2542 0
 4039 158c 1846     		mov	r0, r3
 4040 158e 02B0     		add	sp, sp, #8
 4041 1590 7047     		bx	lr
 4042              		.cfi_endproc
 4043              	.LFE182:
 4045 1592 00BF     		.align	2
 4046              		.global	TIM_GetCapture3
 4047              		.thumb
 4048              		.thumb_func
 4050              	TIM_GetCapture3:
 4051              	.LFB183:
2543:../Libraries/STM32F30x_StdPeriph_Driver/src/stm32f30x_tim.c **** 
2544:../Libraries/STM32F30x_StdPeriph_Driver/src/stm32f30x_tim.c **** /**
2545:../Libraries/STM32F30x_StdPeriph_Driver/src/stm32f30x_tim.c ****   * @brief  Gets the TIMx Input Capture 3 value.
2546:../Libraries/STM32F30x_StdPeriph_Driver/src/stm32f30x_tim.c ****   * @param  TIMx: where x can be 1, 2, 3, 4 or 8 to select the TIM peripheral.
2547:../Libraries/STM32F30x_StdPeriph_Driver/src/stm32f30x_tim.c ****   * @retval Capture Compare 3 Register value.
2548:../Libraries/STM32F30x_StdPeriph_Driver/src/stm32f30x_tim.c ****   */
2549:../Libraries/STM32F30x_StdPeriph_Driver/src/stm32f30x_tim.c **** uint32_t TIM_GetCapture3(TIM_TypeDef* TIMx)
2550:../Libraries/STM32F30x_StdPeriph_Driver/src/stm32f30x_tim.c **** {
 4052              		.loc 1 2550 0
 4053              		.cfi_startproc
 4054              		@ args = 0, pretend = 0, frame = 8
 4055              		@ frame_needed = 0, uses_anonymous_args = 0
 4056              		@ link register save eliminated.
 4057 1594 82B0     		sub	sp, sp, #8
 4058              	.LCFI75:
 4059              		.cfi_def_cfa_offset 8
 4060 1596 0190     		str	r0, [sp, #4]
2551:../Libraries/STM32F30x_StdPeriph_Driver/src/stm32f30x_tim.c ****   /* Check the parameters */
2552:../Libraries/STM32F30x_StdPeriph_Driver/src/stm32f30x_tim.c ****   assert_param(IS_TIM_LIST3_PERIPH(TIMx)); 
2553:../Libraries/STM32F30x_StdPeriph_Driver/src/stm32f30x_tim.c **** 
2554:../Libraries/STM32F30x_StdPeriph_Driver/src/stm32f30x_tim.c ****   /* Get the Capture 3 Register value */
2555:../Libraries/STM32F30x_StdPeriph_Driver/src/stm32f30x_tim.c ****   return TIMx->CCR3;
 4061              		.loc 1 2555 0
 4062 1598 019B     		ldr	r3, [sp, #4]
 4063 159a DB6B     		ldr	r3, [r3, #60]
2556:../Libraries/STM32F30x_StdPeriph_Driver/src/stm32f30x_tim.c **** }
 4064              		.loc 1 2556 0
 4065 159c 1846     		mov	r0, r3
 4066 159e 02B0     		add	sp, sp, #8
 4067 15a0 7047     		bx	lr
 4068              		.cfi_endproc
 4069              	.LFE183:
 4071 15a2 00BF     		.align	2
 4072              		.global	TIM_GetCapture4
 4073              		.thumb
 4074              		.thumb_func
 4076              	TIM_GetCapture4:
 4077              	.LFB184:
2557:../Libraries/STM32F30x_StdPeriph_Driver/src/stm32f30x_tim.c **** 
2558:../Libraries/STM32F30x_StdPeriph_Driver/src/stm32f30x_tim.c **** /**
2559:../Libraries/STM32F30x_StdPeriph_Driver/src/stm32f30x_tim.c ****   * @brief  Gets the TIMx Input Capture 4 value.
2560:../Libraries/STM32F30x_StdPeriph_Driver/src/stm32f30x_tim.c ****   * @param  TIMx: where x can be 1, 2, 3, 4 or 8 to select the TIM peripheral.
2561:../Libraries/STM32F30x_StdPeriph_Driver/src/stm32f30x_tim.c ****   * @retval Capture Compare 4 Register value.
2562:../Libraries/STM32F30x_StdPeriph_Driver/src/stm32f30x_tim.c ****   */
2563:../Libraries/STM32F30x_StdPeriph_Driver/src/stm32f30x_tim.c **** uint32_t TIM_GetCapture4(TIM_TypeDef* TIMx)
2564:../Libraries/STM32F30x_StdPeriph_Driver/src/stm32f30x_tim.c **** {
 4078              		.loc 1 2564 0
 4079              		.cfi_startproc
 4080              		@ args = 0, pretend = 0, frame = 8
 4081              		@ frame_needed = 0, uses_anonymous_args = 0
 4082              		@ link register save eliminated.
 4083 15a4 82B0     		sub	sp, sp, #8
 4084              	.LCFI76:
 4085              		.cfi_def_cfa_offset 8
 4086 15a6 0190     		str	r0, [sp, #4]
2565:../Libraries/STM32F30x_StdPeriph_Driver/src/stm32f30x_tim.c ****   /* Check the parameters */
2566:../Libraries/STM32F30x_StdPeriph_Driver/src/stm32f30x_tim.c ****   assert_param(IS_TIM_LIST3_PERIPH(TIMx));
2567:../Libraries/STM32F30x_StdPeriph_Driver/src/stm32f30x_tim.c **** 
2568:../Libraries/STM32F30x_StdPeriph_Driver/src/stm32f30x_tim.c ****   /* Get the Capture 4 Register value */
2569:../Libraries/STM32F30x_StdPeriph_Driver/src/stm32f30x_tim.c ****   return TIMx->CCR4;
 4087              		.loc 1 2569 0
 4088 15a8 019B     		ldr	r3, [sp, #4]
 4089 15aa 1B6C     		ldr	r3, [r3, #64]
2570:../Libraries/STM32F30x_StdPeriph_Driver/src/stm32f30x_tim.c **** }
 4090              		.loc 1 2570 0
 4091 15ac 1846     		mov	r0, r3
 4092 15ae 02B0     		add	sp, sp, #8
 4093 15b0 7047     		bx	lr
 4094              		.cfi_endproc
 4095              	.LFE184:
 4097 15b2 00BF     		.align	2
 4098              		.global	TIM_SetIC1Prescaler
 4099              		.thumb
 4100              		.thumb_func
 4102              	TIM_SetIC1Prescaler:
 4103              	.LFB185:
2571:../Libraries/STM32F30x_StdPeriph_Driver/src/stm32f30x_tim.c **** 
2572:../Libraries/STM32F30x_StdPeriph_Driver/src/stm32f30x_tim.c **** /**
2573:../Libraries/STM32F30x_StdPeriph_Driver/src/stm32f30x_tim.c ****   * @brief  Sets the TIMx Input Capture 1 prescaler.
2574:../Libraries/STM32F30x_StdPeriph_Driver/src/stm32f30x_tim.c ****   * @param  TIMx: where x can be 1, 2, 3, 4, 8, 15, 16 or 17 to select the TIM peripheral.
2575:../Libraries/STM32F30x_StdPeriph_Driver/src/stm32f30x_tim.c ****   * @param  TIM_ICPSC: specifies the Input Capture1 prescaler new value.
2576:../Libraries/STM32F30x_StdPeriph_Driver/src/stm32f30x_tim.c ****   *          This parameter can be one of the following values:
2577:../Libraries/STM32F30x_StdPeriph_Driver/src/stm32f30x_tim.c ****   *            @arg TIM_ICPSC_DIV1: no prescaler
2578:../Libraries/STM32F30x_StdPeriph_Driver/src/stm32f30x_tim.c ****   *            @arg TIM_ICPSC_DIV2: capture is done once every 2 events
2579:../Libraries/STM32F30x_StdPeriph_Driver/src/stm32f30x_tim.c ****   *            @arg TIM_ICPSC_DIV4: capture is done once every 4 events
2580:../Libraries/STM32F30x_StdPeriph_Driver/src/stm32f30x_tim.c ****   *            @arg TIM_ICPSC_DIV8: capture is done once every 8 events
2581:../Libraries/STM32F30x_StdPeriph_Driver/src/stm32f30x_tim.c ****   * @retval None
2582:../Libraries/STM32F30x_StdPeriph_Driver/src/stm32f30x_tim.c ****   */
2583:../Libraries/STM32F30x_StdPeriph_Driver/src/stm32f30x_tim.c **** void TIM_SetIC1Prescaler(TIM_TypeDef* TIMx, uint16_t TIM_ICPSC)
2584:../Libraries/STM32F30x_StdPeriph_Driver/src/stm32f30x_tim.c **** {
 4104              		.loc 1 2584 0
 4105              		.cfi_startproc
 4106              		@ args = 0, pretend = 0, frame = 8
 4107              		@ frame_needed = 0, uses_anonymous_args = 0
 4108              		@ link register save eliminated.
 4109 15b4 82B0     		sub	sp, sp, #8
 4110              	.LCFI77:
 4111              		.cfi_def_cfa_offset 8
 4112 15b6 0190     		str	r0, [sp, #4]
 4113 15b8 0B46     		mov	r3, r1
 4114 15ba ADF80230 		strh	r3, [sp, #2]	@ movhi
2585:../Libraries/STM32F30x_StdPeriph_Driver/src/stm32f30x_tim.c ****   /* Check the parameters */
2586:../Libraries/STM32F30x_StdPeriph_Driver/src/stm32f30x_tim.c ****   assert_param(IS_TIM_LIST1_PERIPH(TIMx));
2587:../Libraries/STM32F30x_StdPeriph_Driver/src/stm32f30x_tim.c ****   assert_param(IS_TIM_IC_PRESCALER(TIM_ICPSC));
2588:../Libraries/STM32F30x_StdPeriph_Driver/src/stm32f30x_tim.c **** 
2589:../Libraries/STM32F30x_StdPeriph_Driver/src/stm32f30x_tim.c ****   /* Reset the IC1PSC Bits */
2590:../Libraries/STM32F30x_StdPeriph_Driver/src/stm32f30x_tim.c ****   TIMx->CCMR1 &= (uint32_t)~TIM_CCMR1_IC1PSC;
 4115              		.loc 1 2590 0
 4116 15be 019B     		ldr	r3, [sp, #4]
 4117 15c0 9B69     		ldr	r3, [r3, #24]
 4118 15c2 23F00C02 		bic	r2, r3, #12
 4119 15c6 019B     		ldr	r3, [sp, #4]
 4120 15c8 9A61     		str	r2, [r3, #24]
2591:../Libraries/STM32F30x_StdPeriph_Driver/src/stm32f30x_tim.c **** 
2592:../Libraries/STM32F30x_StdPeriph_Driver/src/stm32f30x_tim.c ****   /* Set the IC1PSC value */
2593:../Libraries/STM32F30x_StdPeriph_Driver/src/stm32f30x_tim.c ****   TIMx->CCMR1 |= TIM_ICPSC;
 4121              		.loc 1 2593 0
 4122 15ca 019B     		ldr	r3, [sp, #4]
 4123 15cc 9A69     		ldr	r2, [r3, #24]
 4124 15ce BDF80230 		ldrh	r3, [sp, #2]
 4125 15d2 1A43     		orrs	r2, r2, r3
 4126 15d4 019B     		ldr	r3, [sp, #4]
 4127 15d6 9A61     		str	r2, [r3, #24]
2594:../Libraries/STM32F30x_StdPeriph_Driver/src/stm32f30x_tim.c **** }
 4128              		.loc 1 2594 0
 4129 15d8 02B0     		add	sp, sp, #8
 4130 15da 7047     		bx	lr
 4131              		.cfi_endproc
 4132              	.LFE185:
 4134              		.align	2
 4135              		.global	TIM_SetIC2Prescaler
 4136              		.thumb
 4137              		.thumb_func
 4139              	TIM_SetIC2Prescaler:
 4140              	.LFB186:
2595:../Libraries/STM32F30x_StdPeriph_Driver/src/stm32f30x_tim.c **** 
2596:../Libraries/STM32F30x_StdPeriph_Driver/src/stm32f30x_tim.c **** /**
2597:../Libraries/STM32F30x_StdPeriph_Driver/src/stm32f30x_tim.c ****   * @brief  Sets the TIMx Input Capture 2 prescaler.
2598:../Libraries/STM32F30x_StdPeriph_Driver/src/stm32f30x_tim.c ****   * @param  TIMx: where x can be 1, 2, 3, 4, 8 or 15 to select the TIM 
2599:../Libraries/STM32F30x_StdPeriph_Driver/src/stm32f30x_tim.c ****   *         peripheral.
2600:../Libraries/STM32F30x_StdPeriph_Driver/src/stm32f30x_tim.c ****   * @param  TIM_ICPSC: specifies the Input Capture2 prescaler new value.
2601:../Libraries/STM32F30x_StdPeriph_Driver/src/stm32f30x_tim.c ****   *          This parameter can be one of the following values:
2602:../Libraries/STM32F30x_StdPeriph_Driver/src/stm32f30x_tim.c ****   *            @arg TIM_ICPSC_DIV1: no prescaler
2603:../Libraries/STM32F30x_StdPeriph_Driver/src/stm32f30x_tim.c ****   *            @arg TIM_ICPSC_DIV2: capture is done once every 2 events
2604:../Libraries/STM32F30x_StdPeriph_Driver/src/stm32f30x_tim.c ****   *            @arg TIM_ICPSC_DIV4: capture is done once every 4 events
2605:../Libraries/STM32F30x_StdPeriph_Driver/src/stm32f30x_tim.c ****   *            @arg TIM_ICPSC_DIV8: capture is done once every 8 events
2606:../Libraries/STM32F30x_StdPeriph_Driver/src/stm32f30x_tim.c ****   * @retval None
2607:../Libraries/STM32F30x_StdPeriph_Driver/src/stm32f30x_tim.c ****   */
2608:../Libraries/STM32F30x_StdPeriph_Driver/src/stm32f30x_tim.c **** void TIM_SetIC2Prescaler(TIM_TypeDef* TIMx, uint16_t TIM_ICPSC)
2609:../Libraries/STM32F30x_StdPeriph_Driver/src/stm32f30x_tim.c **** {
 4141              		.loc 1 2609 0
 4142              		.cfi_startproc
 4143              		@ args = 0, pretend = 0, frame = 8
 4144              		@ frame_needed = 0, uses_anonymous_args = 0
 4145              		@ link register save eliminated.
 4146 15dc 82B0     		sub	sp, sp, #8
 4147              	.LCFI78:
 4148              		.cfi_def_cfa_offset 8
 4149 15de 0190     		str	r0, [sp, #4]
 4150 15e0 0B46     		mov	r3, r1
 4151 15e2 ADF80230 		strh	r3, [sp, #2]	@ movhi
2610:../Libraries/STM32F30x_StdPeriph_Driver/src/stm32f30x_tim.c ****   /* Check the parameters */
2611:../Libraries/STM32F30x_StdPeriph_Driver/src/stm32f30x_tim.c ****   assert_param(IS_TIM_LIST2_PERIPH(TIMx));
2612:../Libraries/STM32F30x_StdPeriph_Driver/src/stm32f30x_tim.c ****   assert_param(IS_TIM_IC_PRESCALER(TIM_ICPSC));
2613:../Libraries/STM32F30x_StdPeriph_Driver/src/stm32f30x_tim.c **** 
2614:../Libraries/STM32F30x_StdPeriph_Driver/src/stm32f30x_tim.c ****   /* Reset the IC2PSC Bits */
2615:../Libraries/STM32F30x_StdPeriph_Driver/src/stm32f30x_tim.c ****   TIMx->CCMR1 &= (uint32_t)~TIM_CCMR1_IC2PSC;
 4152              		.loc 1 2615 0
 4153 15e6 019B     		ldr	r3, [sp, #4]
 4154 15e8 9B69     		ldr	r3, [r3, #24]
 4155 15ea 23F44062 		bic	r2, r3, #3072
 4156 15ee 019B     		ldr	r3, [sp, #4]
 4157 15f0 9A61     		str	r2, [r3, #24]
2616:../Libraries/STM32F30x_StdPeriph_Driver/src/stm32f30x_tim.c **** 
2617:../Libraries/STM32F30x_StdPeriph_Driver/src/stm32f30x_tim.c ****   /* Set the IC2PSC value */
2618:../Libraries/STM32F30x_StdPeriph_Driver/src/stm32f30x_tim.c ****   TIMx->CCMR1 |= (uint32_t)((uint32_t)TIM_ICPSC << 8);
 4158              		.loc 1 2618 0
 4159 15f2 019B     		ldr	r3, [sp, #4]
 4160 15f4 9A69     		ldr	r2, [r3, #24]
 4161 15f6 BDF80230 		ldrh	r3, [sp, #2]
 4162 15fa 4FEA0323 		lsl	r3, r3, #8
 4163 15fe 1A43     		orrs	r2, r2, r3
 4164 1600 019B     		ldr	r3, [sp, #4]
 4165 1602 9A61     		str	r2, [r3, #24]
2619:../Libraries/STM32F30x_StdPeriph_Driver/src/stm32f30x_tim.c **** }
 4166              		.loc 1 2619 0
 4167 1604 02B0     		add	sp, sp, #8
 4168 1606 7047     		bx	lr
 4169              		.cfi_endproc
 4170              	.LFE186:
 4172              		.align	2
 4173              		.global	TIM_SetIC3Prescaler
 4174              		.thumb
 4175              		.thumb_func
 4177              	TIM_SetIC3Prescaler:
 4178              	.LFB187:
2620:../Libraries/STM32F30x_StdPeriph_Driver/src/stm32f30x_tim.c **** 
2621:../Libraries/STM32F30x_StdPeriph_Driver/src/stm32f30x_tim.c **** /**
2622:../Libraries/STM32F30x_StdPeriph_Driver/src/stm32f30x_tim.c ****   * @brief  Sets the TIMx Input Capture 3 prescaler.
2623:../Libraries/STM32F30x_StdPeriph_Driver/src/stm32f30x_tim.c ****   * @param  TIMx: where x can be 1, 2, 3, 4 or 8 to select the TIM peripheral.
2624:../Libraries/STM32F30x_StdPeriph_Driver/src/stm32f30x_tim.c ****   * @param  TIM_ICPSC: specifies the Input Capture3 prescaler new value.
2625:../Libraries/STM32F30x_StdPeriph_Driver/src/stm32f30x_tim.c ****   *          This parameter can be one of the following values:
2626:../Libraries/STM32F30x_StdPeriph_Driver/src/stm32f30x_tim.c ****   *            @arg TIM_ICPSC_DIV1: no prescaler
2627:../Libraries/STM32F30x_StdPeriph_Driver/src/stm32f30x_tim.c ****   *            @arg TIM_ICPSC_DIV2: capture is done once every 2 events
2628:../Libraries/STM32F30x_StdPeriph_Driver/src/stm32f30x_tim.c ****   *            @arg TIM_ICPSC_DIV4: capture is done once every 4 events
2629:../Libraries/STM32F30x_StdPeriph_Driver/src/stm32f30x_tim.c ****   *            @arg TIM_ICPSC_DIV8: capture is done once every 8 events
2630:../Libraries/STM32F30x_StdPeriph_Driver/src/stm32f30x_tim.c ****   * @retval None
2631:../Libraries/STM32F30x_StdPeriph_Driver/src/stm32f30x_tim.c ****   */
2632:../Libraries/STM32F30x_StdPeriph_Driver/src/stm32f30x_tim.c **** void TIM_SetIC3Prescaler(TIM_TypeDef* TIMx, uint16_t TIM_ICPSC)
2633:../Libraries/STM32F30x_StdPeriph_Driver/src/stm32f30x_tim.c **** {
 4179              		.loc 1 2633 0
 4180              		.cfi_startproc
 4181              		@ args = 0, pretend = 0, frame = 8
 4182              		@ frame_needed = 0, uses_anonymous_args = 0
 4183              		@ link register save eliminated.
 4184 1608 82B0     		sub	sp, sp, #8
 4185              	.LCFI79:
 4186              		.cfi_def_cfa_offset 8
 4187 160a 0190     		str	r0, [sp, #4]
 4188 160c 0B46     		mov	r3, r1
 4189 160e ADF80230 		strh	r3, [sp, #2]	@ movhi
2634:../Libraries/STM32F30x_StdPeriph_Driver/src/stm32f30x_tim.c ****   /* Check the parameters */
2635:../Libraries/STM32F30x_StdPeriph_Driver/src/stm32f30x_tim.c ****   assert_param(IS_TIM_LIST3_PERIPH(TIMx));
2636:../Libraries/STM32F30x_StdPeriph_Driver/src/stm32f30x_tim.c ****   assert_param(IS_TIM_IC_PRESCALER(TIM_ICPSC));
2637:../Libraries/STM32F30x_StdPeriph_Driver/src/stm32f30x_tim.c **** 
2638:../Libraries/STM32F30x_StdPeriph_Driver/src/stm32f30x_tim.c ****   /* Reset the IC3PSC Bits */
2639:../Libraries/STM32F30x_StdPeriph_Driver/src/stm32f30x_tim.c ****   TIMx->CCMR2 &= (uint16_t)~TIM_CCMR2_IC3PSC;
 4190              		.loc 1 2639 0
 4191 1612 019B     		ldr	r3, [sp, #4]
 4192 1614 DA69     		ldr	r2, [r3, #28]
 4193 1616 4FF6F373 		movw	r3, #65523
 4194 161a 1340     		ands	r3, r3, r2
 4195 161c 019A     		ldr	r2, [sp, #4]
 4196 161e D361     		str	r3, [r2, #28]
2640:../Libraries/STM32F30x_StdPeriph_Driver/src/stm32f30x_tim.c **** 
2641:../Libraries/STM32F30x_StdPeriph_Driver/src/stm32f30x_tim.c ****   /* Set the IC3PSC value */
2642:../Libraries/STM32F30x_StdPeriph_Driver/src/stm32f30x_tim.c ****   TIMx->CCMR2 |= TIM_ICPSC;
 4197              		.loc 1 2642 0
 4198 1620 019B     		ldr	r3, [sp, #4]
 4199 1622 DA69     		ldr	r2, [r3, #28]
 4200 1624 BDF80230 		ldrh	r3, [sp, #2]
 4201 1628 1A43     		orrs	r2, r2, r3
 4202 162a 019B     		ldr	r3, [sp, #4]
 4203 162c DA61     		str	r2, [r3, #28]
2643:../Libraries/STM32F30x_StdPeriph_Driver/src/stm32f30x_tim.c **** }
 4204              		.loc 1 2643 0
 4205 162e 02B0     		add	sp, sp, #8
 4206 1630 7047     		bx	lr
 4207              		.cfi_endproc
 4208              	.LFE187:
 4210 1632 00BF     		.align	2
 4211              		.global	TIM_SetIC4Prescaler
 4212              		.thumb
 4213              		.thumb_func
 4215              	TIM_SetIC4Prescaler:
 4216              	.LFB188:
2644:../Libraries/STM32F30x_StdPeriph_Driver/src/stm32f30x_tim.c **** 
2645:../Libraries/STM32F30x_StdPeriph_Driver/src/stm32f30x_tim.c **** /**
2646:../Libraries/STM32F30x_StdPeriph_Driver/src/stm32f30x_tim.c ****   * @brief  Sets the TIMx Input Capture 4 prescaler.
2647:../Libraries/STM32F30x_StdPeriph_Driver/src/stm32f30x_tim.c ****   * @param  TIMx: where x can be 1, 2, 3, 4 or 8 to select the TIM peripheral.
2648:../Libraries/STM32F30x_StdPeriph_Driver/src/stm32f30x_tim.c ****   * @param  TIM_ICPSC: specifies the Input Capture4 prescaler new value.
2649:../Libraries/STM32F30x_StdPeriph_Driver/src/stm32f30x_tim.c ****   *          This parameter can be one of the following values:
2650:../Libraries/STM32F30x_StdPeriph_Driver/src/stm32f30x_tim.c ****   *            @arg TIM_ICPSC_DIV1: no prescaler
2651:../Libraries/STM32F30x_StdPeriph_Driver/src/stm32f30x_tim.c ****   *            @arg TIM_ICPSC_DIV2: capture is done once every 2 events
2652:../Libraries/STM32F30x_StdPeriph_Driver/src/stm32f30x_tim.c ****   *            @arg TIM_ICPSC_DIV4: capture is done once every 4 events
2653:../Libraries/STM32F30x_StdPeriph_Driver/src/stm32f30x_tim.c ****   *            @arg TIM_ICPSC_DIV8: capture is done once every 8 events
2654:../Libraries/STM32F30x_StdPeriph_Driver/src/stm32f30x_tim.c ****   * @retval None
2655:../Libraries/STM32F30x_StdPeriph_Driver/src/stm32f30x_tim.c ****   */
2656:../Libraries/STM32F30x_StdPeriph_Driver/src/stm32f30x_tim.c **** void TIM_SetIC4Prescaler(TIM_TypeDef* TIMx, uint16_t TIM_ICPSC)
2657:../Libraries/STM32F30x_StdPeriph_Driver/src/stm32f30x_tim.c **** {  
 4217              		.loc 1 2657 0
 4218              		.cfi_startproc
 4219              		@ args = 0, pretend = 0, frame = 8
 4220              		@ frame_needed = 0, uses_anonymous_args = 0
 4221              		@ link register save eliminated.
 4222 1634 82B0     		sub	sp, sp, #8
 4223              	.LCFI80:
 4224              		.cfi_def_cfa_offset 8
 4225 1636 0190     		str	r0, [sp, #4]
 4226 1638 0B46     		mov	r3, r1
 4227 163a ADF80230 		strh	r3, [sp, #2]	@ movhi
2658:../Libraries/STM32F30x_StdPeriph_Driver/src/stm32f30x_tim.c ****   /* Check the parameters */
2659:../Libraries/STM32F30x_StdPeriph_Driver/src/stm32f30x_tim.c ****   assert_param(IS_TIM_LIST3_PERIPH(TIMx));
2660:../Libraries/STM32F30x_StdPeriph_Driver/src/stm32f30x_tim.c ****   assert_param(IS_TIM_IC_PRESCALER(TIM_ICPSC));
2661:../Libraries/STM32F30x_StdPeriph_Driver/src/stm32f30x_tim.c **** 
2662:../Libraries/STM32F30x_StdPeriph_Driver/src/stm32f30x_tim.c ****   /* Reset the IC4PSC Bits */
2663:../Libraries/STM32F30x_StdPeriph_Driver/src/stm32f30x_tim.c ****   TIMx->CCMR2 &= (uint16_t)~TIM_CCMR2_IC4PSC;
 4228              		.loc 1 2663 0
 4229 163e 019B     		ldr	r3, [sp, #4]
 4230 1640 DA69     		ldr	r2, [r3, #28]
 4231 1642 4FF2FF33 		movw	r3, #62463
 4232 1646 1340     		ands	r3, r3, r2
 4233 1648 019A     		ldr	r2, [sp, #4]
 4234 164a D361     		str	r3, [r2, #28]
2664:../Libraries/STM32F30x_StdPeriph_Driver/src/stm32f30x_tim.c **** 
2665:../Libraries/STM32F30x_StdPeriph_Driver/src/stm32f30x_tim.c ****   /* Set the IC4PSC value */
2666:../Libraries/STM32F30x_StdPeriph_Driver/src/stm32f30x_tim.c ****   TIMx->CCMR2 |= (uint16_t)(TIM_ICPSC << 8);
 4235              		.loc 1 2666 0
 4236 164c 019B     		ldr	r3, [sp, #4]
 4237 164e DA69     		ldr	r2, [r3, #28]
 4238 1650 BDF80230 		ldrh	r3, [sp, #2]	@ movhi
 4239 1654 4FEA0323 		lsl	r3, r3, #8
 4240 1658 9BB2     		uxth	r3, r3
 4241 165a 1A43     		orrs	r2, r2, r3
 4242 165c 019B     		ldr	r3, [sp, #4]
 4243 165e DA61     		str	r2, [r3, #28]
2667:../Libraries/STM32F30x_StdPeriph_Driver/src/stm32f30x_tim.c **** }
 4244              		.loc 1 2667 0
 4245 1660 02B0     		add	sp, sp, #8
 4246 1662 7047     		bx	lr
 4247              		.cfi_endproc
 4248              	.LFE188:
 4250              		.align	2
 4251              		.global	TIM_BDTRConfig
 4252              		.thumb
 4253              		.thumb_func
 4255              	TIM_BDTRConfig:
 4256              	.LFB189:
2668:../Libraries/STM32F30x_StdPeriph_Driver/src/stm32f30x_tim.c **** /**
2669:../Libraries/STM32F30x_StdPeriph_Driver/src/stm32f30x_tim.c ****   * @}
2670:../Libraries/STM32F30x_StdPeriph_Driver/src/stm32f30x_tim.c ****   */
2671:../Libraries/STM32F30x_StdPeriph_Driver/src/stm32f30x_tim.c **** 
2672:../Libraries/STM32F30x_StdPeriph_Driver/src/stm32f30x_tim.c **** /** @defgroup TIM_Group4 Advanced-control timers (TIM1 and TIM8) specific features
2673:../Libraries/STM32F30x_StdPeriph_Driver/src/stm32f30x_tim.c ****  *  @brief   Advanced-control timers (TIM1 and TIM8) specific features
2674:../Libraries/STM32F30x_StdPeriph_Driver/src/stm32f30x_tim.c ****  *
2675:../Libraries/STM32F30x_StdPeriph_Driver/src/stm32f30x_tim.c **** @verbatim   
2676:../Libraries/STM32F30x_StdPeriph_Driver/src/stm32f30x_tim.c ****  ===============================================================================
2677:../Libraries/STM32F30x_StdPeriph_Driver/src/stm32f30x_tim.c ****      ##### Advanced-control timers (TIM1 and TIM8) specific features #####
2678:../Libraries/STM32F30x_StdPeriph_Driver/src/stm32f30x_tim.c ****  ===============================================================================  
2679:../Libraries/STM32F30x_StdPeriph_Driver/src/stm32f30x_tim.c ****        
2680:../Libraries/STM32F30x_StdPeriph_Driver/src/stm32f30x_tim.c ****   *** TIM Driver: how to use the Break feature ***
2681:../Libraries/STM32F30x_StdPeriph_Driver/src/stm32f30x_tim.c ****   ================================================ 
2682:../Libraries/STM32F30x_StdPeriph_Driver/src/stm32f30x_tim.c ****   [..]
2683:../Libraries/STM32F30x_StdPeriph_Driver/src/stm32f30x_tim.c ****   After configuring the Timer channel(s) in the appropriate Output Compare mode: 
2684:../Libraries/STM32F30x_StdPeriph_Driver/src/stm32f30x_tim.c ****                          
2685:../Libraries/STM32F30x_StdPeriph_Driver/src/stm32f30x_tim.c ****        (#) Fill the TIM_BDTRInitStruct with the desired parameters for the Timer
2686:../Libraries/STM32F30x_StdPeriph_Driver/src/stm32f30x_tim.c ****            Break Polarity, dead time, Lock level, the OSSI/OSSR State and the 
2687:../Libraries/STM32F30x_StdPeriph_Driver/src/stm32f30x_tim.c ****            AOE(automatic output enable).
2688:../Libraries/STM32F30x_StdPeriph_Driver/src/stm32f30x_tim.c ****                
2689:../Libraries/STM32F30x_StdPeriph_Driver/src/stm32f30x_tim.c ****        (#) Call TIM_BDTRConfig(TIMx, &TIM_BDTRInitStruct) to configure the Timer
2690:../Libraries/STM32F30x_StdPeriph_Driver/src/stm32f30x_tim.c ****           
2691:../Libraries/STM32F30x_StdPeriph_Driver/src/stm32f30x_tim.c ****        (#) Enable the Main Output using TIM_CtrlPWMOutputs(TIM1, ENABLE) 
2692:../Libraries/STM32F30x_StdPeriph_Driver/src/stm32f30x_tim.c ****           
2693:../Libraries/STM32F30x_StdPeriph_Driver/src/stm32f30x_tim.c ****        (#) Once the break even occurs, the Timer's output signals are put in reset
2694:../Libraries/STM32F30x_StdPeriph_Driver/src/stm32f30x_tim.c ****            state or in a known state (according to the configuration made in
2695:../Libraries/STM32F30x_StdPeriph_Driver/src/stm32f30x_tim.c ****            TIM_BDTRConfig() function).
2696:../Libraries/STM32F30x_StdPeriph_Driver/src/stm32f30x_tim.c **** 
2697:../Libraries/STM32F30x_StdPeriph_Driver/src/stm32f30x_tim.c **** @endverbatim
2698:../Libraries/STM32F30x_StdPeriph_Driver/src/stm32f30x_tim.c ****   * @{
2699:../Libraries/STM32F30x_StdPeriph_Driver/src/stm32f30x_tim.c ****   */
2700:../Libraries/STM32F30x_StdPeriph_Driver/src/stm32f30x_tim.c **** 
2701:../Libraries/STM32F30x_StdPeriph_Driver/src/stm32f30x_tim.c **** /**
2702:../Libraries/STM32F30x_StdPeriph_Driver/src/stm32f30x_tim.c ****   * @brief  Configures the Break feature, dead time, Lock level, OSSI/OSSR State
2703:../Libraries/STM32F30x_StdPeriph_Driver/src/stm32f30x_tim.c ****   *         and the AOE(automatic output enable).
2704:../Libraries/STM32F30x_StdPeriph_Driver/src/stm32f30x_tim.c ****   * @param  TIMx: where x can be  1, 8, 15, 16 or 17 to select the TIM 
2705:../Libraries/STM32F30x_StdPeriph_Driver/src/stm32f30x_tim.c ****   * @param  TIM_BDTRInitStruct: pointer to a TIM_BDTRInitTypeDef structure that
2706:../Libraries/STM32F30x_StdPeriph_Driver/src/stm32f30x_tim.c ****   *         contains the BDTR Register configuration  information for the TIM peripheral.
2707:../Libraries/STM32F30x_StdPeriph_Driver/src/stm32f30x_tim.c ****   * @retval None
2708:../Libraries/STM32F30x_StdPeriph_Driver/src/stm32f30x_tim.c ****   */
2709:../Libraries/STM32F30x_StdPeriph_Driver/src/stm32f30x_tim.c **** void TIM_BDTRConfig(TIM_TypeDef* TIMx, TIM_BDTRInitTypeDef *TIM_BDTRInitStruct)
2710:../Libraries/STM32F30x_StdPeriph_Driver/src/stm32f30x_tim.c **** {
 4257              		.loc 1 2710 0
 4258              		.cfi_startproc
 4259              		@ args = 0, pretend = 0, frame = 8
 4260              		@ frame_needed = 0, uses_anonymous_args = 0
 4261              		@ link register save eliminated.
 4262 1664 82B0     		sub	sp, sp, #8
 4263              	.LCFI81:
 4264              		.cfi_def_cfa_offset 8
 4265 1666 0190     		str	r0, [sp, #4]
 4266 1668 0091     		str	r1, [sp, #0]
2711:../Libraries/STM32F30x_StdPeriph_Driver/src/stm32f30x_tim.c ****   /* Check the parameters */
2712:../Libraries/STM32F30x_StdPeriph_Driver/src/stm32f30x_tim.c ****   assert_param(IS_TIM_LIST6_PERIPH(TIMx));
2713:../Libraries/STM32F30x_StdPeriph_Driver/src/stm32f30x_tim.c ****   assert_param(IS_TIM_OSSR_STATE(TIM_BDTRInitStruct->TIM_OSSRState));
2714:../Libraries/STM32F30x_StdPeriph_Driver/src/stm32f30x_tim.c ****   assert_param(IS_TIM_OSSI_STATE(TIM_BDTRInitStruct->TIM_OSSIState));
2715:../Libraries/STM32F30x_StdPeriph_Driver/src/stm32f30x_tim.c ****   assert_param(IS_TIM_LOCK_LEVEL(TIM_BDTRInitStruct->TIM_LOCKLevel));
2716:../Libraries/STM32F30x_StdPeriph_Driver/src/stm32f30x_tim.c ****   assert_param(IS_TIM_BREAK_STATE(TIM_BDTRInitStruct->TIM_Break));
2717:../Libraries/STM32F30x_StdPeriph_Driver/src/stm32f30x_tim.c ****   assert_param(IS_TIM_BREAK_POLARITY(TIM_BDTRInitStruct->TIM_BreakPolarity));
2718:../Libraries/STM32F30x_StdPeriph_Driver/src/stm32f30x_tim.c ****   assert_param(IS_TIM_AUTOMATIC_OUTPUT_STATE(TIM_BDTRInitStruct->TIM_AutomaticOutput));
2719:../Libraries/STM32F30x_StdPeriph_Driver/src/stm32f30x_tim.c **** 
2720:../Libraries/STM32F30x_StdPeriph_Driver/src/stm32f30x_tim.c ****   /* Set the Lock level, the Break enable Bit and the Polarity, the OSSR State,
2721:../Libraries/STM32F30x_StdPeriph_Driver/src/stm32f30x_tim.c ****      the OSSI State, the dead time value and the Automatic Output Enable Bit */
2722:../Libraries/STM32F30x_StdPeriph_Driver/src/stm32f30x_tim.c ****   TIMx->BDTR = (uint32_t)TIM_BDTRInitStruct->TIM_OSSRState | TIM_BDTRInitStruct->TIM_OSSIState |
 4267              		.loc 1 2722 0
 4268 166a 009B     		ldr	r3, [sp, #0]
 4269 166c 1A88     		ldrh	r2, [r3, #0]
 4270 166e 009B     		ldr	r3, [sp, #0]
 4271 1670 5B88     		ldrh	r3, [r3, #2]
2723:../Libraries/STM32F30x_StdPeriph_Driver/src/stm32f30x_tim.c ****              TIM_BDTRInitStruct->TIM_LOCKLevel | TIM_BDTRInitStruct->TIM_DeadTime |
2724:../Libraries/STM32F30x_StdPeriph_Driver/src/stm32f30x_tim.c ****              TIM_BDTRInitStruct->TIM_Break | TIM_BDTRInitStruct->TIM_BreakPolarity |
 4272              		.loc 1 2724 0
 4273 1672 1343     		orrs	r3, r3, r2
 4274 1674 9AB2     		uxth	r2, r3
2723:../Libraries/STM32F30x_StdPeriph_Driver/src/stm32f30x_tim.c ****              TIM_BDTRInitStruct->TIM_LOCKLevel | TIM_BDTRInitStruct->TIM_DeadTime |
 4275              		.loc 1 2723 0
 4276 1676 009B     		ldr	r3, [sp, #0]
 4277 1678 9B88     		ldrh	r3, [r3, #4]
 4278              		.loc 1 2724 0
 4279 167a 1343     		orrs	r3, r3, r2
 4280 167c 9AB2     		uxth	r2, r3
2723:../Libraries/STM32F30x_StdPeriph_Driver/src/stm32f30x_tim.c ****              TIM_BDTRInitStruct->TIM_LOCKLevel | TIM_BDTRInitStruct->TIM_DeadTime |
 4281              		.loc 1 2723 0
 4282 167e 009B     		ldr	r3, [sp, #0]
 4283 1680 DB88     		ldrh	r3, [r3, #6]
 4284              		.loc 1 2724 0
 4285 1682 1343     		orrs	r3, r3, r2
 4286 1684 9AB2     		uxth	r2, r3
 4287 1686 009B     		ldr	r3, [sp, #0]
 4288 1688 1B89     		ldrh	r3, [r3, #8]
 4289 168a 1343     		orrs	r3, r3, r2
 4290 168c 9AB2     		uxth	r2, r3
 4291 168e 009B     		ldr	r3, [sp, #0]
 4292 1690 5B89     		ldrh	r3, [r3, #10]
 4293 1692 1343     		orrs	r3, r3, r2
 4294 1694 9AB2     		uxth	r2, r3
2725:../Libraries/STM32F30x_StdPeriph_Driver/src/stm32f30x_tim.c ****              TIM_BDTRInitStruct->TIM_AutomaticOutput;
 4295              		.loc 1 2725 0
 4296 1696 009B     		ldr	r3, [sp, #0]
 4297 1698 9B89     		ldrh	r3, [r3, #12]
2724:../Libraries/STM32F30x_StdPeriph_Driver/src/stm32f30x_tim.c ****              TIM_BDTRInitStruct->TIM_Break | TIM_BDTRInitStruct->TIM_BreakPolarity |
 4298              		.loc 1 2724 0
 4299 169a 1343     		orrs	r3, r3, r2
 4300 169c 9BB2     		uxth	r3, r3
 4301 169e 1A46     		mov	r2, r3
2722:../Libraries/STM32F30x_StdPeriph_Driver/src/stm32f30x_tim.c ****   TIMx->BDTR = (uint32_t)TIM_BDTRInitStruct->TIM_OSSRState | TIM_BDTRInitStruct->TIM_OSSIState |
 4302              		.loc 1 2722 0
 4303 16a0 019B     		ldr	r3, [sp, #4]
 4304 16a2 5A64     		str	r2, [r3, #68]
2726:../Libraries/STM32F30x_StdPeriph_Driver/src/stm32f30x_tim.c **** }
 4305              		.loc 1 2726 0
 4306 16a4 02B0     		add	sp, sp, #8
 4307 16a6 7047     		bx	lr
 4308              		.cfi_endproc
 4309              	.LFE189:
 4311              		.align	2
 4312              		.global	TIM_Break1Config
 4313              		.thumb
 4314              		.thumb_func
 4316              	TIM_Break1Config:
 4317              	.LFB190:
2727:../Libraries/STM32F30x_StdPeriph_Driver/src/stm32f30x_tim.c **** 
2728:../Libraries/STM32F30x_StdPeriph_Driver/src/stm32f30x_tim.c **** /**
2729:../Libraries/STM32F30x_StdPeriph_Driver/src/stm32f30x_tim.c ****   * @brief  Configures the Break1 feature.
2730:../Libraries/STM32F30x_StdPeriph_Driver/src/stm32f30x_tim.c ****   * @param  TIMx: where x can be  1 or 8 to select the TIM 
2731:../Libraries/STM32F30x_StdPeriph_Driver/src/stm32f30x_tim.c ****   * @param  TIM_Break1Polarity: specifies the Break1 polarity.
2732:../Libraries/STM32F30x_StdPeriph_Driver/src/stm32f30x_tim.c ****   *          This parameter can be one of the following values:
2733:../Libraries/STM32F30x_StdPeriph_Driver/src/stm32f30x_tim.c ****   *            @arg TIM_Break1Polarity_Low: Break1 input is active low
2734:../Libraries/STM32F30x_StdPeriph_Driver/src/stm32f30x_tim.c ****   *            @arg TIM_Break1Polarity_High: Break1 input is active high
2735:../Libraries/STM32F30x_StdPeriph_Driver/src/stm32f30x_tim.c ****   * @param  TIM_Break1Filter: specifies the Break1 filter value.
2736:../Libraries/STM32F30x_StdPeriph_Driver/src/stm32f30x_tim.c ****   *          This parameter must be a value between 0x00 and 0x0F
2737:../Libraries/STM32F30x_StdPeriph_Driver/src/stm32f30x_tim.c ****   * @retval None
2738:../Libraries/STM32F30x_StdPeriph_Driver/src/stm32f30x_tim.c ****   */
2739:../Libraries/STM32F30x_StdPeriph_Driver/src/stm32f30x_tim.c **** void TIM_Break1Config(TIM_TypeDef* TIMx, uint32_t TIM_Break1Polarity, uint8_t TIM_Break1Filter)
2740:../Libraries/STM32F30x_StdPeriph_Driver/src/stm32f30x_tim.c **** {   /* Check the parameters */
 4318              		.loc 1 2740 0
 4319              		.cfi_startproc
 4320              		@ args = 0, pretend = 0, frame = 16
 4321              		@ frame_needed = 0, uses_anonymous_args = 0
 4322              		@ link register save eliminated.
 4323 16a8 84B0     		sub	sp, sp, #16
 4324              	.LCFI82:
 4325              		.cfi_def_cfa_offset 16
 4326 16aa 0390     		str	r0, [sp, #12]
 4327 16ac 0291     		str	r1, [sp, #8]
 4328 16ae 1346     		mov	r3, r2
 4329 16b0 8DF80730 		strb	r3, [sp, #7]
2741:../Libraries/STM32F30x_StdPeriph_Driver/src/stm32f30x_tim.c ****   assert_param(IS_TIM_LIST4_PERIPH(TIMx));
2742:../Libraries/STM32F30x_StdPeriph_Driver/src/stm32f30x_tim.c ****   assert_param(IS_TIM_BREAK1_FILTER(TIM_Break1Filter));
2743:../Libraries/STM32F30x_StdPeriph_Driver/src/stm32f30x_tim.c **** 
2744:../Libraries/STM32F30x_StdPeriph_Driver/src/stm32f30x_tim.c ****   /* Reset the BKP and BKF Bits */
2745:../Libraries/STM32F30x_StdPeriph_Driver/src/stm32f30x_tim.c ****   TIMx->BDTR &= (uint32_t)~ (TIM_BDTR_BKP | TIM_BDTR_BKF);
 4330              		.loc 1 2745 0
 4331 16b4 039B     		ldr	r3, [sp, #12]
 4332 16b6 5B6C     		ldr	r3, [r3, #68]
 4333 16b8 23F47222 		bic	r2, r3, #991232
 4334 16bc 039B     		ldr	r3, [sp, #12]
 4335 16be 5A64     		str	r2, [r3, #68]
2746:../Libraries/STM32F30x_StdPeriph_Driver/src/stm32f30x_tim.c ****   /* Configure the Break1 polarity and filter */
2747:../Libraries/STM32F30x_StdPeriph_Driver/src/stm32f30x_tim.c ****   TIMx->BDTR |=	TIM_Break1Polarity |((uint32_t)TIM_Break1Filter << 16);
 4336              		.loc 1 2747 0
 4337 16c0 039B     		ldr	r3, [sp, #12]
 4338 16c2 5A6C     		ldr	r2, [r3, #68]
 4339 16c4 9DF80730 		ldrb	r3, [sp, #7]	@ zero_extendqisi2
 4340 16c8 4FEA0341 		lsl	r1, r3, #16
 4341 16cc 029B     		ldr	r3, [sp, #8]
 4342 16ce 0B43     		orrs	r3, r3, r1
 4343 16d0 1A43     		orrs	r2, r2, r3
 4344 16d2 039B     		ldr	r3, [sp, #12]
 4345 16d4 5A64     		str	r2, [r3, #68]
2748:../Libraries/STM32F30x_StdPeriph_Driver/src/stm32f30x_tim.c **** }
 4346              		.loc 1 2748 0
 4347 16d6 04B0     		add	sp, sp, #16
 4348 16d8 7047     		bx	lr
 4349              		.cfi_endproc
 4350              	.LFE190:
 4352 16da 00BF     		.align	2
 4353              		.global	TIM_Break2Config
 4354              		.thumb
 4355              		.thumb_func
 4357              	TIM_Break2Config:
 4358              	.LFB191:
2749:../Libraries/STM32F30x_StdPeriph_Driver/src/stm32f30x_tim.c **** 
2750:../Libraries/STM32F30x_StdPeriph_Driver/src/stm32f30x_tim.c **** /**
2751:../Libraries/STM32F30x_StdPeriph_Driver/src/stm32f30x_tim.c ****   * @brief  Configures the Break2 feature.
2752:../Libraries/STM32F30x_StdPeriph_Driver/src/stm32f30x_tim.c ****   * @param  TIMx: where x can be  1 or 8 to select the TIM 
2753:../Libraries/STM32F30x_StdPeriph_Driver/src/stm32f30x_tim.c ****   * @param  TIM_Break2Polarity: specifies the Break2 polarity.
2754:../Libraries/STM32F30x_StdPeriph_Driver/src/stm32f30x_tim.c ****   *          This parameter can be one of the following values:
2755:../Libraries/STM32F30x_StdPeriph_Driver/src/stm32f30x_tim.c ****   *            @arg TIM_Break2Polarity_Low: Break2 input is active low
2756:../Libraries/STM32F30x_StdPeriph_Driver/src/stm32f30x_tim.c ****   *            @arg TIM_Break2Polarity_High: Break2 input is active high
2757:../Libraries/STM32F30x_StdPeriph_Driver/src/stm32f30x_tim.c ****   * @param  TIM_Break2Filter: specifies the Break2 filter value.
2758:../Libraries/STM32F30x_StdPeriph_Driver/src/stm32f30x_tim.c ****   *          This parameter must be a value between 0x00 and 0x0F
2759:../Libraries/STM32F30x_StdPeriph_Driver/src/stm32f30x_tim.c ****   * @retval None
2760:../Libraries/STM32F30x_StdPeriph_Driver/src/stm32f30x_tim.c ****   */
2761:../Libraries/STM32F30x_StdPeriph_Driver/src/stm32f30x_tim.c **** void TIM_Break2Config(TIM_TypeDef* TIMx, uint32_t TIM_Break2Polarity, uint8_t TIM_Break2Filter)
2762:../Libraries/STM32F30x_StdPeriph_Driver/src/stm32f30x_tim.c **** {
 4359              		.loc 1 2762 0
 4360              		.cfi_startproc
 4361              		@ args = 0, pretend = 0, frame = 16
 4362              		@ frame_needed = 0, uses_anonymous_args = 0
 4363              		@ link register save eliminated.
 4364 16dc 84B0     		sub	sp, sp, #16
 4365              	.LCFI83:
 4366              		.cfi_def_cfa_offset 16
 4367 16de 0390     		str	r0, [sp, #12]
 4368 16e0 0291     		str	r1, [sp, #8]
 4369 16e2 1346     		mov	r3, r2
 4370 16e4 8DF80730 		strb	r3, [sp, #7]
2763:../Libraries/STM32F30x_StdPeriph_Driver/src/stm32f30x_tim.c ****   /* Check the parameters */
2764:../Libraries/STM32F30x_StdPeriph_Driver/src/stm32f30x_tim.c ****   assert_param(IS_TIM_LIST4_PERIPH(TIMx));
2765:../Libraries/STM32F30x_StdPeriph_Driver/src/stm32f30x_tim.c ****   assert_param(IS_TIM_BREAK2_FILTER(TIM_Break2Filter));
2766:../Libraries/STM32F30x_StdPeriph_Driver/src/stm32f30x_tim.c **** 
2767:../Libraries/STM32F30x_StdPeriph_Driver/src/stm32f30x_tim.c ****   /* Reset the BKP and BKF Bits */
2768:../Libraries/STM32F30x_StdPeriph_Driver/src/stm32f30x_tim.c ****   TIMx->BDTR &= (uint32_t)~ (TIM_BDTR_BK2P | TIM_BDTR_BK2F);
 4371              		.loc 1 2768 0
 4372 16e8 039B     		ldr	r3, [sp, #12]
 4373 16ea 5B6C     		ldr	r3, [r3, #68]
 4374 16ec 23F03C72 		bic	r2, r3, #49283072
 4375 16f0 039B     		ldr	r3, [sp, #12]
 4376 16f2 5A64     		str	r2, [r3, #68]
2769:../Libraries/STM32F30x_StdPeriph_Driver/src/stm32f30x_tim.c **** 
2770:../Libraries/STM32F30x_StdPeriph_Driver/src/stm32f30x_tim.c ****   /* Configure the Break1 polarity and filter */
2771:../Libraries/STM32F30x_StdPeriph_Driver/src/stm32f30x_tim.c ****   TIMx->BDTR |=	TIM_Break2Polarity |((uint32_t)TIM_Break2Filter << 20);
 4377              		.loc 1 2771 0
 4378 16f4 039B     		ldr	r3, [sp, #12]
 4379 16f6 5A6C     		ldr	r2, [r3, #68]
 4380 16f8 9DF80730 		ldrb	r3, [sp, #7]	@ zero_extendqisi2
 4381 16fc 4FEA0351 		lsl	r1, r3, #20
 4382 1700 029B     		ldr	r3, [sp, #8]
 4383 1702 0B43     		orrs	r3, r3, r1
 4384 1704 1A43     		orrs	r2, r2, r3
 4385 1706 039B     		ldr	r3, [sp, #12]
 4386 1708 5A64     		str	r2, [r3, #68]
2772:../Libraries/STM32F30x_StdPeriph_Driver/src/stm32f30x_tim.c **** }
 4387              		.loc 1 2772 0
 4388 170a 04B0     		add	sp, sp, #16
 4389 170c 7047     		bx	lr
 4390              		.cfi_endproc
 4391              	.LFE191:
 4393 170e 00BF     		.align	2
 4394              		.global	TIM_Break1Cmd
 4395              		.thumb
 4396              		.thumb_func
 4398              	TIM_Break1Cmd:
 4399              	.LFB192:
2773:../Libraries/STM32F30x_StdPeriph_Driver/src/stm32f30x_tim.c **** 
2774:../Libraries/STM32F30x_StdPeriph_Driver/src/stm32f30x_tim.c **** /**
2775:../Libraries/STM32F30x_StdPeriph_Driver/src/stm32f30x_tim.c ****   * @brief  Enables or disables the TIM Break1 input.
2776:../Libraries/STM32F30x_StdPeriph_Driver/src/stm32f30x_tim.c ****   * @param  TIMx: where x can be 1, 8, 1, 16 or 17 to select the TIMx peripheral.
2777:../Libraries/STM32F30x_StdPeriph_Driver/src/stm32f30x_tim.c ****   * @param  NewState: new state of the TIM Break1 input.
2778:../Libraries/STM32F30x_StdPeriph_Driver/src/stm32f30x_tim.c ****   *          This parameter can be: ENABLE or DISABLE.
2779:../Libraries/STM32F30x_StdPeriph_Driver/src/stm32f30x_tim.c ****   * @retval None
2780:../Libraries/STM32F30x_StdPeriph_Driver/src/stm32f30x_tim.c ****   */
2781:../Libraries/STM32F30x_StdPeriph_Driver/src/stm32f30x_tim.c **** void TIM_Break1Cmd(TIM_TypeDef* TIMx, FunctionalState NewState)
2782:../Libraries/STM32F30x_StdPeriph_Driver/src/stm32f30x_tim.c **** {
 4400              		.loc 1 2782 0
 4401              		.cfi_startproc
 4402              		@ args = 0, pretend = 0, frame = 8
 4403              		@ frame_needed = 0, uses_anonymous_args = 0
 4404              		@ link register save eliminated.
 4405 1710 82B0     		sub	sp, sp, #8
 4406              	.LCFI84:
 4407              		.cfi_def_cfa_offset 8
 4408 1712 0190     		str	r0, [sp, #4]
 4409 1714 0B46     		mov	r3, r1
 4410 1716 8DF80330 		strb	r3, [sp, #3]
2783:../Libraries/STM32F30x_StdPeriph_Driver/src/stm32f30x_tim.c ****   /* Check the parameters */
2784:../Libraries/STM32F30x_StdPeriph_Driver/src/stm32f30x_tim.c ****   assert_param(IS_TIM_LIST6_PERIPH(TIMx));
2785:../Libraries/STM32F30x_StdPeriph_Driver/src/stm32f30x_tim.c ****   assert_param(IS_FUNCTIONAL_STATE(NewState));
2786:../Libraries/STM32F30x_StdPeriph_Driver/src/stm32f30x_tim.c **** 
2787:../Libraries/STM32F30x_StdPeriph_Driver/src/stm32f30x_tim.c ****   if (NewState != DISABLE)
 4411              		.loc 1 2787 0
 4412 171a 9DF80330 		ldrb	r3, [sp, #3]	@ zero_extendqisi2
 4413 171e 002B     		cmp	r3, #0
 4414 1720 06D0     		beq	.L139
2788:../Libraries/STM32F30x_StdPeriph_Driver/src/stm32f30x_tim.c ****   {
2789:../Libraries/STM32F30x_StdPeriph_Driver/src/stm32f30x_tim.c ****     /* Enable the Break1 */
2790:../Libraries/STM32F30x_StdPeriph_Driver/src/stm32f30x_tim.c ****     TIMx->BDTR |= TIM_BDTR_BKE;
 4415              		.loc 1 2790 0
 4416 1722 019B     		ldr	r3, [sp, #4]
 4417 1724 5B6C     		ldr	r3, [r3, #68]
 4418 1726 43F48052 		orr	r2, r3, #4096
 4419 172a 019B     		ldr	r3, [sp, #4]
 4420 172c 5A64     		str	r2, [r3, #68]
 4421 172e 05E0     		b	.L138
 4422              	.L139:
2791:../Libraries/STM32F30x_StdPeriph_Driver/src/stm32f30x_tim.c ****   }
2792:../Libraries/STM32F30x_StdPeriph_Driver/src/stm32f30x_tim.c ****   else
2793:../Libraries/STM32F30x_StdPeriph_Driver/src/stm32f30x_tim.c ****   {
2794:../Libraries/STM32F30x_StdPeriph_Driver/src/stm32f30x_tim.c ****     /* Disable the Break1 */
2795:../Libraries/STM32F30x_StdPeriph_Driver/src/stm32f30x_tim.c ****     TIMx->BDTR &= (uint32_t)~TIM_BDTR_BKE;
 4423              		.loc 1 2795 0
 4424 1730 019B     		ldr	r3, [sp, #4]
 4425 1732 5B6C     		ldr	r3, [r3, #68]
 4426 1734 23F48052 		bic	r2, r3, #4096
 4427 1738 019B     		ldr	r3, [sp, #4]
 4428 173a 5A64     		str	r2, [r3, #68]
 4429              	.L138:
2796:../Libraries/STM32F30x_StdPeriph_Driver/src/stm32f30x_tim.c ****   } 
2797:../Libraries/STM32F30x_StdPeriph_Driver/src/stm32f30x_tim.c **** }
 4430              		.loc 1 2797 0
 4431 173c 02B0     		add	sp, sp, #8
 4432 173e 7047     		bx	lr
 4433              		.cfi_endproc
 4434              	.LFE192:
 4436              		.align	2
 4437              		.global	TIM_Break2Cmd
 4438              		.thumb
 4439              		.thumb_func
 4441              	TIM_Break2Cmd:
 4442              	.LFB193:
2798:../Libraries/STM32F30x_StdPeriph_Driver/src/stm32f30x_tim.c **** 
2799:../Libraries/STM32F30x_StdPeriph_Driver/src/stm32f30x_tim.c **** /**
2800:../Libraries/STM32F30x_StdPeriph_Driver/src/stm32f30x_tim.c ****   * @brief  Enables or disables the TIM Break2 input.
2801:../Libraries/STM32F30x_StdPeriph_Driver/src/stm32f30x_tim.c ****   * @param  TIMx: where x can be 1 or 8 to select the TIMx peripheral.
2802:../Libraries/STM32F30x_StdPeriph_Driver/src/stm32f30x_tim.c ****   * @param  NewState: new state of the TIM Break2 input.
2803:../Libraries/STM32F30x_StdPeriph_Driver/src/stm32f30x_tim.c ****   *          This parameter can be: ENABLE or DISABLE.
2804:../Libraries/STM32F30x_StdPeriph_Driver/src/stm32f30x_tim.c ****   * @retval None
2805:../Libraries/STM32F30x_StdPeriph_Driver/src/stm32f30x_tim.c ****   */
2806:../Libraries/STM32F30x_StdPeriph_Driver/src/stm32f30x_tim.c **** void TIM_Break2Cmd(TIM_TypeDef* TIMx, FunctionalState NewState)
2807:../Libraries/STM32F30x_StdPeriph_Driver/src/stm32f30x_tim.c **** {
 4443              		.loc 1 2807 0
 4444              		.cfi_startproc
 4445              		@ args = 0, pretend = 0, frame = 8
 4446              		@ frame_needed = 0, uses_anonymous_args = 0
 4447              		@ link register save eliminated.
 4448 1740 82B0     		sub	sp, sp, #8
 4449              	.LCFI85:
 4450              		.cfi_def_cfa_offset 8
 4451 1742 0190     		str	r0, [sp, #4]
 4452 1744 0B46     		mov	r3, r1
 4453 1746 8DF80330 		strb	r3, [sp, #3]
2808:../Libraries/STM32F30x_StdPeriph_Driver/src/stm32f30x_tim.c ****   /* Check the parameters */
2809:../Libraries/STM32F30x_StdPeriph_Driver/src/stm32f30x_tim.c ****   assert_param(IS_TIM_LIST4_PERIPH(TIMx));
2810:../Libraries/STM32F30x_StdPeriph_Driver/src/stm32f30x_tim.c ****   assert_param(IS_FUNCTIONAL_STATE(NewState));
2811:../Libraries/STM32F30x_StdPeriph_Driver/src/stm32f30x_tim.c **** 
2812:../Libraries/STM32F30x_StdPeriph_Driver/src/stm32f30x_tim.c ****   if (NewState != DISABLE)
 4454              		.loc 1 2812 0
 4455 174a 9DF80330 		ldrb	r3, [sp, #3]	@ zero_extendqisi2
 4456 174e 002B     		cmp	r3, #0
 4457 1750 06D0     		beq	.L142
2813:../Libraries/STM32F30x_StdPeriph_Driver/src/stm32f30x_tim.c ****   {
2814:../Libraries/STM32F30x_StdPeriph_Driver/src/stm32f30x_tim.c ****     /* Enable the Break1 */
2815:../Libraries/STM32F30x_StdPeriph_Driver/src/stm32f30x_tim.c ****     TIMx->BDTR |= TIM_BDTR_BK2E;
 4458              		.loc 1 2815 0
 4459 1752 019B     		ldr	r3, [sp, #4]
 4460 1754 5B6C     		ldr	r3, [r3, #68]
 4461 1756 43F08072 		orr	r2, r3, #16777216
 4462 175a 019B     		ldr	r3, [sp, #4]
 4463 175c 5A64     		str	r2, [r3, #68]
 4464 175e 05E0     		b	.L141
 4465              	.L142:
2816:../Libraries/STM32F30x_StdPeriph_Driver/src/stm32f30x_tim.c ****   }
2817:../Libraries/STM32F30x_StdPeriph_Driver/src/stm32f30x_tim.c ****   else
2818:../Libraries/STM32F30x_StdPeriph_Driver/src/stm32f30x_tim.c ****   {
2819:../Libraries/STM32F30x_StdPeriph_Driver/src/stm32f30x_tim.c ****     /* Disable the Break1 */
2820:../Libraries/STM32F30x_StdPeriph_Driver/src/stm32f30x_tim.c ****     TIMx->BDTR &= (uint32_t)~TIM_BDTR_BK2E;
 4466              		.loc 1 2820 0
 4467 1760 019B     		ldr	r3, [sp, #4]
 4468 1762 5B6C     		ldr	r3, [r3, #68]
 4469 1764 23F08072 		bic	r2, r3, #16777216
 4470 1768 019B     		ldr	r3, [sp, #4]
 4471 176a 5A64     		str	r2, [r3, #68]
 4472              	.L141:
2821:../Libraries/STM32F30x_StdPeriph_Driver/src/stm32f30x_tim.c ****   }
2822:../Libraries/STM32F30x_StdPeriph_Driver/src/stm32f30x_tim.c **** }
 4473              		.loc 1 2822 0
 4474 176c 02B0     		add	sp, sp, #8
 4475 176e 7047     		bx	lr
 4476              		.cfi_endproc
 4477              	.LFE193:
 4479              		.align	2
 4480              		.global	TIM_BDTRStructInit
 4481              		.thumb
 4482              		.thumb_func
 4484              	TIM_BDTRStructInit:
 4485              	.LFB194:
2823:../Libraries/STM32F30x_StdPeriph_Driver/src/stm32f30x_tim.c **** 
2824:../Libraries/STM32F30x_StdPeriph_Driver/src/stm32f30x_tim.c **** /**
2825:../Libraries/STM32F30x_StdPeriph_Driver/src/stm32f30x_tim.c ****   * @brief  Fills each TIM_BDTRInitStruct member with its default value.
2826:../Libraries/STM32F30x_StdPeriph_Driver/src/stm32f30x_tim.c ****   * @param  TIM_BDTRInitStruct: pointer to a TIM_BDTRInitTypeDef structure which
2827:../Libraries/STM32F30x_StdPeriph_Driver/src/stm32f30x_tim.c ****   *         will be initialized.
2828:../Libraries/STM32F30x_StdPeriph_Driver/src/stm32f30x_tim.c ****   * @retval None
2829:../Libraries/STM32F30x_StdPeriph_Driver/src/stm32f30x_tim.c ****   */
2830:../Libraries/STM32F30x_StdPeriph_Driver/src/stm32f30x_tim.c **** void TIM_BDTRStructInit(TIM_BDTRInitTypeDef* TIM_BDTRInitStruct)
2831:../Libraries/STM32F30x_StdPeriph_Driver/src/stm32f30x_tim.c **** {
 4486              		.loc 1 2831 0
 4487              		.cfi_startproc
 4488              		@ args = 0, pretend = 0, frame = 8
 4489              		@ frame_needed = 0, uses_anonymous_args = 0
 4490              		@ link register save eliminated.
 4491 1770 82B0     		sub	sp, sp, #8
 4492              	.LCFI86:
 4493              		.cfi_def_cfa_offset 8
 4494 1772 0190     		str	r0, [sp, #4]
2832:../Libraries/STM32F30x_StdPeriph_Driver/src/stm32f30x_tim.c ****   /* Set the default configuration */
2833:../Libraries/STM32F30x_StdPeriph_Driver/src/stm32f30x_tim.c ****   TIM_BDTRInitStruct->TIM_OSSRState = TIM_OSSRState_Disable;
 4495              		.loc 1 2833 0
 4496 1774 019B     		ldr	r3, [sp, #4]
 4497 1776 4FF00002 		mov	r2, #0
 4498 177a 1A80     		strh	r2, [r3, #0]	@ movhi
2834:../Libraries/STM32F30x_StdPeriph_Driver/src/stm32f30x_tim.c ****   TIM_BDTRInitStruct->TIM_OSSIState = TIM_OSSIState_Disable;
 4499              		.loc 1 2834 0
 4500 177c 019B     		ldr	r3, [sp, #4]
 4501 177e 4FF00002 		mov	r2, #0
 4502 1782 5A80     		strh	r2, [r3, #2]	@ movhi
2835:../Libraries/STM32F30x_StdPeriph_Driver/src/stm32f30x_tim.c ****   TIM_BDTRInitStruct->TIM_LOCKLevel = TIM_LOCKLevel_OFF;
 4503              		.loc 1 2835 0
 4504 1784 019B     		ldr	r3, [sp, #4]
 4505 1786 4FF00002 		mov	r2, #0
 4506 178a 9A80     		strh	r2, [r3, #4]	@ movhi
2836:../Libraries/STM32F30x_StdPeriph_Driver/src/stm32f30x_tim.c ****   TIM_BDTRInitStruct->TIM_DeadTime = 0x00;
 4507              		.loc 1 2836 0
 4508 178c 019B     		ldr	r3, [sp, #4]
 4509 178e 4FF00002 		mov	r2, #0
 4510 1792 DA80     		strh	r2, [r3, #6]	@ movhi
2837:../Libraries/STM32F30x_StdPeriph_Driver/src/stm32f30x_tim.c ****   TIM_BDTRInitStruct->TIM_Break = TIM_Break_Disable;
 4511              		.loc 1 2837 0
 4512 1794 019B     		ldr	r3, [sp, #4]
 4513 1796 4FF00002 		mov	r2, #0
 4514 179a 1A81     		strh	r2, [r3, #8]	@ movhi
2838:../Libraries/STM32F30x_StdPeriph_Driver/src/stm32f30x_tim.c ****   TIM_BDTRInitStruct->TIM_BreakPolarity = TIM_BreakPolarity_Low;
 4515              		.loc 1 2838 0
 4516 179c 019B     		ldr	r3, [sp, #4]
 4517 179e 4FF00002 		mov	r2, #0
 4518 17a2 5A81     		strh	r2, [r3, #10]	@ movhi
2839:../Libraries/STM32F30x_StdPeriph_Driver/src/stm32f30x_tim.c ****   TIM_BDTRInitStruct->TIM_AutomaticOutput = TIM_AutomaticOutput_Disable;
 4519              		.loc 1 2839 0
 4520 17a4 019B     		ldr	r3, [sp, #4]
 4521 17a6 4FF00002 		mov	r2, #0
 4522 17aa 9A81     		strh	r2, [r3, #12]	@ movhi
2840:../Libraries/STM32F30x_StdPeriph_Driver/src/stm32f30x_tim.c **** }
 4523              		.loc 1 2840 0
 4524 17ac 02B0     		add	sp, sp, #8
 4525 17ae 7047     		bx	lr
 4526              		.cfi_endproc
 4527              	.LFE194:
 4529              		.align	2
 4530              		.global	TIM_CtrlPWMOutputs
 4531              		.thumb
 4532              		.thumb_func
 4534              	TIM_CtrlPWMOutputs:
 4535              	.LFB195:
2841:../Libraries/STM32F30x_StdPeriph_Driver/src/stm32f30x_tim.c **** 
2842:../Libraries/STM32F30x_StdPeriph_Driver/src/stm32f30x_tim.c **** /**
2843:../Libraries/STM32F30x_StdPeriph_Driver/src/stm32f30x_tim.c ****   * @brief  Enables or disables the TIM peripheral Main Outputs.
2844:../Libraries/STM32F30x_StdPeriph_Driver/src/stm32f30x_tim.c ****   * @param  TIMx: where x can be 1, 8, 15, 16 or 17 to select the TIMx peripheral.
2845:../Libraries/STM32F30x_StdPeriph_Driver/src/stm32f30x_tim.c ****   * @param  NewState: new state of the TIM peripheral Main Outputs.
2846:../Libraries/STM32F30x_StdPeriph_Driver/src/stm32f30x_tim.c ****   *          This parameter can be: ENABLE or DISABLE.
2847:../Libraries/STM32F30x_StdPeriph_Driver/src/stm32f30x_tim.c ****   * @retval None
2848:../Libraries/STM32F30x_StdPeriph_Driver/src/stm32f30x_tim.c ****   */
2849:../Libraries/STM32F30x_StdPeriph_Driver/src/stm32f30x_tim.c **** void TIM_CtrlPWMOutputs(TIM_TypeDef* TIMx, FunctionalState NewState)
2850:../Libraries/STM32F30x_StdPeriph_Driver/src/stm32f30x_tim.c **** {
 4536              		.loc 1 2850 0
 4537              		.cfi_startproc
 4538              		@ args = 0, pretend = 0, frame = 8
 4539              		@ frame_needed = 0, uses_anonymous_args = 0
 4540              		@ link register save eliminated.
 4541 17b0 82B0     		sub	sp, sp, #8
 4542              	.LCFI87:
 4543              		.cfi_def_cfa_offset 8
 4544 17b2 0190     		str	r0, [sp, #4]
 4545 17b4 0B46     		mov	r3, r1
 4546 17b6 8DF80330 		strb	r3, [sp, #3]
2851:../Libraries/STM32F30x_StdPeriph_Driver/src/stm32f30x_tim.c ****   /* Check the parameters */
2852:../Libraries/STM32F30x_StdPeriph_Driver/src/stm32f30x_tim.c ****   assert_param(IS_TIM_LIST6_PERIPH(TIMx));
2853:../Libraries/STM32F30x_StdPeriph_Driver/src/stm32f30x_tim.c ****   assert_param(IS_FUNCTIONAL_STATE(NewState));
2854:../Libraries/STM32F30x_StdPeriph_Driver/src/stm32f30x_tim.c **** 
2855:../Libraries/STM32F30x_StdPeriph_Driver/src/stm32f30x_tim.c ****   if (NewState != DISABLE)
 4547              		.loc 1 2855 0
 4548 17ba 9DF80330 		ldrb	r3, [sp, #3]	@ zero_extendqisi2
 4549 17be 002B     		cmp	r3, #0
 4550 17c0 06D0     		beq	.L146
2856:../Libraries/STM32F30x_StdPeriph_Driver/src/stm32f30x_tim.c ****   {
2857:../Libraries/STM32F30x_StdPeriph_Driver/src/stm32f30x_tim.c ****     /* Enable the TIM Main Output */
2858:../Libraries/STM32F30x_StdPeriph_Driver/src/stm32f30x_tim.c ****     TIMx->BDTR |= TIM_BDTR_MOE;
 4551              		.loc 1 2858 0
 4552 17c2 019B     		ldr	r3, [sp, #4]
 4553 17c4 5B6C     		ldr	r3, [r3, #68]
 4554 17c6 43F40042 		orr	r2, r3, #32768
 4555 17ca 019B     		ldr	r3, [sp, #4]
 4556 17cc 5A64     		str	r2, [r3, #68]
 4557 17ce 07E0     		b	.L145
 4558              	.L146:
2859:../Libraries/STM32F30x_StdPeriph_Driver/src/stm32f30x_tim.c ****   }
2860:../Libraries/STM32F30x_StdPeriph_Driver/src/stm32f30x_tim.c ****   else
2861:../Libraries/STM32F30x_StdPeriph_Driver/src/stm32f30x_tim.c ****   {
2862:../Libraries/STM32F30x_StdPeriph_Driver/src/stm32f30x_tim.c ****     /* Disable the TIM Main Output */
2863:../Libraries/STM32F30x_StdPeriph_Driver/src/stm32f30x_tim.c ****     TIMx->BDTR &= (uint16_t)~TIM_BDTR_MOE;
 4559              		.loc 1 2863 0
 4560 17d0 019B     		ldr	r3, [sp, #4]
 4561 17d2 5B6C     		ldr	r3, [r3, #68]
 4562 17d4 4FEA4343 		lsl	r3, r3, #17
 4563 17d8 4FEA5343 		lsr	r3, r3, #17
 4564 17dc 019A     		ldr	r2, [sp, #4]
 4565 17de 5364     		str	r3, [r2, #68]
 4566              	.L145:
2864:../Libraries/STM32F30x_StdPeriph_Driver/src/stm32f30x_tim.c ****   }  
2865:../Libraries/STM32F30x_StdPeriph_Driver/src/stm32f30x_tim.c **** }
 4567              		.loc 1 2865 0
 4568 17e0 02B0     		add	sp, sp, #8
 4569 17e2 7047     		bx	lr
 4570              		.cfi_endproc
 4571              	.LFE195:
 4573              		.align	2
 4574              		.global	TIM_SelectCOM
 4575              		.thumb
 4576              		.thumb_func
 4578              	TIM_SelectCOM:
 4579              	.LFB196:
2866:../Libraries/STM32F30x_StdPeriph_Driver/src/stm32f30x_tim.c **** 
2867:../Libraries/STM32F30x_StdPeriph_Driver/src/stm32f30x_tim.c **** /**
2868:../Libraries/STM32F30x_StdPeriph_Driver/src/stm32f30x_tim.c ****   * @brief  Selects the TIM peripheral Commutation event.
2869:../Libraries/STM32F30x_StdPeriph_Driver/src/stm32f30x_tim.c ****   * @param  TIMx: where x can be  1, 8, 15, 16 or 17 to select the TIMx peripheral
2870:../Libraries/STM32F30x_StdPeriph_Driver/src/stm32f30x_tim.c ****   * @param  NewState: new state of the Commutation event.
2871:../Libraries/STM32F30x_StdPeriph_Driver/src/stm32f30x_tim.c ****   *          This parameter can be: ENABLE or DISABLE.
2872:../Libraries/STM32F30x_StdPeriph_Driver/src/stm32f30x_tim.c ****   * @retval None
2873:../Libraries/STM32F30x_StdPeriph_Driver/src/stm32f30x_tim.c ****   */
2874:../Libraries/STM32F30x_StdPeriph_Driver/src/stm32f30x_tim.c **** void TIM_SelectCOM(TIM_TypeDef* TIMx, FunctionalState NewState)
2875:../Libraries/STM32F30x_StdPeriph_Driver/src/stm32f30x_tim.c **** {
 4580              		.loc 1 2875 0
 4581              		.cfi_startproc
 4582              		@ args = 0, pretend = 0, frame = 8
 4583              		@ frame_needed = 0, uses_anonymous_args = 0
 4584              		@ link register save eliminated.
 4585 17e4 82B0     		sub	sp, sp, #8
 4586              	.LCFI88:
 4587              		.cfi_def_cfa_offset 8
 4588 17e6 0190     		str	r0, [sp, #4]
 4589 17e8 0B46     		mov	r3, r1
 4590 17ea 8DF80330 		strb	r3, [sp, #3]
2876:../Libraries/STM32F30x_StdPeriph_Driver/src/stm32f30x_tim.c ****   /* Check the parameters */
2877:../Libraries/STM32F30x_StdPeriph_Driver/src/stm32f30x_tim.c ****   assert_param(IS_TIM_LIST6_PERIPH(TIMx));
2878:../Libraries/STM32F30x_StdPeriph_Driver/src/stm32f30x_tim.c ****   assert_param(IS_FUNCTIONAL_STATE(NewState));
2879:../Libraries/STM32F30x_StdPeriph_Driver/src/stm32f30x_tim.c **** 
2880:../Libraries/STM32F30x_StdPeriph_Driver/src/stm32f30x_tim.c ****   if (NewState != DISABLE)
 4591              		.loc 1 2880 0
 4592 17ee 9DF80330 		ldrb	r3, [sp, #3]	@ zero_extendqisi2
 4593 17f2 002B     		cmp	r3, #0
 4594 17f4 06D0     		beq	.L149
2881:../Libraries/STM32F30x_StdPeriph_Driver/src/stm32f30x_tim.c ****   {
2882:../Libraries/STM32F30x_StdPeriph_Driver/src/stm32f30x_tim.c ****     /* Set the COM Bit */
2883:../Libraries/STM32F30x_StdPeriph_Driver/src/stm32f30x_tim.c ****     TIMx->CR2 |= TIM_CR2_CCUS;
 4595              		.loc 1 2883 0
 4596 17f6 019B     		ldr	r3, [sp, #4]
 4597 17f8 5B68     		ldr	r3, [r3, #4]
 4598 17fa 43F00402 		orr	r2, r3, #4
 4599 17fe 019B     		ldr	r3, [sp, #4]
 4600 1800 5A60     		str	r2, [r3, #4]
 4601 1802 06E0     		b	.L148
 4602              	.L149:
2884:../Libraries/STM32F30x_StdPeriph_Driver/src/stm32f30x_tim.c ****   }
2885:../Libraries/STM32F30x_StdPeriph_Driver/src/stm32f30x_tim.c ****   else
2886:../Libraries/STM32F30x_StdPeriph_Driver/src/stm32f30x_tim.c ****   {
2887:../Libraries/STM32F30x_StdPeriph_Driver/src/stm32f30x_tim.c ****     /* Reset the COM Bit */
2888:../Libraries/STM32F30x_StdPeriph_Driver/src/stm32f30x_tim.c ****     TIMx->CR2 &= (uint16_t)~TIM_CR2_CCUS;
 4603              		.loc 1 2888 0
 4604 1804 019B     		ldr	r3, [sp, #4]
 4605 1806 5A68     		ldr	r2, [r3, #4]
 4606 1808 4FF6FB73 		movw	r3, #65531
 4607 180c 1340     		ands	r3, r3, r2
 4608 180e 019A     		ldr	r2, [sp, #4]
 4609 1810 5360     		str	r3, [r2, #4]
 4610              	.L148:
2889:../Libraries/STM32F30x_StdPeriph_Driver/src/stm32f30x_tim.c ****   }
2890:../Libraries/STM32F30x_StdPeriph_Driver/src/stm32f30x_tim.c **** }
 4611              		.loc 1 2890 0
 4612 1812 02B0     		add	sp, sp, #8
 4613 1814 7047     		bx	lr
 4614              		.cfi_endproc
 4615              	.LFE196:
 4617 1816 00BF     		.align	2
 4618              		.global	TIM_CCPreloadControl
 4619              		.thumb
 4620              		.thumb_func
 4622              	TIM_CCPreloadControl:
 4623              	.LFB197:
2891:../Libraries/STM32F30x_StdPeriph_Driver/src/stm32f30x_tim.c **** 
2892:../Libraries/STM32F30x_StdPeriph_Driver/src/stm32f30x_tim.c **** /**
2893:../Libraries/STM32F30x_StdPeriph_Driver/src/stm32f30x_tim.c ****   * @brief  Sets or Resets the TIM peripheral Capture Compare Preload Control bit.
2894:../Libraries/STM32F30x_StdPeriph_Driver/src/stm32f30x_tim.c ****   * @param  TIMx: where x can be  1 or 8 to select the TIMx peripheral
2895:../Libraries/STM32F30x_StdPeriph_Driver/src/stm32f30x_tim.c ****   * @param  NewState: new state of the Capture Compare Preload Control bit
2896:../Libraries/STM32F30x_StdPeriph_Driver/src/stm32f30x_tim.c ****   *          This parameter can be: ENABLE or DISABLE.
2897:../Libraries/STM32F30x_StdPeriph_Driver/src/stm32f30x_tim.c ****   * @retval None
2898:../Libraries/STM32F30x_StdPeriph_Driver/src/stm32f30x_tim.c ****   */
2899:../Libraries/STM32F30x_StdPeriph_Driver/src/stm32f30x_tim.c **** void TIM_CCPreloadControl(TIM_TypeDef* TIMx, FunctionalState NewState)
2900:../Libraries/STM32F30x_StdPeriph_Driver/src/stm32f30x_tim.c **** { 
 4624              		.loc 1 2900 0
 4625              		.cfi_startproc
 4626              		@ args = 0, pretend = 0, frame = 8
 4627              		@ frame_needed = 0, uses_anonymous_args = 0
 4628              		@ link register save eliminated.
 4629 1818 82B0     		sub	sp, sp, #8
 4630              	.LCFI89:
 4631              		.cfi_def_cfa_offset 8
 4632 181a 0190     		str	r0, [sp, #4]
 4633 181c 0B46     		mov	r3, r1
 4634 181e 8DF80330 		strb	r3, [sp, #3]
2901:../Libraries/STM32F30x_StdPeriph_Driver/src/stm32f30x_tim.c ****   /* Check the parameters */
2902:../Libraries/STM32F30x_StdPeriph_Driver/src/stm32f30x_tim.c ****   assert_param(IS_TIM_LIST6_PERIPH(TIMx));
2903:../Libraries/STM32F30x_StdPeriph_Driver/src/stm32f30x_tim.c ****   assert_param(IS_FUNCTIONAL_STATE(NewState));
2904:../Libraries/STM32F30x_StdPeriph_Driver/src/stm32f30x_tim.c ****   if (NewState != DISABLE)
 4635              		.loc 1 2904 0
 4636 1822 9DF80330 		ldrb	r3, [sp, #3]	@ zero_extendqisi2
 4637 1826 002B     		cmp	r3, #0
 4638 1828 06D0     		beq	.L152
2905:../Libraries/STM32F30x_StdPeriph_Driver/src/stm32f30x_tim.c ****   {
2906:../Libraries/STM32F30x_StdPeriph_Driver/src/stm32f30x_tim.c ****     /* Set the CCPC Bit */
2907:../Libraries/STM32F30x_StdPeriph_Driver/src/stm32f30x_tim.c ****     TIMx->CR2 |= TIM_CR2_CCPC;
 4639              		.loc 1 2907 0
 4640 182a 019B     		ldr	r3, [sp, #4]
 4641 182c 5B68     		ldr	r3, [r3, #4]
 4642 182e 43F00102 		orr	r2, r3, #1
 4643 1832 019B     		ldr	r3, [sp, #4]
 4644 1834 5A60     		str	r2, [r3, #4]
 4645 1836 06E0     		b	.L151
 4646              	.L152:
2908:../Libraries/STM32F30x_StdPeriph_Driver/src/stm32f30x_tim.c ****   }
2909:../Libraries/STM32F30x_StdPeriph_Driver/src/stm32f30x_tim.c ****   else
2910:../Libraries/STM32F30x_StdPeriph_Driver/src/stm32f30x_tim.c ****   {
2911:../Libraries/STM32F30x_StdPeriph_Driver/src/stm32f30x_tim.c ****     /* Reset the CCPC Bit */
2912:../Libraries/STM32F30x_StdPeriph_Driver/src/stm32f30x_tim.c ****     TIMx->CR2 &= (uint16_t)~TIM_CR2_CCPC;
 4647              		.loc 1 2912 0
 4648 1838 019B     		ldr	r3, [sp, #4]
 4649 183a 5A68     		ldr	r2, [r3, #4]
 4650 183c 4FF6FE73 		movw	r3, #65534
 4651 1840 1340     		ands	r3, r3, r2
 4652 1842 019A     		ldr	r2, [sp, #4]
 4653 1844 5360     		str	r3, [r2, #4]
 4654              	.L151:
2913:../Libraries/STM32F30x_StdPeriph_Driver/src/stm32f30x_tim.c ****   }
2914:../Libraries/STM32F30x_StdPeriph_Driver/src/stm32f30x_tim.c **** }
 4655              		.loc 1 2914 0
 4656 1846 02B0     		add	sp, sp, #8
 4657 1848 7047     		bx	lr
 4658              		.cfi_endproc
 4659              	.LFE197:
 4661 184a 00BF     		.align	2
 4662              		.global	TIM_ITConfig
 4663              		.thumb
 4664              		.thumb_func
 4666              	TIM_ITConfig:
 4667              	.LFB198:
2915:../Libraries/STM32F30x_StdPeriph_Driver/src/stm32f30x_tim.c **** /**
2916:../Libraries/STM32F30x_StdPeriph_Driver/src/stm32f30x_tim.c ****   * @}
2917:../Libraries/STM32F30x_StdPeriph_Driver/src/stm32f30x_tim.c ****   */
2918:../Libraries/STM32F30x_StdPeriph_Driver/src/stm32f30x_tim.c **** 
2919:../Libraries/STM32F30x_StdPeriph_Driver/src/stm32f30x_tim.c **** /** @defgroup TIM_Group5 Interrupts DMA and flags management functions
2920:../Libraries/STM32F30x_StdPeriph_Driver/src/stm32f30x_tim.c ****  *  @brief    Interrupts, DMA and flags management functions 
2921:../Libraries/STM32F30x_StdPeriph_Driver/src/stm32f30x_tim.c ****  *
2922:../Libraries/STM32F30x_StdPeriph_Driver/src/stm32f30x_tim.c **** @verbatim   
2923:../Libraries/STM32F30x_StdPeriph_Driver/src/stm32f30x_tim.c ****  ===============================================================================
2924:../Libraries/STM32F30x_StdPeriph_Driver/src/stm32f30x_tim.c ****          ##### Interrupts, DMA and flags management functions #####
2925:../Libraries/STM32F30x_StdPeriph_Driver/src/stm32f30x_tim.c ****  ===============================================================================  
2926:../Libraries/STM32F30x_StdPeriph_Driver/src/stm32f30x_tim.c **** 
2927:../Libraries/STM32F30x_StdPeriph_Driver/src/stm32f30x_tim.c **** @endverbatim
2928:../Libraries/STM32F30x_StdPeriph_Driver/src/stm32f30x_tim.c ****   * @{
2929:../Libraries/STM32F30x_StdPeriph_Driver/src/stm32f30x_tim.c ****   */
2930:../Libraries/STM32F30x_StdPeriph_Driver/src/stm32f30x_tim.c **** 
2931:../Libraries/STM32F30x_StdPeriph_Driver/src/stm32f30x_tim.c **** /**
2932:../Libraries/STM32F30x_StdPeriph_Driver/src/stm32f30x_tim.c ****   * @brief  Enables or disables the specified TIM interrupts.
2933:../Libraries/STM32F30x_StdPeriph_Driver/src/stm32f30x_tim.c ****   * @param  TIMx: where x can be 1, 2, 3, 4, 6, 7, 8, 15, 16 or 17 to select the TIMx peripheral.
2934:../Libraries/STM32F30x_StdPeriph_Driver/src/stm32f30x_tim.c ****   * @param  TIM_IT: specifies the TIM interrupts sources to be enabled or disabled.
2935:../Libraries/STM32F30x_StdPeriph_Driver/src/stm32f30x_tim.c ****   *          This parameter can be any combination of the following values:
2936:../Libraries/STM32F30x_StdPeriph_Driver/src/stm32f30x_tim.c ****   *            @arg TIM_IT_Update: TIM update Interrupt source
2937:../Libraries/STM32F30x_StdPeriph_Driver/src/stm32f30x_tim.c ****   *            @arg TIM_IT_CC1: TIM Capture Compare 1 Interrupt source
2938:../Libraries/STM32F30x_StdPeriph_Driver/src/stm32f30x_tim.c ****   *            @arg TIM_IT_CC2: TIM Capture Compare 2 Interrupt source
2939:../Libraries/STM32F30x_StdPeriph_Driver/src/stm32f30x_tim.c ****   *            @arg TIM_IT_CC3: TIM Capture Compare 3 Interrupt source
2940:../Libraries/STM32F30x_StdPeriph_Driver/src/stm32f30x_tim.c ****   *            @arg TIM_IT_CC4: TIM Capture Compare 4 Interrupt source
2941:../Libraries/STM32F30x_StdPeriph_Driver/src/stm32f30x_tim.c ****   *            @arg TIM_IT_COM: TIM Commutation Interrupt source
2942:../Libraries/STM32F30x_StdPeriph_Driver/src/stm32f30x_tim.c ****   *            @arg TIM_IT_Trigger: TIM Trigger Interrupt source
2943:../Libraries/STM32F30x_StdPeriph_Driver/src/stm32f30x_tim.c ****   *            @arg TIM_IT_Break: TIM Break Interrupt source
2944:../Libraries/STM32F30x_StdPeriph_Driver/src/stm32f30x_tim.c ****   *  
2945:../Libraries/STM32F30x_StdPeriph_Driver/src/stm32f30x_tim.c ****   * @note   For TIM6 and TIM7 only the parameter TIM_IT_Update can be used
2946:../Libraries/STM32F30x_StdPeriph_Driver/src/stm32f30x_tim.c ****   * @note   For TIM9 and TIM12 only one of the following parameters can be used: TIM_IT_Update,
2947:../Libraries/STM32F30x_StdPeriph_Driver/src/stm32f30x_tim.c ****   *          TIM_IT_CC1, TIM_IT_CC2 or TIM_IT_Trigger. 
2948:../Libraries/STM32F30x_StdPeriph_Driver/src/stm32f30x_tim.c ****   * @note   For TIM10, TIM11, TIM13 and TIM14 only one of the following parameters can
2949:../Libraries/STM32F30x_StdPeriph_Driver/src/stm32f30x_tim.c ****   *          be used: TIM_IT_Update or TIM_IT_CC1   
2950:../Libraries/STM32F30x_StdPeriph_Driver/src/stm32f30x_tim.c ****   * @note   TIM_IT_COM and TIM_IT_Break can be used only with TIM1 and TIM8 
2951:../Libraries/STM32F30x_StdPeriph_Driver/src/stm32f30x_tim.c ****   *        
2952:../Libraries/STM32F30x_StdPeriph_Driver/src/stm32f30x_tim.c ****   * @param  NewState: new state of the TIM interrupts.
2953:../Libraries/STM32F30x_StdPeriph_Driver/src/stm32f30x_tim.c ****   *          This parameter can be: ENABLE or DISABLE.
2954:../Libraries/STM32F30x_StdPeriph_Driver/src/stm32f30x_tim.c ****   * @retval None
2955:../Libraries/STM32F30x_StdPeriph_Driver/src/stm32f30x_tim.c ****   */
2956:../Libraries/STM32F30x_StdPeriph_Driver/src/stm32f30x_tim.c **** void TIM_ITConfig(TIM_TypeDef* TIMx, uint16_t TIM_IT, FunctionalState NewState)
2957:../Libraries/STM32F30x_StdPeriph_Driver/src/stm32f30x_tim.c **** {  
 4668              		.loc 1 2957 0
 4669              		.cfi_startproc
 4670              		@ args = 0, pretend = 0, frame = 8
 4671              		@ frame_needed = 0, uses_anonymous_args = 0
 4672              		@ link register save eliminated.
 4673 184c 82B0     		sub	sp, sp, #8
 4674              	.LCFI90:
 4675              		.cfi_def_cfa_offset 8
 4676 184e 0190     		str	r0, [sp, #4]
 4677 1850 1346     		mov	r3, r2
 4678 1852 0A46     		mov	r2, r1	@ movhi
 4679 1854 ADF80220 		strh	r2, [sp, #2]	@ movhi
 4680 1858 8DF80130 		strb	r3, [sp, #1]
2958:../Libraries/STM32F30x_StdPeriph_Driver/src/stm32f30x_tim.c ****   /* Check the parameters */
2959:../Libraries/STM32F30x_StdPeriph_Driver/src/stm32f30x_tim.c ****   assert_param(IS_TIM_ALL_PERIPH(TIMx));
2960:../Libraries/STM32F30x_StdPeriph_Driver/src/stm32f30x_tim.c ****   assert_param(IS_TIM_IT(TIM_IT));
2961:../Libraries/STM32F30x_StdPeriph_Driver/src/stm32f30x_tim.c ****   assert_param(IS_FUNCTIONAL_STATE(NewState));
2962:../Libraries/STM32F30x_StdPeriph_Driver/src/stm32f30x_tim.c ****   
2963:../Libraries/STM32F30x_StdPeriph_Driver/src/stm32f30x_tim.c ****   if (NewState != DISABLE)
 4681              		.loc 1 2963 0
 4682 185c 9DF80130 		ldrb	r3, [sp, #1]	@ zero_extendqisi2
 4683 1860 002B     		cmp	r3, #0
 4684 1862 07D0     		beq	.L155
2964:../Libraries/STM32F30x_StdPeriph_Driver/src/stm32f30x_tim.c ****   {
2965:../Libraries/STM32F30x_StdPeriph_Driver/src/stm32f30x_tim.c ****     /* Enable the Interrupt sources */
2966:../Libraries/STM32F30x_StdPeriph_Driver/src/stm32f30x_tim.c ****     TIMx->DIER |= TIM_IT;
 4685              		.loc 1 2966 0
 4686 1864 019B     		ldr	r3, [sp, #4]
 4687 1866 DA68     		ldr	r2, [r3, #12]
 4688 1868 BDF80230 		ldrh	r3, [sp, #2]
 4689 186c 1A43     		orrs	r2, r2, r3
 4690 186e 019B     		ldr	r3, [sp, #4]
 4691 1870 DA60     		str	r2, [r3, #12]
 4692 1872 09E0     		b	.L154
 4693              	.L155:
2967:../Libraries/STM32F30x_StdPeriph_Driver/src/stm32f30x_tim.c ****   }
2968:../Libraries/STM32F30x_StdPeriph_Driver/src/stm32f30x_tim.c ****   else
2969:../Libraries/STM32F30x_StdPeriph_Driver/src/stm32f30x_tim.c ****   {
2970:../Libraries/STM32F30x_StdPeriph_Driver/src/stm32f30x_tim.c ****     /* Disable the Interrupt sources */
2971:../Libraries/STM32F30x_StdPeriph_Driver/src/stm32f30x_tim.c ****     TIMx->DIER &= (uint16_t)~TIM_IT;
 4694              		.loc 1 2971 0
 4695 1874 019B     		ldr	r3, [sp, #4]
 4696 1876 DA68     		ldr	r2, [r3, #12]
 4697 1878 BDF80230 		ldrh	r3, [sp, #2]	@ movhi
 4698 187c 6FEA0303 		mvn	r3, r3
 4699 1880 9BB2     		uxth	r3, r3
 4700 1882 1A40     		ands	r2, r2, r3
 4701 1884 019B     		ldr	r3, [sp, #4]
 4702 1886 DA60     		str	r2, [r3, #12]
 4703              	.L154:
2972:../Libraries/STM32F30x_StdPeriph_Driver/src/stm32f30x_tim.c ****   }
2973:../Libraries/STM32F30x_StdPeriph_Driver/src/stm32f30x_tim.c **** }
 4704              		.loc 1 2973 0
 4705 1888 02B0     		add	sp, sp, #8
 4706 188a 7047     		bx	lr
 4707              		.cfi_endproc
 4708              	.LFE198:
 4710              		.align	2
 4711              		.global	TIM_GenerateEvent
 4712              		.thumb
 4713              		.thumb_func
 4715              	TIM_GenerateEvent:
 4716              	.LFB199:
2974:../Libraries/STM32F30x_StdPeriph_Driver/src/stm32f30x_tim.c **** 
2975:../Libraries/STM32F30x_StdPeriph_Driver/src/stm32f30x_tim.c **** /**
2976:../Libraries/STM32F30x_StdPeriph_Driver/src/stm32f30x_tim.c ****   * @brief  Configures the TIMx event to be generate by software.
2977:../Libraries/STM32F30x_StdPeriph_Driver/src/stm32f30x_tim.c ****   * @param  TIMx: where x can be 1, 2, 3, 4, 6, 7, 8, 15, 16 or 17 to select the TIM peripheral.
2978:../Libraries/STM32F30x_StdPeriph_Driver/src/stm32f30x_tim.c ****   * @param  TIM_EventSource: specifies the event source.
2979:../Libraries/STM32F30x_StdPeriph_Driver/src/stm32f30x_tim.c ****   *          This parameter can be one or more of the following values:	   
2980:../Libraries/STM32F30x_StdPeriph_Driver/src/stm32f30x_tim.c ****   *            @arg TIM_EventSource_Update: Timer update Event source
2981:../Libraries/STM32F30x_StdPeriph_Driver/src/stm32f30x_tim.c ****   *            @arg TIM_EventSource_CC1: Timer Capture Compare 1 Event source
2982:../Libraries/STM32F30x_StdPeriph_Driver/src/stm32f30x_tim.c ****   *            @arg TIM_EventSource_CC2: Timer Capture Compare 2 Event source
2983:../Libraries/STM32F30x_StdPeriph_Driver/src/stm32f30x_tim.c ****   *            @arg TIM_EventSource_CC3: Timer Capture Compare 3 Event source
2984:../Libraries/STM32F30x_StdPeriph_Driver/src/stm32f30x_tim.c ****   *            @arg TIM_EventSource_CC4: Timer Capture Compare 4 Event source
2985:../Libraries/STM32F30x_StdPeriph_Driver/src/stm32f30x_tim.c ****   *            @arg TIM_EventSource_COM: Timer COM event source  
2986:../Libraries/STM32F30x_StdPeriph_Driver/src/stm32f30x_tim.c ****   *            @arg TIM_EventSource_Trigger: Timer Trigger Event source
2987:../Libraries/STM32F30x_StdPeriph_Driver/src/stm32f30x_tim.c ****   *            @arg TIM_EventSource_Break: Timer Break event source
2988:../Libraries/STM32F30x_StdPeriph_Driver/src/stm32f30x_tim.c ****   * 
2989:../Libraries/STM32F30x_StdPeriph_Driver/src/stm32f30x_tim.c ****   * @note   TIM6 and TIM7 can only generate an update event. 
2990:../Libraries/STM32F30x_StdPeriph_Driver/src/stm32f30x_tim.c ****   * @note   TIM_EventSource_COM and TIM_EventSource_Break are used only with TIM1 and TIM8.
2991:../Libraries/STM32F30x_StdPeriph_Driver/src/stm32f30x_tim.c ****   *        
2992:../Libraries/STM32F30x_StdPeriph_Driver/src/stm32f30x_tim.c ****   * @retval None
2993:../Libraries/STM32F30x_StdPeriph_Driver/src/stm32f30x_tim.c ****   */
2994:../Libraries/STM32F30x_StdPeriph_Driver/src/stm32f30x_tim.c **** void TIM_GenerateEvent(TIM_TypeDef* TIMx, uint16_t TIM_EventSource)
2995:../Libraries/STM32F30x_StdPeriph_Driver/src/stm32f30x_tim.c **** { 
 4717              		.loc 1 2995 0
 4718              		.cfi_startproc
 4719              		@ args = 0, pretend = 0, frame = 8
 4720              		@ frame_needed = 0, uses_anonymous_args = 0
 4721              		@ link register save eliminated.
 4722 188c 82B0     		sub	sp, sp, #8
 4723              	.LCFI91:
 4724              		.cfi_def_cfa_offset 8
 4725 188e 0190     		str	r0, [sp, #4]
 4726 1890 0B46     		mov	r3, r1
 4727 1892 ADF80230 		strh	r3, [sp, #2]	@ movhi
2996:../Libraries/STM32F30x_StdPeriph_Driver/src/stm32f30x_tim.c ****   /* Check the parameters */
2997:../Libraries/STM32F30x_StdPeriph_Driver/src/stm32f30x_tim.c ****   assert_param(IS_TIM_ALL_PERIPH(TIMx));
2998:../Libraries/STM32F30x_StdPeriph_Driver/src/stm32f30x_tim.c ****   assert_param(IS_TIM_EVENT_SOURCE(TIM_EventSource));
2999:../Libraries/STM32F30x_StdPeriph_Driver/src/stm32f30x_tim.c ****  
3000:../Libraries/STM32F30x_StdPeriph_Driver/src/stm32f30x_tim.c ****   /* Set the event sources */
3001:../Libraries/STM32F30x_StdPeriph_Driver/src/stm32f30x_tim.c ****   TIMx->EGR = TIM_EventSource;
 4728              		.loc 1 3001 0
 4729 1896 BDF80220 		ldrh	r2, [sp, #2]
 4730 189a 019B     		ldr	r3, [sp, #4]
 4731 189c 5A61     		str	r2, [r3, #20]
3002:../Libraries/STM32F30x_StdPeriph_Driver/src/stm32f30x_tim.c **** }
 4732              		.loc 1 3002 0
 4733 189e 02B0     		add	sp, sp, #8
 4734 18a0 7047     		bx	lr
 4735              		.cfi_endproc
 4736              	.LFE199:
 4738 18a2 00BF     		.align	2
 4739              		.global	TIM_GetFlagStatus
 4740              		.thumb
 4741              		.thumb_func
 4743              	TIM_GetFlagStatus:
 4744              	.LFB200:
3003:../Libraries/STM32F30x_StdPeriph_Driver/src/stm32f30x_tim.c **** 
3004:../Libraries/STM32F30x_StdPeriph_Driver/src/stm32f30x_tim.c **** /**
3005:../Libraries/STM32F30x_StdPeriph_Driver/src/stm32f30x_tim.c ****   * @brief  Checks whether the specified TIM flag is set or not.
3006:../Libraries/STM32F30x_StdPeriph_Driver/src/stm32f30x_tim.c ****   * @param  TIMx: where x can be 1, 2, 3, 4, 6, 7, 8, 15, 16 or 17 to select the TIM peripheral.
3007:../Libraries/STM32F30x_StdPeriph_Driver/src/stm32f30x_tim.c ****   * @param  TIM_FLAG: specifies the flag to check.
3008:../Libraries/STM32F30x_StdPeriph_Driver/src/stm32f30x_tim.c ****   *          This parameter can be one of the following values:
3009:../Libraries/STM32F30x_StdPeriph_Driver/src/stm32f30x_tim.c ****   *            @arg TIM_FLAG_Update: TIM update Flag
3010:../Libraries/STM32F30x_StdPeriph_Driver/src/stm32f30x_tim.c ****   *            @arg TIM_FLAG_CC1: TIM Capture Compare 1 Flag
3011:../Libraries/STM32F30x_StdPeriph_Driver/src/stm32f30x_tim.c ****   *            @arg TIM_FLAG_CC2: TIM Capture Compare 2 Flag
3012:../Libraries/STM32F30x_StdPeriph_Driver/src/stm32f30x_tim.c ****   *            @arg TIM_FLAG_CC3: TIM Capture Compare 3 Flag
3013:../Libraries/STM32F30x_StdPeriph_Driver/src/stm32f30x_tim.c ****   *            @arg TIM_FLAG_CC4: TIM Capture Compare 4 Flag
3014:../Libraries/STM32F30x_StdPeriph_Driver/src/stm32f30x_tim.c ****   *            @arg TIM_FLAG_CC5: TIM Capture Compare 5 Flag
3015:../Libraries/STM32F30x_StdPeriph_Driver/src/stm32f30x_tim.c ****   *            @arg TIM_FLAG_CC6: TIM Capture Compare 6 Flag  
3016:../Libraries/STM32F30x_StdPeriph_Driver/src/stm32f30x_tim.c ****   *            @arg TIM_FLAG_COM: TIM Commutation Flag
3017:../Libraries/STM32F30x_StdPeriph_Driver/src/stm32f30x_tim.c ****   *            @arg TIM_FLAG_Trigger: TIM Trigger Flag
3018:../Libraries/STM32F30x_StdPeriph_Driver/src/stm32f30x_tim.c ****   *            @arg TIM_FLAG_Break: TIM Break Flag
3019:../Libraries/STM32F30x_StdPeriph_Driver/src/stm32f30x_tim.c ****   *            @arg TIM_FLAG_CC1OF: TIM Capture Compare 1 over capture Flag
3020:../Libraries/STM32F30x_StdPeriph_Driver/src/stm32f30x_tim.c ****   *            @arg TIM_FLAG_CC2OF: TIM Capture Compare 2 over capture Flag
3021:../Libraries/STM32F30x_StdPeriph_Driver/src/stm32f30x_tim.c ****   *            @arg TIM_FLAG_CC3OF: TIM Capture Compare 3 over capture Flag
3022:../Libraries/STM32F30x_StdPeriph_Driver/src/stm32f30x_tim.c ****   *            @arg TIM_FLAG_CC4OF: TIM Capture Compare 4 over capture Flag
3023:../Libraries/STM32F30x_StdPeriph_Driver/src/stm32f30x_tim.c ****   *
3024:../Libraries/STM32F30x_StdPeriph_Driver/src/stm32f30x_tim.c ****   * @note   TIM6 and TIM7 can have only one update flag. 
3025:../Libraries/STM32F30x_StdPeriph_Driver/src/stm32f30x_tim.c ****   * @note   TIM_FLAG_COM and TIM_FLAG_Break are used only with TIM1 and TIM8.    
3026:../Libraries/STM32F30x_StdPeriph_Driver/src/stm32f30x_tim.c ****   *
3027:../Libraries/STM32F30x_StdPeriph_Driver/src/stm32f30x_tim.c ****   * @retval The new state of TIM_FLAG (SET or RESET).
3028:../Libraries/STM32F30x_StdPeriph_Driver/src/stm32f30x_tim.c ****   */
3029:../Libraries/STM32F30x_StdPeriph_Driver/src/stm32f30x_tim.c **** FlagStatus TIM_GetFlagStatus(TIM_TypeDef* TIMx, uint32_t TIM_FLAG)
3030:../Libraries/STM32F30x_StdPeriph_Driver/src/stm32f30x_tim.c **** { 
 4745              		.loc 1 3030 0
 4746              		.cfi_startproc
 4747              		@ args = 0, pretend = 0, frame = 16
 4748              		@ frame_needed = 0, uses_anonymous_args = 0
 4749              		@ link register save eliminated.
 4750 18a4 84B0     		sub	sp, sp, #16
 4751              	.LCFI92:
 4752              		.cfi_def_cfa_offset 16
 4753 18a6 0190     		str	r0, [sp, #4]
 4754 18a8 0091     		str	r1, [sp, #0]
3031:../Libraries/STM32F30x_StdPeriph_Driver/src/stm32f30x_tim.c ****   ITStatus bitstatus = RESET;  
 4755              		.loc 1 3031 0
 4756 18aa 4FF00003 		mov	r3, #0
 4757 18ae 8DF80F30 		strb	r3, [sp, #15]
3032:../Libraries/STM32F30x_StdPeriph_Driver/src/stm32f30x_tim.c ****   /* Check the parameters */
3033:../Libraries/STM32F30x_StdPeriph_Driver/src/stm32f30x_tim.c ****   assert_param(IS_TIM_ALL_PERIPH(TIMx));
3034:../Libraries/STM32F30x_StdPeriph_Driver/src/stm32f30x_tim.c ****   assert_param(IS_TIM_GET_FLAG(TIM_FLAG));
3035:../Libraries/STM32F30x_StdPeriph_Driver/src/stm32f30x_tim.c **** 
3036:../Libraries/STM32F30x_StdPeriph_Driver/src/stm32f30x_tim.c ****   
3037:../Libraries/STM32F30x_StdPeriph_Driver/src/stm32f30x_tim.c ****   if ((TIMx->SR & TIM_FLAG) != RESET)
 4758              		.loc 1 3037 0
 4759 18b2 019B     		ldr	r3, [sp, #4]
 4760 18b4 1A69     		ldr	r2, [r3, #16]
 4761 18b6 009B     		ldr	r3, [sp, #0]
 4762 18b8 1340     		ands	r3, r3, r2
 4763 18ba 002B     		cmp	r3, #0
 4764 18bc 04D0     		beq	.L159
3038:../Libraries/STM32F30x_StdPeriph_Driver/src/stm32f30x_tim.c ****   {
3039:../Libraries/STM32F30x_StdPeriph_Driver/src/stm32f30x_tim.c ****     bitstatus = SET;
 4765              		.loc 1 3039 0
 4766 18be 4FF00103 		mov	r3, #1
 4767 18c2 8DF80F30 		strb	r3, [sp, #15]
 4768 18c6 03E0     		b	.L160
 4769              	.L159:
3040:../Libraries/STM32F30x_StdPeriph_Driver/src/stm32f30x_tim.c ****   }
3041:../Libraries/STM32F30x_StdPeriph_Driver/src/stm32f30x_tim.c ****   else
3042:../Libraries/STM32F30x_StdPeriph_Driver/src/stm32f30x_tim.c ****   {
3043:../Libraries/STM32F30x_StdPeriph_Driver/src/stm32f30x_tim.c ****     bitstatus = RESET;
 4770              		.loc 1 3043 0
 4771 18c8 4FF00003 		mov	r3, #0
 4772 18cc 8DF80F30 		strb	r3, [sp, #15]
 4773              	.L160:
3044:../Libraries/STM32F30x_StdPeriph_Driver/src/stm32f30x_tim.c ****   }
3045:../Libraries/STM32F30x_StdPeriph_Driver/src/stm32f30x_tim.c ****   return bitstatus;
 4774              		.loc 1 3045 0
 4775 18d0 9DF80F30 		ldrb	r3, [sp, #15]	@ zero_extendqisi2
3046:../Libraries/STM32F30x_StdPeriph_Driver/src/stm32f30x_tim.c **** }
 4776              		.loc 1 3046 0
 4777 18d4 1846     		mov	r0, r3
 4778 18d6 04B0     		add	sp, sp, #16
 4779 18d8 7047     		bx	lr
 4780              		.cfi_endproc
 4781              	.LFE200:
 4783 18da 00BF     		.align	2
 4784              		.global	TIM_ClearFlag
 4785              		.thumb
 4786              		.thumb_func
 4788              	TIM_ClearFlag:
 4789              	.LFB201:
3047:../Libraries/STM32F30x_StdPeriph_Driver/src/stm32f30x_tim.c **** 
3048:../Libraries/STM32F30x_StdPeriph_Driver/src/stm32f30x_tim.c **** /**
3049:../Libraries/STM32F30x_StdPeriph_Driver/src/stm32f30x_tim.c ****   * @brief  Clears the TIMx's pending flags.
3050:../Libraries/STM32F30x_StdPeriph_Driver/src/stm32f30x_tim.c ****   * @param  TIMx: where x can be 1, 2, 3, 4, 6, 7, 8, 15, 16 or 17 to select the TIM peripheral.
3051:../Libraries/STM32F30x_StdPeriph_Driver/src/stm32f30x_tim.c ****   * @param  TIM_FLAG: specifies the flag bit to clear.
3052:../Libraries/STM32F30x_StdPeriph_Driver/src/stm32f30x_tim.c ****   *          This parameter can be any combination of the following values:
3053:../Libraries/STM32F30x_StdPeriph_Driver/src/stm32f30x_tim.c ****   *            @arg TIM_FLAG_Update: TIM update Flag
3054:../Libraries/STM32F30x_StdPeriph_Driver/src/stm32f30x_tim.c ****   *            @arg TIM_FLAG_CC1: TIM Capture Compare 1 Flag
3055:../Libraries/STM32F30x_StdPeriph_Driver/src/stm32f30x_tim.c ****   *            @arg TIM_FLAG_CC2: TIM Capture Compare 2 Flag
3056:../Libraries/STM32F30x_StdPeriph_Driver/src/stm32f30x_tim.c ****   *            @arg TIM_FLAG_CC3: TIM Capture Compare 3 Flag
3057:../Libraries/STM32F30x_StdPeriph_Driver/src/stm32f30x_tim.c ****   *            @arg TIM_FLAG_CC4: TIM Capture Compare 4 Flag
3058:../Libraries/STM32F30x_StdPeriph_Driver/src/stm32f30x_tim.c ****   *            @arg TIM_FLAG_CC5: TIM Capture Compare 5 Flag
3059:../Libraries/STM32F30x_StdPeriph_Driver/src/stm32f30x_tim.c ****   *            @arg TIM_FLAG_CC6: TIM Capture Compare 6 Flag               
3060:../Libraries/STM32F30x_StdPeriph_Driver/src/stm32f30x_tim.c ****   *            @arg TIM_FLAG_COM: TIM Commutation Flag
3061:../Libraries/STM32F30x_StdPeriph_Driver/src/stm32f30x_tim.c ****   *            @arg TIM_FLAG_Trigger: TIM Trigger Flag
3062:../Libraries/STM32F30x_StdPeriph_Driver/src/stm32f30x_tim.c ****   *            @arg TIM_FLAG_Break: TIM Break Flag
3063:../Libraries/STM32F30x_StdPeriph_Driver/src/stm32f30x_tim.c ****   *            @arg TIM_FLAG_CC1OF: TIM Capture Compare 1 over capture Flag
3064:../Libraries/STM32F30x_StdPeriph_Driver/src/stm32f30x_tim.c ****   *            @arg TIM_FLAG_CC2OF: TIM Capture Compare 2 over capture Flag
3065:../Libraries/STM32F30x_StdPeriph_Driver/src/stm32f30x_tim.c ****   *            @arg TIM_FLAG_CC3OF: TIM Capture Compare 3 over capture Flag
3066:../Libraries/STM32F30x_StdPeriph_Driver/src/stm32f30x_tim.c ****   *            @arg TIM_FLAG_CC4OF: TIM Capture Compare 4 over capture Flag
3067:../Libraries/STM32F30x_StdPeriph_Driver/src/stm32f30x_tim.c ****   *
3068:../Libraries/STM32F30x_StdPeriph_Driver/src/stm32f30x_tim.c ****   * @note   TIM6 and TIM7 can have only one update flag. 
3069:../Libraries/STM32F30x_StdPeriph_Driver/src/stm32f30x_tim.c ****   * @note   TIM_FLAG_COM and TIM_FLAG_Break are used only with TIM1 and TIM8.
3070:../Libraries/STM32F30x_StdPeriph_Driver/src/stm32f30x_tim.c ****   *    
3071:../Libraries/STM32F30x_StdPeriph_Driver/src/stm32f30x_tim.c ****   * @retval None
3072:../Libraries/STM32F30x_StdPeriph_Driver/src/stm32f30x_tim.c ****   */
3073:../Libraries/STM32F30x_StdPeriph_Driver/src/stm32f30x_tim.c **** void TIM_ClearFlag(TIM_TypeDef* TIMx, uint16_t TIM_FLAG)
3074:../Libraries/STM32F30x_StdPeriph_Driver/src/stm32f30x_tim.c **** {  
 4790              		.loc 1 3074 0
 4791              		.cfi_startproc
 4792              		@ args = 0, pretend = 0, frame = 8
 4793              		@ frame_needed = 0, uses_anonymous_args = 0
 4794              		@ link register save eliminated.
 4795 18dc 82B0     		sub	sp, sp, #8
 4796              	.LCFI93:
 4797              		.cfi_def_cfa_offset 8
 4798 18de 0190     		str	r0, [sp, #4]
 4799 18e0 0B46     		mov	r3, r1
 4800 18e2 ADF80230 		strh	r3, [sp, #2]	@ movhi
3075:../Libraries/STM32F30x_StdPeriph_Driver/src/stm32f30x_tim.c ****   /* Check the parameters */
3076:../Libraries/STM32F30x_StdPeriph_Driver/src/stm32f30x_tim.c ****   assert_param(IS_TIM_ALL_PERIPH(TIMx));
3077:../Libraries/STM32F30x_StdPeriph_Driver/src/stm32f30x_tim.c ****    
3078:../Libraries/STM32F30x_StdPeriph_Driver/src/stm32f30x_tim.c ****   /* Clear the flags */
3079:../Libraries/STM32F30x_StdPeriph_Driver/src/stm32f30x_tim.c ****   TIMx->SR = (uint16_t)~TIM_FLAG;
 4801              		.loc 1 3079 0
 4802 18e6 BDF80230 		ldrh	r3, [sp, #2]	@ movhi
 4803 18ea 6FEA0303 		mvn	r3, r3
 4804 18ee 9BB2     		uxth	r3, r3
 4805 18f0 1A46     		mov	r2, r3
 4806 18f2 019B     		ldr	r3, [sp, #4]
 4807 18f4 1A61     		str	r2, [r3, #16]
3080:../Libraries/STM32F30x_StdPeriph_Driver/src/stm32f30x_tim.c **** }
 4808              		.loc 1 3080 0
 4809 18f6 02B0     		add	sp, sp, #8
 4810 18f8 7047     		bx	lr
 4811              		.cfi_endproc
 4812              	.LFE201:
 4814 18fa 00BF     		.align	2
 4815              		.global	TIM_GetITStatus
 4816              		.thumb
 4817              		.thumb_func
 4819              	TIM_GetITStatus:
 4820              	.LFB202:
3081:../Libraries/STM32F30x_StdPeriph_Driver/src/stm32f30x_tim.c **** 
3082:../Libraries/STM32F30x_StdPeriph_Driver/src/stm32f30x_tim.c **** /**
3083:../Libraries/STM32F30x_StdPeriph_Driver/src/stm32f30x_tim.c ****   * @brief  Checks whether the TIM interrupt has occurred or not.
3084:../Libraries/STM32F30x_StdPeriph_Driver/src/stm32f30x_tim.c ****   * @param  TIMx: where x can be 1, 2, 3, 4, 6, 7, 8, 15, 16 or 17 to select the TIM peripheral.
3085:../Libraries/STM32F30x_StdPeriph_Driver/src/stm32f30x_tim.c ****   * @param  TIM_IT: specifies the TIM interrupt source to check.
3086:../Libraries/STM32F30x_StdPeriph_Driver/src/stm32f30x_tim.c ****   *          This parameter can be one of the following values:
3087:../Libraries/STM32F30x_StdPeriph_Driver/src/stm32f30x_tim.c ****   *            @arg TIM_IT_Update: TIM update Interrupt source
3088:../Libraries/STM32F30x_StdPeriph_Driver/src/stm32f30x_tim.c ****   *            @arg TIM_IT_CC1: TIM Capture Compare 1 Interrupt source
3089:../Libraries/STM32F30x_StdPeriph_Driver/src/stm32f30x_tim.c ****   *            @arg TIM_IT_CC2: TIM Capture Compare 2 Interrupt source
3090:../Libraries/STM32F30x_StdPeriph_Driver/src/stm32f30x_tim.c ****   *            @arg TIM_IT_CC3: TIM Capture Compare 3 Interrupt source
3091:../Libraries/STM32F30x_StdPeriph_Driver/src/stm32f30x_tim.c ****   *            @arg TIM_IT_CC4: TIM Capture Compare 4 Interrupt source
3092:../Libraries/STM32F30x_StdPeriph_Driver/src/stm32f30x_tim.c ****   *            @arg TIM_IT_COM: TIM Commutation Interrupt source
3093:../Libraries/STM32F30x_StdPeriph_Driver/src/stm32f30x_tim.c ****   *            @arg TIM_IT_Trigger: TIM Trigger Interrupt source
3094:../Libraries/STM32F30x_StdPeriph_Driver/src/stm32f30x_tim.c ****   *            @arg TIM_IT_Break: TIM Break Interrupt source
3095:../Libraries/STM32F30x_StdPeriph_Driver/src/stm32f30x_tim.c ****   *
3096:../Libraries/STM32F30x_StdPeriph_Driver/src/stm32f30x_tim.c ****   * @note   TIM6 and TIM7 can generate only an update interrupt.
3097:../Libraries/STM32F30x_StdPeriph_Driver/src/stm32f30x_tim.c ****   * @note   TIM_IT_COM and TIM_IT_Break are used only with TIM1 and TIM8.
3098:../Libraries/STM32F30x_StdPeriph_Driver/src/stm32f30x_tim.c ****   *     
3099:../Libraries/STM32F30x_StdPeriph_Driver/src/stm32f30x_tim.c ****   * @retval The new state of the TIM_IT(SET or RESET).
3100:../Libraries/STM32F30x_StdPeriph_Driver/src/stm32f30x_tim.c ****   */
3101:../Libraries/STM32F30x_StdPeriph_Driver/src/stm32f30x_tim.c **** ITStatus TIM_GetITStatus(TIM_TypeDef* TIMx, uint16_t TIM_IT)
3102:../Libraries/STM32F30x_StdPeriph_Driver/src/stm32f30x_tim.c **** {
 4821              		.loc 1 3102 0
 4822              		.cfi_startproc
 4823              		@ args = 0, pretend = 0, frame = 16
 4824              		@ frame_needed = 0, uses_anonymous_args = 0
 4825              		@ link register save eliminated.
 4826 18fc 84B0     		sub	sp, sp, #16
 4827              	.LCFI94:
 4828              		.cfi_def_cfa_offset 16
 4829 18fe 0190     		str	r0, [sp, #4]
 4830 1900 0B46     		mov	r3, r1
 4831 1902 ADF80230 		strh	r3, [sp, #2]	@ movhi
3103:../Libraries/STM32F30x_StdPeriph_Driver/src/stm32f30x_tim.c ****   ITStatus bitstatus = RESET;  
 4832              		.loc 1 3103 0
 4833 1906 4FF00003 		mov	r3, #0
 4834 190a 8DF80F30 		strb	r3, [sp, #15]
3104:../Libraries/STM32F30x_StdPeriph_Driver/src/stm32f30x_tim.c ****   uint16_t itstatus = 0x0, itenable = 0x0;
 4835              		.loc 1 3104 0
 4836 190e 4FF00003 		mov	r3, #0
 4837 1912 ADF80C30 		strh	r3, [sp, #12]	@ movhi
 4838 1916 4FF00003 		mov	r3, #0
 4839 191a ADF80A30 		strh	r3, [sp, #10]	@ movhi
3105:../Libraries/STM32F30x_StdPeriph_Driver/src/stm32f30x_tim.c ****   /* Check the parameters */
3106:../Libraries/STM32F30x_StdPeriph_Driver/src/stm32f30x_tim.c ****   assert_param(IS_TIM_ALL_PERIPH(TIMx));
3107:../Libraries/STM32F30x_StdPeriph_Driver/src/stm32f30x_tim.c ****   assert_param(IS_TIM_GET_IT(TIM_IT));
3108:../Libraries/STM32F30x_StdPeriph_Driver/src/stm32f30x_tim.c ****    
3109:../Libraries/STM32F30x_StdPeriph_Driver/src/stm32f30x_tim.c ****   itstatus = TIMx->SR & TIM_IT;
 4840              		.loc 1 3109 0
 4841 191e 019B     		ldr	r3, [sp, #4]
 4842 1920 1B69     		ldr	r3, [r3, #16]
 4843 1922 9AB2     		uxth	r2, r3
 4844 1924 BDF80230 		ldrh	r3, [sp, #2]	@ movhi
 4845 1928 1340     		ands	r3, r3, r2
 4846 192a ADF80C30 		strh	r3, [sp, #12]	@ movhi
3110:../Libraries/STM32F30x_StdPeriph_Driver/src/stm32f30x_tim.c ****   
3111:../Libraries/STM32F30x_StdPeriph_Driver/src/stm32f30x_tim.c ****   itenable = TIMx->DIER & TIM_IT;
 4847              		.loc 1 3111 0
 4848 192e 019B     		ldr	r3, [sp, #4]
 4849 1930 DB68     		ldr	r3, [r3, #12]
 4850 1932 9AB2     		uxth	r2, r3
 4851 1934 BDF80230 		ldrh	r3, [sp, #2]	@ movhi
 4852 1938 1340     		ands	r3, r3, r2
 4853 193a ADF80A30 		strh	r3, [sp, #10]	@ movhi
3112:../Libraries/STM32F30x_StdPeriph_Driver/src/stm32f30x_tim.c ****   if ((itstatus != (uint16_t)RESET) && (itenable != (uint16_t)RESET))
 4854              		.loc 1 3112 0
 4855 193e BDF80C30 		ldrh	r3, [sp, #12]
 4856 1942 002B     		cmp	r3, #0
 4857 1944 08D0     		beq	.L163
 4858              		.loc 1 3112 0 is_stmt 0 discriminator 1
 4859 1946 BDF80A30 		ldrh	r3, [sp, #10]
 4860 194a 002B     		cmp	r3, #0
 4861 194c 04D0     		beq	.L163
3113:../Libraries/STM32F30x_StdPeriph_Driver/src/stm32f30x_tim.c ****   {
3114:../Libraries/STM32F30x_StdPeriph_Driver/src/stm32f30x_tim.c ****     bitstatus = SET;
 4862              		.loc 1 3114 0 is_stmt 1
 4863 194e 4FF00103 		mov	r3, #1
 4864 1952 8DF80F30 		strb	r3, [sp, #15]
 4865 1956 03E0     		b	.L164
 4866              	.L163:
3115:../Libraries/STM32F30x_StdPeriph_Driver/src/stm32f30x_tim.c ****   }
3116:../Libraries/STM32F30x_StdPeriph_Driver/src/stm32f30x_tim.c ****   else
3117:../Libraries/STM32F30x_StdPeriph_Driver/src/stm32f30x_tim.c ****   {
3118:../Libraries/STM32F30x_StdPeriph_Driver/src/stm32f30x_tim.c ****     bitstatus = RESET;
 4867              		.loc 1 3118 0
 4868 1958 4FF00003 		mov	r3, #0
 4869 195c 8DF80F30 		strb	r3, [sp, #15]
 4870              	.L164:
3119:../Libraries/STM32F30x_StdPeriph_Driver/src/stm32f30x_tim.c ****   }
3120:../Libraries/STM32F30x_StdPeriph_Driver/src/stm32f30x_tim.c ****   return bitstatus;
 4871              		.loc 1 3120 0
 4872 1960 9DF80F30 		ldrb	r3, [sp, #15]	@ zero_extendqisi2
3121:../Libraries/STM32F30x_StdPeriph_Driver/src/stm32f30x_tim.c **** }
 4873              		.loc 1 3121 0
 4874 1964 1846     		mov	r0, r3
 4875 1966 04B0     		add	sp, sp, #16
 4876 1968 7047     		bx	lr
 4877              		.cfi_endproc
 4878              	.LFE202:
 4880 196a 00BF     		.align	2
 4881              		.global	TIM_ClearITPendingBit
 4882              		.thumb
 4883              		.thumb_func
 4885              	TIM_ClearITPendingBit:
 4886              	.LFB203:
3122:../Libraries/STM32F30x_StdPeriph_Driver/src/stm32f30x_tim.c **** 
3123:../Libraries/STM32F30x_StdPeriph_Driver/src/stm32f30x_tim.c **** /**
3124:../Libraries/STM32F30x_StdPeriph_Driver/src/stm32f30x_tim.c ****   * @brief  Clears the TIMx's interrupt pending bits.
3125:../Libraries/STM32F30x_StdPeriph_Driver/src/stm32f30x_tim.c ****   * @param  TIMx: where x can be 1, 2, 3, 4, 6, 7, 8, 15, 16 or 17 to select the TIM peripheral.
3126:../Libraries/STM32F30x_StdPeriph_Driver/src/stm32f30x_tim.c ****   * @param  TIM_IT: specifies the pending bit to clear.
3127:../Libraries/STM32F30x_StdPeriph_Driver/src/stm32f30x_tim.c ****   *          This parameter can be any combination of the following values:
3128:../Libraries/STM32F30x_StdPeriph_Driver/src/stm32f30x_tim.c ****   *            @arg TIM_IT_Update: TIM1 update Interrupt source
3129:../Libraries/STM32F30x_StdPeriph_Driver/src/stm32f30x_tim.c ****   *            @arg TIM_IT_CC1: TIM Capture Compare 1 Interrupt source
3130:../Libraries/STM32F30x_StdPeriph_Driver/src/stm32f30x_tim.c ****   *            @arg TIM_IT_CC2: TIM Capture Compare 2 Interrupt source
3131:../Libraries/STM32F30x_StdPeriph_Driver/src/stm32f30x_tim.c ****   *            @arg TIM_IT_CC3: TIM Capture Compare 3 Interrupt source
3132:../Libraries/STM32F30x_StdPeriph_Driver/src/stm32f30x_tim.c ****   *            @arg TIM_IT_CC4: TIM Capture Compare 4 Interrupt source
3133:../Libraries/STM32F30x_StdPeriph_Driver/src/stm32f30x_tim.c ****   *            @arg TIM_IT_COM: TIM Commutation Interrupt source
3134:../Libraries/STM32F30x_StdPeriph_Driver/src/stm32f30x_tim.c ****   *            @arg TIM_IT_Trigger: TIM Trigger Interrupt source
3135:../Libraries/STM32F30x_StdPeriph_Driver/src/stm32f30x_tim.c ****   *            @arg TIM_IT_Break: TIM Break Interrupt source
3136:../Libraries/STM32F30x_StdPeriph_Driver/src/stm32f30x_tim.c ****   *
3137:../Libraries/STM32F30x_StdPeriph_Driver/src/stm32f30x_tim.c ****   * @note   TIM6 and TIM7 can generate only an update interrupt.
3138:../Libraries/STM32F30x_StdPeriph_Driver/src/stm32f30x_tim.c ****   * @note   TIM_IT_COM and TIM_IT_Break are used only with TIM1 and TIM8.
3139:../Libraries/STM32F30x_StdPeriph_Driver/src/stm32f30x_tim.c ****   *      
3140:../Libraries/STM32F30x_StdPeriph_Driver/src/stm32f30x_tim.c ****   * @retval None
3141:../Libraries/STM32F30x_StdPeriph_Driver/src/stm32f30x_tim.c ****   */
3142:../Libraries/STM32F30x_StdPeriph_Driver/src/stm32f30x_tim.c **** void TIM_ClearITPendingBit(TIM_TypeDef* TIMx, uint16_t TIM_IT)
3143:../Libraries/STM32F30x_StdPeriph_Driver/src/stm32f30x_tim.c **** {
 4887              		.loc 1 3143 0
 4888              		.cfi_startproc
 4889              		@ args = 0, pretend = 0, frame = 8
 4890              		@ frame_needed = 0, uses_anonymous_args = 0
 4891              		@ link register save eliminated.
 4892 196c 82B0     		sub	sp, sp, #8
 4893              	.LCFI95:
 4894              		.cfi_def_cfa_offset 8
 4895 196e 0190     		str	r0, [sp, #4]
 4896 1970 0B46     		mov	r3, r1
 4897 1972 ADF80230 		strh	r3, [sp, #2]	@ movhi
3144:../Libraries/STM32F30x_StdPeriph_Driver/src/stm32f30x_tim.c ****   /* Check the parameters */
3145:../Libraries/STM32F30x_StdPeriph_Driver/src/stm32f30x_tim.c ****   assert_param(IS_TIM_ALL_PERIPH(TIMx));
3146:../Libraries/STM32F30x_StdPeriph_Driver/src/stm32f30x_tim.c **** 
3147:../Libraries/STM32F30x_StdPeriph_Driver/src/stm32f30x_tim.c ****   /* Clear the IT pending Bit */
3148:../Libraries/STM32F30x_StdPeriph_Driver/src/stm32f30x_tim.c ****   TIMx->SR = (uint16_t)~TIM_IT;
 4898              		.loc 1 3148 0
 4899 1976 BDF80230 		ldrh	r3, [sp, #2]	@ movhi
 4900 197a 6FEA0303 		mvn	r3, r3
 4901 197e 9BB2     		uxth	r3, r3
 4902 1980 1A46     		mov	r2, r3
 4903 1982 019B     		ldr	r3, [sp, #4]
 4904 1984 1A61     		str	r2, [r3, #16]
3149:../Libraries/STM32F30x_StdPeriph_Driver/src/stm32f30x_tim.c **** }
 4905              		.loc 1 3149 0
 4906 1986 02B0     		add	sp, sp, #8
 4907 1988 7047     		bx	lr
 4908              		.cfi_endproc
 4909              	.LFE203:
 4911 198a 00BF     		.align	2
 4912              		.global	TIM_DMAConfig
 4913              		.thumb
 4914              		.thumb_func
 4916              	TIM_DMAConfig:
 4917              	.LFB204:
3150:../Libraries/STM32F30x_StdPeriph_Driver/src/stm32f30x_tim.c **** 
3151:../Libraries/STM32F30x_StdPeriph_Driver/src/stm32f30x_tim.c **** /**
3152:../Libraries/STM32F30x_StdPeriph_Driver/src/stm32f30x_tim.c ****   * @brief  Configures the TIMx's DMA interface.
3153:../Libraries/STM32F30x_StdPeriph_Driver/src/stm32f30x_tim.c ****   * @param  TIMx: where x can be 1, 2, 3, 4 or 8 to select the TIM peripheral.
3154:../Libraries/STM32F30x_StdPeriph_Driver/src/stm32f30x_tim.c ****   * @param  TIM_DMABase: DMA Base address.
3155:../Libraries/STM32F30x_StdPeriph_Driver/src/stm32f30x_tim.c ****   *          This parameter can be one of the following values:
3156:../Libraries/STM32F30x_StdPeriph_Driver/src/stm32f30x_tim.c ****   *            @arg TIM_DMABase_CR1  
3157:../Libraries/STM32F30x_StdPeriph_Driver/src/stm32f30x_tim.c ****   *            @arg TIM_DMABase_CR2
3158:../Libraries/STM32F30x_StdPeriph_Driver/src/stm32f30x_tim.c ****   *            @arg TIM_DMABase_SMCR
3159:../Libraries/STM32F30x_StdPeriph_Driver/src/stm32f30x_tim.c ****   *            @arg TIM_DMABase_DIER
3160:../Libraries/STM32F30x_StdPeriph_Driver/src/stm32f30x_tim.c ****   *            @arg TIM1_DMABase_SR
3161:../Libraries/STM32F30x_StdPeriph_Driver/src/stm32f30x_tim.c ****   *            @arg TIM_DMABase_EGR
3162:../Libraries/STM32F30x_StdPeriph_Driver/src/stm32f30x_tim.c ****   *            @arg TIM_DMABase_CCMR1
3163:../Libraries/STM32F30x_StdPeriph_Driver/src/stm32f30x_tim.c ****   *            @arg TIM_DMABase_CCMR2
3164:../Libraries/STM32F30x_StdPeriph_Driver/src/stm32f30x_tim.c ****   *            @arg TIM_DMABase_CCER
3165:../Libraries/STM32F30x_StdPeriph_Driver/src/stm32f30x_tim.c ****   *            @arg TIM_DMABase_CNT   
3166:../Libraries/STM32F30x_StdPeriph_Driver/src/stm32f30x_tim.c ****   *            @arg TIM_DMABase_PSC   
3167:../Libraries/STM32F30x_StdPeriph_Driver/src/stm32f30x_tim.c ****   *            @arg TIM_DMABase_ARR
3168:../Libraries/STM32F30x_StdPeriph_Driver/src/stm32f30x_tim.c ****   *            @arg TIM_DMABase_RCR
3169:../Libraries/STM32F30x_StdPeriph_Driver/src/stm32f30x_tim.c ****   *            @arg TIM_DMABase_CCR1
3170:../Libraries/STM32F30x_StdPeriph_Driver/src/stm32f30x_tim.c ****   *            @arg TIM_DMABase_CCR2
3171:../Libraries/STM32F30x_StdPeriph_Driver/src/stm32f30x_tim.c ****   *            @arg TIM_DMABase_CCR3  
3172:../Libraries/STM32F30x_StdPeriph_Driver/src/stm32f30x_tim.c ****   *            @arg TIM_DMABase_CCR4
3173:../Libraries/STM32F30x_StdPeriph_Driver/src/stm32f30x_tim.c ****   *            @arg TIM_DMABase_BDTR
3174:../Libraries/STM32F30x_StdPeriph_Driver/src/stm32f30x_tim.c ****   *            @arg TIM_DMABase_DCR
3175:../Libraries/STM32F30x_StdPeriph_Driver/src/stm32f30x_tim.c ****   * @param  TIM_DMABurstLength: DMA Burst length. This parameter can be one value
3176:../Libraries/STM32F30x_StdPeriph_Driver/src/stm32f30x_tim.c ****   *         between: TIM_DMABurstLength_1Transfer and TIM_DMABurstLength_18Transfers.
3177:../Libraries/STM32F30x_StdPeriph_Driver/src/stm32f30x_tim.c ****   * @retval None
3178:../Libraries/STM32F30x_StdPeriph_Driver/src/stm32f30x_tim.c ****   */
3179:../Libraries/STM32F30x_StdPeriph_Driver/src/stm32f30x_tim.c **** void TIM_DMAConfig(TIM_TypeDef* TIMx, uint16_t TIM_DMABase, uint16_t TIM_DMABurstLength)
3180:../Libraries/STM32F30x_StdPeriph_Driver/src/stm32f30x_tim.c **** {
 4918              		.loc 1 3180 0
 4919              		.cfi_startproc
 4920              		@ args = 0, pretend = 0, frame = 8
 4921              		@ frame_needed = 0, uses_anonymous_args = 0
 4922              		@ link register save eliminated.
 4923 198c 82B0     		sub	sp, sp, #8
 4924              	.LCFI96:
 4925              		.cfi_def_cfa_offset 8
 4926 198e 0190     		str	r0, [sp, #4]
 4927 1990 1346     		mov	r3, r2
 4928 1992 0A46     		mov	r2, r1	@ movhi
 4929 1994 ADF80220 		strh	r2, [sp, #2]	@ movhi
 4930 1998 ADF80030 		strh	r3, [sp, #0]	@ movhi
3181:../Libraries/STM32F30x_StdPeriph_Driver/src/stm32f30x_tim.c ****   /* Check the parameters */
3182:../Libraries/STM32F30x_StdPeriph_Driver/src/stm32f30x_tim.c ****   assert_param(IS_TIM_LIST1_PERIPH(TIMx));
3183:../Libraries/STM32F30x_StdPeriph_Driver/src/stm32f30x_tim.c ****   assert_param(IS_TIM_DMA_BASE(TIM_DMABase)); 
3184:../Libraries/STM32F30x_StdPeriph_Driver/src/stm32f30x_tim.c ****   assert_param(IS_TIM_DMA_LENGTH(TIM_DMABurstLength));
3185:../Libraries/STM32F30x_StdPeriph_Driver/src/stm32f30x_tim.c **** 
3186:../Libraries/STM32F30x_StdPeriph_Driver/src/stm32f30x_tim.c ****   /* Set the DMA Base and the DMA Burst Length */
3187:../Libraries/STM32F30x_StdPeriph_Driver/src/stm32f30x_tim.c ****   TIMx->DCR = TIM_DMABase | TIM_DMABurstLength;
 4931              		.loc 1 3187 0
 4932 199c BDF80220 		ldrh	r2, [sp, #2]	@ movhi
 4933 19a0 BDF80030 		ldrh	r3, [sp, #0]	@ movhi
 4934 19a4 1343     		orrs	r3, r3, r2
 4935 19a6 9AB2     		uxth	r2, r3
 4936 19a8 019B     		ldr	r3, [sp, #4]
 4937 19aa A3F84820 		strh	r2, [r3, #72]	@ movhi
3188:../Libraries/STM32F30x_StdPeriph_Driver/src/stm32f30x_tim.c **** }
 4938              		.loc 1 3188 0
 4939 19ae 02B0     		add	sp, sp, #8
 4940 19b0 7047     		bx	lr
 4941              		.cfi_endproc
 4942              	.LFE204:
 4944 19b2 00BF     		.align	2
 4945              		.global	TIM_DMACmd
 4946              		.thumb
 4947              		.thumb_func
 4949              	TIM_DMACmd:
 4950              	.LFB205:
3189:../Libraries/STM32F30x_StdPeriph_Driver/src/stm32f30x_tim.c **** 
3190:../Libraries/STM32F30x_StdPeriph_Driver/src/stm32f30x_tim.c **** /**
3191:../Libraries/STM32F30x_StdPeriph_Driver/src/stm32f30x_tim.c ****   * @brief  Enables or disables the TIMx's DMA Requests.
3192:../Libraries/STM32F30x_StdPeriph_Driver/src/stm32f30x_tim.c ****   * @param  TIMx: where x can be 1, 2, 3, 4, 6, 7, 8, 15, 16 or 17 to select the TIM peripheral.
3193:../Libraries/STM32F30x_StdPeriph_Driver/src/stm32f30x_tim.c ****   * @param  TIM_DMASource: specifies the DMA Request sources.
3194:../Libraries/STM32F30x_StdPeriph_Driver/src/stm32f30x_tim.c ****   *          This parameter can be any combination of the following values:
3195:../Libraries/STM32F30x_StdPeriph_Driver/src/stm32f30x_tim.c ****   *            @arg TIM_DMA_Update: TIM update Interrupt source
3196:../Libraries/STM32F30x_StdPeriph_Driver/src/stm32f30x_tim.c ****   *            @arg TIM_DMA_CC1: TIM Capture Compare 1 DMA source
3197:../Libraries/STM32F30x_StdPeriph_Driver/src/stm32f30x_tim.c ****   *            @arg TIM_DMA_CC2: TIM Capture Compare 2 DMA source
3198:../Libraries/STM32F30x_StdPeriph_Driver/src/stm32f30x_tim.c ****   *            @arg TIM_DMA_CC3: TIM Capture Compare 3 DMA source
3199:../Libraries/STM32F30x_StdPeriph_Driver/src/stm32f30x_tim.c ****   *            @arg TIM_DMA_CC4: TIM Capture Compare 4 DMA source
3200:../Libraries/STM32F30x_StdPeriph_Driver/src/stm32f30x_tim.c ****   *            @arg TIM_DMA_COM: TIM Commutation DMA source
3201:../Libraries/STM32F30x_StdPeriph_Driver/src/stm32f30x_tim.c ****   *            @arg TIM_DMA_Trigger: TIM Trigger DMA source
3202:../Libraries/STM32F30x_StdPeriph_Driver/src/stm32f30x_tim.c ****   * @param  NewState: new state of the DMA Request sources.
3203:../Libraries/STM32F30x_StdPeriph_Driver/src/stm32f30x_tim.c ****   *          This parameter can be: ENABLE or DISABLE.
3204:../Libraries/STM32F30x_StdPeriph_Driver/src/stm32f30x_tim.c ****   * @retval None
3205:../Libraries/STM32F30x_StdPeriph_Driver/src/stm32f30x_tim.c ****   */
3206:../Libraries/STM32F30x_StdPeriph_Driver/src/stm32f30x_tim.c **** void TIM_DMACmd(TIM_TypeDef* TIMx, uint16_t TIM_DMASource, FunctionalState NewState)
3207:../Libraries/STM32F30x_StdPeriph_Driver/src/stm32f30x_tim.c **** { 
 4951              		.loc 1 3207 0
 4952              		.cfi_startproc
 4953              		@ args = 0, pretend = 0, frame = 8
 4954              		@ frame_needed = 0, uses_anonymous_args = 0
 4955              		@ link register save eliminated.
 4956 19b4 82B0     		sub	sp, sp, #8
 4957              	.LCFI97:
 4958              		.cfi_def_cfa_offset 8
 4959 19b6 0190     		str	r0, [sp, #4]
 4960 19b8 1346     		mov	r3, r2
 4961 19ba 0A46     		mov	r2, r1	@ movhi
 4962 19bc ADF80220 		strh	r2, [sp, #2]	@ movhi
 4963 19c0 8DF80130 		strb	r3, [sp, #1]
3208:../Libraries/STM32F30x_StdPeriph_Driver/src/stm32f30x_tim.c ****   /* Check the parameters */
3209:../Libraries/STM32F30x_StdPeriph_Driver/src/stm32f30x_tim.c ****   assert_param(IS_TIM_ALL_PERIPH(TIMx));
3210:../Libraries/STM32F30x_StdPeriph_Driver/src/stm32f30x_tim.c ****   assert_param(IS_TIM_DMA_SOURCE(TIM_DMASource));
3211:../Libraries/STM32F30x_StdPeriph_Driver/src/stm32f30x_tim.c ****   assert_param(IS_FUNCTIONAL_STATE(NewState));
3212:../Libraries/STM32F30x_StdPeriph_Driver/src/stm32f30x_tim.c ****   
3213:../Libraries/STM32F30x_StdPeriph_Driver/src/stm32f30x_tim.c ****   if (NewState != DISABLE)
 4964              		.loc 1 3213 0
 4965 19c4 9DF80130 		ldrb	r3, [sp, #1]	@ zero_extendqisi2
 4966 19c8 002B     		cmp	r3, #0
 4967 19ca 07D0     		beq	.L168
3214:../Libraries/STM32F30x_StdPeriph_Driver/src/stm32f30x_tim.c ****   {
3215:../Libraries/STM32F30x_StdPeriph_Driver/src/stm32f30x_tim.c ****     /* Enable the DMA sources */
3216:../Libraries/STM32F30x_StdPeriph_Driver/src/stm32f30x_tim.c ****     TIMx->DIER |= TIM_DMASource; 
 4968              		.loc 1 3216 0
 4969 19cc 019B     		ldr	r3, [sp, #4]
 4970 19ce DA68     		ldr	r2, [r3, #12]
 4971 19d0 BDF80230 		ldrh	r3, [sp, #2]
 4972 19d4 1A43     		orrs	r2, r2, r3
 4973 19d6 019B     		ldr	r3, [sp, #4]
 4974 19d8 DA60     		str	r2, [r3, #12]
 4975 19da 09E0     		b	.L167
 4976              	.L168:
3217:../Libraries/STM32F30x_StdPeriph_Driver/src/stm32f30x_tim.c ****   }
3218:../Libraries/STM32F30x_StdPeriph_Driver/src/stm32f30x_tim.c ****   else
3219:../Libraries/STM32F30x_StdPeriph_Driver/src/stm32f30x_tim.c ****   {
3220:../Libraries/STM32F30x_StdPeriph_Driver/src/stm32f30x_tim.c ****     /* Disable the DMA sources */
3221:../Libraries/STM32F30x_StdPeriph_Driver/src/stm32f30x_tim.c ****     TIMx->DIER &= (uint16_t)~TIM_DMASource;
 4977              		.loc 1 3221 0
 4978 19dc 019B     		ldr	r3, [sp, #4]
 4979 19de DA68     		ldr	r2, [r3, #12]
 4980 19e0 BDF80230 		ldrh	r3, [sp, #2]	@ movhi
 4981 19e4 6FEA0303 		mvn	r3, r3
 4982 19e8 9BB2     		uxth	r3, r3
 4983 19ea 1A40     		ands	r2, r2, r3
 4984 19ec 019B     		ldr	r3, [sp, #4]
 4985 19ee DA60     		str	r2, [r3, #12]
 4986              	.L167:
3222:../Libraries/STM32F30x_StdPeriph_Driver/src/stm32f30x_tim.c ****   }
3223:../Libraries/STM32F30x_StdPeriph_Driver/src/stm32f30x_tim.c **** }
 4987              		.loc 1 3223 0
 4988 19f0 02B0     		add	sp, sp, #8
 4989 19f2 7047     		bx	lr
 4990              		.cfi_endproc
 4991              	.LFE205:
 4993              		.align	2
 4994              		.global	TIM_SelectCCDMA
 4995              		.thumb
 4996              		.thumb_func
 4998              	TIM_SelectCCDMA:
 4999              	.LFB206:
3224:../Libraries/STM32F30x_StdPeriph_Driver/src/stm32f30x_tim.c **** 
3225:../Libraries/STM32F30x_StdPeriph_Driver/src/stm32f30x_tim.c **** /**
3226:../Libraries/STM32F30x_StdPeriph_Driver/src/stm32f30x_tim.c ****   * @brief  Selects the TIMx peripheral Capture Compare DMA source.
3227:../Libraries/STM32F30x_StdPeriph_Driver/src/stm32f30x_tim.c ****   * @param  TIMx: where x can be  1, 2, 3, 4, 8, 15, 16 or 17 to select the TIM peripheral.
3228:../Libraries/STM32F30x_StdPeriph_Driver/src/stm32f30x_tim.c ****   * @param  NewState: new state of the Capture Compare DMA source
3229:../Libraries/STM32F30x_StdPeriph_Driver/src/stm32f30x_tim.c ****   *          This parameter can be: ENABLE or DISABLE.
3230:../Libraries/STM32F30x_StdPeriph_Driver/src/stm32f30x_tim.c ****   * @retval None
3231:../Libraries/STM32F30x_StdPeriph_Driver/src/stm32f30x_tim.c ****   */
3232:../Libraries/STM32F30x_StdPeriph_Driver/src/stm32f30x_tim.c **** void TIM_SelectCCDMA(TIM_TypeDef* TIMx, FunctionalState NewState)
3233:../Libraries/STM32F30x_StdPeriph_Driver/src/stm32f30x_tim.c **** {
 5000              		.loc 1 3233 0
 5001              		.cfi_startproc
 5002              		@ args = 0, pretend = 0, frame = 8
 5003              		@ frame_needed = 0, uses_anonymous_args = 0
 5004              		@ link register save eliminated.
 5005 19f4 82B0     		sub	sp, sp, #8
 5006              	.LCFI98:
 5007              		.cfi_def_cfa_offset 8
 5008 19f6 0190     		str	r0, [sp, #4]
 5009 19f8 0B46     		mov	r3, r1
 5010 19fa 8DF80330 		strb	r3, [sp, #3]
3234:../Libraries/STM32F30x_StdPeriph_Driver/src/stm32f30x_tim.c ****   /* Check the parameters */
3235:../Libraries/STM32F30x_StdPeriph_Driver/src/stm32f30x_tim.c ****   assert_param(IS_TIM_LIST1_PERIPH(TIMx));
3236:../Libraries/STM32F30x_StdPeriph_Driver/src/stm32f30x_tim.c ****   assert_param(IS_FUNCTIONAL_STATE(NewState));
3237:../Libraries/STM32F30x_StdPeriph_Driver/src/stm32f30x_tim.c **** 
3238:../Libraries/STM32F30x_StdPeriph_Driver/src/stm32f30x_tim.c ****   if (NewState != DISABLE)
 5011              		.loc 1 3238 0
 5012 19fe 9DF80330 		ldrb	r3, [sp, #3]	@ zero_extendqisi2
 5013 1a02 002B     		cmp	r3, #0
 5014 1a04 06D0     		beq	.L171
3239:../Libraries/STM32F30x_StdPeriph_Driver/src/stm32f30x_tim.c ****   {
3240:../Libraries/STM32F30x_StdPeriph_Driver/src/stm32f30x_tim.c ****     /* Set the CCDS Bit */
3241:../Libraries/STM32F30x_StdPeriph_Driver/src/stm32f30x_tim.c ****     TIMx->CR2 |= TIM_CR2_CCDS;
 5015              		.loc 1 3241 0
 5016 1a06 019B     		ldr	r3, [sp, #4]
 5017 1a08 5B68     		ldr	r3, [r3, #4]
 5018 1a0a 43F00802 		orr	r2, r3, #8
 5019 1a0e 019B     		ldr	r3, [sp, #4]
 5020 1a10 5A60     		str	r2, [r3, #4]
 5021 1a12 06E0     		b	.L170
 5022              	.L171:
3242:../Libraries/STM32F30x_StdPeriph_Driver/src/stm32f30x_tim.c ****   }
3243:../Libraries/STM32F30x_StdPeriph_Driver/src/stm32f30x_tim.c ****   else
3244:../Libraries/STM32F30x_StdPeriph_Driver/src/stm32f30x_tim.c ****   {
3245:../Libraries/STM32F30x_StdPeriph_Driver/src/stm32f30x_tim.c ****     /* Reset the CCDS Bit */
3246:../Libraries/STM32F30x_StdPeriph_Driver/src/stm32f30x_tim.c ****     TIMx->CR2 &= (uint16_t)~TIM_CR2_CCDS;
 5023              		.loc 1 3246 0
 5024 1a14 019B     		ldr	r3, [sp, #4]
 5025 1a16 5A68     		ldr	r2, [r3, #4]
 5026 1a18 4FF6F773 		movw	r3, #65527
 5027 1a1c 1340     		ands	r3, r3, r2
 5028 1a1e 019A     		ldr	r2, [sp, #4]
 5029 1a20 5360     		str	r3, [r2, #4]
 5030              	.L170:
3247:../Libraries/STM32F30x_StdPeriph_Driver/src/stm32f30x_tim.c ****   }
3248:../Libraries/STM32F30x_StdPeriph_Driver/src/stm32f30x_tim.c **** }
 5031              		.loc 1 3248 0
 5032 1a22 02B0     		add	sp, sp, #8
 5033 1a24 7047     		bx	lr
 5034              		.cfi_endproc
 5035              	.LFE206:
 5037 1a26 00BF     		.align	2
 5038              		.global	TIM_InternalClockConfig
 5039              		.thumb
 5040              		.thumb_func
 5042              	TIM_InternalClockConfig:
 5043              	.LFB207:
3249:../Libraries/STM32F30x_StdPeriph_Driver/src/stm32f30x_tim.c **** /**
3250:../Libraries/STM32F30x_StdPeriph_Driver/src/stm32f30x_tim.c ****   * @}
3251:../Libraries/STM32F30x_StdPeriph_Driver/src/stm32f30x_tim.c ****   */
3252:../Libraries/STM32F30x_StdPeriph_Driver/src/stm32f30x_tim.c **** 
3253:../Libraries/STM32F30x_StdPeriph_Driver/src/stm32f30x_tim.c **** /** @defgroup TIM_Group6 Clocks management functions
3254:../Libraries/STM32F30x_StdPeriph_Driver/src/stm32f30x_tim.c ****  *  @brief    Clocks management functions
3255:../Libraries/STM32F30x_StdPeriph_Driver/src/stm32f30x_tim.c ****  *
3256:../Libraries/STM32F30x_StdPeriph_Driver/src/stm32f30x_tim.c **** @verbatim   
3257:../Libraries/STM32F30x_StdPeriph_Driver/src/stm32f30x_tim.c ****  ===============================================================================
3258:../Libraries/STM32F30x_StdPeriph_Driver/src/stm32f30x_tim.c ****                    ##### Clocks management functions #####
3259:../Libraries/STM32F30x_StdPeriph_Driver/src/stm32f30x_tim.c ****  ===============================================================================  
3260:../Libraries/STM32F30x_StdPeriph_Driver/src/stm32f30x_tim.c **** 
3261:../Libraries/STM32F30x_StdPeriph_Driver/src/stm32f30x_tim.c **** @endverbatim
3262:../Libraries/STM32F30x_StdPeriph_Driver/src/stm32f30x_tim.c ****   * @{
3263:../Libraries/STM32F30x_StdPeriph_Driver/src/stm32f30x_tim.c ****   */
3264:../Libraries/STM32F30x_StdPeriph_Driver/src/stm32f30x_tim.c **** 
3265:../Libraries/STM32F30x_StdPeriph_Driver/src/stm32f30x_tim.c **** /**
3266:../Libraries/STM32F30x_StdPeriph_Driver/src/stm32f30x_tim.c ****   * @brief  Configures the TIMx internal Clock
3267:../Libraries/STM32F30x_StdPeriph_Driver/src/stm32f30x_tim.c ****   * @param  TIMx: where x can be 1, 2, 3, 4, 8 or 15 to select the TIM 
3268:../Libraries/STM32F30x_StdPeriph_Driver/src/stm32f30x_tim.c ****   *         peripheral.
3269:../Libraries/STM32F30x_StdPeriph_Driver/src/stm32f30x_tim.c ****   * @retval None
3270:../Libraries/STM32F30x_StdPeriph_Driver/src/stm32f30x_tim.c ****   */
3271:../Libraries/STM32F30x_StdPeriph_Driver/src/stm32f30x_tim.c **** void TIM_InternalClockConfig(TIM_TypeDef* TIMx)
3272:../Libraries/STM32F30x_StdPeriph_Driver/src/stm32f30x_tim.c **** {
 5044              		.loc 1 3272 0
 5045              		.cfi_startproc
 5046              		@ args = 0, pretend = 0, frame = 8
 5047              		@ frame_needed = 0, uses_anonymous_args = 0
 5048              		@ link register save eliminated.
 5049 1a28 82B0     		sub	sp, sp, #8
 5050              	.LCFI99:
 5051              		.cfi_def_cfa_offset 8
 5052 1a2a 0190     		str	r0, [sp, #4]
3273:../Libraries/STM32F30x_StdPeriph_Driver/src/stm32f30x_tim.c ****   /* Check the parameters */
3274:../Libraries/STM32F30x_StdPeriph_Driver/src/stm32f30x_tim.c ****   assert_param(IS_TIM_LIST2_PERIPH(TIMx));
3275:../Libraries/STM32F30x_StdPeriph_Driver/src/stm32f30x_tim.c **** 
3276:../Libraries/STM32F30x_StdPeriph_Driver/src/stm32f30x_tim.c ****   /* Disable slave mode to clock the prescaler directly with the internal clock */
3277:../Libraries/STM32F30x_StdPeriph_Driver/src/stm32f30x_tim.c ****   TIMx->SMCR &=  (uint16_t)~TIM_SMCR_SMS;
 5053              		.loc 1 3277 0
 5054 1a2c 019B     		ldr	r3, [sp, #4]
 5055 1a2e 9A68     		ldr	r2, [r3, #8]
 5056 1a30 4FF6F873 		movw	r3, #65528
 5057 1a34 1340     		ands	r3, r3, r2
 5058 1a36 019A     		ldr	r2, [sp, #4]
 5059 1a38 9360     		str	r3, [r2, #8]
3278:../Libraries/STM32F30x_StdPeriph_Driver/src/stm32f30x_tim.c **** }
 5060              		.loc 1 3278 0
 5061 1a3a 02B0     		add	sp, sp, #8
 5062 1a3c 7047     		bx	lr
 5063              		.cfi_endproc
 5064              	.LFE207:
 5066 1a3e 00BF     		.align	2
 5067              		.global	TIM_ITRxExternalClockConfig
 5068              		.thumb
 5069              		.thumb_func
 5071              	TIM_ITRxExternalClockConfig:
 5072              	.LFB208:
3279:../Libraries/STM32F30x_StdPeriph_Driver/src/stm32f30x_tim.c **** 
3280:../Libraries/STM32F30x_StdPeriph_Driver/src/stm32f30x_tim.c **** /**
3281:../Libraries/STM32F30x_StdPeriph_Driver/src/stm32f30x_tim.c ****   * @brief  Configures the TIMx Internal Trigger as External Clock
3282:../Libraries/STM32F30x_StdPeriph_Driver/src/stm32f30x_tim.c ****   * @param  TIMx: where x can be 1, 2, 3, 4, 8 or 15 to select the TIM 
3283:../Libraries/STM32F30x_StdPeriph_Driver/src/stm32f30x_tim.c ****   *         peripheral.
3284:../Libraries/STM32F30x_StdPeriph_Driver/src/stm32f30x_tim.c ****   * @param  TIM_InputTriggerSource: Trigger source.
3285:../Libraries/STM32F30x_StdPeriph_Driver/src/stm32f30x_tim.c ****   *          This parameter can be one of the following values:
3286:../Libraries/STM32F30x_StdPeriph_Driver/src/stm32f30x_tim.c ****   *            @arg TIM_TS_ITR0: Internal Trigger 0
3287:../Libraries/STM32F30x_StdPeriph_Driver/src/stm32f30x_tim.c ****   *            @arg TIM_TS_ITR1: Internal Trigger 1
3288:../Libraries/STM32F30x_StdPeriph_Driver/src/stm32f30x_tim.c ****   *            @arg TIM_TS_ITR2: Internal Trigger 2
3289:../Libraries/STM32F30x_StdPeriph_Driver/src/stm32f30x_tim.c ****   *            @arg TIM_TS_ITR3: Internal Trigger 3
3290:../Libraries/STM32F30x_StdPeriph_Driver/src/stm32f30x_tim.c ****   * @retval None
3291:../Libraries/STM32F30x_StdPeriph_Driver/src/stm32f30x_tim.c ****   */
3292:../Libraries/STM32F30x_StdPeriph_Driver/src/stm32f30x_tim.c **** void TIM_ITRxExternalClockConfig(TIM_TypeDef* TIMx, uint16_t TIM_InputTriggerSource)
3293:../Libraries/STM32F30x_StdPeriph_Driver/src/stm32f30x_tim.c **** {
 5073              		.loc 1 3293 0
 5074              		.cfi_startproc
 5075              		@ args = 0, pretend = 0, frame = 8
 5076              		@ frame_needed = 0, uses_anonymous_args = 0
 5077 1a40 00B5     		push	{lr}
 5078              	.LCFI100:
 5079              		.cfi_def_cfa_offset 4
 5080              		.cfi_offset 14, -4
 5081 1a42 83B0     		sub	sp, sp, #12
 5082              	.LCFI101:
 5083              		.cfi_def_cfa_offset 16
 5084 1a44 0190     		str	r0, [sp, #4]
 5085 1a46 0B46     		mov	r3, r1
 5086 1a48 ADF80230 		strh	r3, [sp, #2]	@ movhi
3294:../Libraries/STM32F30x_StdPeriph_Driver/src/stm32f30x_tim.c ****   /* Check the parameters */
3295:../Libraries/STM32F30x_StdPeriph_Driver/src/stm32f30x_tim.c ****   assert_param(IS_TIM_LIST2_PERIPH(TIMx));
3296:../Libraries/STM32F30x_StdPeriph_Driver/src/stm32f30x_tim.c ****   assert_param(IS_TIM_INTERNAL_TRIGGER_SELECTION(TIM_InputTriggerSource));
3297:../Libraries/STM32F30x_StdPeriph_Driver/src/stm32f30x_tim.c **** 
3298:../Libraries/STM32F30x_StdPeriph_Driver/src/stm32f30x_tim.c ****   /* Select the Internal Trigger */
3299:../Libraries/STM32F30x_StdPeriph_Driver/src/stm32f30x_tim.c ****   TIM_SelectInputTrigger(TIMx, TIM_InputTriggerSource);
 5087              		.loc 1 3299 0
 5088 1a4c BDF80230 		ldrh	r3, [sp, #2]
 5089 1a50 0198     		ldr	r0, [sp, #4]
 5090 1a52 1946     		mov	r1, r3
 5091 1a54 FFF7FEFF 		bl	TIM_SelectInputTrigger
3300:../Libraries/STM32F30x_StdPeriph_Driver/src/stm32f30x_tim.c **** 
3301:../Libraries/STM32F30x_StdPeriph_Driver/src/stm32f30x_tim.c ****   /* Select the External clock mode1 */
3302:../Libraries/STM32F30x_StdPeriph_Driver/src/stm32f30x_tim.c ****   TIMx->SMCR |= TIM_SlaveMode_External1;
 5092              		.loc 1 3302 0
 5093 1a58 019B     		ldr	r3, [sp, #4]
 5094 1a5a 9B68     		ldr	r3, [r3, #8]
 5095 1a5c 43F00702 		orr	r2, r3, #7
 5096 1a60 019B     		ldr	r3, [sp, #4]
 5097 1a62 9A60     		str	r2, [r3, #8]
3303:../Libraries/STM32F30x_StdPeriph_Driver/src/stm32f30x_tim.c **** }
 5098              		.loc 1 3303 0
 5099 1a64 03B0     		add	sp, sp, #12
 5100 1a66 00BD     		pop	{pc}
 5101              		.cfi_endproc
 5102              	.LFE208:
 5104              		.align	2
 5105              		.global	TIM_TIxExternalClockConfig
 5106              		.thumb
 5107              		.thumb_func
 5109              	TIM_TIxExternalClockConfig:
 5110              	.LFB209:
3304:../Libraries/STM32F30x_StdPeriph_Driver/src/stm32f30x_tim.c **** 
3305:../Libraries/STM32F30x_StdPeriph_Driver/src/stm32f30x_tim.c **** /**
3306:../Libraries/STM32F30x_StdPeriph_Driver/src/stm32f30x_tim.c ****   * @brief  Configures the TIMx Trigger as External Clock
3307:../Libraries/STM32F30x_StdPeriph_Driver/src/stm32f30x_tim.c ****   * @param  TIMx: where x can be 1, 2, 3, 4, 8 or 15  
3308:../Libraries/STM32F30x_StdPeriph_Driver/src/stm32f30x_tim.c ****   *         to select the TIM peripheral.
3309:../Libraries/STM32F30x_StdPeriph_Driver/src/stm32f30x_tim.c ****   * @param  TIM_TIxExternalCLKSource: Trigger source.
3310:../Libraries/STM32F30x_StdPeriph_Driver/src/stm32f30x_tim.c ****   *          This parameter can be one of the following values:
3311:../Libraries/STM32F30x_StdPeriph_Driver/src/stm32f30x_tim.c ****   *            @arg TIM_TIxExternalCLK1Source_TI1ED: TI1 Edge Detector
3312:../Libraries/STM32F30x_StdPeriph_Driver/src/stm32f30x_tim.c ****   *            @arg TIM_TIxExternalCLK1Source_TI1: Filtered Timer Input 1
3313:../Libraries/STM32F30x_StdPeriph_Driver/src/stm32f30x_tim.c ****   *            @arg TIM_TIxExternalCLK1Source_TI2: Filtered Timer Input 2
3314:../Libraries/STM32F30x_StdPeriph_Driver/src/stm32f30x_tim.c ****   * @param  TIM_ICPolarity: specifies the TIx Polarity.
3315:../Libraries/STM32F30x_StdPeriph_Driver/src/stm32f30x_tim.c ****   *          This parameter can be one of the following values:
3316:../Libraries/STM32F30x_StdPeriph_Driver/src/stm32f30x_tim.c ****   *            @arg TIM_ICPolarity_Rising
3317:../Libraries/STM32F30x_StdPeriph_Driver/src/stm32f30x_tim.c ****   *            @arg TIM_ICPolarity_Falling
3318:../Libraries/STM32F30x_StdPeriph_Driver/src/stm32f30x_tim.c ****   * @param  ICFilter: specifies the filter value.
3319:../Libraries/STM32F30x_StdPeriph_Driver/src/stm32f30x_tim.c ****   *          This parameter must be a value between 0x0 and 0xF.
3320:../Libraries/STM32F30x_StdPeriph_Driver/src/stm32f30x_tim.c ****   * @retval None
3321:../Libraries/STM32F30x_StdPeriph_Driver/src/stm32f30x_tim.c ****   */
3322:../Libraries/STM32F30x_StdPeriph_Driver/src/stm32f30x_tim.c **** void TIM_TIxExternalClockConfig(TIM_TypeDef* TIMx, uint16_t TIM_TIxExternalCLKSource,
3323:../Libraries/STM32F30x_StdPeriph_Driver/src/stm32f30x_tim.c ****                                 uint16_t TIM_ICPolarity, uint16_t ICFilter)
3324:../Libraries/STM32F30x_StdPeriph_Driver/src/stm32f30x_tim.c **** {
 5111              		.loc 1 3324 0
 5112              		.cfi_startproc
 5113              		@ args = 0, pretend = 0, frame = 16
 5114              		@ frame_needed = 0, uses_anonymous_args = 0
 5115 1a68 00B5     		push	{lr}
 5116              	.LCFI102:
 5117              		.cfi_def_cfa_offset 4
 5118              		.cfi_offset 14, -4
 5119 1a6a 85B0     		sub	sp, sp, #20
 5120              	.LCFI103:
 5121              		.cfi_def_cfa_offset 24
 5122 1a6c 0390     		str	r0, [sp, #12]
 5123 1a6e ADF80A10 		strh	r1, [sp, #10]	@ movhi
 5124 1a72 ADF80820 		strh	r2, [sp, #8]	@ movhi
 5125 1a76 ADF80630 		strh	r3, [sp, #6]	@ movhi
3325:../Libraries/STM32F30x_StdPeriph_Driver/src/stm32f30x_tim.c ****   /* Check the parameters */
3326:../Libraries/STM32F30x_StdPeriph_Driver/src/stm32f30x_tim.c ****   assert_param(IS_TIM_LIST2_PERIPH(TIMx));
3327:../Libraries/STM32F30x_StdPeriph_Driver/src/stm32f30x_tim.c ****   assert_param(IS_TIM_IC_POLARITY(TIM_ICPolarity));
3328:../Libraries/STM32F30x_StdPeriph_Driver/src/stm32f30x_tim.c ****   assert_param(IS_TIM_IC_FILTER(ICFilter));
3329:../Libraries/STM32F30x_StdPeriph_Driver/src/stm32f30x_tim.c **** 
3330:../Libraries/STM32F30x_StdPeriph_Driver/src/stm32f30x_tim.c ****   /* Configure the Timer Input Clock Source */
3331:../Libraries/STM32F30x_StdPeriph_Driver/src/stm32f30x_tim.c ****   if (TIM_TIxExternalCLKSource == TIM_TIxExternalCLK1Source_TI2)
 5126              		.loc 1 3331 0
 5127 1a7a BDF80A30 		ldrh	r3, [sp, #10]
 5128 1a7e 602B     		cmp	r3, #96
 5129 1a80 0AD1     		bne	.L176
3332:../Libraries/STM32F30x_StdPeriph_Driver/src/stm32f30x_tim.c ****   {
3333:../Libraries/STM32F30x_StdPeriph_Driver/src/stm32f30x_tim.c ****     TI2_Config(TIMx, TIM_ICPolarity, TIM_ICSelection_DirectTI, ICFilter);
 5130              		.loc 1 3333 0
 5131 1a82 BDF80820 		ldrh	r2, [sp, #8]
 5132 1a86 BDF80630 		ldrh	r3, [sp, #6]
 5133 1a8a 0398     		ldr	r0, [sp, #12]
 5134 1a8c 1146     		mov	r1, r2
 5135 1a8e 4FF00102 		mov	r2, #1
 5136 1a92 00F0CDF9 		bl	TI2_Config
 5137 1a96 09E0     		b	.L177
 5138              	.L176:
3334:../Libraries/STM32F30x_StdPeriph_Driver/src/stm32f30x_tim.c ****   }
3335:../Libraries/STM32F30x_StdPeriph_Driver/src/stm32f30x_tim.c ****   else
3336:../Libraries/STM32F30x_StdPeriph_Driver/src/stm32f30x_tim.c ****   {
3337:../Libraries/STM32F30x_StdPeriph_Driver/src/stm32f30x_tim.c ****     TI1_Config(TIMx, TIM_ICPolarity, TIM_ICSelection_DirectTI, ICFilter);
 5139              		.loc 1 3337 0
 5140 1a98 BDF80820 		ldrh	r2, [sp, #8]
 5141 1a9c BDF80630 		ldrh	r3, [sp, #6]
 5142 1aa0 0398     		ldr	r0, [sp, #12]
 5143 1aa2 1146     		mov	r1, r2
 5144 1aa4 4FF00102 		mov	r2, #1
 5145 1aa8 00F086F9 		bl	TI1_Config
 5146              	.L177:
3338:../Libraries/STM32F30x_StdPeriph_Driver/src/stm32f30x_tim.c ****   }
3339:../Libraries/STM32F30x_StdPeriph_Driver/src/stm32f30x_tim.c ****   /* Select the Trigger source */
3340:../Libraries/STM32F30x_StdPeriph_Driver/src/stm32f30x_tim.c ****   TIM_SelectInputTrigger(TIMx, TIM_TIxExternalCLKSource);
 5147              		.loc 1 3340 0
 5148 1aac BDF80A30 		ldrh	r3, [sp, #10]
 5149 1ab0 0398     		ldr	r0, [sp, #12]
 5150 1ab2 1946     		mov	r1, r3
 5151 1ab4 FFF7FEFF 		bl	TIM_SelectInputTrigger
3341:../Libraries/STM32F30x_StdPeriph_Driver/src/stm32f30x_tim.c ****   /* Select the External clock mode1 */
3342:../Libraries/STM32F30x_StdPeriph_Driver/src/stm32f30x_tim.c ****   TIMx->SMCR |= TIM_SlaveMode_External1;
 5152              		.loc 1 3342 0
 5153 1ab8 039B     		ldr	r3, [sp, #12]
 5154 1aba 9B68     		ldr	r3, [r3, #8]
 5155 1abc 43F00702 		orr	r2, r3, #7
 5156 1ac0 039B     		ldr	r3, [sp, #12]
 5157 1ac2 9A60     		str	r2, [r3, #8]
3343:../Libraries/STM32F30x_StdPeriph_Driver/src/stm32f30x_tim.c **** }
 5158              		.loc 1 3343 0
 5159 1ac4 05B0     		add	sp, sp, #20
 5160 1ac6 00BD     		pop	{pc}
 5161              		.cfi_endproc
 5162              	.LFE209:
 5164              		.align	2
 5165              		.global	TIM_ETRClockMode1Config
 5166              		.thumb
 5167              		.thumb_func
 5169              	TIM_ETRClockMode1Config:
 5170              	.LFB210:
3344:../Libraries/STM32F30x_StdPeriph_Driver/src/stm32f30x_tim.c **** 
3345:../Libraries/STM32F30x_StdPeriph_Driver/src/stm32f30x_tim.c **** /**
3346:../Libraries/STM32F30x_StdPeriph_Driver/src/stm32f30x_tim.c ****   * @brief  Configures the External clock Mode1
3347:../Libraries/STM32F30x_StdPeriph_Driver/src/stm32f30x_tim.c ****   * @param  TIMx: where x can be  1, 2, 3, 4 or 8 to select the TIM peripheral.
3348:../Libraries/STM32F30x_StdPeriph_Driver/src/stm32f30x_tim.c ****   * @param  TIM_ExtTRGPrescaler: The external Trigger Prescaler.
3349:../Libraries/STM32F30x_StdPeriph_Driver/src/stm32f30x_tim.c ****   *          This parameter can be one of the following values:
3350:../Libraries/STM32F30x_StdPeriph_Driver/src/stm32f30x_tim.c ****   *            @arg TIM_ExtTRGPSC_OFF: ETRP Prescaler OFF.
3351:../Libraries/STM32F30x_StdPeriph_Driver/src/stm32f30x_tim.c ****   *            @arg TIM_ExtTRGPSC_DIV2: ETRP frequency divided by 2.
3352:../Libraries/STM32F30x_StdPeriph_Driver/src/stm32f30x_tim.c ****   *            @arg TIM_ExtTRGPSC_DIV4: ETRP frequency divided by 4.
3353:../Libraries/STM32F30x_StdPeriph_Driver/src/stm32f30x_tim.c ****   *            @arg TIM_ExtTRGPSC_DIV8: ETRP frequency divided by 8.
3354:../Libraries/STM32F30x_StdPeriph_Driver/src/stm32f30x_tim.c ****   * @param  TIM_ExtTRGPolarity: The external Trigger Polarity.
3355:../Libraries/STM32F30x_StdPeriph_Driver/src/stm32f30x_tim.c ****   *          This parameter can be one of the following values:
3356:../Libraries/STM32F30x_StdPeriph_Driver/src/stm32f30x_tim.c ****   *            @arg TIM_ExtTRGPolarity_Inverted: active low or falling edge active.
3357:../Libraries/STM32F30x_StdPeriph_Driver/src/stm32f30x_tim.c ****   *            @arg TIM_ExtTRGPolarity_NonInverted: active high or rising edge active.
3358:../Libraries/STM32F30x_StdPeriph_Driver/src/stm32f30x_tim.c ****   * @param  ExtTRGFilter: External Trigger Filter.
3359:../Libraries/STM32F30x_StdPeriph_Driver/src/stm32f30x_tim.c ****   *          This parameter must be a value between 0x00 and 0x0F
3360:../Libraries/STM32F30x_StdPeriph_Driver/src/stm32f30x_tim.c ****   * @retval None
3361:../Libraries/STM32F30x_StdPeriph_Driver/src/stm32f30x_tim.c ****   */
3362:../Libraries/STM32F30x_StdPeriph_Driver/src/stm32f30x_tim.c **** void TIM_ETRClockMode1Config(TIM_TypeDef* TIMx, uint16_t TIM_ExtTRGPrescaler,
3363:../Libraries/STM32F30x_StdPeriph_Driver/src/stm32f30x_tim.c ****                             uint16_t TIM_ExtTRGPolarity, uint16_t ExtTRGFilter)
3364:../Libraries/STM32F30x_StdPeriph_Driver/src/stm32f30x_tim.c **** {
 5171              		.loc 1 3364 0
 5172              		.cfi_startproc
 5173              		@ args = 0, pretend = 0, frame = 24
 5174              		@ frame_needed = 0, uses_anonymous_args = 0
 5175 1ac8 00B5     		push	{lr}
 5176              	.LCFI104:
 5177              		.cfi_def_cfa_offset 4
 5178              		.cfi_offset 14, -4
 5179 1aca 87B0     		sub	sp, sp, #28
 5180              	.LCFI105:
 5181              		.cfi_def_cfa_offset 32
 5182 1acc 0390     		str	r0, [sp, #12]
 5183 1ace ADF80A10 		strh	r1, [sp, #10]	@ movhi
 5184 1ad2 ADF80820 		strh	r2, [sp, #8]	@ movhi
 5185 1ad6 ADF80630 		strh	r3, [sp, #6]	@ movhi
3365:../Libraries/STM32F30x_StdPeriph_Driver/src/stm32f30x_tim.c ****   uint16_t tmpsmcr = 0;
 5186              		.loc 1 3365 0
 5187 1ada 4FF00003 		mov	r3, #0
 5188 1ade ADF81630 		strh	r3, [sp, #22]	@ movhi
3366:../Libraries/STM32F30x_StdPeriph_Driver/src/stm32f30x_tim.c **** 
3367:../Libraries/STM32F30x_StdPeriph_Driver/src/stm32f30x_tim.c ****   /* Check the parameters */
3368:../Libraries/STM32F30x_StdPeriph_Driver/src/stm32f30x_tim.c ****   assert_param(IS_TIM_LIST3_PERIPH(TIMx));
3369:../Libraries/STM32F30x_StdPeriph_Driver/src/stm32f30x_tim.c ****   assert_param(IS_TIM_EXT_PRESCALER(TIM_ExtTRGPrescaler));
3370:../Libraries/STM32F30x_StdPeriph_Driver/src/stm32f30x_tim.c ****   assert_param(IS_TIM_EXT_POLARITY(TIM_ExtTRGPolarity));
3371:../Libraries/STM32F30x_StdPeriph_Driver/src/stm32f30x_tim.c ****   assert_param(IS_TIM_EXT_FILTER(ExtTRGFilter));
3372:../Libraries/STM32F30x_StdPeriph_Driver/src/stm32f30x_tim.c ****   /* Configure the ETR Clock source */
3373:../Libraries/STM32F30x_StdPeriph_Driver/src/stm32f30x_tim.c ****   TIM_ETRConfig(TIMx, TIM_ExtTRGPrescaler, TIM_ExtTRGPolarity, ExtTRGFilter);
 5189              		.loc 1 3373 0
 5190 1ae2 BDF80A10 		ldrh	r1, [sp, #10]
 5191 1ae6 BDF80820 		ldrh	r2, [sp, #8]
 5192 1aea BDF80630 		ldrh	r3, [sp, #6]
 5193 1aee 0398     		ldr	r0, [sp, #12]
 5194 1af0 FFF7FEFF 		bl	TIM_ETRConfig
3374:../Libraries/STM32F30x_StdPeriph_Driver/src/stm32f30x_tim.c ****   
3375:../Libraries/STM32F30x_StdPeriph_Driver/src/stm32f30x_tim.c ****   /* Get the TIMx SMCR register value */
3376:../Libraries/STM32F30x_StdPeriph_Driver/src/stm32f30x_tim.c ****   tmpsmcr = TIMx->SMCR;
 5195              		.loc 1 3376 0
 5196 1af4 039B     		ldr	r3, [sp, #12]
 5197 1af6 9B68     		ldr	r3, [r3, #8]
 5198 1af8 ADF81630 		strh	r3, [sp, #22]	@ movhi
3377:../Libraries/STM32F30x_StdPeriph_Driver/src/stm32f30x_tim.c **** 
3378:../Libraries/STM32F30x_StdPeriph_Driver/src/stm32f30x_tim.c ****   /* Reset the SMS Bits */
3379:../Libraries/STM32F30x_StdPeriph_Driver/src/stm32f30x_tim.c ****   tmpsmcr &= (uint16_t)~TIM_SMCR_SMS;
 5199              		.loc 1 3379 0
 5200 1afc BDF81630 		ldrh	r3, [sp, #22]	@ movhi
 5201 1b00 23F00703 		bic	r3, r3, #7
 5202 1b04 ADF81630 		strh	r3, [sp, #22]	@ movhi
3380:../Libraries/STM32F30x_StdPeriph_Driver/src/stm32f30x_tim.c **** 
3381:../Libraries/STM32F30x_StdPeriph_Driver/src/stm32f30x_tim.c ****   /* Select the External clock mode1 */
3382:../Libraries/STM32F30x_StdPeriph_Driver/src/stm32f30x_tim.c ****   tmpsmcr |= TIM_SlaveMode_External1;
 5203              		.loc 1 3382 0
 5204 1b08 BDF81630 		ldrh	r3, [sp, #22]	@ movhi
 5205 1b0c 43F00703 		orr	r3, r3, #7
 5206 1b10 ADF81630 		strh	r3, [sp, #22]	@ movhi
3383:../Libraries/STM32F30x_StdPeriph_Driver/src/stm32f30x_tim.c **** 
3384:../Libraries/STM32F30x_StdPeriph_Driver/src/stm32f30x_tim.c ****   /* Select the Trigger selection : ETRF */
3385:../Libraries/STM32F30x_StdPeriph_Driver/src/stm32f30x_tim.c ****   tmpsmcr &= (uint16_t)~TIM_SMCR_TS;
 5207              		.loc 1 3385 0
 5208 1b14 BDF81630 		ldrh	r3, [sp, #22]	@ movhi
 5209 1b18 23F07003 		bic	r3, r3, #112
 5210 1b1c ADF81630 		strh	r3, [sp, #22]	@ movhi
3386:../Libraries/STM32F30x_StdPeriph_Driver/src/stm32f30x_tim.c ****   tmpsmcr |= TIM_TS_ETRF;
 5211              		.loc 1 3386 0
 5212 1b20 BDF81630 		ldrh	r3, [sp, #22]	@ movhi
 5213 1b24 43F07003 		orr	r3, r3, #112
 5214 1b28 ADF81630 		strh	r3, [sp, #22]	@ movhi
3387:../Libraries/STM32F30x_StdPeriph_Driver/src/stm32f30x_tim.c **** 
3388:../Libraries/STM32F30x_StdPeriph_Driver/src/stm32f30x_tim.c ****   /* Write to TIMx SMCR */
3389:../Libraries/STM32F30x_StdPeriph_Driver/src/stm32f30x_tim.c ****   TIMx->SMCR = tmpsmcr;
 5215              		.loc 1 3389 0
 5216 1b2c BDF81620 		ldrh	r2, [sp, #22]
 5217 1b30 039B     		ldr	r3, [sp, #12]
 5218 1b32 9A60     		str	r2, [r3, #8]
3390:../Libraries/STM32F30x_StdPeriph_Driver/src/stm32f30x_tim.c **** }
 5219              		.loc 1 3390 0
 5220 1b34 07B0     		add	sp, sp, #28
 5221 1b36 00BD     		pop	{pc}
 5222              		.cfi_endproc
 5223              	.LFE210:
 5225              		.align	2
 5226              		.global	TIM_ETRClockMode2Config
 5227              		.thumb
 5228              		.thumb_func
 5230              	TIM_ETRClockMode2Config:
 5231              	.LFB211:
3391:../Libraries/STM32F30x_StdPeriph_Driver/src/stm32f30x_tim.c **** 
3392:../Libraries/STM32F30x_StdPeriph_Driver/src/stm32f30x_tim.c **** /**
3393:../Libraries/STM32F30x_StdPeriph_Driver/src/stm32f30x_tim.c ****   * @brief  Configures the External clock Mode2
3394:../Libraries/STM32F30x_StdPeriph_Driver/src/stm32f30x_tim.c ****   * @param  TIMx: where x can be  1, 2, 3, 4 or 8 to select the TIM peripheral.
3395:../Libraries/STM32F30x_StdPeriph_Driver/src/stm32f30x_tim.c ****   * @param  TIM_ExtTRGPrescaler: The external Trigger Prescaler.
3396:../Libraries/STM32F30x_StdPeriph_Driver/src/stm32f30x_tim.c ****   *          This parameter can be one of the following values:
3397:../Libraries/STM32F30x_StdPeriph_Driver/src/stm32f30x_tim.c ****   *            @arg TIM_ExtTRGPSC_OFF: ETRP Prescaler OFF.
3398:../Libraries/STM32F30x_StdPeriph_Driver/src/stm32f30x_tim.c ****   *            @arg TIM_ExtTRGPSC_DIV2: ETRP frequency divided by 2.
3399:../Libraries/STM32F30x_StdPeriph_Driver/src/stm32f30x_tim.c ****   *            @arg TIM_ExtTRGPSC_DIV4: ETRP frequency divided by 4.
3400:../Libraries/STM32F30x_StdPeriph_Driver/src/stm32f30x_tim.c ****   *            @arg TIM_ExtTRGPSC_DIV8: ETRP frequency divided by 8.
3401:../Libraries/STM32F30x_StdPeriph_Driver/src/stm32f30x_tim.c ****   * @param  TIM_ExtTRGPolarity: The external Trigger Polarity.
3402:../Libraries/STM32F30x_StdPeriph_Driver/src/stm32f30x_tim.c ****   *          This parameter can be one of the following values:
3403:../Libraries/STM32F30x_StdPeriph_Driver/src/stm32f30x_tim.c ****   *            @arg TIM_ExtTRGPolarity_Inverted: active low or falling edge active.
3404:../Libraries/STM32F30x_StdPeriph_Driver/src/stm32f30x_tim.c ****   *            @arg TIM_ExtTRGPolarity_NonInverted: active high or rising edge active.
3405:../Libraries/STM32F30x_StdPeriph_Driver/src/stm32f30x_tim.c ****   * @param  ExtTRGFilter: External Trigger Filter.
3406:../Libraries/STM32F30x_StdPeriph_Driver/src/stm32f30x_tim.c ****   *          This parameter must be a value between 0x00 and 0x0F
3407:../Libraries/STM32F30x_StdPeriph_Driver/src/stm32f30x_tim.c ****   * @retval None
3408:../Libraries/STM32F30x_StdPeriph_Driver/src/stm32f30x_tim.c ****   */
3409:../Libraries/STM32F30x_StdPeriph_Driver/src/stm32f30x_tim.c **** void TIM_ETRClockMode2Config(TIM_TypeDef* TIMx, uint16_t TIM_ExtTRGPrescaler, 
3410:../Libraries/STM32F30x_StdPeriph_Driver/src/stm32f30x_tim.c ****                              uint16_t TIM_ExtTRGPolarity, uint16_t ExtTRGFilter)
3411:../Libraries/STM32F30x_StdPeriph_Driver/src/stm32f30x_tim.c **** {
 5232              		.loc 1 3411 0
 5233              		.cfi_startproc
 5234              		@ args = 0, pretend = 0, frame = 16
 5235              		@ frame_needed = 0, uses_anonymous_args = 0
 5236 1b38 00B5     		push	{lr}
 5237              	.LCFI106:
 5238              		.cfi_def_cfa_offset 4
 5239              		.cfi_offset 14, -4
 5240 1b3a 85B0     		sub	sp, sp, #20
 5241              	.LCFI107:
 5242              		.cfi_def_cfa_offset 24
 5243 1b3c 0390     		str	r0, [sp, #12]
 5244 1b3e ADF80A10 		strh	r1, [sp, #10]	@ movhi
 5245 1b42 ADF80820 		strh	r2, [sp, #8]	@ movhi
 5246 1b46 ADF80630 		strh	r3, [sp, #6]	@ movhi
3412:../Libraries/STM32F30x_StdPeriph_Driver/src/stm32f30x_tim.c ****   /* Check the parameters */
3413:../Libraries/STM32F30x_StdPeriph_Driver/src/stm32f30x_tim.c ****   assert_param(IS_TIM_LIST3_PERIPH(TIMx));
3414:../Libraries/STM32F30x_StdPeriph_Driver/src/stm32f30x_tim.c ****   assert_param(IS_TIM_EXT_PRESCALER(TIM_ExtTRGPrescaler));
3415:../Libraries/STM32F30x_StdPeriph_Driver/src/stm32f30x_tim.c ****   assert_param(IS_TIM_EXT_POLARITY(TIM_ExtTRGPolarity));
3416:../Libraries/STM32F30x_StdPeriph_Driver/src/stm32f30x_tim.c ****   assert_param(IS_TIM_EXT_FILTER(ExtTRGFilter));
3417:../Libraries/STM32F30x_StdPeriph_Driver/src/stm32f30x_tim.c **** 
3418:../Libraries/STM32F30x_StdPeriph_Driver/src/stm32f30x_tim.c ****   /* Configure the ETR Clock source */
3419:../Libraries/STM32F30x_StdPeriph_Driver/src/stm32f30x_tim.c ****   TIM_ETRConfig(TIMx, TIM_ExtTRGPrescaler, TIM_ExtTRGPolarity, ExtTRGFilter);
 5247              		.loc 1 3419 0
 5248 1b4a BDF80A10 		ldrh	r1, [sp, #10]
 5249 1b4e BDF80820 		ldrh	r2, [sp, #8]
 5250 1b52 BDF80630 		ldrh	r3, [sp, #6]
 5251 1b56 0398     		ldr	r0, [sp, #12]
 5252 1b58 FFF7FEFF 		bl	TIM_ETRConfig
3420:../Libraries/STM32F30x_StdPeriph_Driver/src/stm32f30x_tim.c **** 
3421:../Libraries/STM32F30x_StdPeriph_Driver/src/stm32f30x_tim.c ****   /* Enable the External clock mode2 */
3422:../Libraries/STM32F30x_StdPeriph_Driver/src/stm32f30x_tim.c ****   TIMx->SMCR |= TIM_SMCR_ECE;
 5253              		.loc 1 3422 0
 5254 1b5c 039B     		ldr	r3, [sp, #12]
 5255 1b5e 9B68     		ldr	r3, [r3, #8]
 5256 1b60 43F48042 		orr	r2, r3, #16384
 5257 1b64 039B     		ldr	r3, [sp, #12]
 5258 1b66 9A60     		str	r2, [r3, #8]
3423:../Libraries/STM32F30x_StdPeriph_Driver/src/stm32f30x_tim.c **** }
 5259              		.loc 1 3423 0
 5260 1b68 05B0     		add	sp, sp, #20
 5261 1b6a 00BD     		pop	{pc}
 5262              		.cfi_endproc
 5263              	.LFE211:
 5265              		.align	2
 5266              		.global	TIM_SelectInputTrigger
 5267              		.thumb
 5268              		.thumb_func
 5270              	TIM_SelectInputTrigger:
 5271              	.LFB212:
3424:../Libraries/STM32F30x_StdPeriph_Driver/src/stm32f30x_tim.c **** /**
3425:../Libraries/STM32F30x_StdPeriph_Driver/src/stm32f30x_tim.c ****   * @}
3426:../Libraries/STM32F30x_StdPeriph_Driver/src/stm32f30x_tim.c ****   */
3427:../Libraries/STM32F30x_StdPeriph_Driver/src/stm32f30x_tim.c **** 
3428:../Libraries/STM32F30x_StdPeriph_Driver/src/stm32f30x_tim.c **** /** @defgroup TIM_Group7 Synchronization management functions
3429:../Libraries/STM32F30x_StdPeriph_Driver/src/stm32f30x_tim.c ****  *  @brief    Synchronization management functions 
3430:../Libraries/STM32F30x_StdPeriph_Driver/src/stm32f30x_tim.c ****  *
3431:../Libraries/STM32F30x_StdPeriph_Driver/src/stm32f30x_tim.c **** @verbatim   
3432:../Libraries/STM32F30x_StdPeriph_Driver/src/stm32f30x_tim.c ****  ===============================================================================
3433:../Libraries/STM32F30x_StdPeriph_Driver/src/stm32f30x_tim.c ****                  ##### Synchronization management functions #####
3434:../Libraries/STM32F30x_StdPeriph_Driver/src/stm32f30x_tim.c ****  ===============================================================================  
3435:../Libraries/STM32F30x_StdPeriph_Driver/src/stm32f30x_tim.c ****                          
3436:../Libraries/STM32F30x_StdPeriph_Driver/src/stm32f30x_tim.c ****   *** TIM Driver: how to use it in synchronization Mode ***
3437:../Libraries/STM32F30x_StdPeriph_Driver/src/stm32f30x_tim.c ****   ========================================================= 
3438:../Libraries/STM32F30x_StdPeriph_Driver/src/stm32f30x_tim.c ****   [..] Case of two/several Timers
3439:../Libraries/STM32F30x_StdPeriph_Driver/src/stm32f30x_tim.c ****        
3440:../Libraries/STM32F30x_StdPeriph_Driver/src/stm32f30x_tim.c ****        (#) Configure the Master Timers using the following functions:
3441:../Libraries/STM32F30x_StdPeriph_Driver/src/stm32f30x_tim.c ****            (++) void TIM_SelectOutputTrigger(TIM_TypeDef* TIMx, uint16_t TIM_TRGOSource); 
3442:../Libraries/STM32F30x_StdPeriph_Driver/src/stm32f30x_tim.c ****            (++) void TIM_SelectMasterSlaveMode(TIM_TypeDef* TIMx, uint16_t TIM_MasterSlaveMode);  
3443:../Libraries/STM32F30x_StdPeriph_Driver/src/stm32f30x_tim.c ****        (#) Configure the Slave Timers using the following functions: 
3444:../Libraries/STM32F30x_StdPeriph_Driver/src/stm32f30x_tim.c ****            (++) void TIM_SelectInputTrigger(TIM_TypeDef* TIMx, uint16_t TIM_InputTriggerSource);  
3445:../Libraries/STM32F30x_StdPeriph_Driver/src/stm32f30x_tim.c ****            (++) void TIM_SelectSlaveMode(TIM_TypeDef* TIMx, uint16_t TIM_SlaveMode); 
3446:../Libraries/STM32F30x_StdPeriph_Driver/src/stm32f30x_tim.c ****           
3447:../Libraries/STM32F30x_StdPeriph_Driver/src/stm32f30x_tim.c ****   [..] Case of Timers and external trigger(ETR pin)
3448:../Libraries/STM32F30x_StdPeriph_Driver/src/stm32f30x_tim.c ****            
3449:../Libraries/STM32F30x_StdPeriph_Driver/src/stm32f30x_tim.c ****        (#) Configure the External trigger using this function:
3450:../Libraries/STM32F30x_StdPeriph_Driver/src/stm32f30x_tim.c ****            (++) void TIM_ETRConfig(TIM_TypeDef* TIMx, uint16_t TIM_ExtTRGPrescaler, uint16_t TIM_Ex
3451:../Libraries/STM32F30x_StdPeriph_Driver/src/stm32f30x_tim.c ****                                    uint16_t ExtTRGFilter);
3452:../Libraries/STM32F30x_StdPeriph_Driver/src/stm32f30x_tim.c ****        (#) Configure the Slave Timers using the following functions: 
3453:../Libraries/STM32F30x_StdPeriph_Driver/src/stm32f30x_tim.c ****            (++) void TIM_SelectInputTrigger(TIM_TypeDef* TIMx, uint16_t TIM_InputTriggerSource);  
3454:../Libraries/STM32F30x_StdPeriph_Driver/src/stm32f30x_tim.c ****            (++) void TIM_SelectSlaveMode(TIM_TypeDef* TIMx, uint16_t TIM_SlaveMode); 
3455:../Libraries/STM32F30x_StdPeriph_Driver/src/stm32f30x_tim.c **** 
3456:../Libraries/STM32F30x_StdPeriph_Driver/src/stm32f30x_tim.c **** @endverbatim
3457:../Libraries/STM32F30x_StdPeriph_Driver/src/stm32f30x_tim.c ****   * @{
3458:../Libraries/STM32F30x_StdPeriph_Driver/src/stm32f30x_tim.c ****   */
3459:../Libraries/STM32F30x_StdPeriph_Driver/src/stm32f30x_tim.c **** 
3460:../Libraries/STM32F30x_StdPeriph_Driver/src/stm32f30x_tim.c **** /**
3461:../Libraries/STM32F30x_StdPeriph_Driver/src/stm32f30x_tim.c ****   * @brief  Selects the Input Trigger source
3462:../Libraries/STM32F30x_StdPeriph_Driver/src/stm32f30x_tim.c ****   * @param  TIMx: where x can be  1, 2, 3, 4, 8 or 15  
3463:../Libraries/STM32F30x_StdPeriph_Driver/src/stm32f30x_tim.c ****   *         to select the TIM peripheral.
3464:../Libraries/STM32F30x_StdPeriph_Driver/src/stm32f30x_tim.c ****   * @param  TIM_InputTriggerSource: The Input Trigger source.
3465:../Libraries/STM32F30x_StdPeriph_Driver/src/stm32f30x_tim.c ****   *          This parameter can be one of the following values:
3466:../Libraries/STM32F30x_StdPeriph_Driver/src/stm32f30x_tim.c ****   *            @arg TIM_TS_ITR0: Internal Trigger 0
3467:../Libraries/STM32F30x_StdPeriph_Driver/src/stm32f30x_tim.c ****   *            @arg TIM_TS_ITR1: Internal Trigger 1
3468:../Libraries/STM32F30x_StdPeriph_Driver/src/stm32f30x_tim.c ****   *            @arg TIM_TS_ITR2: Internal Trigger 2
3469:../Libraries/STM32F30x_StdPeriph_Driver/src/stm32f30x_tim.c ****   *            @arg TIM_TS_ITR3: Internal Trigger 3
3470:../Libraries/STM32F30x_StdPeriph_Driver/src/stm32f30x_tim.c ****   *            @arg TIM_TS_TI1F_ED: TI1 Edge Detector
3471:../Libraries/STM32F30x_StdPeriph_Driver/src/stm32f30x_tim.c ****   *            @arg TIM_TS_TI1FP1: Filtered Timer Input 1
3472:../Libraries/STM32F30x_StdPeriph_Driver/src/stm32f30x_tim.c ****   *            @arg TIM_TS_TI2FP2: Filtered Timer Input 2
3473:../Libraries/STM32F30x_StdPeriph_Driver/src/stm32f30x_tim.c ****   *            @arg TIM_TS_ETRF: External Trigger input
3474:../Libraries/STM32F30x_StdPeriph_Driver/src/stm32f30x_tim.c ****   * @retval None
3475:../Libraries/STM32F30x_StdPeriph_Driver/src/stm32f30x_tim.c ****   */
3476:../Libraries/STM32F30x_StdPeriph_Driver/src/stm32f30x_tim.c **** void TIM_SelectInputTrigger(TIM_TypeDef* TIMx, uint16_t TIM_InputTriggerSource)
3477:../Libraries/STM32F30x_StdPeriph_Driver/src/stm32f30x_tim.c **** {
 5272              		.loc 1 3477 0
 5273              		.cfi_startproc
 5274              		@ args = 0, pretend = 0, frame = 16
 5275              		@ frame_needed = 0, uses_anonymous_args = 0
 5276              		@ link register save eliminated.
 5277 1b6c 84B0     		sub	sp, sp, #16
 5278              	.LCFI108:
 5279              		.cfi_def_cfa_offset 16
 5280 1b6e 0190     		str	r0, [sp, #4]
 5281 1b70 0B46     		mov	r3, r1
 5282 1b72 ADF80230 		strh	r3, [sp, #2]	@ movhi
3478:../Libraries/STM32F30x_StdPeriph_Driver/src/stm32f30x_tim.c ****   uint16_t tmpsmcr = 0;
 5283              		.loc 1 3478 0
 5284 1b76 4FF00003 		mov	r3, #0
 5285 1b7a ADF80E30 		strh	r3, [sp, #14]	@ movhi
3479:../Libraries/STM32F30x_StdPeriph_Driver/src/stm32f30x_tim.c **** 
3480:../Libraries/STM32F30x_StdPeriph_Driver/src/stm32f30x_tim.c ****   /* Check the parameters */
3481:../Libraries/STM32F30x_StdPeriph_Driver/src/stm32f30x_tim.c ****   assert_param(IS_TIM_LIST2_PERIPH(TIMx)); 
3482:../Libraries/STM32F30x_StdPeriph_Driver/src/stm32f30x_tim.c ****   assert_param(IS_TIM_TRIGGER_SELECTION(TIM_InputTriggerSource));
3483:../Libraries/STM32F30x_StdPeriph_Driver/src/stm32f30x_tim.c **** 
3484:../Libraries/STM32F30x_StdPeriph_Driver/src/stm32f30x_tim.c ****   /* Get the TIMx SMCR register value */
3485:../Libraries/STM32F30x_StdPeriph_Driver/src/stm32f30x_tim.c ****   tmpsmcr = TIMx->SMCR;
 5286              		.loc 1 3485 0
 5287 1b7e 019B     		ldr	r3, [sp, #4]
 5288 1b80 9B68     		ldr	r3, [r3, #8]
 5289 1b82 ADF80E30 		strh	r3, [sp, #14]	@ movhi
3486:../Libraries/STM32F30x_StdPeriph_Driver/src/stm32f30x_tim.c **** 
3487:../Libraries/STM32F30x_StdPeriph_Driver/src/stm32f30x_tim.c ****   /* Reset the TS Bits */
3488:../Libraries/STM32F30x_StdPeriph_Driver/src/stm32f30x_tim.c ****   tmpsmcr &= (uint16_t)~TIM_SMCR_TS;
 5290              		.loc 1 3488 0
 5291 1b86 BDF80E30 		ldrh	r3, [sp, #14]	@ movhi
 5292 1b8a 23F07003 		bic	r3, r3, #112
 5293 1b8e ADF80E30 		strh	r3, [sp, #14]	@ movhi
3489:../Libraries/STM32F30x_StdPeriph_Driver/src/stm32f30x_tim.c **** 
3490:../Libraries/STM32F30x_StdPeriph_Driver/src/stm32f30x_tim.c ****   /* Set the Input Trigger source */
3491:../Libraries/STM32F30x_StdPeriph_Driver/src/stm32f30x_tim.c ****   tmpsmcr |= TIM_InputTriggerSource;
 5294              		.loc 1 3491 0
 5295 1b92 BDF80E20 		ldrh	r2, [sp, #14]	@ movhi
 5296 1b96 BDF80230 		ldrh	r3, [sp, #2]	@ movhi
 5297 1b9a 1343     		orrs	r3, r3, r2
 5298 1b9c ADF80E30 		strh	r3, [sp, #14]	@ movhi
3492:../Libraries/STM32F30x_StdPeriph_Driver/src/stm32f30x_tim.c **** 
3493:../Libraries/STM32F30x_StdPeriph_Driver/src/stm32f30x_tim.c ****   /* Write to TIMx SMCR */
3494:../Libraries/STM32F30x_StdPeriph_Driver/src/stm32f30x_tim.c ****   TIMx->SMCR = tmpsmcr;
 5299              		.loc 1 3494 0
 5300 1ba0 BDF80E20 		ldrh	r2, [sp, #14]
 5301 1ba4 019B     		ldr	r3, [sp, #4]
 5302 1ba6 9A60     		str	r2, [r3, #8]
3495:../Libraries/STM32F30x_StdPeriph_Driver/src/stm32f30x_tim.c **** }
 5303              		.loc 1 3495 0
 5304 1ba8 04B0     		add	sp, sp, #16
 5305 1baa 7047     		bx	lr
 5306              		.cfi_endproc
 5307              	.LFE212:
 5309              		.align	2
 5310              		.global	TIM_SelectOutputTrigger
 5311              		.thumb
 5312              		.thumb_func
 5314              	TIM_SelectOutputTrigger:
 5315              	.LFB213:
3496:../Libraries/STM32F30x_StdPeriph_Driver/src/stm32f30x_tim.c **** 
3497:../Libraries/STM32F30x_StdPeriph_Driver/src/stm32f30x_tim.c **** /**
3498:../Libraries/STM32F30x_StdPeriph_Driver/src/stm32f30x_tim.c ****   * @brief  Selects the TIMx Trigger Output Mode.
3499:../Libraries/STM32F30x_StdPeriph_Driver/src/stm32f30x_tim.c ****   * @param  TIMx: where x can be 1, 2, 3, 4, 5, 6, 7, 8 or 15 to select the TIM peripheral.
3500:../Libraries/STM32F30x_StdPeriph_Driver/src/stm32f30x_tim.c ****   *     
3501:../Libraries/STM32F30x_StdPeriph_Driver/src/stm32f30x_tim.c ****   * @param  TIM_TRGOSource: specifies the Trigger Output source.
3502:../Libraries/STM32F30x_StdPeriph_Driver/src/stm32f30x_tim.c ****   *   This parameter can be one of the following values:
3503:../Libraries/STM32F30x_StdPeriph_Driver/src/stm32f30x_tim.c ****   *
3504:../Libraries/STM32F30x_StdPeriph_Driver/src/stm32f30x_tim.c ****   *  - For all TIMx
3505:../Libraries/STM32F30x_StdPeriph_Driver/src/stm32f30x_tim.c ****   *            @arg TIM_TRGOSource_Reset:  The UG bit in the TIM_EGR register is used as the trigge
3506:../Libraries/STM32F30x_StdPeriph_Driver/src/stm32f30x_tim.c ****   *            @arg TIM_TRGOSource_Enable: The Counter Enable CEN is used as the trigger output(TRG
3507:../Libraries/STM32F30x_StdPeriph_Driver/src/stm32f30x_tim.c ****   *            @arg TIM_TRGOSource_Update: The update event is selected as the trigger output(TRGO)
3508:../Libraries/STM32F30x_StdPeriph_Driver/src/stm32f30x_tim.c ****   *
3509:../Libraries/STM32F30x_StdPeriph_Driver/src/stm32f30x_tim.c ****   *  - For all TIMx except TIM6 and TIM7
3510:../Libraries/STM32F30x_StdPeriph_Driver/src/stm32f30x_tim.c ****   *            @arg TIM_TRGOSource_OC1: The trigger output sends a positive pulse when the CC1IF fl
3511:../Libraries/STM32F30x_StdPeriph_Driver/src/stm32f30x_tim.c ****   *                                     is to be set, as soon as a capture or compare match occurs(
3512:../Libraries/STM32F30x_StdPeriph_Driver/src/stm32f30x_tim.c ****   *            @arg TIM_TRGOSource_OC1Ref: OC1REF signal is used as the trigger output(TRGO)
3513:../Libraries/STM32F30x_StdPeriph_Driver/src/stm32f30x_tim.c ****   *            @arg TIM_TRGOSource_OC2Ref: OC2REF signal is used as the trigger output(TRGO)
3514:../Libraries/STM32F30x_StdPeriph_Driver/src/stm32f30x_tim.c ****   *            @arg TIM_TRGOSource_OC3Ref: OC3REF signal is used as the trigger output(TRGO)
3515:../Libraries/STM32F30x_StdPeriph_Driver/src/stm32f30x_tim.c ****   *            @arg TIM_TRGOSource_OC4Ref: OC4REF signal is used as the trigger output(TRGO)
3516:../Libraries/STM32F30x_StdPeriph_Driver/src/stm32f30x_tim.c ****   *
3517:../Libraries/STM32F30x_StdPeriph_Driver/src/stm32f30x_tim.c ****   * @retval None
3518:../Libraries/STM32F30x_StdPeriph_Driver/src/stm32f30x_tim.c ****   */
3519:../Libraries/STM32F30x_StdPeriph_Driver/src/stm32f30x_tim.c **** void TIM_SelectOutputTrigger(TIM_TypeDef* TIMx, uint16_t TIM_TRGOSource)
3520:../Libraries/STM32F30x_StdPeriph_Driver/src/stm32f30x_tim.c **** {
 5316              		.loc 1 3520 0
 5317              		.cfi_startproc
 5318              		@ args = 0, pretend = 0, frame = 8
 5319              		@ frame_needed = 0, uses_anonymous_args = 0
 5320              		@ link register save eliminated.
 5321 1bac 82B0     		sub	sp, sp, #8
 5322              	.LCFI109:
 5323              		.cfi_def_cfa_offset 8
 5324 1bae 0190     		str	r0, [sp, #4]
 5325 1bb0 0B46     		mov	r3, r1
 5326 1bb2 ADF80230 		strh	r3, [sp, #2]	@ movhi
3521:../Libraries/STM32F30x_StdPeriph_Driver/src/stm32f30x_tim.c ****   /* Check the parameters */
3522:../Libraries/STM32F30x_StdPeriph_Driver/src/stm32f30x_tim.c ****   assert_param(IS_TIM_LIST7_PERIPH(TIMx));
3523:../Libraries/STM32F30x_StdPeriph_Driver/src/stm32f30x_tim.c ****   assert_param(IS_TIM_TRGO_SOURCE(TIM_TRGOSource));
3524:../Libraries/STM32F30x_StdPeriph_Driver/src/stm32f30x_tim.c **** 
3525:../Libraries/STM32F30x_StdPeriph_Driver/src/stm32f30x_tim.c ****   /* Reset the MMS Bits */
3526:../Libraries/STM32F30x_StdPeriph_Driver/src/stm32f30x_tim.c ****   TIMx->CR2 &= (uint16_t)~TIM_CR2_MMS;
 5327              		.loc 1 3526 0
 5328 1bb6 019B     		ldr	r3, [sp, #4]
 5329 1bb8 5A68     		ldr	r2, [r3, #4]
 5330 1bba 4FF68F73 		movw	r3, #65423
 5331 1bbe 1340     		ands	r3, r3, r2
 5332 1bc0 019A     		ldr	r2, [sp, #4]
 5333 1bc2 5360     		str	r3, [r2, #4]
3527:../Libraries/STM32F30x_StdPeriph_Driver/src/stm32f30x_tim.c ****   /* Select the TRGO source */
3528:../Libraries/STM32F30x_StdPeriph_Driver/src/stm32f30x_tim.c ****   TIMx->CR2 |=  TIM_TRGOSource;
 5334              		.loc 1 3528 0
 5335 1bc4 019B     		ldr	r3, [sp, #4]
 5336 1bc6 5A68     		ldr	r2, [r3, #4]
 5337 1bc8 BDF80230 		ldrh	r3, [sp, #2]
 5338 1bcc 1A43     		orrs	r2, r2, r3
 5339 1bce 019B     		ldr	r3, [sp, #4]
 5340 1bd0 5A60     		str	r2, [r3, #4]
3529:../Libraries/STM32F30x_StdPeriph_Driver/src/stm32f30x_tim.c **** }
 5341              		.loc 1 3529 0
 5342 1bd2 02B0     		add	sp, sp, #8
 5343 1bd4 7047     		bx	lr
 5344              		.cfi_endproc
 5345              	.LFE213:
 5347 1bd6 00BF     		.align	2
 5348              		.global	TIM_SelectOutputTrigger2
 5349              		.thumb
 5350              		.thumb_func
 5352              	TIM_SelectOutputTrigger2:
 5353              	.LFB214:
3530:../Libraries/STM32F30x_StdPeriph_Driver/src/stm32f30x_tim.c **** 
3531:../Libraries/STM32F30x_StdPeriph_Driver/src/stm32f30x_tim.c **** /**
3532:../Libraries/STM32F30x_StdPeriph_Driver/src/stm32f30x_tim.c ****   * @brief  Selects the TIMx Trigger Output Mode2 (TRGO2).
3533:../Libraries/STM32F30x_StdPeriph_Driver/src/stm32f30x_tim.c ****   * @param  TIMx: where x can be 1 or 8 to select the TIM peripheral.
3534:../Libraries/STM32F30x_StdPeriph_Driver/src/stm32f30x_tim.c ****   *     
3535:../Libraries/STM32F30x_StdPeriph_Driver/src/stm32f30x_tim.c ****   * @param  TIM_TRGO2Source: specifies the Trigger Output source.
3536:../Libraries/STM32F30x_StdPeriph_Driver/src/stm32f30x_tim.c ****   *   This parameter can be one of the following values:
3537:../Libraries/STM32F30x_StdPeriph_Driver/src/stm32f30x_tim.c ****   *
3538:../Libraries/STM32F30x_StdPeriph_Driver/src/stm32f30x_tim.c ****   *  - For all TIMx
3539:../Libraries/STM32F30x_StdPeriph_Driver/src/stm32f30x_tim.c ****   *            @arg TIM_TRGOSource_Reset:  The UG bit in the TIM_EGR register is used as the trigge
3540:../Libraries/STM32F30x_StdPeriph_Driver/src/stm32f30x_tim.c ****   *            @arg TIM_TRGOSource_Enable: The Counter Enable CEN is used as the trigger output(TRG
3541:../Libraries/STM32F30x_StdPeriph_Driver/src/stm32f30x_tim.c ****   *            @arg TIM_TRGOSource_Update: The update event is selected as the trigger output(TRGO2
3542:../Libraries/STM32F30x_StdPeriph_Driver/src/stm32f30x_tim.c ****   *            @arg TIM_TRGOSource_OC1: The trigger output sends a positive pulse when the CC1IF fl
3543:../Libraries/STM32F30x_StdPeriph_Driver/src/stm32f30x_tim.c ****   *                                     is to be set, as soon as a capture or compare match occurs(
3544:../Libraries/STM32F30x_StdPeriph_Driver/src/stm32f30x_tim.c ****   *            @arg TIM_TRGOSource_OC1Ref: OC1REF signal is used as the trigger output(TRGO2)
3545:../Libraries/STM32F30x_StdPeriph_Driver/src/stm32f30x_tim.c ****   *            @arg TIM_TRGOSource_OC2Ref: OC2REF signal is used as the trigger output(TRGO2)
3546:../Libraries/STM32F30x_StdPeriph_Driver/src/stm32f30x_tim.c ****   *            @arg TIM_TRGOSource_OC3Ref: OC3REF signal is used as the trigger output(TRGO2)
3547:../Libraries/STM32F30x_StdPeriph_Driver/src/stm32f30x_tim.c ****   *            @arg TIM_TRGOSource_OC4Ref: OC4REF signal is used as the trigger output(TRGO2)
3548:../Libraries/STM32F30x_StdPeriph_Driver/src/stm32f30x_tim.c ****   *            @arg TIM_TRGO2Source_OC4Ref_RisingFalling: OC4Ref Rising and Falling are used as the
3549:../Libraries/STM32F30x_StdPeriph_Driver/src/stm32f30x_tim.c ****   *            @arg TIM_TRGO2Source_OC6Ref_RisingFalling: OC6Ref Rising and Falling are used as the
3550:../Libraries/STM32F30x_StdPeriph_Driver/src/stm32f30x_tim.c ****   *            @arg TIM_TRGO2Source_OC4RefRising_OC6RefRising: OC4Ref Rising and OC6Ref Rising  are
3551:../Libraries/STM32F30x_StdPeriph_Driver/src/stm32f30x_tim.c ****   *            @arg TIM_TRGO2Source_OC4RefRising_OC6RefFalling: OC4Ref Rising and OC6Ref Falling ar
3552:../Libraries/STM32F30x_StdPeriph_Driver/src/stm32f30x_tim.c ****   *            @arg TIM_TRGO2Source_OC5RefRising_OC6RefRising: OC5Ref Rising and OC6Ref Rising are 
3553:../Libraries/STM32F30x_StdPeriph_Driver/src/stm32f30x_tim.c ****   *            @arg TIM_TRGO2Source_OC5RefRising_OC6RefFalling: OC5Ref Rising and OC6Ref Falling ar
3554:../Libraries/STM32F30x_StdPeriph_Driver/src/stm32f30x_tim.c ****   *
3555:../Libraries/STM32F30x_StdPeriph_Driver/src/stm32f30x_tim.c ****   * @retval None
3556:../Libraries/STM32F30x_StdPeriph_Driver/src/stm32f30x_tim.c ****   */
3557:../Libraries/STM32F30x_StdPeriph_Driver/src/stm32f30x_tim.c **** void TIM_SelectOutputTrigger2(TIM_TypeDef* TIMx, uint32_t TIM_TRGO2Source)
3558:../Libraries/STM32F30x_StdPeriph_Driver/src/stm32f30x_tim.c **** {
 5354              		.loc 1 3558 0
 5355              		.cfi_startproc
 5356              		@ args = 0, pretend = 0, frame = 8
 5357              		@ frame_needed = 0, uses_anonymous_args = 0
 5358              		@ link register save eliminated.
 5359 1bd8 82B0     		sub	sp, sp, #8
 5360              	.LCFI110:
 5361              		.cfi_def_cfa_offset 8
 5362 1bda 0190     		str	r0, [sp, #4]
 5363 1bdc 0091     		str	r1, [sp, #0]
3559:../Libraries/STM32F30x_StdPeriph_Driver/src/stm32f30x_tim.c ****   /* Check the parameters */
3560:../Libraries/STM32F30x_StdPeriph_Driver/src/stm32f30x_tim.c ****   assert_param(IS_TIM_LIST4_PERIPH(TIMx));
3561:../Libraries/STM32F30x_StdPeriph_Driver/src/stm32f30x_tim.c ****   assert_param(IS_TIM_TRGO2_SOURCE(TIM_TRGO2Source));
3562:../Libraries/STM32F30x_StdPeriph_Driver/src/stm32f30x_tim.c **** 
3563:../Libraries/STM32F30x_StdPeriph_Driver/src/stm32f30x_tim.c ****   /* Reset the MMS Bits */
3564:../Libraries/STM32F30x_StdPeriph_Driver/src/stm32f30x_tim.c ****   TIMx->CR2 &= (uint32_t)~TIM_CR2_MMS2;
 5364              		.loc 1 3564 0
 5365 1bde 019B     		ldr	r3, [sp, #4]
 5366 1be0 5B68     		ldr	r3, [r3, #4]
 5367 1be2 23F47002 		bic	r2, r3, #15728640
 5368 1be6 019B     		ldr	r3, [sp, #4]
 5369 1be8 5A60     		str	r2, [r3, #4]
3565:../Libraries/STM32F30x_StdPeriph_Driver/src/stm32f30x_tim.c ****   /* Select the TRGO source */
3566:../Libraries/STM32F30x_StdPeriph_Driver/src/stm32f30x_tim.c ****   TIMx->CR2 |=  TIM_TRGO2Source;
 5370              		.loc 1 3566 0
 5371 1bea 019B     		ldr	r3, [sp, #4]
 5372 1bec 5A68     		ldr	r2, [r3, #4]
 5373 1bee 009B     		ldr	r3, [sp, #0]
 5374 1bf0 1A43     		orrs	r2, r2, r3
 5375 1bf2 019B     		ldr	r3, [sp, #4]
 5376 1bf4 5A60     		str	r2, [r3, #4]
3567:../Libraries/STM32F30x_StdPeriph_Driver/src/stm32f30x_tim.c **** }
 5377              		.loc 1 3567 0
 5378 1bf6 02B0     		add	sp, sp, #8
 5379 1bf8 7047     		bx	lr
 5380              		.cfi_endproc
 5381              	.LFE214:
 5383 1bfa 00BF     		.align	2
 5384              		.global	TIM_SelectSlaveMode
 5385              		.thumb
 5386              		.thumb_func
 5388              	TIM_SelectSlaveMode:
 5389              	.LFB215:
3568:../Libraries/STM32F30x_StdPeriph_Driver/src/stm32f30x_tim.c **** 
3569:../Libraries/STM32F30x_StdPeriph_Driver/src/stm32f30x_tim.c **** /**
3570:../Libraries/STM32F30x_StdPeriph_Driver/src/stm32f30x_tim.c ****   * @brief  Selects the TIMx Slave Mode.
3571:../Libraries/STM32F30x_StdPeriph_Driver/src/stm32f30x_tim.c ****   * @param  TIMx: where x can be 1, 2, 3, 4, 8 or 15 to select the TIM peripheral.
3572:../Libraries/STM32F30x_StdPeriph_Driver/src/stm32f30x_tim.c ****   * @param  TIM_SlaveMode: specifies the Timer Slave Mode.
3573:../Libraries/STM32F30x_StdPeriph_Driver/src/stm32f30x_tim.c ****   *          This parameter can be one of the following values:
3574:../Libraries/STM32F30x_StdPeriph_Driver/src/stm32f30x_tim.c ****   *            @arg TIM_SlaveMode_Reset: Rising edge of the selected trigger signal(TRGI) reinitial
3575:../Libraries/STM32F30x_StdPeriph_Driver/src/stm32f30x_tim.c ****   *                                      the counter and triggers an update of the registers
3576:../Libraries/STM32F30x_StdPeriph_Driver/src/stm32f30x_tim.c ****   *            @arg TIM_SlaveMode_Gated:     The counter clock is enabled when the trigger signal (
3577:../Libraries/STM32F30x_StdPeriph_Driver/src/stm32f30x_tim.c ****   *            @arg TIM_SlaveMode_Trigger:   The counter starts at a rising edge of the trigger TRG
3578:../Libraries/STM32F30x_StdPeriph_Driver/src/stm32f30x_tim.c ****   *            @arg TIM_SlaveMode_External1: Rising edges of the selected trigger (TRGI) clock the 
3579:../Libraries/STM32F30x_StdPeriph_Driver/src/stm32f30x_tim.c ****   *            @arg TIM_SlaveMode_Combined_ResetTrigger: Rising edge of the selected trigger input 
3580:../Libraries/STM32F30x_StdPeriph_Driver/src/stm32f30x_tim.c ****   *                                                      reinitializes the counter, generates an up
3581:../Libraries/STM32F30x_StdPeriph_Driver/src/stm32f30x_tim.c ****   *                                                      of the registers and starts the counter.
3582:../Libraries/STM32F30x_StdPeriph_Driver/src/stm32f30x_tim.c ****   * @retval None
3583:../Libraries/STM32F30x_StdPeriph_Driver/src/stm32f30x_tim.c ****   */
3584:../Libraries/STM32F30x_StdPeriph_Driver/src/stm32f30x_tim.c **** void TIM_SelectSlaveMode(TIM_TypeDef* TIMx, uint32_t TIM_SlaveMode)
3585:../Libraries/STM32F30x_StdPeriph_Driver/src/stm32f30x_tim.c **** {
 5390              		.loc 1 3585 0
 5391              		.cfi_startproc
 5392              		@ args = 0, pretend = 0, frame = 8
 5393              		@ frame_needed = 0, uses_anonymous_args = 0
 5394              		@ link register save eliminated.
 5395 1bfc 82B0     		sub	sp, sp, #8
 5396              	.LCFI111:
 5397              		.cfi_def_cfa_offset 8
 5398 1bfe 0190     		str	r0, [sp, #4]
 5399 1c00 0091     		str	r1, [sp, #0]
3586:../Libraries/STM32F30x_StdPeriph_Driver/src/stm32f30x_tim.c ****   /* Check the parameters */
3587:../Libraries/STM32F30x_StdPeriph_Driver/src/stm32f30x_tim.c ****   assert_param(IS_TIM_LIST2_PERIPH(TIMx));
3588:../Libraries/STM32F30x_StdPeriph_Driver/src/stm32f30x_tim.c ****   assert_param(IS_TIM_SLAVE_MODE(TIM_SlaveMode));
3589:../Libraries/STM32F30x_StdPeriph_Driver/src/stm32f30x_tim.c **** 
3590:../Libraries/STM32F30x_StdPeriph_Driver/src/stm32f30x_tim.c ****   /* Reset the SMS Bits */
3591:../Libraries/STM32F30x_StdPeriph_Driver/src/stm32f30x_tim.c ****   TIMx->SMCR &= (uint32_t)~TIM_SMCR_SMS;
 5400              		.loc 1 3591 0
 5401 1c02 019B     		ldr	r3, [sp, #4]
 5402 1c04 9B68     		ldr	r3, [r3, #8]
 5403 1c06 23F48033 		bic	r3, r3, #65536
 5404 1c0a 23F00703 		bic	r3, r3, #7
 5405 1c0e 019A     		ldr	r2, [sp, #4]
 5406 1c10 9360     		str	r3, [r2, #8]
3592:../Libraries/STM32F30x_StdPeriph_Driver/src/stm32f30x_tim.c **** 
3593:../Libraries/STM32F30x_StdPeriph_Driver/src/stm32f30x_tim.c ****   /* Select the Slave Mode */
3594:../Libraries/STM32F30x_StdPeriph_Driver/src/stm32f30x_tim.c ****   TIMx->SMCR |= (uint32_t)TIM_SlaveMode;
 5407              		.loc 1 3594 0
 5408 1c12 019B     		ldr	r3, [sp, #4]
 5409 1c14 9A68     		ldr	r2, [r3, #8]
 5410 1c16 009B     		ldr	r3, [sp, #0]
 5411 1c18 1A43     		orrs	r2, r2, r3
 5412 1c1a 019B     		ldr	r3, [sp, #4]
 5413 1c1c 9A60     		str	r2, [r3, #8]
3595:../Libraries/STM32F30x_StdPeriph_Driver/src/stm32f30x_tim.c **** }
 5414              		.loc 1 3595 0
 5415 1c1e 02B0     		add	sp, sp, #8
 5416 1c20 7047     		bx	lr
 5417              		.cfi_endproc
 5418              	.LFE215:
 5420 1c22 00BF     		.align	2
 5421              		.global	TIM_SelectMasterSlaveMode
 5422              		.thumb
 5423              		.thumb_func
 5425              	TIM_SelectMasterSlaveMode:
 5426              	.LFB216:
3596:../Libraries/STM32F30x_StdPeriph_Driver/src/stm32f30x_tim.c **** 
3597:../Libraries/STM32F30x_StdPeriph_Driver/src/stm32f30x_tim.c **** /**
3598:../Libraries/STM32F30x_StdPeriph_Driver/src/stm32f30x_tim.c ****   * @brief  Sets or Resets the TIMx Master/Slave Mode.
3599:../Libraries/STM32F30x_StdPeriph_Driver/src/stm32f30x_tim.c ****   * @param  TIMx: where x can be 1, 2, 3, 4, 8 or 15 to select the TIM peripheral.
3600:../Libraries/STM32F30x_StdPeriph_Driver/src/stm32f30x_tim.c ****   * @param  TIM_MasterSlaveMode: specifies the Timer Master Slave Mode.
3601:../Libraries/STM32F30x_StdPeriph_Driver/src/stm32f30x_tim.c ****   *          This parameter can be one of the following values:
3602:../Libraries/STM32F30x_StdPeriph_Driver/src/stm32f30x_tim.c ****   *            @arg TIM_MasterSlaveMode_Enable: synchronization between the current timer
3603:../Libraries/STM32F30x_StdPeriph_Driver/src/stm32f30x_tim.c ****   *                                             and its slaves (through TRGO)
3604:../Libraries/STM32F30x_StdPeriph_Driver/src/stm32f30x_tim.c ****   *            @arg TIM_MasterSlaveMode_Disable: No action
3605:../Libraries/STM32F30x_StdPeriph_Driver/src/stm32f30x_tim.c ****   * @retval None
3606:../Libraries/STM32F30x_StdPeriph_Driver/src/stm32f30x_tim.c ****   */
3607:../Libraries/STM32F30x_StdPeriph_Driver/src/stm32f30x_tim.c **** void TIM_SelectMasterSlaveMode(TIM_TypeDef* TIMx, uint16_t TIM_MasterSlaveMode)
3608:../Libraries/STM32F30x_StdPeriph_Driver/src/stm32f30x_tim.c **** {
 5427              		.loc 1 3608 0
 5428              		.cfi_startproc
 5429              		@ args = 0, pretend = 0, frame = 8
 5430              		@ frame_needed = 0, uses_anonymous_args = 0
 5431              		@ link register save eliminated.
 5432 1c24 82B0     		sub	sp, sp, #8
 5433              	.LCFI112:
 5434              		.cfi_def_cfa_offset 8
 5435 1c26 0190     		str	r0, [sp, #4]
 5436 1c28 0B46     		mov	r3, r1
 5437 1c2a ADF80230 		strh	r3, [sp, #2]	@ movhi
3609:../Libraries/STM32F30x_StdPeriph_Driver/src/stm32f30x_tim.c ****   /* Check the parameters */
3610:../Libraries/STM32F30x_StdPeriph_Driver/src/stm32f30x_tim.c ****   assert_param(IS_TIM_LIST2_PERIPH(TIMx));
3611:../Libraries/STM32F30x_StdPeriph_Driver/src/stm32f30x_tim.c ****   assert_param(IS_TIM_MSM_STATE(TIM_MasterSlaveMode));
3612:../Libraries/STM32F30x_StdPeriph_Driver/src/stm32f30x_tim.c **** 
3613:../Libraries/STM32F30x_StdPeriph_Driver/src/stm32f30x_tim.c ****   /* Reset the MSM Bit */
3614:../Libraries/STM32F30x_StdPeriph_Driver/src/stm32f30x_tim.c ****   TIMx->SMCR &= (uint16_t)~TIM_SMCR_MSM;
 5438              		.loc 1 3614 0
 5439 1c2e 019B     		ldr	r3, [sp, #4]
 5440 1c30 9A68     		ldr	r2, [r3, #8]
 5441 1c32 4FF67F73 		movw	r3, #65407
 5442 1c36 1340     		ands	r3, r3, r2
 5443 1c38 019A     		ldr	r2, [sp, #4]
 5444 1c3a 9360     		str	r3, [r2, #8]
3615:../Libraries/STM32F30x_StdPeriph_Driver/src/stm32f30x_tim.c ****   
3616:../Libraries/STM32F30x_StdPeriph_Driver/src/stm32f30x_tim.c ****   /* Set or Reset the MSM Bit */
3617:../Libraries/STM32F30x_StdPeriph_Driver/src/stm32f30x_tim.c ****   TIMx->SMCR |= TIM_MasterSlaveMode;
 5445              		.loc 1 3617 0
 5446 1c3c 019B     		ldr	r3, [sp, #4]
 5447 1c3e 9A68     		ldr	r2, [r3, #8]
 5448 1c40 BDF80230 		ldrh	r3, [sp, #2]
 5449 1c44 1A43     		orrs	r2, r2, r3
 5450 1c46 019B     		ldr	r3, [sp, #4]
 5451 1c48 9A60     		str	r2, [r3, #8]
3618:../Libraries/STM32F30x_StdPeriph_Driver/src/stm32f30x_tim.c **** }
 5452              		.loc 1 3618 0
 5453 1c4a 02B0     		add	sp, sp, #8
 5454 1c4c 7047     		bx	lr
 5455              		.cfi_endproc
 5456              	.LFE216:
 5458 1c4e 00BF     		.align	2
 5459              		.global	TIM_ETRConfig
 5460              		.thumb
 5461              		.thumb_func
 5463              	TIM_ETRConfig:
 5464              	.LFB217:
3619:../Libraries/STM32F30x_StdPeriph_Driver/src/stm32f30x_tim.c **** 
3620:../Libraries/STM32F30x_StdPeriph_Driver/src/stm32f30x_tim.c **** /**
3621:../Libraries/STM32F30x_StdPeriph_Driver/src/stm32f30x_tim.c ****   * @brief  Configures the TIMx External Trigger (ETR).
3622:../Libraries/STM32F30x_StdPeriph_Driver/src/stm32f30x_tim.c ****   * @param  TIMx: where x can be  1, 2, 3, 4 or 8 to select the TIM peripheral.
3623:../Libraries/STM32F30x_StdPeriph_Driver/src/stm32f30x_tim.c ****   * @param  TIM_ExtTRGPrescaler: The external Trigger Prescaler.
3624:../Libraries/STM32F30x_StdPeriph_Driver/src/stm32f30x_tim.c ****   *          This parameter can be one of the following values:
3625:../Libraries/STM32F30x_StdPeriph_Driver/src/stm32f30x_tim.c ****   *            @arg TIM_ExtTRGPSC_OFF: ETRP Prescaler OFF.
3626:../Libraries/STM32F30x_StdPeriph_Driver/src/stm32f30x_tim.c ****   *            @arg TIM_ExtTRGPSC_DIV2: ETRP frequency divided by 2.
3627:../Libraries/STM32F30x_StdPeriph_Driver/src/stm32f30x_tim.c ****   *            @arg TIM_ExtTRGPSC_DIV4: ETRP frequency divided by 4.
3628:../Libraries/STM32F30x_StdPeriph_Driver/src/stm32f30x_tim.c ****   *            @arg TIM_ExtTRGPSC_DIV8: ETRP frequency divided by 8.
3629:../Libraries/STM32F30x_StdPeriph_Driver/src/stm32f30x_tim.c ****   * @param  TIM_ExtTRGPolarity: The external Trigger Polarity.
3630:../Libraries/STM32F30x_StdPeriph_Driver/src/stm32f30x_tim.c ****   *          This parameter can be one of the following values:
3631:../Libraries/STM32F30x_StdPeriph_Driver/src/stm32f30x_tim.c ****   *            @arg TIM_ExtTRGPolarity_Inverted: active low or falling edge active.
3632:../Libraries/STM32F30x_StdPeriph_Driver/src/stm32f30x_tim.c ****   *            @arg TIM_ExtTRGPolarity_NonInverted: active high or rising edge active.
3633:../Libraries/STM32F30x_StdPeriph_Driver/src/stm32f30x_tim.c ****   * @param  ExtTRGFilter: External Trigger Filter.
3634:../Libraries/STM32F30x_StdPeriph_Driver/src/stm32f30x_tim.c ****   *          This parameter must be a value between 0x00 and 0x0F
3635:../Libraries/STM32F30x_StdPeriph_Driver/src/stm32f30x_tim.c ****   * @retval None
3636:../Libraries/STM32F30x_StdPeriph_Driver/src/stm32f30x_tim.c ****   */
3637:../Libraries/STM32F30x_StdPeriph_Driver/src/stm32f30x_tim.c **** void TIM_ETRConfig(TIM_TypeDef* TIMx, uint16_t TIM_ExtTRGPrescaler,
3638:../Libraries/STM32F30x_StdPeriph_Driver/src/stm32f30x_tim.c ****                    uint16_t TIM_ExtTRGPolarity, uint16_t ExtTRGFilter)
3639:../Libraries/STM32F30x_StdPeriph_Driver/src/stm32f30x_tim.c **** {
 5465              		.loc 1 3639 0
 5466              		.cfi_startproc
 5467              		@ args = 0, pretend = 0, frame = 24
 5468              		@ frame_needed = 0, uses_anonymous_args = 0
 5469              		@ link register save eliminated.
 5470 1c50 86B0     		sub	sp, sp, #24
 5471              	.LCFI113:
 5472              		.cfi_def_cfa_offset 24
 5473 1c52 0390     		str	r0, [sp, #12]
 5474 1c54 ADF80A10 		strh	r1, [sp, #10]	@ movhi
 5475 1c58 ADF80820 		strh	r2, [sp, #8]	@ movhi
 5476 1c5c ADF80630 		strh	r3, [sp, #6]	@ movhi
3640:../Libraries/STM32F30x_StdPeriph_Driver/src/stm32f30x_tim.c ****   uint16_t tmpsmcr = 0;
 5477              		.loc 1 3640 0
 5478 1c60 4FF00003 		mov	r3, #0
 5479 1c64 ADF81630 		strh	r3, [sp, #22]	@ movhi
3641:../Libraries/STM32F30x_StdPeriph_Driver/src/stm32f30x_tim.c **** 
3642:../Libraries/STM32F30x_StdPeriph_Driver/src/stm32f30x_tim.c ****   /* Check the parameters */
3643:../Libraries/STM32F30x_StdPeriph_Driver/src/stm32f30x_tim.c ****   assert_param(IS_TIM_LIST3_PERIPH(TIMx));
3644:../Libraries/STM32F30x_StdPeriph_Driver/src/stm32f30x_tim.c ****   assert_param(IS_TIM_EXT_PRESCALER(TIM_ExtTRGPrescaler));
3645:../Libraries/STM32F30x_StdPeriph_Driver/src/stm32f30x_tim.c ****   assert_param(IS_TIM_EXT_POLARITY(TIM_ExtTRGPolarity));
3646:../Libraries/STM32F30x_StdPeriph_Driver/src/stm32f30x_tim.c ****   assert_param(IS_TIM_EXT_FILTER(ExtTRGFilter));
3647:../Libraries/STM32F30x_StdPeriph_Driver/src/stm32f30x_tim.c **** 
3648:../Libraries/STM32F30x_StdPeriph_Driver/src/stm32f30x_tim.c ****   tmpsmcr = TIMx->SMCR;
 5480              		.loc 1 3648 0
 5481 1c68 039B     		ldr	r3, [sp, #12]
 5482 1c6a 9B68     		ldr	r3, [r3, #8]
 5483 1c6c ADF81630 		strh	r3, [sp, #22]	@ movhi
3649:../Libraries/STM32F30x_StdPeriph_Driver/src/stm32f30x_tim.c **** 
3650:../Libraries/STM32F30x_StdPeriph_Driver/src/stm32f30x_tim.c ****   /* Reset the ETR Bits */
3651:../Libraries/STM32F30x_StdPeriph_Driver/src/stm32f30x_tim.c ****   tmpsmcr &= SMCR_ETR_MASK;
 5484              		.loc 1 3651 0
 5485 1c70 BDF81630 		ldrh	r3, [sp, #22]	@ movhi
 5486 1c74 DBB2     		uxtb	r3, r3
 5487 1c76 ADF81630 		strh	r3, [sp, #22]	@ movhi
3652:../Libraries/STM32F30x_StdPeriph_Driver/src/stm32f30x_tim.c **** 
3653:../Libraries/STM32F30x_StdPeriph_Driver/src/stm32f30x_tim.c ****   /* Set the Prescaler, the Filter value and the Polarity */
3654:../Libraries/STM32F30x_StdPeriph_Driver/src/stm32f30x_tim.c ****   tmpsmcr |= (uint16_t)(TIM_ExtTRGPrescaler | (uint16_t)(TIM_ExtTRGPolarity | (uint16_t)(ExtTRGFilt
 5488              		.loc 1 3654 0
 5489 1c7a BDF80630 		ldrh	r3, [sp, #6]	@ movhi
 5490 1c7e 4FEA0323 		lsl	r3, r3, #8
 5491 1c82 9AB2     		uxth	r2, r3
 5492 1c84 BDF80830 		ldrh	r3, [sp, #8]	@ movhi
 5493 1c88 1343     		orrs	r3, r3, r2
 5494 1c8a 9AB2     		uxth	r2, r3
 5495 1c8c BDF80A30 		ldrh	r3, [sp, #10]	@ movhi
 5496 1c90 1343     		orrs	r3, r3, r2
 5497 1c92 9AB2     		uxth	r2, r3
 5498 1c94 BDF81630 		ldrh	r3, [sp, #22]	@ movhi
 5499 1c98 1343     		orrs	r3, r3, r2
 5500 1c9a ADF81630 		strh	r3, [sp, #22]	@ movhi
3655:../Libraries/STM32F30x_StdPeriph_Driver/src/stm32f30x_tim.c **** 
3656:../Libraries/STM32F30x_StdPeriph_Driver/src/stm32f30x_tim.c ****   /* Write to TIMx SMCR */
3657:../Libraries/STM32F30x_StdPeriph_Driver/src/stm32f30x_tim.c ****   TIMx->SMCR = tmpsmcr;
 5501              		.loc 1 3657 0
 5502 1c9e BDF81620 		ldrh	r2, [sp, #22]
 5503 1ca2 039B     		ldr	r3, [sp, #12]
 5504 1ca4 9A60     		str	r2, [r3, #8]
3658:../Libraries/STM32F30x_StdPeriph_Driver/src/stm32f30x_tim.c **** }
 5505              		.loc 1 3658 0
 5506 1ca6 06B0     		add	sp, sp, #24
 5507 1ca8 7047     		bx	lr
 5508              		.cfi_endproc
 5509              	.LFE217:
 5511 1caa 00BF     		.align	2
 5512              		.global	TIM_EncoderInterfaceConfig
 5513              		.thumb
 5514              		.thumb_func
 5516              	TIM_EncoderInterfaceConfig:
 5517              	.LFB218:
3659:../Libraries/STM32F30x_StdPeriph_Driver/src/stm32f30x_tim.c **** /**
3660:../Libraries/STM32F30x_StdPeriph_Driver/src/stm32f30x_tim.c ****   * @}
3661:../Libraries/STM32F30x_StdPeriph_Driver/src/stm32f30x_tim.c ****   */
3662:../Libraries/STM32F30x_StdPeriph_Driver/src/stm32f30x_tim.c **** 
3663:../Libraries/STM32F30x_StdPeriph_Driver/src/stm32f30x_tim.c **** /** @defgroup TIM_Group8 Specific interface management functions
3664:../Libraries/STM32F30x_StdPeriph_Driver/src/stm32f30x_tim.c ****  *  @brief    Specific interface management functions 
3665:../Libraries/STM32F30x_StdPeriph_Driver/src/stm32f30x_tim.c ****  *
3666:../Libraries/STM32F30x_StdPeriph_Driver/src/stm32f30x_tim.c **** @verbatim   
3667:../Libraries/STM32F30x_StdPeriph_Driver/src/stm32f30x_tim.c ****  ===============================================================================
3668:../Libraries/STM32F30x_StdPeriph_Driver/src/stm32f30x_tim.c ****               ##### Specific interface management functions #####
3669:../Libraries/STM32F30x_StdPeriph_Driver/src/stm32f30x_tim.c ****  ===============================================================================  
3670:../Libraries/STM32F30x_StdPeriph_Driver/src/stm32f30x_tim.c **** 
3671:../Libraries/STM32F30x_StdPeriph_Driver/src/stm32f30x_tim.c **** @endverbatim
3672:../Libraries/STM32F30x_StdPeriph_Driver/src/stm32f30x_tim.c ****   * @{
3673:../Libraries/STM32F30x_StdPeriph_Driver/src/stm32f30x_tim.c ****   */
3674:../Libraries/STM32F30x_StdPeriph_Driver/src/stm32f30x_tim.c **** 
3675:../Libraries/STM32F30x_StdPeriph_Driver/src/stm32f30x_tim.c **** /**
3676:../Libraries/STM32F30x_StdPeriph_Driver/src/stm32f30x_tim.c ****   * @brief  Configures the TIMx Encoder Interface.
3677:../Libraries/STM32F30x_StdPeriph_Driver/src/stm32f30x_tim.c ****   * @param  TIMx: where x can be 1, 2, 3, 4 or 8 to select the TIM 
3678:../Libraries/STM32F30x_StdPeriph_Driver/src/stm32f30x_tim.c ****   *         peripheral.
3679:../Libraries/STM32F30x_StdPeriph_Driver/src/stm32f30x_tim.c ****   * @param  TIM_EncoderMode: specifies the TIMx Encoder Mode.
3680:../Libraries/STM32F30x_StdPeriph_Driver/src/stm32f30x_tim.c ****   *          This parameter can be one of the following values:
3681:../Libraries/STM32F30x_StdPeriph_Driver/src/stm32f30x_tim.c ****   *            @arg TIM_EncoderMode_TI1: Counter counts on TI1FP1 edge depending on TI2FP2 level.
3682:../Libraries/STM32F30x_StdPeriph_Driver/src/stm32f30x_tim.c ****   *            @arg TIM_EncoderMode_TI2: Counter counts on TI2FP2 edge depending on TI1FP1 level.
3683:../Libraries/STM32F30x_StdPeriph_Driver/src/stm32f30x_tim.c ****   *            @arg TIM_EncoderMode_TI12: Counter counts on both TI1FP1 and TI2FP2 edges depending
3684:../Libraries/STM32F30x_StdPeriph_Driver/src/stm32f30x_tim.c ****   *                                       on the level of the other input.
3685:../Libraries/STM32F30x_StdPeriph_Driver/src/stm32f30x_tim.c ****   * @param  TIM_IC1Polarity: specifies the IC1 Polarity
3686:../Libraries/STM32F30x_StdPeriph_Driver/src/stm32f30x_tim.c ****   *          This parameter can be one of the following values:
3687:../Libraries/STM32F30x_StdPeriph_Driver/src/stm32f30x_tim.c ****   *            @arg TIM_ICPolarity_Falling: IC Falling edge.
3688:../Libraries/STM32F30x_StdPeriph_Driver/src/stm32f30x_tim.c ****   *            @arg TIM_ICPolarity_Rising: IC Rising edge.
3689:../Libraries/STM32F30x_StdPeriph_Driver/src/stm32f30x_tim.c ****   * @param  TIM_IC2Polarity: specifies the IC2 Polarity
3690:../Libraries/STM32F30x_StdPeriph_Driver/src/stm32f30x_tim.c ****   *          This parameter can be one of the following values:
3691:../Libraries/STM32F30x_StdPeriph_Driver/src/stm32f30x_tim.c ****   *            @arg TIM_ICPolarity_Falling: IC Falling edge.
3692:../Libraries/STM32F30x_StdPeriph_Driver/src/stm32f30x_tim.c ****   *            @arg TIM_ICPolarity_Rising: IC Rising edge.
3693:../Libraries/STM32F30x_StdPeriph_Driver/src/stm32f30x_tim.c ****   * @retval None
3694:../Libraries/STM32F30x_StdPeriph_Driver/src/stm32f30x_tim.c ****   */
3695:../Libraries/STM32F30x_StdPeriph_Driver/src/stm32f30x_tim.c **** void TIM_EncoderInterfaceConfig(TIM_TypeDef* TIMx, uint16_t TIM_EncoderMode,
3696:../Libraries/STM32F30x_StdPeriph_Driver/src/stm32f30x_tim.c ****                                 uint16_t TIM_IC1Polarity, uint16_t TIM_IC2Polarity)
3697:../Libraries/STM32F30x_StdPeriph_Driver/src/stm32f30x_tim.c **** {
 5518              		.loc 1 3697 0
 5519              		.cfi_startproc
 5520              		@ args = 0, pretend = 0, frame = 24
 5521              		@ frame_needed = 0, uses_anonymous_args = 0
 5522              		@ link register save eliminated.
 5523 1cac 86B0     		sub	sp, sp, #24
 5524              	.LCFI114:
 5525              		.cfi_def_cfa_offset 24
 5526 1cae 0390     		str	r0, [sp, #12]
 5527 1cb0 ADF80A10 		strh	r1, [sp, #10]	@ movhi
 5528 1cb4 ADF80820 		strh	r2, [sp, #8]	@ movhi
 5529 1cb8 ADF80630 		strh	r3, [sp, #6]	@ movhi
3698:../Libraries/STM32F30x_StdPeriph_Driver/src/stm32f30x_tim.c ****   uint16_t tmpsmcr = 0;
 5530              		.loc 1 3698 0
 5531 1cbc 4FF00003 		mov	r3, #0
 5532 1cc0 ADF81630 		strh	r3, [sp, #22]	@ movhi
3699:../Libraries/STM32F30x_StdPeriph_Driver/src/stm32f30x_tim.c ****   uint16_t tmpccmr1 = 0;
 5533              		.loc 1 3699 0
 5534 1cc4 4FF00003 		mov	r3, #0
 5535 1cc8 ADF81430 		strh	r3, [sp, #20]	@ movhi
3700:../Libraries/STM32F30x_StdPeriph_Driver/src/stm32f30x_tim.c ****   uint16_t tmpccer = 0;
 5536              		.loc 1 3700 0
 5537 1ccc 4FF00003 		mov	r3, #0
 5538 1cd0 ADF81230 		strh	r3, [sp, #18]	@ movhi
3701:../Libraries/STM32F30x_StdPeriph_Driver/src/stm32f30x_tim.c ****     
3702:../Libraries/STM32F30x_StdPeriph_Driver/src/stm32f30x_tim.c ****   /* Check the parameters */
3703:../Libraries/STM32F30x_StdPeriph_Driver/src/stm32f30x_tim.c ****   assert_param(IS_TIM_LIST3_PERIPH(TIMx));
3704:../Libraries/STM32F30x_StdPeriph_Driver/src/stm32f30x_tim.c ****   assert_param(IS_TIM_ENCODER_MODE(TIM_EncoderMode));
3705:../Libraries/STM32F30x_StdPeriph_Driver/src/stm32f30x_tim.c ****   assert_param(IS_TIM_IC_POLARITY(TIM_IC1Polarity));
3706:../Libraries/STM32F30x_StdPeriph_Driver/src/stm32f30x_tim.c ****   assert_param(IS_TIM_IC_POLARITY(TIM_IC2Polarity));
3707:../Libraries/STM32F30x_StdPeriph_Driver/src/stm32f30x_tim.c **** 
3708:../Libraries/STM32F30x_StdPeriph_Driver/src/stm32f30x_tim.c ****   /* Get the TIMx SMCR register value */
3709:../Libraries/STM32F30x_StdPeriph_Driver/src/stm32f30x_tim.c ****   tmpsmcr = TIMx->SMCR;
 5539              		.loc 1 3709 0
 5540 1cd4 039B     		ldr	r3, [sp, #12]
 5541 1cd6 9B68     		ldr	r3, [r3, #8]
 5542 1cd8 ADF81630 		strh	r3, [sp, #22]	@ movhi
3710:../Libraries/STM32F30x_StdPeriph_Driver/src/stm32f30x_tim.c **** 
3711:../Libraries/STM32F30x_StdPeriph_Driver/src/stm32f30x_tim.c ****   /* Get the TIMx CCMR1 register value */
3712:../Libraries/STM32F30x_StdPeriph_Driver/src/stm32f30x_tim.c ****   tmpccmr1 = TIMx->CCMR1;
 5543              		.loc 1 3712 0
 5544 1cdc 039B     		ldr	r3, [sp, #12]
 5545 1cde 9B69     		ldr	r3, [r3, #24]
 5546 1ce0 ADF81430 		strh	r3, [sp, #20]	@ movhi
3713:../Libraries/STM32F30x_StdPeriph_Driver/src/stm32f30x_tim.c **** 
3714:../Libraries/STM32F30x_StdPeriph_Driver/src/stm32f30x_tim.c ****   /* Get the TIMx CCER register value */
3715:../Libraries/STM32F30x_StdPeriph_Driver/src/stm32f30x_tim.c ****   tmpccer = TIMx->CCER;
 5547              		.loc 1 3715 0
 5548 1ce4 039B     		ldr	r3, [sp, #12]
 5549 1ce6 1B6A     		ldr	r3, [r3, #32]
 5550 1ce8 ADF81230 		strh	r3, [sp, #18]	@ movhi
3716:../Libraries/STM32F30x_StdPeriph_Driver/src/stm32f30x_tim.c **** 
3717:../Libraries/STM32F30x_StdPeriph_Driver/src/stm32f30x_tim.c ****   /* Set the encoder Mode */
3718:../Libraries/STM32F30x_StdPeriph_Driver/src/stm32f30x_tim.c ****   tmpsmcr &= (uint16_t)~TIM_SMCR_SMS;
 5551              		.loc 1 3718 0
 5552 1cec BDF81630 		ldrh	r3, [sp, #22]	@ movhi
 5553 1cf0 23F00703 		bic	r3, r3, #7
 5554 1cf4 ADF81630 		strh	r3, [sp, #22]	@ movhi
3719:../Libraries/STM32F30x_StdPeriph_Driver/src/stm32f30x_tim.c ****   tmpsmcr |= TIM_EncoderMode;
 5555              		.loc 1 3719 0
 5556 1cf8 BDF81620 		ldrh	r2, [sp, #22]	@ movhi
 5557 1cfc BDF80A30 		ldrh	r3, [sp, #10]	@ movhi
 5558 1d00 1343     		orrs	r3, r3, r2
 5559 1d02 ADF81630 		strh	r3, [sp, #22]	@ movhi
3720:../Libraries/STM32F30x_StdPeriph_Driver/src/stm32f30x_tim.c **** 
3721:../Libraries/STM32F30x_StdPeriph_Driver/src/stm32f30x_tim.c ****   /* Select the Capture Compare 1 and the Capture Compare 2 as input */
3722:../Libraries/STM32F30x_StdPeriph_Driver/src/stm32f30x_tim.c ****   tmpccmr1 &= ((uint16_t)~TIM_CCMR1_CC1S) & ((uint16_t)~TIM_CCMR1_CC2S);
 5560              		.loc 1 3722 0
 5561 1d06 BDF81430 		ldrh	r3, [sp, #20]	@ movhi
 5562 1d0a 23F44073 		bic	r3, r3, #768
 5563 1d0e 23F00303 		bic	r3, r3, #3
 5564 1d12 ADF81430 		strh	r3, [sp, #20]	@ movhi
3723:../Libraries/STM32F30x_StdPeriph_Driver/src/stm32f30x_tim.c ****   tmpccmr1 |= TIM_CCMR1_CC1S_0 | TIM_CCMR1_CC2S_0;
 5565              		.loc 1 3723 0
 5566 1d16 BDF81430 		ldrh	r3, [sp, #20]	@ movhi
 5567 1d1a 43F48073 		orr	r3, r3, #256
 5568 1d1e 43F00103 		orr	r3, r3, #1
 5569 1d22 ADF81430 		strh	r3, [sp, #20]	@ movhi
3724:../Libraries/STM32F30x_StdPeriph_Driver/src/stm32f30x_tim.c **** 
3725:../Libraries/STM32F30x_StdPeriph_Driver/src/stm32f30x_tim.c ****   /* Set the TI1 and the TI2 Polarities */
3726:../Libraries/STM32F30x_StdPeriph_Driver/src/stm32f30x_tim.c ****   tmpccer &= ((uint16_t)~TIM_CCER_CC1P) & ((uint16_t)~TIM_CCER_CC2P);
 5570              		.loc 1 3726 0
 5571 1d26 BDF81230 		ldrh	r3, [sp, #18]	@ movhi
 5572 1d2a 23F02203 		bic	r3, r3, #34
 5573 1d2e ADF81230 		strh	r3, [sp, #18]	@ movhi
3727:../Libraries/STM32F30x_StdPeriph_Driver/src/stm32f30x_tim.c ****   tmpccer |= (uint16_t)(TIM_IC1Polarity | (uint16_t)(TIM_IC2Polarity << (uint16_t)4));
 5574              		.loc 1 3727 0
 5575 1d32 BDF80630 		ldrh	r3, [sp, #6]	@ movhi
 5576 1d36 4FEA0313 		lsl	r3, r3, #4
 5577 1d3a 9AB2     		uxth	r2, r3
 5578 1d3c BDF80830 		ldrh	r3, [sp, #8]	@ movhi
 5579 1d40 1343     		orrs	r3, r3, r2
 5580 1d42 9AB2     		uxth	r2, r3
 5581 1d44 BDF81230 		ldrh	r3, [sp, #18]	@ movhi
 5582 1d48 1343     		orrs	r3, r3, r2
 5583 1d4a ADF81230 		strh	r3, [sp, #18]	@ movhi
3728:../Libraries/STM32F30x_StdPeriph_Driver/src/stm32f30x_tim.c **** 
3729:../Libraries/STM32F30x_StdPeriph_Driver/src/stm32f30x_tim.c ****   /* Write to TIMx SMCR */
3730:../Libraries/STM32F30x_StdPeriph_Driver/src/stm32f30x_tim.c ****   TIMx->SMCR = tmpsmcr;
 5584              		.loc 1 3730 0
 5585 1d4e BDF81620 		ldrh	r2, [sp, #22]
 5586 1d52 039B     		ldr	r3, [sp, #12]
 5587 1d54 9A60     		str	r2, [r3, #8]
3731:../Libraries/STM32F30x_StdPeriph_Driver/src/stm32f30x_tim.c **** 
3732:../Libraries/STM32F30x_StdPeriph_Driver/src/stm32f30x_tim.c ****   /* Write to TIMx CCMR1 */
3733:../Libraries/STM32F30x_StdPeriph_Driver/src/stm32f30x_tim.c ****   TIMx->CCMR1 = tmpccmr1;
 5588              		.loc 1 3733 0
 5589 1d56 BDF81420 		ldrh	r2, [sp, #20]
 5590 1d5a 039B     		ldr	r3, [sp, #12]
 5591 1d5c 9A61     		str	r2, [r3, #24]
3734:../Libraries/STM32F30x_StdPeriph_Driver/src/stm32f30x_tim.c **** 
3735:../Libraries/STM32F30x_StdPeriph_Driver/src/stm32f30x_tim.c ****   /* Write to TIMx CCER */
3736:../Libraries/STM32F30x_StdPeriph_Driver/src/stm32f30x_tim.c ****   TIMx->CCER = tmpccer;
 5592              		.loc 1 3736 0
 5593 1d5e BDF81220 		ldrh	r2, [sp, #18]
 5594 1d62 039B     		ldr	r3, [sp, #12]
 5595 1d64 1A62     		str	r2, [r3, #32]
3737:../Libraries/STM32F30x_StdPeriph_Driver/src/stm32f30x_tim.c **** }
 5596              		.loc 1 3737 0
 5597 1d66 06B0     		add	sp, sp, #24
 5598 1d68 7047     		bx	lr
 5599              		.cfi_endproc
 5600              	.LFE218:
 5602 1d6a 00BF     		.align	2
 5603              		.global	TIM_SelectHallSensor
 5604              		.thumb
 5605              		.thumb_func
 5607              	TIM_SelectHallSensor:
 5608              	.LFB219:
3738:../Libraries/STM32F30x_StdPeriph_Driver/src/stm32f30x_tim.c **** 
3739:../Libraries/STM32F30x_StdPeriph_Driver/src/stm32f30x_tim.c **** /**
3740:../Libraries/STM32F30x_StdPeriph_Driver/src/stm32f30x_tim.c ****   * @brief  Enables or disables the TIMx's Hall sensor interface.
3741:../Libraries/STM32F30x_StdPeriph_Driver/src/stm32f30x_tim.c ****   * @param  TIMx: where x can be 1, 2, 3, 4, 8 or 15 to select the TIM 
3742:../Libraries/STM32F30x_StdPeriph_Driver/src/stm32f30x_tim.c ****   *         peripheral.
3743:../Libraries/STM32F30x_StdPeriph_Driver/src/stm32f30x_tim.c ****   * @param  NewState: new state of the TIMx Hall sensor interface.
3744:../Libraries/STM32F30x_StdPeriph_Driver/src/stm32f30x_tim.c ****   *          This parameter can be: ENABLE or DISABLE.
3745:../Libraries/STM32F30x_StdPeriph_Driver/src/stm32f30x_tim.c ****   * @retval None
3746:../Libraries/STM32F30x_StdPeriph_Driver/src/stm32f30x_tim.c ****   */
3747:../Libraries/STM32F30x_StdPeriph_Driver/src/stm32f30x_tim.c **** void TIM_SelectHallSensor(TIM_TypeDef* TIMx, FunctionalState NewState)
3748:../Libraries/STM32F30x_StdPeriph_Driver/src/stm32f30x_tim.c **** {
 5609              		.loc 1 3748 0
 5610              		.cfi_startproc
 5611              		@ args = 0, pretend = 0, frame = 8
 5612              		@ frame_needed = 0, uses_anonymous_args = 0
 5613              		@ link register save eliminated.
 5614 1d6c 82B0     		sub	sp, sp, #8
 5615              	.LCFI115:
 5616              		.cfi_def_cfa_offset 8
 5617 1d6e 0190     		str	r0, [sp, #4]
 5618 1d70 0B46     		mov	r3, r1
 5619 1d72 8DF80330 		strb	r3, [sp, #3]
3749:../Libraries/STM32F30x_StdPeriph_Driver/src/stm32f30x_tim.c ****   /* Check the parameters */
3750:../Libraries/STM32F30x_StdPeriph_Driver/src/stm32f30x_tim.c ****   assert_param(IS_TIM_LIST2_PERIPH(TIMx));
3751:../Libraries/STM32F30x_StdPeriph_Driver/src/stm32f30x_tim.c ****   assert_param(IS_FUNCTIONAL_STATE(NewState));
3752:../Libraries/STM32F30x_StdPeriph_Driver/src/stm32f30x_tim.c **** 
3753:../Libraries/STM32F30x_StdPeriph_Driver/src/stm32f30x_tim.c ****   if (NewState != DISABLE)
 5620              		.loc 1 3753 0
 5621 1d76 9DF80330 		ldrb	r3, [sp, #3]	@ zero_extendqisi2
 5622 1d7a 002B     		cmp	r3, #0
 5623 1d7c 06D0     		beq	.L188
3754:../Libraries/STM32F30x_StdPeriph_Driver/src/stm32f30x_tim.c ****   {
3755:../Libraries/STM32F30x_StdPeriph_Driver/src/stm32f30x_tim.c ****     /* Set the TI1S Bit */
3756:../Libraries/STM32F30x_StdPeriph_Driver/src/stm32f30x_tim.c ****     TIMx->CR2 |= TIM_CR2_TI1S;
 5624              		.loc 1 3756 0
 5625 1d7e 019B     		ldr	r3, [sp, #4]
 5626 1d80 5B68     		ldr	r3, [r3, #4]
 5627 1d82 43F08002 		orr	r2, r3, #128
 5628 1d86 019B     		ldr	r3, [sp, #4]
 5629 1d88 5A60     		str	r2, [r3, #4]
 5630 1d8a 06E0     		b	.L187
 5631              	.L188:
3757:../Libraries/STM32F30x_StdPeriph_Driver/src/stm32f30x_tim.c ****   }
3758:../Libraries/STM32F30x_StdPeriph_Driver/src/stm32f30x_tim.c ****   else
3759:../Libraries/STM32F30x_StdPeriph_Driver/src/stm32f30x_tim.c ****   {
3760:../Libraries/STM32F30x_StdPeriph_Driver/src/stm32f30x_tim.c ****     /* Reset the TI1S Bit */
3761:../Libraries/STM32F30x_StdPeriph_Driver/src/stm32f30x_tim.c ****     TIMx->CR2 &= (uint16_t)~TIM_CR2_TI1S;
 5632              		.loc 1 3761 0
 5633 1d8c 019B     		ldr	r3, [sp, #4]
 5634 1d8e 5A68     		ldr	r2, [r3, #4]
 5635 1d90 4FF67F73 		movw	r3, #65407
 5636 1d94 1340     		ands	r3, r3, r2
 5637 1d96 019A     		ldr	r2, [sp, #4]
 5638 1d98 5360     		str	r3, [r2, #4]
 5639              	.L187:
3762:../Libraries/STM32F30x_StdPeriph_Driver/src/stm32f30x_tim.c ****   }
3763:../Libraries/STM32F30x_StdPeriph_Driver/src/stm32f30x_tim.c **** }
 5640              		.loc 1 3763 0
 5641 1d9a 02B0     		add	sp, sp, #8
 5642 1d9c 7047     		bx	lr
 5643              		.cfi_endproc
 5644              	.LFE219:
 5646 1d9e 00BF     		.align	2
 5647              		.global	TIM_RemapConfig
 5648              		.thumb
 5649              		.thumb_func
 5651              	TIM_RemapConfig:
 5652              	.LFB220:
3764:../Libraries/STM32F30x_StdPeriph_Driver/src/stm32f30x_tim.c **** /**
3765:../Libraries/STM32F30x_StdPeriph_Driver/src/stm32f30x_tim.c ****   * @}
3766:../Libraries/STM32F30x_StdPeriph_Driver/src/stm32f30x_tim.c ****   */
3767:../Libraries/STM32F30x_StdPeriph_Driver/src/stm32f30x_tim.c **** 
3768:../Libraries/STM32F30x_StdPeriph_Driver/src/stm32f30x_tim.c **** /** @defgroup TIM_Group9 Specific remapping management function
3769:../Libraries/STM32F30x_StdPeriph_Driver/src/stm32f30x_tim.c ****  *  @brief   Specific remapping management function
3770:../Libraries/STM32F30x_StdPeriph_Driver/src/stm32f30x_tim.c ****  *
3771:../Libraries/STM32F30x_StdPeriph_Driver/src/stm32f30x_tim.c **** @verbatim   
3772:../Libraries/STM32F30x_StdPeriph_Driver/src/stm32f30x_tim.c ****  ===============================================================================
3773:../Libraries/STM32F30x_StdPeriph_Driver/src/stm32f30x_tim.c ****                ##### Specific remapping management function #####
3774:../Libraries/STM32F30x_StdPeriph_Driver/src/stm32f30x_tim.c ****  ===============================================================================  
3775:../Libraries/STM32F30x_StdPeriph_Driver/src/stm32f30x_tim.c **** 
3776:../Libraries/STM32F30x_StdPeriph_Driver/src/stm32f30x_tim.c **** @endverbatim
3777:../Libraries/STM32F30x_StdPeriph_Driver/src/stm32f30x_tim.c ****   * @{
3778:../Libraries/STM32F30x_StdPeriph_Driver/src/stm32f30x_tim.c ****   */
3779:../Libraries/STM32F30x_StdPeriph_Driver/src/stm32f30x_tim.c **** 
3780:../Libraries/STM32F30x_StdPeriph_Driver/src/stm32f30x_tim.c **** /**
3781:../Libraries/STM32F30x_StdPeriph_Driver/src/stm32f30x_tim.c ****   * @brief  Configures the TIM16 Remapping input Capabilities.
3782:../Libraries/STM32F30x_StdPeriph_Driver/src/stm32f30x_tim.c ****   * @param TIMx: where x can be 1, 8 or 16 to select the TIM peripheral.
3783:../Libraries/STM32F30x_StdPeriph_Driver/src/stm32f30x_tim.c ****   * @param TIM_Remap: specifies the TIM input reampping source.
3784:../Libraries/STM32F30x_StdPeriph_Driver/src/stm32f30x_tim.c ****   *   This parameter can be one of the following values:
3785:../Libraries/STM32F30x_StdPeriph_Driver/src/stm32f30x_tim.c ****   *            @arg TIM16_GPIO: TIM16 Channel 1 is connected to GPIO.
3786:../Libraries/STM32F30x_StdPeriph_Driver/src/stm32f30x_tim.c ****   *            @arg TIM16_RTC_CLK: TIM16 Channel 1 is connected to RTC input clock.
3787:../Libraries/STM32F30x_StdPeriph_Driver/src/stm32f30x_tim.c ****   *            @arg TIM16_HSE_DIV32: TIM16 Channel 1 is connected to HSE/32 clock.  
3788:../Libraries/STM32F30x_StdPeriph_Driver/src/stm32f30x_tim.c ****   *            @arg TIM16_MCO: TIM16 Channel 1 is connected to MCO clock. 
3789:../Libraries/STM32F30x_StdPeriph_Driver/src/stm32f30x_tim.c ****   *            @arg TIM1_ADC1_AWDG1: TIM1 ETR is connected to ADC1 AWDG1.
3790:../Libraries/STM32F30x_StdPeriph_Driver/src/stm32f30x_tim.c ****   *            @arg TIM1_ADC1_AWDG2: TIM1 ETR is connected to ADC1 AWDG2.
3791:../Libraries/STM32F30x_StdPeriph_Driver/src/stm32f30x_tim.c ****   *            @arg TIM1_ADC1_AWDG3: TIM1 ETR is connected to ADC1 AWDG3.  
3792:../Libraries/STM32F30x_StdPeriph_Driver/src/stm32f30x_tim.c ****   *            @arg TIM1_ADC4_AWDG1: TIM1 ETR is connected to ADC4 AWDG1.
3793:../Libraries/STM32F30x_StdPeriph_Driver/src/stm32f30x_tim.c ****   *            @arg TIM1_ADC4_AWDG2: TIM1 ETR is connected to ADC4 AWDG2.
3794:../Libraries/STM32F30x_StdPeriph_Driver/src/stm32f30x_tim.c ****   *            @arg TIM1_ADC4_AWDG3: TIM1 ETR is connected to ADC4 AWDG3. 
3795:../Libraries/STM32F30x_StdPeriph_Driver/src/stm32f30x_tim.c ****   *            @arg TIM8_ADC2_AWDG1: TIM8 ETR is connected to ADC2 AWDG1.
3796:../Libraries/STM32F30x_StdPeriph_Driver/src/stm32f30x_tim.c ****   *            @arg TIM8_ADC2_AWDG2: TIM8 ETR is connected to ADC2 AWDG2.
3797:../Libraries/STM32F30x_StdPeriph_Driver/src/stm32f30x_tim.c ****   *            @arg TIM8_ADC2_AWDG3: TIM8 ETR is connected to ADC2 AWDG3.
3798:../Libraries/STM32F30x_StdPeriph_Driver/src/stm32f30x_tim.c ****   *            @arg TIM8_ADC4_AWDG1: TIM8 ETR is connected to ADC4 AWDG1.
3799:../Libraries/STM32F30x_StdPeriph_Driver/src/stm32f30x_tim.c ****   *            @arg TIM8_ADC4_AWDG2: TIM8 ETR is connected to ADC4 AWDG2.
3800:../Libraries/STM32F30x_StdPeriph_Driver/src/stm32f30x_tim.c ****   *            @arg TIM8_ADC4_AWDG3: TIM8 ETR is connected to ADC4 AWDG3.  
3801:../Libraries/STM32F30x_StdPeriph_Driver/src/stm32f30x_tim.c ****   * @retval : None
3802:../Libraries/STM32F30x_StdPeriph_Driver/src/stm32f30x_tim.c ****   */
3803:../Libraries/STM32F30x_StdPeriph_Driver/src/stm32f30x_tim.c **** void TIM_RemapConfig(TIM_TypeDef* TIMx, uint16_t TIM_Remap)
3804:../Libraries/STM32F30x_StdPeriph_Driver/src/stm32f30x_tim.c **** {
 5653              		.loc 1 3804 0
 5654              		.cfi_startproc
 5655              		@ args = 0, pretend = 0, frame = 8
 5656              		@ frame_needed = 0, uses_anonymous_args = 0
 5657              		@ link register save eliminated.
 5658 1da0 82B0     		sub	sp, sp, #8
 5659              	.LCFI116:
 5660              		.cfi_def_cfa_offset 8
 5661 1da2 0190     		str	r0, [sp, #4]
 5662 1da4 0B46     		mov	r3, r1
 5663 1da6 ADF80230 		strh	r3, [sp, #2]	@ movhi
3805:../Libraries/STM32F30x_StdPeriph_Driver/src/stm32f30x_tim.c ****  /* Check the parameters */
3806:../Libraries/STM32F30x_StdPeriph_Driver/src/stm32f30x_tim.c ****   assert_param(IS_TIM_LIST8_PERIPH(TIMx));
3807:../Libraries/STM32F30x_StdPeriph_Driver/src/stm32f30x_tim.c ****   assert_param(IS_TIM_REMAP(TIM_Remap));
3808:../Libraries/STM32F30x_StdPeriph_Driver/src/stm32f30x_tim.c **** 
3809:../Libraries/STM32F30x_StdPeriph_Driver/src/stm32f30x_tim.c ****   /* Set the Timer remapping configuration */
3810:../Libraries/STM32F30x_StdPeriph_Driver/src/stm32f30x_tim.c ****   TIMx->OR =  TIM_Remap;
 5664              		.loc 1 3810 0
 5665 1daa 019B     		ldr	r3, [sp, #4]
 5666 1dac BDF80220 		ldrh	r2, [sp, #2]	@ movhi
 5667 1db0 A3F85020 		strh	r2, [r3, #80]	@ movhi
3811:../Libraries/STM32F30x_StdPeriph_Driver/src/stm32f30x_tim.c **** }
 5668              		.loc 1 3811 0
 5669 1db4 02B0     		add	sp, sp, #8
 5670 1db6 7047     		bx	lr
 5671              		.cfi_endproc
 5672              	.LFE220:
 5674              		.align	2
 5675              		.thumb
 5676              		.thumb_func
 5678              	TI1_Config:
 5679              	.LFB221:
3812:../Libraries/STM32F30x_StdPeriph_Driver/src/stm32f30x_tim.c **** /**
3813:../Libraries/STM32F30x_StdPeriph_Driver/src/stm32f30x_tim.c ****   * @}
3814:../Libraries/STM32F30x_StdPeriph_Driver/src/stm32f30x_tim.c ****   */
3815:../Libraries/STM32F30x_StdPeriph_Driver/src/stm32f30x_tim.c **** 
3816:../Libraries/STM32F30x_StdPeriph_Driver/src/stm32f30x_tim.c **** /**
3817:../Libraries/STM32F30x_StdPeriph_Driver/src/stm32f30x_tim.c ****   * @brief  Configure the TI1 as Input.
3818:../Libraries/STM32F30x_StdPeriph_Driver/src/stm32f30x_tim.c ****   * @param  TIMx: where x can be 1, 2, 3, 4, 5, 8, 9, 10, 11, 12, 13 or 14 
3819:../Libraries/STM32F30x_StdPeriph_Driver/src/stm32f30x_tim.c ****   *         to select the TIM peripheral.
3820:../Libraries/STM32F30x_StdPeriph_Driver/src/stm32f30x_tim.c ****   * @param  TIM_ICPolarity : The Input Polarity.
3821:../Libraries/STM32F30x_StdPeriph_Driver/src/stm32f30x_tim.c ****   *          This parameter can be one of the following values:
3822:../Libraries/STM32F30x_StdPeriph_Driver/src/stm32f30x_tim.c ****   *            @arg TIM_ICPolarity_Rising
3823:../Libraries/STM32F30x_StdPeriph_Driver/src/stm32f30x_tim.c ****   *            @arg TIM_ICPolarity_Falling
3824:../Libraries/STM32F30x_StdPeriph_Driver/src/stm32f30x_tim.c ****   *            @arg TIM_ICPolarity_BothEdge  
3825:../Libraries/STM32F30x_StdPeriph_Driver/src/stm32f30x_tim.c ****   * @param  TIM_ICSelection: specifies the input to be used.
3826:../Libraries/STM32F30x_StdPeriph_Driver/src/stm32f30x_tim.c ****   *          This parameter can be one of the following values:
3827:../Libraries/STM32F30x_StdPeriph_Driver/src/stm32f30x_tim.c ****   *            @arg TIM_ICSelection_DirectTI: TIM Input 1 is selected to be connected to IC1.
3828:../Libraries/STM32F30x_StdPeriph_Driver/src/stm32f30x_tim.c ****   *            @arg TIM_ICSelection_IndirectTI: TIM Input 1 is selected to be connected to IC2.
3829:../Libraries/STM32F30x_StdPeriph_Driver/src/stm32f30x_tim.c ****   *            @arg TIM_ICSelection_TRC: TIM Input 1 is selected to be connected to TRC.
3830:../Libraries/STM32F30x_StdPeriph_Driver/src/stm32f30x_tim.c ****   * @param  TIM_ICFilter: Specifies the Input Capture Filter.
3831:../Libraries/STM32F30x_StdPeriph_Driver/src/stm32f30x_tim.c ****   *          This parameter must be a value between 0x00 and 0x0F.
3832:../Libraries/STM32F30x_StdPeriph_Driver/src/stm32f30x_tim.c ****   * @retval None
3833:../Libraries/STM32F30x_StdPeriph_Driver/src/stm32f30x_tim.c ****   */
3834:../Libraries/STM32F30x_StdPeriph_Driver/src/stm32f30x_tim.c **** static void TI1_Config(TIM_TypeDef* TIMx, uint16_t TIM_ICPolarity, uint16_t TIM_ICSelection,
3835:../Libraries/STM32F30x_StdPeriph_Driver/src/stm32f30x_tim.c ****                        uint16_t TIM_ICFilter)
3836:../Libraries/STM32F30x_StdPeriph_Driver/src/stm32f30x_tim.c **** {
 5680              		.loc 1 3836 0
 5681              		.cfi_startproc
 5682              		@ args = 0, pretend = 0, frame = 24
 5683              		@ frame_needed = 0, uses_anonymous_args = 0
 5684              		@ link register save eliminated.
 5685 1db8 86B0     		sub	sp, sp, #24
 5686              	.LCFI117:
 5687              		.cfi_def_cfa_offset 24
 5688 1dba 0390     		str	r0, [sp, #12]
 5689 1dbc ADF80A10 		strh	r1, [sp, #10]	@ movhi
 5690 1dc0 ADF80820 		strh	r2, [sp, #8]	@ movhi
 5691 1dc4 ADF80630 		strh	r3, [sp, #6]	@ movhi
3837:../Libraries/STM32F30x_StdPeriph_Driver/src/stm32f30x_tim.c ****   uint32_t tmpccmr1 = 0, tmpccer = 0;
 5692              		.loc 1 3837 0
 5693 1dc8 4FF00003 		mov	r3, #0
 5694 1dcc 0593     		str	r3, [sp, #20]
 5695 1dce 4FF00003 		mov	r3, #0
 5696 1dd2 0493     		str	r3, [sp, #16]
3838:../Libraries/STM32F30x_StdPeriph_Driver/src/stm32f30x_tim.c **** 
3839:../Libraries/STM32F30x_StdPeriph_Driver/src/stm32f30x_tim.c ****   /* Disable the Channel 1: Reset the CC1E Bit */
3840:../Libraries/STM32F30x_StdPeriph_Driver/src/stm32f30x_tim.c ****   TIMx->CCER &= (uint32_t)~TIM_CCER_CC1E;
 5697              		.loc 1 3840 0
 5698 1dd4 039B     		ldr	r3, [sp, #12]
 5699 1dd6 1B6A     		ldr	r3, [r3, #32]
 5700 1dd8 23F00102 		bic	r2, r3, #1
 5701 1ddc 039B     		ldr	r3, [sp, #12]
 5702 1dde 1A62     		str	r2, [r3, #32]
3841:../Libraries/STM32F30x_StdPeriph_Driver/src/stm32f30x_tim.c ****   tmpccmr1 = TIMx->CCMR1;
 5703              		.loc 1 3841 0
 5704 1de0 039B     		ldr	r3, [sp, #12]
 5705 1de2 9B69     		ldr	r3, [r3, #24]
 5706 1de4 0593     		str	r3, [sp, #20]
3842:../Libraries/STM32F30x_StdPeriph_Driver/src/stm32f30x_tim.c ****   tmpccer = TIMx->CCER;
 5707              		.loc 1 3842 0
 5708 1de6 039B     		ldr	r3, [sp, #12]
 5709 1de8 1B6A     		ldr	r3, [r3, #32]
 5710 1dea 0493     		str	r3, [sp, #16]
3843:../Libraries/STM32F30x_StdPeriph_Driver/src/stm32f30x_tim.c **** 
3844:../Libraries/STM32F30x_StdPeriph_Driver/src/stm32f30x_tim.c ****   /* Select the Input and set the filter */
3845:../Libraries/STM32F30x_StdPeriph_Driver/src/stm32f30x_tim.c ****   tmpccmr1 &= ((uint32_t)~TIM_CCMR1_CC1S) & ((uint32_t)~TIM_CCMR1_IC1F);
 5711              		.loc 1 3845 0
 5712 1dec 059B     		ldr	r3, [sp, #20]
 5713 1dee 23F0F303 		bic	r3, r3, #243
 5714 1df2 0593     		str	r3, [sp, #20]
3846:../Libraries/STM32F30x_StdPeriph_Driver/src/stm32f30x_tim.c ****   tmpccmr1 |= (uint32_t)(TIM_ICSelection | (uint32_t)((uint32_t)TIM_ICFilter << 4));
 5715              		.loc 1 3846 0
 5716 1df4 BDF80820 		ldrh	r2, [sp, #8]
 5717 1df8 BDF80630 		ldrh	r3, [sp, #6]
 5718 1dfc 4FEA0313 		lsl	r3, r3, #4
 5719 1e00 1343     		orrs	r3, r3, r2
 5720 1e02 059A     		ldr	r2, [sp, #20]
 5721 1e04 1343     		orrs	r3, r3, r2
 5722 1e06 0593     		str	r3, [sp, #20]
3847:../Libraries/STM32F30x_StdPeriph_Driver/src/stm32f30x_tim.c **** 
3848:../Libraries/STM32F30x_StdPeriph_Driver/src/stm32f30x_tim.c ****   /* Select the Polarity and set the CC1E Bit */
3849:../Libraries/STM32F30x_StdPeriph_Driver/src/stm32f30x_tim.c ****   tmpccer &= (uint32_t)~(TIM_CCER_CC1P | TIM_CCER_CC1NP);
 5723              		.loc 1 3849 0
 5724 1e08 049B     		ldr	r3, [sp, #16]
 5725 1e0a 23F00A03 		bic	r3, r3, #10
 5726 1e0e 0493     		str	r3, [sp, #16]
3850:../Libraries/STM32F30x_StdPeriph_Driver/src/stm32f30x_tim.c ****   tmpccer |= (uint32_t)(TIM_ICPolarity | (uint32_t)TIM_CCER_CC1E);
 5727              		.loc 1 3850 0
 5728 1e10 BDF80A30 		ldrh	r3, [sp, #10]	@ movhi
 5729 1e14 43F00103 		orr	r3, r3, #1
 5730 1e18 9BB2     		uxth	r3, r3
 5731 1e1a 049A     		ldr	r2, [sp, #16]
 5732 1e1c 1343     		orrs	r3, r3, r2
 5733 1e1e 0493     		str	r3, [sp, #16]
3851:../Libraries/STM32F30x_StdPeriph_Driver/src/stm32f30x_tim.c **** 
3852:../Libraries/STM32F30x_StdPeriph_Driver/src/stm32f30x_tim.c ****   /* Write to TIMx CCMR1 and CCER registers */
3853:../Libraries/STM32F30x_StdPeriph_Driver/src/stm32f30x_tim.c ****   TIMx->CCMR1 = tmpccmr1;
 5734              		.loc 1 3853 0
 5735 1e20 039B     		ldr	r3, [sp, #12]
 5736 1e22 059A     		ldr	r2, [sp, #20]
 5737 1e24 9A61     		str	r2, [r3, #24]
3854:../Libraries/STM32F30x_StdPeriph_Driver/src/stm32f30x_tim.c ****   TIMx->CCER = tmpccer;
 5738              		.loc 1 3854 0
 5739 1e26 039B     		ldr	r3, [sp, #12]
 5740 1e28 049A     		ldr	r2, [sp, #16]
 5741 1e2a 1A62     		str	r2, [r3, #32]
3855:../Libraries/STM32F30x_StdPeriph_Driver/src/stm32f30x_tim.c **** }
 5742              		.loc 1 3855 0
 5743 1e2c 06B0     		add	sp, sp, #24
 5744 1e2e 7047     		bx	lr
 5745              		.cfi_endproc
 5746              	.LFE221:
 5748              		.align	2
 5749              		.thumb
 5750              		.thumb_func
 5752              	TI2_Config:
 5753              	.LFB222:
3856:../Libraries/STM32F30x_StdPeriph_Driver/src/stm32f30x_tim.c **** 
3857:../Libraries/STM32F30x_StdPeriph_Driver/src/stm32f30x_tim.c **** /**
3858:../Libraries/STM32F30x_StdPeriph_Driver/src/stm32f30x_tim.c ****   * @brief  Configure the TI2 as Input.
3859:../Libraries/STM32F30x_StdPeriph_Driver/src/stm32f30x_tim.c ****   * @param  TIMx: where x can be 1, 2, 3, 4, 5, 8, 9 or 12 to select the TIM 
3860:../Libraries/STM32F30x_StdPeriph_Driver/src/stm32f30x_tim.c ****   *         peripheral.
3861:../Libraries/STM32F30x_StdPeriph_Driver/src/stm32f30x_tim.c ****   * @param  TIM_ICPolarity : The Input Polarity.
3862:../Libraries/STM32F30x_StdPeriph_Driver/src/stm32f30x_tim.c ****   *          This parameter can be one of the following values:
3863:../Libraries/STM32F30x_StdPeriph_Driver/src/stm32f30x_tim.c ****   *            @arg TIM_ICPolarity_Rising
3864:../Libraries/STM32F30x_StdPeriph_Driver/src/stm32f30x_tim.c ****   *            @arg TIM_ICPolarity_Falling
3865:../Libraries/STM32F30x_StdPeriph_Driver/src/stm32f30x_tim.c ****   *            @arg TIM_ICPolarity_BothEdge   
3866:../Libraries/STM32F30x_StdPeriph_Driver/src/stm32f30x_tim.c ****   * @param  TIM_ICSelection: specifies the input to be used.
3867:../Libraries/STM32F30x_StdPeriph_Driver/src/stm32f30x_tim.c ****   *          This parameter can be one of the following values:
3868:../Libraries/STM32F30x_StdPeriph_Driver/src/stm32f30x_tim.c ****   *            @arg TIM_ICSelection_DirectTI: TIM Input 2 is selected to be connected to IC2.
3869:../Libraries/STM32F30x_StdPeriph_Driver/src/stm32f30x_tim.c ****   *            @arg TIM_ICSelection_IndirectTI: TIM Input 2 is selected to be connected to IC1.
3870:../Libraries/STM32F30x_StdPeriph_Driver/src/stm32f30x_tim.c ****   *            @arg TIM_ICSelection_TRC: TIM Input 2 is selected to be connected to TRC.
3871:../Libraries/STM32F30x_StdPeriph_Driver/src/stm32f30x_tim.c ****   * @param  TIM_ICFilter: Specifies the Input Capture Filter.
3872:../Libraries/STM32F30x_StdPeriph_Driver/src/stm32f30x_tim.c ****   *          This parameter must be a value between 0x00 and 0x0F.
3873:../Libraries/STM32F30x_StdPeriph_Driver/src/stm32f30x_tim.c ****   * @retval None
3874:../Libraries/STM32F30x_StdPeriph_Driver/src/stm32f30x_tim.c ****   */
3875:../Libraries/STM32F30x_StdPeriph_Driver/src/stm32f30x_tim.c **** static void TI2_Config(TIM_TypeDef* TIMx, uint16_t TIM_ICPolarity, uint16_t TIM_ICSelection,
3876:../Libraries/STM32F30x_StdPeriph_Driver/src/stm32f30x_tim.c ****                        uint16_t TIM_ICFilter)
3877:../Libraries/STM32F30x_StdPeriph_Driver/src/stm32f30x_tim.c **** {
 5754              		.loc 1 3877 0
 5755              		.cfi_startproc
 5756              		@ args = 0, pretend = 0, frame = 32
 5757              		@ frame_needed = 0, uses_anonymous_args = 0
 5758              		@ link register save eliminated.
 5759 1e30 88B0     		sub	sp, sp, #32
 5760              	.LCFI118:
 5761              		.cfi_def_cfa_offset 32
 5762 1e32 0390     		str	r0, [sp, #12]
 5763 1e34 ADF80A10 		strh	r1, [sp, #10]	@ movhi
 5764 1e38 ADF80820 		strh	r2, [sp, #8]	@ movhi
 5765 1e3c ADF80630 		strh	r3, [sp, #6]	@ movhi
3878:../Libraries/STM32F30x_StdPeriph_Driver/src/stm32f30x_tim.c ****   uint32_t tmpccmr1 = 0, tmpccer = 0, tmp = 0;
 5766              		.loc 1 3878 0
 5767 1e40 4FF00003 		mov	r3, #0
 5768 1e44 0793     		str	r3, [sp, #28]
 5769 1e46 4FF00003 		mov	r3, #0
 5770 1e4a 0693     		str	r3, [sp, #24]
 5771 1e4c 4FF00003 		mov	r3, #0
 5772 1e50 0593     		str	r3, [sp, #20]
3879:../Libraries/STM32F30x_StdPeriph_Driver/src/stm32f30x_tim.c **** 
3880:../Libraries/STM32F30x_StdPeriph_Driver/src/stm32f30x_tim.c ****   /* Disable the Channel 2: Reset the CC2E Bit */
3881:../Libraries/STM32F30x_StdPeriph_Driver/src/stm32f30x_tim.c ****   TIMx->CCER &= (uint16_t)~TIM_CCER_CC2E;
 5773              		.loc 1 3881 0
 5774 1e52 039B     		ldr	r3, [sp, #12]
 5775 1e54 1A6A     		ldr	r2, [r3, #32]
 5776 1e56 4FF6EF73 		movw	r3, #65519
 5777 1e5a 1340     		ands	r3, r3, r2
 5778 1e5c 039A     		ldr	r2, [sp, #12]
 5779 1e5e 1362     		str	r3, [r2, #32]
3882:../Libraries/STM32F30x_StdPeriph_Driver/src/stm32f30x_tim.c ****   tmpccmr1 = TIMx->CCMR1;
 5780              		.loc 1 3882 0
 5781 1e60 039B     		ldr	r3, [sp, #12]
 5782 1e62 9B69     		ldr	r3, [r3, #24]
 5783 1e64 0793     		str	r3, [sp, #28]
3883:../Libraries/STM32F30x_StdPeriph_Driver/src/stm32f30x_tim.c ****   tmpccer = TIMx->CCER;
 5784              		.loc 1 3883 0
 5785 1e66 039B     		ldr	r3, [sp, #12]
 5786 1e68 1B6A     		ldr	r3, [r3, #32]
 5787 1e6a 0693     		str	r3, [sp, #24]
3884:../Libraries/STM32F30x_StdPeriph_Driver/src/stm32f30x_tim.c ****   tmp = (uint16_t)(TIM_ICPolarity << 4);
 5788              		.loc 1 3884 0
 5789 1e6c BDF80A30 		ldrh	r3, [sp, #10]	@ movhi
 5790 1e70 4FEA0313 		lsl	r3, r3, #4
 5791 1e74 9BB2     		uxth	r3, r3
 5792 1e76 0593     		str	r3, [sp, #20]
3885:../Libraries/STM32F30x_StdPeriph_Driver/src/stm32f30x_tim.c **** 
3886:../Libraries/STM32F30x_StdPeriph_Driver/src/stm32f30x_tim.c ****   /* Select the Input and set the filter */
3887:../Libraries/STM32F30x_StdPeriph_Driver/src/stm32f30x_tim.c ****   tmpccmr1 &= ((uint32_t)~TIM_CCMR1_CC2S) & ((uint32_t)~TIM_CCMR1_IC2F);
 5793              		.loc 1 3887 0
 5794 1e78 079B     		ldr	r3, [sp, #28]
 5795 1e7a 23F47343 		bic	r3, r3, #62208
 5796 1e7e 0793     		str	r3, [sp, #28]
3888:../Libraries/STM32F30x_StdPeriph_Driver/src/stm32f30x_tim.c ****   tmpccmr1 |= (uint32_t)((uint32_t)TIM_ICFilter << 12);
 5797              		.loc 1 3888 0
 5798 1e80 BDF80630 		ldrh	r3, [sp, #6]
 5799 1e84 4FEA0333 		lsl	r3, r3, #12
 5800 1e88 079A     		ldr	r2, [sp, #28]
 5801 1e8a 1343     		orrs	r3, r3, r2
 5802 1e8c 0793     		str	r3, [sp, #28]
3889:../Libraries/STM32F30x_StdPeriph_Driver/src/stm32f30x_tim.c ****   tmpccmr1 |= (uint32_t)((uint32_t)TIM_ICSelection << 8);
 5803              		.loc 1 3889 0
 5804 1e8e BDF80830 		ldrh	r3, [sp, #8]
 5805 1e92 4FEA0323 		lsl	r3, r3, #8
 5806 1e96 079A     		ldr	r2, [sp, #28]
 5807 1e98 1343     		orrs	r3, r3, r2
 5808 1e9a 0793     		str	r3, [sp, #28]
3890:../Libraries/STM32F30x_StdPeriph_Driver/src/stm32f30x_tim.c **** 
3891:../Libraries/STM32F30x_StdPeriph_Driver/src/stm32f30x_tim.c ****   /* Select the Polarity and set the CC2E Bit */
3892:../Libraries/STM32F30x_StdPeriph_Driver/src/stm32f30x_tim.c ****   tmpccer &= (uint16_t)~(TIM_CCER_CC2P | TIM_CCER_CC2NP);
 5809              		.loc 1 3892 0
 5810 1e9c 069A     		ldr	r2, [sp, #24]
 5811 1e9e 4FF65F73 		movw	r3, #65375
 5812 1ea2 1340     		ands	r3, r3, r2
 5813 1ea4 0693     		str	r3, [sp, #24]
3893:../Libraries/STM32F30x_StdPeriph_Driver/src/stm32f30x_tim.c ****   tmpccer |=  (uint16_t)(tmp | (uint16_t)TIM_CCER_CC2E);
 5814              		.loc 1 3893 0
 5815 1ea6 059B     		ldr	r3, [sp, #20]
 5816 1ea8 9BB2     		uxth	r3, r3
 5817 1eaa 43F01003 		orr	r3, r3, #16
 5818 1eae 9BB2     		uxth	r3, r3
 5819 1eb0 069A     		ldr	r2, [sp, #24]
 5820 1eb2 1343     		orrs	r3, r3, r2
 5821 1eb4 0693     		str	r3, [sp, #24]
3894:../Libraries/STM32F30x_StdPeriph_Driver/src/stm32f30x_tim.c **** 
3895:../Libraries/STM32F30x_StdPeriph_Driver/src/stm32f30x_tim.c ****   /* Write to TIMx CCMR1 and CCER registers */
3896:../Libraries/STM32F30x_StdPeriph_Driver/src/stm32f30x_tim.c ****   TIMx->CCMR1 = tmpccmr1 ;
 5822              		.loc 1 3896 0
 5823 1eb6 039B     		ldr	r3, [sp, #12]
 5824 1eb8 079A     		ldr	r2, [sp, #28]
 5825 1eba 9A61     		str	r2, [r3, #24]
3897:../Libraries/STM32F30x_StdPeriph_Driver/src/stm32f30x_tim.c ****   TIMx->CCER = tmpccer;
 5826              		.loc 1 3897 0
 5827 1ebc 039B     		ldr	r3, [sp, #12]
 5828 1ebe 069A     		ldr	r2, [sp, #24]
 5829 1ec0 1A62     		str	r2, [r3, #32]
3898:../Libraries/STM32F30x_StdPeriph_Driver/src/stm32f30x_tim.c **** }
 5830              		.loc 1 3898 0
 5831 1ec2 08B0     		add	sp, sp, #32
 5832 1ec4 7047     		bx	lr
 5833              		.cfi_endproc
 5834              	.LFE222:
 5836 1ec6 00BF     		.align	2
 5837              		.thumb
 5838              		.thumb_func
 5840              	TI3_Config:
 5841              	.LFB223:
3899:../Libraries/STM32F30x_StdPeriph_Driver/src/stm32f30x_tim.c **** 
3900:../Libraries/STM32F30x_StdPeriph_Driver/src/stm32f30x_tim.c **** /**
3901:../Libraries/STM32F30x_StdPeriph_Driver/src/stm32f30x_tim.c ****   * @brief  Configure the TI3 as Input.
3902:../Libraries/STM32F30x_StdPeriph_Driver/src/stm32f30x_tim.c ****   * @param  TIMx: where x can be 1, 2, 3, 4, 5 or 8 to select the TIM peripheral.
3903:../Libraries/STM32F30x_StdPeriph_Driver/src/stm32f30x_tim.c ****   * @param  TIM_ICPolarity : The Input Polarity.
3904:../Libraries/STM32F30x_StdPeriph_Driver/src/stm32f30x_tim.c ****   *          This parameter can be one of the following values:
3905:../Libraries/STM32F30x_StdPeriph_Driver/src/stm32f30x_tim.c ****   *            @arg TIM_ICPolarity_Rising
3906:../Libraries/STM32F30x_StdPeriph_Driver/src/stm32f30x_tim.c ****   *            @arg TIM_ICPolarity_Falling
3907:../Libraries/STM32F30x_StdPeriph_Driver/src/stm32f30x_tim.c ****   *            @arg TIM_ICPolarity_BothEdge         
3908:../Libraries/STM32F30x_StdPeriph_Driver/src/stm32f30x_tim.c ****   * @param  TIM_ICSelection: specifies the input to be used.
3909:../Libraries/STM32F30x_StdPeriph_Driver/src/stm32f30x_tim.c ****   *          This parameter can be one of the following values:
3910:../Libraries/STM32F30x_StdPeriph_Driver/src/stm32f30x_tim.c ****   *            @arg TIM_ICSelection_DirectTI: TIM Input 3 is selected to be connected to IC3.
3911:../Libraries/STM32F30x_StdPeriph_Driver/src/stm32f30x_tim.c ****   *            @arg TIM_ICSelection_IndirectTI: TIM Input 3 is selected to be connected to IC4.
3912:../Libraries/STM32F30x_StdPeriph_Driver/src/stm32f30x_tim.c ****   *            @arg TIM_ICSelection_TRC: TIM Input 3 is selected to be connected to TRC.
3913:../Libraries/STM32F30x_StdPeriph_Driver/src/stm32f30x_tim.c ****   * @param  TIM_ICFilter: Specifies the Input Capture Filter.
3914:../Libraries/STM32F30x_StdPeriph_Driver/src/stm32f30x_tim.c ****   *          This parameter must be a value between 0x00 and 0x0F.
3915:../Libraries/STM32F30x_StdPeriph_Driver/src/stm32f30x_tim.c ****   * @retval None
3916:../Libraries/STM32F30x_StdPeriph_Driver/src/stm32f30x_tim.c ****   */
3917:../Libraries/STM32F30x_StdPeriph_Driver/src/stm32f30x_tim.c **** static void TI3_Config(TIM_TypeDef* TIMx, uint16_t TIM_ICPolarity, uint16_t TIM_ICSelection,
3918:../Libraries/STM32F30x_StdPeriph_Driver/src/stm32f30x_tim.c ****                        uint16_t TIM_ICFilter)
3919:../Libraries/STM32F30x_StdPeriph_Driver/src/stm32f30x_tim.c **** {
 5842              		.loc 1 3919 0
 5843              		.cfi_startproc
 5844              		@ args = 0, pretend = 0, frame = 24
 5845              		@ frame_needed = 0, uses_anonymous_args = 0
 5846              		@ link register save eliminated.
 5847 1ec8 86B0     		sub	sp, sp, #24
 5848              	.LCFI119:
 5849              		.cfi_def_cfa_offset 24
 5850 1eca 0390     		str	r0, [sp, #12]
 5851 1ecc ADF80A10 		strh	r1, [sp, #10]	@ movhi
 5852 1ed0 ADF80820 		strh	r2, [sp, #8]	@ movhi
 5853 1ed4 ADF80630 		strh	r3, [sp, #6]	@ movhi
3920:../Libraries/STM32F30x_StdPeriph_Driver/src/stm32f30x_tim.c ****   uint16_t tmpccmr2 = 0, tmpccer = 0, tmp = 0;
 5854              		.loc 1 3920 0
 5855 1ed8 4FF00003 		mov	r3, #0
 5856 1edc ADF81630 		strh	r3, [sp, #22]	@ movhi
 5857 1ee0 4FF00003 		mov	r3, #0
 5858 1ee4 ADF81430 		strh	r3, [sp, #20]	@ movhi
 5859 1ee8 4FF00003 		mov	r3, #0
 5860 1eec ADF81230 		strh	r3, [sp, #18]	@ movhi
3921:../Libraries/STM32F30x_StdPeriph_Driver/src/stm32f30x_tim.c **** 
3922:../Libraries/STM32F30x_StdPeriph_Driver/src/stm32f30x_tim.c ****   /* Disable the Channel 3: Reset the CC3E Bit */
3923:../Libraries/STM32F30x_StdPeriph_Driver/src/stm32f30x_tim.c ****   TIMx->CCER &= (uint16_t)~TIM_CCER_CC3E;
 5861              		.loc 1 3923 0
 5862 1ef0 039B     		ldr	r3, [sp, #12]
 5863 1ef2 1A6A     		ldr	r2, [r3, #32]
 5864 1ef4 4FF6FF63 		movw	r3, #65279
 5865 1ef8 1340     		ands	r3, r3, r2
 5866 1efa 039A     		ldr	r2, [sp, #12]
 5867 1efc 1362     		str	r3, [r2, #32]
3924:../Libraries/STM32F30x_StdPeriph_Driver/src/stm32f30x_tim.c ****   tmpccmr2 = TIMx->CCMR2;
 5868              		.loc 1 3924 0
 5869 1efe 039B     		ldr	r3, [sp, #12]
 5870 1f00 DB69     		ldr	r3, [r3, #28]
 5871 1f02 ADF81630 		strh	r3, [sp, #22]	@ movhi
3925:../Libraries/STM32F30x_StdPeriph_Driver/src/stm32f30x_tim.c ****   tmpccer = TIMx->CCER;
 5872              		.loc 1 3925 0
 5873 1f06 039B     		ldr	r3, [sp, #12]
 5874 1f08 1B6A     		ldr	r3, [r3, #32]
 5875 1f0a ADF81430 		strh	r3, [sp, #20]	@ movhi
3926:../Libraries/STM32F30x_StdPeriph_Driver/src/stm32f30x_tim.c ****   tmp = (uint16_t)(TIM_ICPolarity << 8);
 5876              		.loc 1 3926 0
 5877 1f0e BDF80A30 		ldrh	r3, [sp, #10]	@ movhi
 5878 1f12 4FEA0323 		lsl	r3, r3, #8
 5879 1f16 ADF81230 		strh	r3, [sp, #18]	@ movhi
3927:../Libraries/STM32F30x_StdPeriph_Driver/src/stm32f30x_tim.c **** 
3928:../Libraries/STM32F30x_StdPeriph_Driver/src/stm32f30x_tim.c ****   /* Select the Input and set the filter */
3929:../Libraries/STM32F30x_StdPeriph_Driver/src/stm32f30x_tim.c ****   tmpccmr2 &= ((uint16_t)~TIM_CCMR1_CC1S) & ((uint16_t)~TIM_CCMR2_IC3F);
 5880              		.loc 1 3929 0
 5881 1f1a BDF81630 		ldrh	r3, [sp, #22]	@ movhi
 5882 1f1e 23F0F303 		bic	r3, r3, #243
 5883 1f22 ADF81630 		strh	r3, [sp, #22]	@ movhi
3930:../Libraries/STM32F30x_StdPeriph_Driver/src/stm32f30x_tim.c ****   tmpccmr2 |= (uint16_t)(TIM_ICSelection | (uint16_t)(TIM_ICFilter << (uint16_t)4));
 5884              		.loc 1 3930 0
 5885 1f26 BDF80630 		ldrh	r3, [sp, #6]	@ movhi
 5886 1f2a 4FEA0313 		lsl	r3, r3, #4
 5887 1f2e 9AB2     		uxth	r2, r3
 5888 1f30 BDF80830 		ldrh	r3, [sp, #8]	@ movhi
 5889 1f34 1343     		orrs	r3, r3, r2
 5890 1f36 9AB2     		uxth	r2, r3
 5891 1f38 BDF81630 		ldrh	r3, [sp, #22]	@ movhi
 5892 1f3c 1343     		orrs	r3, r3, r2
 5893 1f3e ADF81630 		strh	r3, [sp, #22]	@ movhi
3931:../Libraries/STM32F30x_StdPeriph_Driver/src/stm32f30x_tim.c **** 
3932:../Libraries/STM32F30x_StdPeriph_Driver/src/stm32f30x_tim.c ****   /* Select the Polarity and set the CC3E Bit */
3933:../Libraries/STM32F30x_StdPeriph_Driver/src/stm32f30x_tim.c ****   tmpccer &= (uint16_t)~(TIM_CCER_CC3P | TIM_CCER_CC3NP);
 5894              		.loc 1 3933 0
 5895 1f42 BDF81430 		ldrh	r3, [sp, #20]	@ movhi
 5896 1f46 23F42063 		bic	r3, r3, #2560
 5897 1f4a ADF81430 		strh	r3, [sp, #20]	@ movhi
3934:../Libraries/STM32F30x_StdPeriph_Driver/src/stm32f30x_tim.c ****   tmpccer |= (uint16_t)(tmp | (uint16_t)TIM_CCER_CC3E);
 5898              		.loc 1 3934 0
 5899 1f4e BDF81220 		ldrh	r2, [sp, #18]	@ movhi
 5900 1f52 BDF81430 		ldrh	r3, [sp, #20]	@ movhi
 5901 1f56 1343     		orrs	r3, r3, r2
 5902 1f58 9BB2     		uxth	r3, r3
 5903 1f5a 43F48073 		orr	r3, r3, #256
 5904 1f5e ADF81430 		strh	r3, [sp, #20]	@ movhi
3935:../Libraries/STM32F30x_StdPeriph_Driver/src/stm32f30x_tim.c **** 
3936:../Libraries/STM32F30x_StdPeriph_Driver/src/stm32f30x_tim.c ****   /* Write to TIMx CCMR2 and CCER registers */
3937:../Libraries/STM32F30x_StdPeriph_Driver/src/stm32f30x_tim.c ****   TIMx->CCMR2 = tmpccmr2;
 5905              		.loc 1 3937 0
 5906 1f62 BDF81620 		ldrh	r2, [sp, #22]
 5907 1f66 039B     		ldr	r3, [sp, #12]
 5908 1f68 DA61     		str	r2, [r3, #28]
3938:../Libraries/STM32F30x_StdPeriph_Driver/src/stm32f30x_tim.c ****   TIMx->CCER = tmpccer;
 5909              		.loc 1 3938 0
 5910 1f6a BDF81420 		ldrh	r2, [sp, #20]
 5911 1f6e 039B     		ldr	r3, [sp, #12]
 5912 1f70 1A62     		str	r2, [r3, #32]
3939:../Libraries/STM32F30x_StdPeriph_Driver/src/stm32f30x_tim.c **** }
 5913              		.loc 1 3939 0
 5914 1f72 06B0     		add	sp, sp, #24
 5915 1f74 7047     		bx	lr
 5916              		.cfi_endproc
 5917              	.LFE223:
 5919 1f76 00BF     		.align	2
 5920              		.thumb
 5921              		.thumb_func
 5923              	TI4_Config:
 5924              	.LFB224:
3940:../Libraries/STM32F30x_StdPeriph_Driver/src/stm32f30x_tim.c **** 
3941:../Libraries/STM32F30x_StdPeriph_Driver/src/stm32f30x_tim.c **** /**
3942:../Libraries/STM32F30x_StdPeriph_Driver/src/stm32f30x_tim.c ****   * @brief  Configure the TI4 as Input.
3943:../Libraries/STM32F30x_StdPeriph_Driver/src/stm32f30x_tim.c ****   * @param  TIMx: where x can be 1, 2, 3, 4, 5 or 8 to select the TIM peripheral.
3944:../Libraries/STM32F30x_StdPeriph_Driver/src/stm32f30x_tim.c ****   * @param  TIM_ICPolarity : The Input Polarity.
3945:../Libraries/STM32F30x_StdPeriph_Driver/src/stm32f30x_tim.c ****   *          This parameter can be one of the following values:
3946:../Libraries/STM32F30x_StdPeriph_Driver/src/stm32f30x_tim.c ****   *            @arg TIM_ICPolarity_Rising
3947:../Libraries/STM32F30x_StdPeriph_Driver/src/stm32f30x_tim.c ****   *            @arg TIM_ICPolarity_Falling
3948:../Libraries/STM32F30x_StdPeriph_Driver/src/stm32f30x_tim.c ****   *            @arg TIM_ICPolarity_BothEdge     
3949:../Libraries/STM32F30x_StdPeriph_Driver/src/stm32f30x_tim.c ****   * @param  TIM_ICSelection: specifies the input to be used.
3950:../Libraries/STM32F30x_StdPeriph_Driver/src/stm32f30x_tim.c ****   *          This parameter can be one of the following values:
3951:../Libraries/STM32F30x_StdPeriph_Driver/src/stm32f30x_tim.c ****   *            @arg TIM_ICSelection_DirectTI: TIM Input 4 is selected to be connected to IC4.
3952:../Libraries/STM32F30x_StdPeriph_Driver/src/stm32f30x_tim.c ****   *            @arg TIM_ICSelection_IndirectTI: TIM Input 4 is selected to be connected to IC3.
3953:../Libraries/STM32F30x_StdPeriph_Driver/src/stm32f30x_tim.c ****   *            @arg TIM_ICSelection_TRC: TIM Input 4 is selected to be connected to TRC.
3954:../Libraries/STM32F30x_StdPeriph_Driver/src/stm32f30x_tim.c ****   * @param  TIM_ICFilter: Specifies the Input Capture Filter.
3955:../Libraries/STM32F30x_StdPeriph_Driver/src/stm32f30x_tim.c ****   *          This parameter must be a value between 0x00 and 0x0F.
3956:../Libraries/STM32F30x_StdPeriph_Driver/src/stm32f30x_tim.c ****   * @retval None
3957:../Libraries/STM32F30x_StdPeriph_Driver/src/stm32f30x_tim.c ****   */
3958:../Libraries/STM32F30x_StdPeriph_Driver/src/stm32f30x_tim.c **** static void TI4_Config(TIM_TypeDef* TIMx, uint16_t TIM_ICPolarity, uint16_t TIM_ICSelection,
3959:../Libraries/STM32F30x_StdPeriph_Driver/src/stm32f30x_tim.c ****                        uint16_t TIM_ICFilter)
3960:../Libraries/STM32F30x_StdPeriph_Driver/src/stm32f30x_tim.c **** {
 5925              		.loc 1 3960 0
 5926              		.cfi_startproc
 5927              		@ args = 0, pretend = 0, frame = 24
 5928              		@ frame_needed = 0, uses_anonymous_args = 0
 5929              		@ link register save eliminated.
 5930 1f78 86B0     		sub	sp, sp, #24
 5931              	.LCFI120:
 5932              		.cfi_def_cfa_offset 24
 5933 1f7a 0390     		str	r0, [sp, #12]
 5934 1f7c ADF80A10 		strh	r1, [sp, #10]	@ movhi
 5935 1f80 ADF80820 		strh	r2, [sp, #8]	@ movhi
 5936 1f84 ADF80630 		strh	r3, [sp, #6]	@ movhi
3961:../Libraries/STM32F30x_StdPeriph_Driver/src/stm32f30x_tim.c ****   uint16_t tmpccmr2 = 0, tmpccer = 0, tmp = 0;
 5937              		.loc 1 3961 0
 5938 1f88 4FF00003 		mov	r3, #0
 5939 1f8c ADF81630 		strh	r3, [sp, #22]	@ movhi
 5940 1f90 4FF00003 		mov	r3, #0
 5941 1f94 ADF81430 		strh	r3, [sp, #20]	@ movhi
 5942 1f98 4FF00003 		mov	r3, #0
 5943 1f9c ADF81230 		strh	r3, [sp, #18]	@ movhi
3962:../Libraries/STM32F30x_StdPeriph_Driver/src/stm32f30x_tim.c **** 
3963:../Libraries/STM32F30x_StdPeriph_Driver/src/stm32f30x_tim.c ****   /* Disable the Channel 4: Reset the CC4E Bit */
3964:../Libraries/STM32F30x_StdPeriph_Driver/src/stm32f30x_tim.c ****   TIMx->CCER &= (uint16_t)~TIM_CCER_CC4E;
 5944              		.loc 1 3964 0
 5945 1fa0 039B     		ldr	r3, [sp, #12]
 5946 1fa2 1A6A     		ldr	r2, [r3, #32]
 5947 1fa4 4EF6FF73 		movw	r3, #61439
 5948 1fa8 1340     		ands	r3, r3, r2
 5949 1faa 039A     		ldr	r2, [sp, #12]
 5950 1fac 1362     		str	r3, [r2, #32]
3965:../Libraries/STM32F30x_StdPeriph_Driver/src/stm32f30x_tim.c ****   tmpccmr2 = TIMx->CCMR2;
 5951              		.loc 1 3965 0
 5952 1fae 039B     		ldr	r3, [sp, #12]
 5953 1fb0 DB69     		ldr	r3, [r3, #28]
 5954 1fb2 ADF81630 		strh	r3, [sp, #22]	@ movhi
3966:../Libraries/STM32F30x_StdPeriph_Driver/src/stm32f30x_tim.c ****   tmpccer = TIMx->CCER;
 5955              		.loc 1 3966 0
 5956 1fb6 039B     		ldr	r3, [sp, #12]
 5957 1fb8 1B6A     		ldr	r3, [r3, #32]
 5958 1fba ADF81430 		strh	r3, [sp, #20]	@ movhi
3967:../Libraries/STM32F30x_StdPeriph_Driver/src/stm32f30x_tim.c ****   tmp = (uint16_t)(TIM_ICPolarity << 12);
 5959              		.loc 1 3967 0
 5960 1fbe BDF80A30 		ldrh	r3, [sp, #10]	@ movhi
 5961 1fc2 4FEA0333 		lsl	r3, r3, #12
 5962 1fc6 ADF81230 		strh	r3, [sp, #18]	@ movhi
3968:../Libraries/STM32F30x_StdPeriph_Driver/src/stm32f30x_tim.c **** 
3969:../Libraries/STM32F30x_StdPeriph_Driver/src/stm32f30x_tim.c ****   /* Select the Input and set the filter */
3970:../Libraries/STM32F30x_StdPeriph_Driver/src/stm32f30x_tim.c ****   tmpccmr2 &= ((uint16_t)~TIM_CCMR1_CC2S) & ((uint16_t)~TIM_CCMR1_IC2F);
 5963              		.loc 1 3970 0
 5964 1fca BDF81630 		ldrh	r3, [sp, #22]	@ movhi
 5965 1fce 23F44073 		bic	r3, r3, #768
 5966 1fd2 4FEA0353 		lsl	r3, r3, #20
 5967 1fd6 4FEA1353 		lsr	r3, r3, #20
 5968 1fda ADF81630 		strh	r3, [sp, #22]	@ movhi
3971:../Libraries/STM32F30x_StdPeriph_Driver/src/stm32f30x_tim.c ****   tmpccmr2 |= (uint16_t)(TIM_ICSelection << 8);
 5969              		.loc 1 3971 0
 5970 1fde BDF80830 		ldrh	r3, [sp, #8]	@ movhi
 5971 1fe2 4FEA0323 		lsl	r3, r3, #8
 5972 1fe6 9AB2     		uxth	r2, r3
 5973 1fe8 BDF81630 		ldrh	r3, [sp, #22]	@ movhi
 5974 1fec 1343     		orrs	r3, r3, r2
 5975 1fee ADF81630 		strh	r3, [sp, #22]	@ movhi
3972:../Libraries/STM32F30x_StdPeriph_Driver/src/stm32f30x_tim.c ****   tmpccmr2 |= (uint16_t)(TIM_ICFilter << 12);
 5976              		.loc 1 3972 0
 5977 1ff2 BDF80630 		ldrh	r3, [sp, #6]	@ movhi
 5978 1ff6 4FEA0333 		lsl	r3, r3, #12
 5979 1ffa 9AB2     		uxth	r2, r3
 5980 1ffc BDF81630 		ldrh	r3, [sp, #22]	@ movhi
 5981 2000 1343     		orrs	r3, r3, r2
 5982 2002 ADF81630 		strh	r3, [sp, #22]	@ movhi
3973:../Libraries/STM32F30x_StdPeriph_Driver/src/stm32f30x_tim.c **** 
3974:../Libraries/STM32F30x_StdPeriph_Driver/src/stm32f30x_tim.c ****   /* Select the Polarity and set the CC4E Bit */
3975:../Libraries/STM32F30x_StdPeriph_Driver/src/stm32f30x_tim.c ****   tmpccer &= (uint16_t)~(TIM_CCER_CC4P | TIM_CCER_CC4NP);
 5983              		.loc 1 3975 0
 5984 2006 BDF81430 		ldrh	r3, [sp, #20]	@ movhi
 5985 200a 23F40053 		bic	r3, r3, #8192
 5986 200e 4FEA4343 		lsl	r3, r3, #17
 5987 2012 4FEA5343 		lsr	r3, r3, #17
 5988 2016 ADF81430 		strh	r3, [sp, #20]	@ movhi
3976:../Libraries/STM32F30x_StdPeriph_Driver/src/stm32f30x_tim.c ****   tmpccer |= (uint16_t)(tmp | (uint16_t)TIM_CCER_CC4E);
 5989              		.loc 1 3976 0
 5990 201a BDF81220 		ldrh	r2, [sp, #18]	@ movhi
 5991 201e BDF81430 		ldrh	r3, [sp, #20]	@ movhi
 5992 2022 1343     		orrs	r3, r3, r2
 5993 2024 9BB2     		uxth	r3, r3
 5994 2026 43F48053 		orr	r3, r3, #4096
 5995 202a ADF81430 		strh	r3, [sp, #20]	@ movhi
3977:../Libraries/STM32F30x_StdPeriph_Driver/src/stm32f30x_tim.c **** 
3978:../Libraries/STM32F30x_StdPeriph_Driver/src/stm32f30x_tim.c ****   /* Write to TIMx CCMR2 and CCER registers */
3979:../Libraries/STM32F30x_StdPeriph_Driver/src/stm32f30x_tim.c ****   TIMx->CCMR2 = tmpccmr2;
 5996              		.loc 1 3979 0
 5997 202e BDF81620 		ldrh	r2, [sp, #22]
 5998 2032 039B     		ldr	r3, [sp, #12]
 5999 2034 DA61     		str	r2, [r3, #28]
3980:../Libraries/STM32F30x_StdPeriph_Driver/src/stm32f30x_tim.c ****   TIMx->CCER = tmpccer ;
 6000              		.loc 1 3980 0
 6001 2036 BDF81420 		ldrh	r2, [sp, #20]
 6002 203a 039B     		ldr	r3, [sp, #12]
 6003 203c 1A62     		str	r2, [r3, #32]
3981:../Libraries/STM32F30x_StdPeriph_Driver/src/stm32f30x_tim.c **** }
 6004              		.loc 1 3981 0
 6005 203e 06B0     		add	sp, sp, #24
 6006 2040 7047     		bx	lr
 6007              		.cfi_endproc
 6008              	.LFE224:
 6010              	.Letext0:
 6011              		.file 2 "c:\\program files\\codesourcery\\sourcery_codebench_lite_for_arm_eabi\\bin\\../lib/gcc/ar
 6012              		.file 3 "D:\\Documents and Settings\\e722209\\Desktop\\workspace\\aq32Plus_F3\\Libraries\\Device\\
 6013              		.file 4 "D:\\Documents and Settings\\e722209\\Desktop\\workspace\\aq32Plus_F3\\Libraries\\STM32F30
 6014              		.file 5 "D:\\Documents and Settings\\e722209\\Desktop\\workspace\\aq32Plus_F3\\Libraries\\CMSIS\\I
DEFINED SYMBOLS
                            *ABS*:00000000 stm32f30x_tim.c
D:\DOCUME~1\e722209\LOCALS~1\Temp\ccRkEQXd.s:19     .text:00000000 $t
D:\DOCUME~1\e722209\LOCALS~1\Temp\ccRkEQXd.s:24     .text:00000000 TIM_DeInit
D:\DOCUME~1\e722209\LOCALS~1\Temp\ccRkEQXd.s:207    .text:00000194 TIM_TimeBaseInit
D:\DOCUME~1\e722209\LOCALS~1\Temp\ccRkEQXd.s:352    .text:000002b0 TIM_TimeBaseStructInit
D:\DOCUME~1\e722209\LOCALS~1\Temp\ccRkEQXd.s:394    .text:000002e0 TIM_PrescalerConfig
D:\DOCUME~1\e722209\LOCALS~1\Temp\ccRkEQXd.s:428    .text:00000304 TIM_CounterModeConfig
D:\DOCUME~1\e722209\LOCALS~1\Temp\ccRkEQXd.s:472    .text:00000344 TIM_SetCounter
D:\DOCUME~1\e722209\LOCALS~1\Temp\ccRkEQXd.s:499    .text:00000354 TIM_SetAutoreload
D:\DOCUME~1\e722209\LOCALS~1\Temp\ccRkEQXd.s:526    .text:00000364 TIM_GetCounter
D:\DOCUME~1\e722209\LOCALS~1\Temp\ccRkEQXd.s:552    .text:00000374 TIM_GetPrescaler
D:\DOCUME~1\e722209\LOCALS~1\Temp\ccRkEQXd.s:579    .text:00000384 TIM_UpdateDisableConfig
D:\DOCUME~1\e722209\LOCALS~1\Temp\ccRkEQXd.s:626    .text:000003bc TIM_UpdateRequestConfig
D:\DOCUME~1\e722209\LOCALS~1\Temp\ccRkEQXd.s:673    .text:000003f4 TIM_UIFRemap
D:\DOCUME~1\e722209\LOCALS~1\Temp\ccRkEQXd.s:720    .text:0000042c TIM_ARRPreloadConfig
D:\DOCUME~1\e722209\LOCALS~1\Temp\ccRkEQXd.s:767    .text:00000464 TIM_SelectOnePulseMode
D:\DOCUME~1\e722209\LOCALS~1\Temp\ccRkEQXd.s:808    .text:00000494 TIM_SetClockDivision
D:\DOCUME~1\e722209\LOCALS~1\Temp\ccRkEQXd.s:849    .text:000004c4 TIM_Cmd
D:\DOCUME~1\e722209\LOCALS~1\Temp\ccRkEQXd.s:896    .text:000004fc TIM_OC1Init
D:\DOCUME~1\e722209\LOCALS~1\Temp\ccRkEQXd.s:1061   .text:00000618 TIM_OC2Init
D:\DOCUME~1\e722209\LOCALS~1\Temp\ccRkEQXd.s:1218   .text:00000728 TIM_OC3Init
D:\DOCUME~1\e722209\LOCALS~1\Temp\ccRkEQXd.s:1373   .text:00000830 TIM_OC4Init
D:\DOCUME~1\e722209\LOCALS~1\Temp\ccRkEQXd.s:1496   .text:000008f8 TIM_OC5Init
D:\DOCUME~1\e722209\LOCALS~1\Temp\ccRkEQXd.s:1614   .text:000009b4 TIM_OC6Init
D:\DOCUME~1\e722209\LOCALS~1\Temp\ccRkEQXd.s:1726   .text:00000a68 TIM_SelectGC5C1
D:\DOCUME~1\e722209\LOCALS~1\Temp\ccRkEQXd.s:1769   .text:00000a98 TIM_SelectGC5C2
D:\DOCUME~1\e722209\LOCALS~1\Temp\ccRkEQXd.s:1812   .text:00000ac8 TIM_SelectGC5C3
D:\DOCUME~1\e722209\LOCALS~1\Temp\ccRkEQXd.s:1855   .text:00000af8 TIM_OCStructInit
D:\DOCUME~1\e722209\LOCALS~1\Temp\ccRkEQXd.s:1909   .text:00000b40 TIM_SelectOCxM
D:\DOCUME~1\e722209\LOCALS~1\Temp\ccRkEQXd.s:2018   .text:00000c04 TIM_SetCompare1
D:\DOCUME~1\e722209\LOCALS~1\Temp\ccRkEQXd.s:2045   .text:00000c14 TIM_SetCompare2
D:\DOCUME~1\e722209\LOCALS~1\Temp\ccRkEQXd.s:2072   .text:00000c24 TIM_SetCompare3
D:\DOCUME~1\e722209\LOCALS~1\Temp\ccRkEQXd.s:2099   .text:00000c34 TIM_SetCompare4
D:\DOCUME~1\e722209\LOCALS~1\Temp\ccRkEQXd.s:2126   .text:00000c44 TIM_SetCompare5
D:\DOCUME~1\e722209\LOCALS~1\Temp\ccRkEQXd.s:2153   .text:00000c54 TIM_SetCompare6
D:\DOCUME~1\e722209\LOCALS~1\Temp\ccRkEQXd.s:2180   .text:00000c64 TIM_ForcedOC1Config
D:\DOCUME~1\e722209\LOCALS~1\Temp\ccRkEQXd.s:2225   .text:00000c9c TIM_ForcedOC2Config
D:\DOCUME~1\e722209\LOCALS~1\Temp\ccRkEQXd.s:2271   .text:00000cd8 TIM_ForcedOC3Config
D:\DOCUME~1\e722209\LOCALS~1\Temp\ccRkEQXd.s:2315   .text:00000d0c TIM_ForcedOC4Config
D:\DOCUME~1\e722209\LOCALS~1\Temp\ccRkEQXd.s:2360   .text:00000d44 TIM_ForcedOC5Config
D:\DOCUME~1\e722209\LOCALS~1\Temp\ccRkEQXd.s:2404   .text:00000d78 TIM_ForcedOC6Config
D:\DOCUME~1\e722209\LOCALS~1\Temp\ccRkEQXd.s:2449   .text:00000db0 TIM_OC1PreloadConfig
D:\DOCUME~1\e722209\LOCALS~1\Temp\ccRkEQXd.s:2493   .text:00000de4 TIM_OC2PreloadConfig
D:\DOCUME~1\e722209\LOCALS~1\Temp\ccRkEQXd.s:2538   .text:00000e1c TIM_OC3PreloadConfig
D:\DOCUME~1\e722209\LOCALS~1\Temp\ccRkEQXd.s:2582   .text:00000e50 TIM_OC4PreloadConfig
D:\DOCUME~1\e722209\LOCALS~1\Temp\ccRkEQXd.s:2627   .text:00000e88 TIM_OC5PreloadConfig
D:\DOCUME~1\e722209\LOCALS~1\Temp\ccRkEQXd.s:2671   .text:00000ebc TIM_OC6PreloadConfig
D:\DOCUME~1\e722209\LOCALS~1\Temp\ccRkEQXd.s:2716   .text:00000ef4 TIM_OC1FastConfig
D:\DOCUME~1\e722209\LOCALS~1\Temp\ccRkEQXd.s:2760   .text:00000f28 TIM_OC2FastConfig
D:\DOCUME~1\e722209\LOCALS~1\Temp\ccRkEQXd.s:2805   .text:00000f60 TIM_OC3FastConfig
D:\DOCUME~1\e722209\LOCALS~1\Temp\ccRkEQXd.s:2849   .text:00000f94 TIM_OC4FastConfig
D:\DOCUME~1\e722209\LOCALS~1\Temp\ccRkEQXd.s:2894   .text:00000fcc TIM_ClearOC1Ref
D:\DOCUME~1\e722209\LOCALS~1\Temp\ccRkEQXd.s:2938   .text:00001000 TIM_ClearOC2Ref
D:\DOCUME~1\e722209\LOCALS~1\Temp\ccRkEQXd.s:2983   .text:00001038 TIM_ClearOC3Ref
D:\DOCUME~1\e722209\LOCALS~1\Temp\ccRkEQXd.s:3027   .text:0000106c TIM_ClearOC4Ref
D:\DOCUME~1\e722209\LOCALS~1\Temp\ccRkEQXd.s:3072   .text:000010a4 TIM_ClearOC5Ref
D:\DOCUME~1\e722209\LOCALS~1\Temp\ccRkEQXd.s:3116   .text:000010d8 TIM_ClearOC6Ref
D:\DOCUME~1\e722209\LOCALS~1\Temp\ccRkEQXd.s:3161   .text:00001110 TIM_SelectOCREFClear
D:\DOCUME~1\e722209\LOCALS~1\Temp\ccRkEQXd.s:3199   .text:0000113c TIM_OC1PolarityConfig
D:\DOCUME~1\e722209\LOCALS~1\Temp\ccRkEQXd.s:3243   .text:00001170 TIM_OC1NPolarityConfig
D:\DOCUME~1\e722209\LOCALS~1\Temp\ccRkEQXd.s:3287   .text:000011a4 TIM_OC2PolarityConfig
D:\DOCUME~1\e722209\LOCALS~1\Temp\ccRkEQXd.s:3332   .text:000011dc TIM_OC2NPolarityConfig
D:\DOCUME~1\e722209\LOCALS~1\Temp\ccRkEQXd.s:3377   .text:00001214 TIM_OC3PolarityConfig
D:\DOCUME~1\e722209\LOCALS~1\Temp\ccRkEQXd.s:3422   .text:0000124c TIM_OC3NPolarityConfig
D:\DOCUME~1\e722209\LOCALS~1\Temp\ccRkEQXd.s:3467   .text:00001284 TIM_OC4PolarityConfig
D:\DOCUME~1\e722209\LOCALS~1\Temp\ccRkEQXd.s:3512   .text:000012bc TIM_OC5PolarityConfig
D:\DOCUME~1\e722209\LOCALS~1\Temp\ccRkEQXd.s:3557   .text:000012f4 TIM_OC6PolarityConfig
D:\DOCUME~1\e722209\LOCALS~1\Temp\ccRkEQXd.s:3602   .text:0000132c TIM_CCxCmd
D:\DOCUME~1\e722209\LOCALS~1\Temp\ccRkEQXd.s:3653   .text:0000137c TIM_CCxNCmd
D:\DOCUME~1\e722209\LOCALS~1\Temp\ccRkEQXd.s:3704   .text:000013cc TIM_ICInit
D:\DOCUME~1\e722209\LOCALS~1\Temp\ccRkEQXd.s:5678   .text:00001db8 TI1_Config
D:\DOCUME~1\e722209\LOCALS~1\Temp\ccRkEQXd.s:4102   .text:000015b4 TIM_SetIC1Prescaler
D:\DOCUME~1\e722209\LOCALS~1\Temp\ccRkEQXd.s:5752   .text:00001e30 TI2_Config
D:\DOCUME~1\e722209\LOCALS~1\Temp\ccRkEQXd.s:4139   .text:000015dc TIM_SetIC2Prescaler
D:\DOCUME~1\e722209\LOCALS~1\Temp\ccRkEQXd.s:5840   .text:00001ec8 TI3_Config
D:\DOCUME~1\e722209\LOCALS~1\Temp\ccRkEQXd.s:4177   .text:00001608 TIM_SetIC3Prescaler
D:\DOCUME~1\e722209\LOCALS~1\Temp\ccRkEQXd.s:5923   .text:00001f78 TI4_Config
D:\DOCUME~1\e722209\LOCALS~1\Temp\ccRkEQXd.s:4215   .text:00001634 TIM_SetIC4Prescaler
D:\DOCUME~1\e722209\LOCALS~1\Temp\ccRkEQXd.s:3828   .text:00001470 TIM_ICStructInit
D:\DOCUME~1\e722209\LOCALS~1\Temp\ccRkEQXd.s:3870   .text:000014a0 TIM_PWMIConfig
D:\DOCUME~1\e722209\LOCALS~1\Temp\ccRkEQXd.s:3998   .text:00001574 TIM_GetCapture1
D:\DOCUME~1\e722209\LOCALS~1\Temp\ccRkEQXd.s:4024   .text:00001584 TIM_GetCapture2
D:\DOCUME~1\e722209\LOCALS~1\Temp\ccRkEQXd.s:4050   .text:00001594 TIM_GetCapture3
D:\DOCUME~1\e722209\LOCALS~1\Temp\ccRkEQXd.s:4076   .text:000015a4 TIM_GetCapture4
D:\DOCUME~1\e722209\LOCALS~1\Temp\ccRkEQXd.s:4255   .text:00001664 TIM_BDTRConfig
D:\DOCUME~1\e722209\LOCALS~1\Temp\ccRkEQXd.s:4316   .text:000016a8 TIM_Break1Config
D:\DOCUME~1\e722209\LOCALS~1\Temp\ccRkEQXd.s:4357   .text:000016dc TIM_Break2Config
D:\DOCUME~1\e722209\LOCALS~1\Temp\ccRkEQXd.s:4398   .text:00001710 TIM_Break1Cmd
D:\DOCUME~1\e722209\LOCALS~1\Temp\ccRkEQXd.s:4441   .text:00001740 TIM_Break2Cmd
D:\DOCUME~1\e722209\LOCALS~1\Temp\ccRkEQXd.s:4484   .text:00001770 TIM_BDTRStructInit
D:\DOCUME~1\e722209\LOCALS~1\Temp\ccRkEQXd.s:4534   .text:000017b0 TIM_CtrlPWMOutputs
D:\DOCUME~1\e722209\LOCALS~1\Temp\ccRkEQXd.s:4578   .text:000017e4 TIM_SelectCOM
D:\DOCUME~1\e722209\LOCALS~1\Temp\ccRkEQXd.s:4622   .text:00001818 TIM_CCPreloadControl
D:\DOCUME~1\e722209\LOCALS~1\Temp\ccRkEQXd.s:4666   .text:0000184c TIM_ITConfig
D:\DOCUME~1\e722209\LOCALS~1\Temp\ccRkEQXd.s:4715   .text:0000188c TIM_GenerateEvent
D:\DOCUME~1\e722209\LOCALS~1\Temp\ccRkEQXd.s:4743   .text:000018a4 TIM_GetFlagStatus
D:\DOCUME~1\e722209\LOCALS~1\Temp\ccRkEQXd.s:4788   .text:000018dc TIM_ClearFlag
D:\DOCUME~1\e722209\LOCALS~1\Temp\ccRkEQXd.s:4819   .text:000018fc TIM_GetITStatus
D:\DOCUME~1\e722209\LOCALS~1\Temp\ccRkEQXd.s:4885   .text:0000196c TIM_ClearITPendingBit
D:\DOCUME~1\e722209\LOCALS~1\Temp\ccRkEQXd.s:4916   .text:0000198c TIM_DMAConfig
D:\DOCUME~1\e722209\LOCALS~1\Temp\ccRkEQXd.s:4949   .text:000019b4 TIM_DMACmd
D:\DOCUME~1\e722209\LOCALS~1\Temp\ccRkEQXd.s:4998   .text:000019f4 TIM_SelectCCDMA
D:\DOCUME~1\e722209\LOCALS~1\Temp\ccRkEQXd.s:5042   .text:00001a28 TIM_InternalClockConfig
D:\DOCUME~1\e722209\LOCALS~1\Temp\ccRkEQXd.s:5071   .text:00001a40 TIM_ITRxExternalClockConfig
D:\DOCUME~1\e722209\LOCALS~1\Temp\ccRkEQXd.s:5270   .text:00001b6c TIM_SelectInputTrigger
D:\DOCUME~1\e722209\LOCALS~1\Temp\ccRkEQXd.s:5109   .text:00001a68 TIM_TIxExternalClockConfig
D:\DOCUME~1\e722209\LOCALS~1\Temp\ccRkEQXd.s:5169   .text:00001ac8 TIM_ETRClockMode1Config
D:\DOCUME~1\e722209\LOCALS~1\Temp\ccRkEQXd.s:5463   .text:00001c50 TIM_ETRConfig
D:\DOCUME~1\e722209\LOCALS~1\Temp\ccRkEQXd.s:5230   .text:00001b38 TIM_ETRClockMode2Config
D:\DOCUME~1\e722209\LOCALS~1\Temp\ccRkEQXd.s:5314   .text:00001bac TIM_SelectOutputTrigger
D:\DOCUME~1\e722209\LOCALS~1\Temp\ccRkEQXd.s:5352   .text:00001bd8 TIM_SelectOutputTrigger2
D:\DOCUME~1\e722209\LOCALS~1\Temp\ccRkEQXd.s:5388   .text:00001bfc TIM_SelectSlaveMode
D:\DOCUME~1\e722209\LOCALS~1\Temp\ccRkEQXd.s:5425   .text:00001c24 TIM_SelectMasterSlaveMode
D:\DOCUME~1\e722209\LOCALS~1\Temp\ccRkEQXd.s:5516   .text:00001cac TIM_EncoderInterfaceConfig
D:\DOCUME~1\e722209\LOCALS~1\Temp\ccRkEQXd.s:5607   .text:00001d6c TIM_SelectHallSensor
D:\DOCUME~1\e722209\LOCALS~1\Temp\ccRkEQXd.s:5651   .text:00001da0 TIM_RemapConfig
                     .debug_frame:00000010 $d

UNDEFINED SYMBOLS
RCC_APB2PeriphResetCmd
RCC_APB1PeriphResetCmd
