   1              		.syntax unified
   2              		.cpu cortex-m4
   3              		.eabi_attribute 27, 3
   4              		.fpu fpv4-sp-d16
   5              		.eabi_attribute 20, 1
   6              		.eabi_attribute 21, 1
   7              		.eabi_attribute 23, 3
   8              		.eabi_attribute 24, 1
   9              		.eabi_attribute 25, 1
  10              		.eabi_attribute 26, 1
  11              		.eabi_attribute 30, 6
  12              		.eabi_attribute 34, 1
  13              		.eabi_attribute 18, 4
  14              		.thumb
  15              		.file	"stm32f30x_wwdg.c"
  16              		.text
  17              	.Ltext0:
  18              		.cfi_sections	.debug_frame
  19              		.align	2
  20              		.global	WWDG_DeInit
  21              		.thumb
  22              		.thumb_func
  24              	WWDG_DeInit:
  25              	.LFB111:
  26              		.file 1 "../Libraries/STM32F30x_StdPeriph_Driver/src/stm32f30x_wwdg.c"
   1:../Libraries/STM32F30x_StdPeriph_Driver/src/stm32f30x_wwdg.c **** /**
   2:../Libraries/STM32F30x_StdPeriph_Driver/src/stm32f30x_wwdg.c ****   ******************************************************************************
   3:../Libraries/STM32F30x_StdPeriph_Driver/src/stm32f30x_wwdg.c ****   * @file    stm32f30x_wwdg.c
   4:../Libraries/STM32F30x_StdPeriph_Driver/src/stm32f30x_wwdg.c ****   * @author  MCD Application Team
   5:../Libraries/STM32F30x_StdPeriph_Driver/src/stm32f30x_wwdg.c ****   * @version V1.0.1
   6:../Libraries/STM32F30x_StdPeriph_Driver/src/stm32f30x_wwdg.c ****   * @date    23-October-2012
   7:../Libraries/STM32F30x_StdPeriph_Driver/src/stm32f30x_wwdg.c ****   * @brief   This file provides firmware functions to manage the following 
   8:../Libraries/STM32F30x_StdPeriph_Driver/src/stm32f30x_wwdg.c ****   *          functionalities of the Window watchdog (WWDG) peripheral:
   9:../Libraries/STM32F30x_StdPeriph_Driver/src/stm32f30x_wwdg.c ****   *           + Prescaler, Refresh window and Counter configuration
  10:../Libraries/STM32F30x_StdPeriph_Driver/src/stm32f30x_wwdg.c ****   *           + WWDG activation
  11:../Libraries/STM32F30x_StdPeriph_Driver/src/stm32f30x_wwdg.c ****   *           + Interrupts and flags management
  12:../Libraries/STM32F30x_StdPeriph_Driver/src/stm32f30x_wwdg.c ****   *             
  13:../Libraries/STM32F30x_StdPeriph_Driver/src/stm32f30x_wwdg.c ****   *  @verbatim
  14:../Libraries/STM32F30x_StdPeriph_Driver/src/stm32f30x_wwdg.c ****   *    
  15:../Libraries/STM32F30x_StdPeriph_Driver/src/stm32f30x_wwdg.c ****   ==============================================================================
  16:../Libraries/STM32F30x_StdPeriph_Driver/src/stm32f30x_wwdg.c ****                            ##### WWDG features #####
  17:../Libraries/STM32F30x_StdPeriph_Driver/src/stm32f30x_wwdg.c ****   ==============================================================================
  18:../Libraries/STM32F30x_StdPeriph_Driver/src/stm32f30x_wwdg.c ****                                         
  19:../Libraries/STM32F30x_StdPeriph_Driver/src/stm32f30x_wwdg.c ****     [..] Once enabled the WWDG generates a system reset on expiry of a programmed
  20:../Libraries/STM32F30x_StdPeriph_Driver/src/stm32f30x_wwdg.c ****         time period, unless the program refreshes the counter (downcounter) 
  21:../Libraries/STM32F30x_StdPeriph_Driver/src/stm32f30x_wwdg.c ****         before to reach 0x3F value (i.e. a reset is generated when the counter
  22:../Libraries/STM32F30x_StdPeriph_Driver/src/stm32f30x_wwdg.c ****         value rolls over from 0x40 to 0x3F). 
  23:../Libraries/STM32F30x_StdPeriph_Driver/src/stm32f30x_wwdg.c ****     [..] An MCU reset is also generated if the counter value is refreshed
  24:../Libraries/STM32F30x_StdPeriph_Driver/src/stm32f30x_wwdg.c ****         before the counter has reached the refresh window value. This 
  25:../Libraries/STM32F30x_StdPeriph_Driver/src/stm32f30x_wwdg.c ****         implies that the counter must be refreshed in a limited window.
  26:../Libraries/STM32F30x_StdPeriph_Driver/src/stm32f30x_wwdg.c ****             
  27:../Libraries/STM32F30x_StdPeriph_Driver/src/stm32f30x_wwdg.c ****     [..] Once enabled the WWDG cannot be disabled except by a system reset.
  28:../Libraries/STM32F30x_StdPeriph_Driver/src/stm32f30x_wwdg.c ****          
  29:../Libraries/STM32F30x_StdPeriph_Driver/src/stm32f30x_wwdg.c ****     [..] WWDGRST flag in RCC_CSR register can be used to inform when a WWDG
  30:../Libraries/STM32F30x_StdPeriph_Driver/src/stm32f30x_wwdg.c ****         reset occurs.
  31:../Libraries/STM32F30x_StdPeriph_Driver/src/stm32f30x_wwdg.c ****             
  32:../Libraries/STM32F30x_StdPeriph_Driver/src/stm32f30x_wwdg.c ****     [..] The WWDG counter input clock is derived from the APB clock divided 
  33:../Libraries/STM32F30x_StdPeriph_Driver/src/stm32f30x_wwdg.c ****         by a programmable prescaler.
  34:../Libraries/STM32F30x_StdPeriph_Driver/src/stm32f30x_wwdg.c ****               
  35:../Libraries/STM32F30x_StdPeriph_Driver/src/stm32f30x_wwdg.c ****     [..] WWDG counter clock = PCLK1 / Prescaler.
  36:../Libraries/STM32F30x_StdPeriph_Driver/src/stm32f30x_wwdg.c ****     [..] WWDG timeout = (WWDG counter clock) * (counter value).
  37:../Libraries/STM32F30x_StdPeriph_Driver/src/stm32f30x_wwdg.c ****                      
  38:../Libraries/STM32F30x_StdPeriph_Driver/src/stm32f30x_wwdg.c ****     [..] Min-max timeout value @36MHz (PCLK1): ~114us / ~58.3ms. 
  39:../Libraries/STM32F30x_StdPeriph_Driver/src/stm32f30x_wwdg.c **** 
  40:../Libraries/STM32F30x_StdPeriph_Driver/src/stm32f30x_wwdg.c ****                      ##### How to use this driver #####
  41:../Libraries/STM32F30x_StdPeriph_Driver/src/stm32f30x_wwdg.c ****   ============================================================================== 
  42:../Libraries/STM32F30x_StdPeriph_Driver/src/stm32f30x_wwdg.c ****     [..]         
  43:../Libraries/STM32F30x_StdPeriph_Driver/src/stm32f30x_wwdg.c ****           (#) Enable WWDG clock using RCC_APB1PeriphClockCmd(RCC_APB1Periph_WWDG, ENABLE) 
  44:../Libraries/STM32F30x_StdPeriph_Driver/src/stm32f30x_wwdg.c ****               function.
  45:../Libraries/STM32F30x_StdPeriph_Driver/src/stm32f30x_wwdg.c ****             
  46:../Libraries/STM32F30x_StdPeriph_Driver/src/stm32f30x_wwdg.c ****           (#) Configure the WWDG prescaler using WWDG_SetPrescaler() function.
  47:../Libraries/STM32F30x_StdPeriph_Driver/src/stm32f30x_wwdg.c ****                            
  48:../Libraries/STM32F30x_StdPeriph_Driver/src/stm32f30x_wwdg.c ****           (#) Configure the WWDG refresh window using WWDG_SetWindowValue() function.
  49:../Libraries/STM32F30x_StdPeriph_Driver/src/stm32f30x_wwdg.c ****             
  50:../Libraries/STM32F30x_StdPeriph_Driver/src/stm32f30x_wwdg.c ****           (#) Set the WWDG counter value and start it using WWDG_Enable() function.
  51:../Libraries/STM32F30x_StdPeriph_Driver/src/stm32f30x_wwdg.c ****              When the WWDG is enabled the counter value should be configured to 
  52:../Libraries/STM32F30x_StdPeriph_Driver/src/stm32f30x_wwdg.c ****              a value greater than 0x40 to prevent generating an immediate reset.     
  53:../Libraries/STM32F30x_StdPeriph_Driver/src/stm32f30x_wwdg.c ****             
  54:../Libraries/STM32F30x_StdPeriph_Driver/src/stm32f30x_wwdg.c ****           (#) Optionally you can enable the Early wakeup interrupt which is 
  55:../Libraries/STM32F30x_StdPeriph_Driver/src/stm32f30x_wwdg.c ****              generated when the counter reach 0x40.
  56:../Libraries/STM32F30x_StdPeriph_Driver/src/stm32f30x_wwdg.c ****              Once enabled this interrupt cannot be disabled except by a system reset.
  57:../Libraries/STM32F30x_StdPeriph_Driver/src/stm32f30x_wwdg.c ****                  
  58:../Libraries/STM32F30x_StdPeriph_Driver/src/stm32f30x_wwdg.c ****           (#) Then the application program must refresh the WWDG counter at regular
  59:../Libraries/STM32F30x_StdPeriph_Driver/src/stm32f30x_wwdg.c ****              intervals during normal operation to prevent an MCU reset, using
  60:../Libraries/STM32F30x_StdPeriph_Driver/src/stm32f30x_wwdg.c ****              WWDG_SetCounter() function. This operation must occur only when
  61:../Libraries/STM32F30x_StdPeriph_Driver/src/stm32f30x_wwdg.c ****              the counter value is lower than the refresh window value, 
  62:../Libraries/STM32F30x_StdPeriph_Driver/src/stm32f30x_wwdg.c ****              programmed using WWDG_SetWindowValue().         
  63:../Libraries/STM32F30x_StdPeriph_Driver/src/stm32f30x_wwdg.c **** 
  64:../Libraries/STM32F30x_StdPeriph_Driver/src/stm32f30x_wwdg.c ****   @endverbatim  
  65:../Libraries/STM32F30x_StdPeriph_Driver/src/stm32f30x_wwdg.c ****                              
  66:../Libraries/STM32F30x_StdPeriph_Driver/src/stm32f30x_wwdg.c ****   ******************************************************************************
  67:../Libraries/STM32F30x_StdPeriph_Driver/src/stm32f30x_wwdg.c ****   * @attention
  68:../Libraries/STM32F30x_StdPeriph_Driver/src/stm32f30x_wwdg.c ****   *
  69:../Libraries/STM32F30x_StdPeriph_Driver/src/stm32f30x_wwdg.c ****   * <h2><center>&copy; COPYRIGHT 2012 STMicroelectronics</center></h2>
  70:../Libraries/STM32F30x_StdPeriph_Driver/src/stm32f30x_wwdg.c ****   *
  71:../Libraries/STM32F30x_StdPeriph_Driver/src/stm32f30x_wwdg.c ****   * Licensed under MCD-ST Liberty SW License Agreement V2, (the "License");
  72:../Libraries/STM32F30x_StdPeriph_Driver/src/stm32f30x_wwdg.c ****   * You may not use this file except in compliance with the License.
  73:../Libraries/STM32F30x_StdPeriph_Driver/src/stm32f30x_wwdg.c ****   * You may obtain a copy of the License at:
  74:../Libraries/STM32F30x_StdPeriph_Driver/src/stm32f30x_wwdg.c ****   *
  75:../Libraries/STM32F30x_StdPeriph_Driver/src/stm32f30x_wwdg.c ****   *        http://www.st.com/software_license_agreement_liberty_v2
  76:../Libraries/STM32F30x_StdPeriph_Driver/src/stm32f30x_wwdg.c ****   *
  77:../Libraries/STM32F30x_StdPeriph_Driver/src/stm32f30x_wwdg.c ****   * Unless required by applicable law or agreed to in writing, software 
  78:../Libraries/STM32F30x_StdPeriph_Driver/src/stm32f30x_wwdg.c ****   * distributed under the License is distributed on an "AS IS" BASIS, 
  79:../Libraries/STM32F30x_StdPeriph_Driver/src/stm32f30x_wwdg.c ****   * WITHOUT WARRANTIES OR CONDITIONS OF ANY KIND, either express or implied.
  80:../Libraries/STM32F30x_StdPeriph_Driver/src/stm32f30x_wwdg.c ****   * See the License for the specific language governing permissions and
  81:../Libraries/STM32F30x_StdPeriph_Driver/src/stm32f30x_wwdg.c ****   * limitations under the License.
  82:../Libraries/STM32F30x_StdPeriph_Driver/src/stm32f30x_wwdg.c ****   *
  83:../Libraries/STM32F30x_StdPeriph_Driver/src/stm32f30x_wwdg.c ****   ******************************************************************************
  84:../Libraries/STM32F30x_StdPeriph_Driver/src/stm32f30x_wwdg.c ****   */
  85:../Libraries/STM32F30x_StdPeriph_Driver/src/stm32f30x_wwdg.c **** 
  86:../Libraries/STM32F30x_StdPeriph_Driver/src/stm32f30x_wwdg.c **** /* Includes ------------------------------------------------------------------*/
  87:../Libraries/STM32F30x_StdPeriph_Driver/src/stm32f30x_wwdg.c **** #include "stm32f30x_wwdg.h"
  88:../Libraries/STM32F30x_StdPeriph_Driver/src/stm32f30x_wwdg.c **** #include "stm32f30x_rcc.h"
  89:../Libraries/STM32F30x_StdPeriph_Driver/src/stm32f30x_wwdg.c **** 
  90:../Libraries/STM32F30x_StdPeriph_Driver/src/stm32f30x_wwdg.c **** /** @addtogroup STM32F30x_StdPeriph_Driver
  91:../Libraries/STM32F30x_StdPeriph_Driver/src/stm32f30x_wwdg.c ****   * @{
  92:../Libraries/STM32F30x_StdPeriph_Driver/src/stm32f30x_wwdg.c ****   */
  93:../Libraries/STM32F30x_StdPeriph_Driver/src/stm32f30x_wwdg.c **** 
  94:../Libraries/STM32F30x_StdPeriph_Driver/src/stm32f30x_wwdg.c **** /** @defgroup WWDG 
  95:../Libraries/STM32F30x_StdPeriph_Driver/src/stm32f30x_wwdg.c ****   * @brief WWDG driver modules
  96:../Libraries/STM32F30x_StdPeriph_Driver/src/stm32f30x_wwdg.c ****   * @{
  97:../Libraries/STM32F30x_StdPeriph_Driver/src/stm32f30x_wwdg.c ****   */
  98:../Libraries/STM32F30x_StdPeriph_Driver/src/stm32f30x_wwdg.c **** 
  99:../Libraries/STM32F30x_StdPeriph_Driver/src/stm32f30x_wwdg.c **** /* Private typedef -----------------------------------------------------------*/
 100:../Libraries/STM32F30x_StdPeriph_Driver/src/stm32f30x_wwdg.c **** /* Private define ------------------------------------------------------------*/
 101:../Libraries/STM32F30x_StdPeriph_Driver/src/stm32f30x_wwdg.c **** /* --------------------- WWDG registers bit mask ---------------------------- */
 102:../Libraries/STM32F30x_StdPeriph_Driver/src/stm32f30x_wwdg.c **** /* CFR register bit mask */
 103:../Libraries/STM32F30x_StdPeriph_Driver/src/stm32f30x_wwdg.c **** #define CFR_WDGTB_MASK    ((uint32_t)0xFFFFFE7F)
 104:../Libraries/STM32F30x_StdPeriph_Driver/src/stm32f30x_wwdg.c **** #define CFR_W_MASK        ((uint32_t)0xFFFFFF80)
 105:../Libraries/STM32F30x_StdPeriph_Driver/src/stm32f30x_wwdg.c **** #define BIT_MASK          ((uint8_t)0x7F)
 106:../Libraries/STM32F30x_StdPeriph_Driver/src/stm32f30x_wwdg.c **** 
 107:../Libraries/STM32F30x_StdPeriph_Driver/src/stm32f30x_wwdg.c **** /* Private macro -------------------------------------------------------------*/
 108:../Libraries/STM32F30x_StdPeriph_Driver/src/stm32f30x_wwdg.c **** /* Private variables ---------------------------------------------------------*/
 109:../Libraries/STM32F30x_StdPeriph_Driver/src/stm32f30x_wwdg.c **** /* Private function prototypes -----------------------------------------------*/
 110:../Libraries/STM32F30x_StdPeriph_Driver/src/stm32f30x_wwdg.c **** /* Private functions ---------------------------------------------------------*/
 111:../Libraries/STM32F30x_StdPeriph_Driver/src/stm32f30x_wwdg.c **** 
 112:../Libraries/STM32F30x_StdPeriph_Driver/src/stm32f30x_wwdg.c **** /** @defgroup WWDG_Private_Functions
 113:../Libraries/STM32F30x_StdPeriph_Driver/src/stm32f30x_wwdg.c ****   * @{
 114:../Libraries/STM32F30x_StdPeriph_Driver/src/stm32f30x_wwdg.c ****   */
 115:../Libraries/STM32F30x_StdPeriph_Driver/src/stm32f30x_wwdg.c **** 
 116:../Libraries/STM32F30x_StdPeriph_Driver/src/stm32f30x_wwdg.c **** /** @defgroup WWDG_Group1 Prescaler, Refresh window and Counter configuration functions
 117:../Libraries/STM32F30x_StdPeriph_Driver/src/stm32f30x_wwdg.c ****  *  @brief   Prescaler, Refresh window and Counter configuration functions 
 118:../Libraries/STM32F30x_StdPeriph_Driver/src/stm32f30x_wwdg.c ****  *
 119:../Libraries/STM32F30x_StdPeriph_Driver/src/stm32f30x_wwdg.c **** @verbatim   
 120:../Libraries/STM32F30x_StdPeriph_Driver/src/stm32f30x_wwdg.c ****   ==============================================================================
 121:../Libraries/STM32F30x_StdPeriph_Driver/src/stm32f30x_wwdg.c ****     ##### Prescaler, Refresh window and Counter configuration functions #####
 122:../Libraries/STM32F30x_StdPeriph_Driver/src/stm32f30x_wwdg.c ****   ==============================================================================  
 123:../Libraries/STM32F30x_StdPeriph_Driver/src/stm32f30x_wwdg.c **** 
 124:../Libraries/STM32F30x_StdPeriph_Driver/src/stm32f30x_wwdg.c **** @endverbatim
 125:../Libraries/STM32F30x_StdPeriph_Driver/src/stm32f30x_wwdg.c ****   * @{
 126:../Libraries/STM32F30x_StdPeriph_Driver/src/stm32f30x_wwdg.c ****   */
 127:../Libraries/STM32F30x_StdPeriph_Driver/src/stm32f30x_wwdg.c **** 
 128:../Libraries/STM32F30x_StdPeriph_Driver/src/stm32f30x_wwdg.c **** /**
 129:../Libraries/STM32F30x_StdPeriph_Driver/src/stm32f30x_wwdg.c ****   * @brief  Deinitializes the WWDG peripheral registers to their default reset values.
 130:../Libraries/STM32F30x_StdPeriph_Driver/src/stm32f30x_wwdg.c ****   * @param  None
 131:../Libraries/STM32F30x_StdPeriph_Driver/src/stm32f30x_wwdg.c ****   * @retval None
 132:../Libraries/STM32F30x_StdPeriph_Driver/src/stm32f30x_wwdg.c ****   */
 133:../Libraries/STM32F30x_StdPeriph_Driver/src/stm32f30x_wwdg.c **** void WWDG_DeInit(void)
 134:../Libraries/STM32F30x_StdPeriph_Driver/src/stm32f30x_wwdg.c **** {
  27              		.loc 1 134 0
  28              		.cfi_startproc
  29              		@ args = 0, pretend = 0, frame = 0
  30              		@ frame_needed = 0, uses_anonymous_args = 0
  31 0000 08B5     		push	{r3, lr}
  32              	.LCFI0:
  33              		.cfi_def_cfa_offset 8
  34              		.cfi_offset 14, -4
  35              		.cfi_offset 3, -8
 135:../Libraries/STM32F30x_StdPeriph_Driver/src/stm32f30x_wwdg.c ****   RCC_APB1PeriphResetCmd(RCC_APB1Periph_WWDG, ENABLE);
  36              		.loc 1 135 0
  37 0002 4FF40060 		mov	r0, #2048
  38 0006 4FF00101 		mov	r1, #1
  39 000a FFF7FEFF 		bl	RCC_APB1PeriphResetCmd
 136:../Libraries/STM32F30x_StdPeriph_Driver/src/stm32f30x_wwdg.c ****   RCC_APB1PeriphResetCmd(RCC_APB1Periph_WWDG, DISABLE);
  40              		.loc 1 136 0
  41 000e 4FF40060 		mov	r0, #2048
  42 0012 4FF00001 		mov	r1, #0
  43 0016 FFF7FEFF 		bl	RCC_APB1PeriphResetCmd
 137:../Libraries/STM32F30x_StdPeriph_Driver/src/stm32f30x_wwdg.c **** }
  44              		.loc 1 137 0
  45 001a 08BD     		pop	{r3, pc}
  46              		.cfi_endproc
  47              	.LFE111:
  49              		.align	2
  50              		.global	WWDG_SetPrescaler
  51              		.thumb
  52              		.thumb_func
  54              	WWDG_SetPrescaler:
  55              	.LFB112:
 138:../Libraries/STM32F30x_StdPeriph_Driver/src/stm32f30x_wwdg.c **** 
 139:../Libraries/STM32F30x_StdPeriph_Driver/src/stm32f30x_wwdg.c **** /**
 140:../Libraries/STM32F30x_StdPeriph_Driver/src/stm32f30x_wwdg.c ****   * @brief  Sets the WWDG Prescaler.
 141:../Libraries/STM32F30x_StdPeriph_Driver/src/stm32f30x_wwdg.c ****   * @param  WWDG_Prescaler: specifies the WWDG Prescaler.
 142:../Libraries/STM32F30x_StdPeriph_Driver/src/stm32f30x_wwdg.c ****   *   This parameter can be one of the following values:
 143:../Libraries/STM32F30x_StdPeriph_Driver/src/stm32f30x_wwdg.c ****   *     @arg WWDG_Prescaler_1: WWDG counter clock = (PCLK1/4096)/1
 144:../Libraries/STM32F30x_StdPeriph_Driver/src/stm32f30x_wwdg.c ****   *     @arg WWDG_Prescaler_2: WWDG counter clock = (PCLK1/4096)/2
 145:../Libraries/STM32F30x_StdPeriph_Driver/src/stm32f30x_wwdg.c ****   *     @arg WWDG_Prescaler_4: WWDG counter clock = (PCLK1/4096)/4
 146:../Libraries/STM32F30x_StdPeriph_Driver/src/stm32f30x_wwdg.c ****   *     @arg WWDG_Prescaler_8: WWDG counter clock = (PCLK1/4096)/8
 147:../Libraries/STM32F30x_StdPeriph_Driver/src/stm32f30x_wwdg.c ****   * @retval None
 148:../Libraries/STM32F30x_StdPeriph_Driver/src/stm32f30x_wwdg.c ****   */
 149:../Libraries/STM32F30x_StdPeriph_Driver/src/stm32f30x_wwdg.c **** void WWDG_SetPrescaler(uint32_t WWDG_Prescaler)
 150:../Libraries/STM32F30x_StdPeriph_Driver/src/stm32f30x_wwdg.c **** {
  56              		.loc 1 150 0
  57              		.cfi_startproc
  58              		@ args = 0, pretend = 0, frame = 16
  59              		@ frame_needed = 0, uses_anonymous_args = 0
  60              		@ link register save eliminated.
  61 001c 84B0     		sub	sp, sp, #16
  62              	.LCFI1:
  63              		.cfi_def_cfa_offset 16
  64 001e 0190     		str	r0, [sp, #4]
 151:../Libraries/STM32F30x_StdPeriph_Driver/src/stm32f30x_wwdg.c ****   uint32_t tmpreg = 0;
  65              		.loc 1 151 0
  66 0020 4FF00003 		mov	r3, #0
  67 0024 0393     		str	r3, [sp, #12]
 152:../Libraries/STM32F30x_StdPeriph_Driver/src/stm32f30x_wwdg.c ****   /* Check the parameters */
 153:../Libraries/STM32F30x_StdPeriph_Driver/src/stm32f30x_wwdg.c ****   assert_param(IS_WWDG_PRESCALER(WWDG_Prescaler));
 154:../Libraries/STM32F30x_StdPeriph_Driver/src/stm32f30x_wwdg.c ****   /* Clear WDGTB[1:0] bits */
 155:../Libraries/STM32F30x_StdPeriph_Driver/src/stm32f30x_wwdg.c ****   tmpreg = WWDG->CFR & CFR_WDGTB_MASK;
  68              		.loc 1 155 0
  69 0026 4FF43053 		mov	r3, #11264
  70 002a C4F20003 		movt	r3, 16384
  71 002e 5B68     		ldr	r3, [r3, #4]
  72 0030 23F4C073 		bic	r3, r3, #384
  73 0034 0393     		str	r3, [sp, #12]
 156:../Libraries/STM32F30x_StdPeriph_Driver/src/stm32f30x_wwdg.c ****   /* Set WDGTB[1:0] bits according to WWDG_Prescaler value */
 157:../Libraries/STM32F30x_StdPeriph_Driver/src/stm32f30x_wwdg.c ****   tmpreg |= WWDG_Prescaler;
  74              		.loc 1 157 0
  75 0036 039A     		ldr	r2, [sp, #12]
  76 0038 019B     		ldr	r3, [sp, #4]
  77 003a 1343     		orrs	r3, r3, r2
  78 003c 0393     		str	r3, [sp, #12]
 158:../Libraries/STM32F30x_StdPeriph_Driver/src/stm32f30x_wwdg.c ****   /* Store the new value */
 159:../Libraries/STM32F30x_StdPeriph_Driver/src/stm32f30x_wwdg.c ****   WWDG->CFR = tmpreg;
  79              		.loc 1 159 0
  80 003e 4FF43053 		mov	r3, #11264
  81 0042 C4F20003 		movt	r3, 16384
  82 0046 039A     		ldr	r2, [sp, #12]
  83 0048 5A60     		str	r2, [r3, #4]
 160:../Libraries/STM32F30x_StdPeriph_Driver/src/stm32f30x_wwdg.c **** }
  84              		.loc 1 160 0
  85 004a 04B0     		add	sp, sp, #16
  86 004c 7047     		bx	lr
  87              		.cfi_endproc
  88              	.LFE112:
  90 004e 00BF     		.align	2
  91              		.global	WWDG_SetWindowValue
  92              		.thumb
  93              		.thumb_func
  95              	WWDG_SetWindowValue:
  96              	.LFB113:
 161:../Libraries/STM32F30x_StdPeriph_Driver/src/stm32f30x_wwdg.c **** 
 162:../Libraries/STM32F30x_StdPeriph_Driver/src/stm32f30x_wwdg.c **** /**
 163:../Libraries/STM32F30x_StdPeriph_Driver/src/stm32f30x_wwdg.c ****   * @brief  Sets the WWDG window value.
 164:../Libraries/STM32F30x_StdPeriph_Driver/src/stm32f30x_wwdg.c ****   * @param  WindowValue: specifies the window value to be compared to the downcounter.
 165:../Libraries/STM32F30x_StdPeriph_Driver/src/stm32f30x_wwdg.c ****   *   This parameter value must be lower than 0x80.
 166:../Libraries/STM32F30x_StdPeriph_Driver/src/stm32f30x_wwdg.c ****   * @retval None
 167:../Libraries/STM32F30x_StdPeriph_Driver/src/stm32f30x_wwdg.c ****   */
 168:../Libraries/STM32F30x_StdPeriph_Driver/src/stm32f30x_wwdg.c **** void WWDG_SetWindowValue(uint8_t WindowValue)
 169:../Libraries/STM32F30x_StdPeriph_Driver/src/stm32f30x_wwdg.c **** {
  97              		.loc 1 169 0
  98              		.cfi_startproc
  99              		@ args = 0, pretend = 0, frame = 16
 100              		@ frame_needed = 0, uses_anonymous_args = 0
 101              		@ link register save eliminated.
 102 0050 84B0     		sub	sp, sp, #16
 103              	.LCFI2:
 104              		.cfi_def_cfa_offset 16
 105 0052 0346     		mov	r3, r0
 106 0054 8DF80730 		strb	r3, [sp, #7]
 170:../Libraries/STM32F30x_StdPeriph_Driver/src/stm32f30x_wwdg.c ****   __IO uint32_t tmpreg = 0;
 107              		.loc 1 170 0
 108 0058 4FF00003 		mov	r3, #0
 109 005c 0393     		str	r3, [sp, #12]
 171:../Libraries/STM32F30x_StdPeriph_Driver/src/stm32f30x_wwdg.c **** 
 172:../Libraries/STM32F30x_StdPeriph_Driver/src/stm32f30x_wwdg.c ****   /* Check the parameters */
 173:../Libraries/STM32F30x_StdPeriph_Driver/src/stm32f30x_wwdg.c ****   assert_param(IS_WWDG_WINDOW_VALUE(WindowValue));
 174:../Libraries/STM32F30x_StdPeriph_Driver/src/stm32f30x_wwdg.c ****   /* Clear W[6:0] bits */
 175:../Libraries/STM32F30x_StdPeriph_Driver/src/stm32f30x_wwdg.c **** 
 176:../Libraries/STM32F30x_StdPeriph_Driver/src/stm32f30x_wwdg.c ****   tmpreg = WWDG->CFR & CFR_W_MASK;
 110              		.loc 1 176 0
 111 005e 4FF43053 		mov	r3, #11264
 112 0062 C4F20003 		movt	r3, 16384
 113 0066 5B68     		ldr	r3, [r3, #4]
 114 0068 23F07F03 		bic	r3, r3, #127
 115 006c 0393     		str	r3, [sp, #12]
 177:../Libraries/STM32F30x_StdPeriph_Driver/src/stm32f30x_wwdg.c **** 
 178:../Libraries/STM32F30x_StdPeriph_Driver/src/stm32f30x_wwdg.c ****   /* Set W[6:0] bits according to WindowValue value */
 179:../Libraries/STM32F30x_StdPeriph_Driver/src/stm32f30x_wwdg.c ****   tmpreg |= WindowValue & (uint32_t) BIT_MASK;
 116              		.loc 1 179 0
 117 006e 9DF80730 		ldrb	r3, [sp, #7]	@ zero_extendqisi2
 118 0072 03F07F02 		and	r2, r3, #127
 119 0076 039B     		ldr	r3, [sp, #12]
 120 0078 1343     		orrs	r3, r3, r2
 121 007a 0393     		str	r3, [sp, #12]
 180:../Libraries/STM32F30x_StdPeriph_Driver/src/stm32f30x_wwdg.c **** 
 181:../Libraries/STM32F30x_StdPeriph_Driver/src/stm32f30x_wwdg.c ****   /* Store the new value */
 182:../Libraries/STM32F30x_StdPeriph_Driver/src/stm32f30x_wwdg.c ****   WWDG->CFR = tmpreg;
 122              		.loc 1 182 0
 123 007c 4FF43053 		mov	r3, #11264
 124 0080 C4F20003 		movt	r3, 16384
 125 0084 039A     		ldr	r2, [sp, #12]
 126 0086 5A60     		str	r2, [r3, #4]
 183:../Libraries/STM32F30x_StdPeriph_Driver/src/stm32f30x_wwdg.c **** }
 127              		.loc 1 183 0
 128 0088 04B0     		add	sp, sp, #16
 129 008a 7047     		bx	lr
 130              		.cfi_endproc
 131              	.LFE113:
 133              		.align	2
 134              		.global	WWDG_EnableIT
 135              		.thumb
 136              		.thumb_func
 138              	WWDG_EnableIT:
 139              	.LFB114:
 184:../Libraries/STM32F30x_StdPeriph_Driver/src/stm32f30x_wwdg.c **** 
 185:../Libraries/STM32F30x_StdPeriph_Driver/src/stm32f30x_wwdg.c **** /**
 186:../Libraries/STM32F30x_StdPeriph_Driver/src/stm32f30x_wwdg.c ****   * @brief  Enables the WWDG Early Wakeup interrupt(EWI).
 187:../Libraries/STM32F30x_StdPeriph_Driver/src/stm32f30x_wwdg.c ****   * @note   Once enabled this interrupt cannot be disabled except by a system reset. 
 188:../Libraries/STM32F30x_StdPeriph_Driver/src/stm32f30x_wwdg.c ****   * @param  None
 189:../Libraries/STM32F30x_StdPeriph_Driver/src/stm32f30x_wwdg.c ****   * @retval None
 190:../Libraries/STM32F30x_StdPeriph_Driver/src/stm32f30x_wwdg.c ****   */
 191:../Libraries/STM32F30x_StdPeriph_Driver/src/stm32f30x_wwdg.c **** void WWDG_EnableIT(void)
 192:../Libraries/STM32F30x_StdPeriph_Driver/src/stm32f30x_wwdg.c **** {
 140              		.loc 1 192 0
 141              		.cfi_startproc
 142              		@ args = 0, pretend = 0, frame = 0
 143              		@ frame_needed = 0, uses_anonymous_args = 0
 144              		@ link register save eliminated.
 193:../Libraries/STM32F30x_StdPeriph_Driver/src/stm32f30x_wwdg.c ****   WWDG->CFR |= WWDG_CFR_EWI;
 145              		.loc 1 193 0
 146 008c 4FF43053 		mov	r3, #11264
 147 0090 C4F20003 		movt	r3, 16384
 148 0094 4FF43052 		mov	r2, #11264
 149 0098 C4F20002 		movt	r2, 16384
 150 009c 5268     		ldr	r2, [r2, #4]
 151 009e 42F40072 		orr	r2, r2, #512
 152 00a2 5A60     		str	r2, [r3, #4]
 194:../Libraries/STM32F30x_StdPeriph_Driver/src/stm32f30x_wwdg.c **** }
 153              		.loc 1 194 0
 154 00a4 7047     		bx	lr
 155              		.cfi_endproc
 156              	.LFE114:
 158 00a6 00BF     		.align	2
 159              		.global	WWDG_SetCounter
 160              		.thumb
 161              		.thumb_func
 163              	WWDG_SetCounter:
 164              	.LFB115:
 195:../Libraries/STM32F30x_StdPeriph_Driver/src/stm32f30x_wwdg.c **** 
 196:../Libraries/STM32F30x_StdPeriph_Driver/src/stm32f30x_wwdg.c **** /**
 197:../Libraries/STM32F30x_StdPeriph_Driver/src/stm32f30x_wwdg.c ****   * @brief  Sets the WWDG counter value.
 198:../Libraries/STM32F30x_StdPeriph_Driver/src/stm32f30x_wwdg.c ****   * @param  Counter: specifies the watchdog counter value.
 199:../Libraries/STM32F30x_StdPeriph_Driver/src/stm32f30x_wwdg.c ****   *   This parameter must be a number between 0x40 and 0x7F (to prevent generating
 200:../Libraries/STM32F30x_StdPeriph_Driver/src/stm32f30x_wwdg.c ****   *   an immediate reset).  
 201:../Libraries/STM32F30x_StdPeriph_Driver/src/stm32f30x_wwdg.c ****   * @retval None
 202:../Libraries/STM32F30x_StdPeriph_Driver/src/stm32f30x_wwdg.c ****   */
 203:../Libraries/STM32F30x_StdPeriph_Driver/src/stm32f30x_wwdg.c **** void WWDG_SetCounter(uint8_t Counter)
 204:../Libraries/STM32F30x_StdPeriph_Driver/src/stm32f30x_wwdg.c **** {
 165              		.loc 1 204 0
 166              		.cfi_startproc
 167              		@ args = 0, pretend = 0, frame = 8
 168              		@ frame_needed = 0, uses_anonymous_args = 0
 169              		@ link register save eliminated.
 170 00a8 82B0     		sub	sp, sp, #8
 171              	.LCFI3:
 172              		.cfi_def_cfa_offset 8
 173 00aa 0346     		mov	r3, r0
 174 00ac 8DF80730 		strb	r3, [sp, #7]
 205:../Libraries/STM32F30x_StdPeriph_Driver/src/stm32f30x_wwdg.c ****   /* Check the parameters */
 206:../Libraries/STM32F30x_StdPeriph_Driver/src/stm32f30x_wwdg.c ****   assert_param(IS_WWDG_COUNTER(Counter));
 207:../Libraries/STM32F30x_StdPeriph_Driver/src/stm32f30x_wwdg.c ****   /* Write to T[6:0] bits to configure the counter value, no need to do
 208:../Libraries/STM32F30x_StdPeriph_Driver/src/stm32f30x_wwdg.c ****      a read-modify-write; writing a 0 to WDGA bit does nothing */
 209:../Libraries/STM32F30x_StdPeriph_Driver/src/stm32f30x_wwdg.c ****   WWDG->CR = Counter & BIT_MASK;
 175              		.loc 1 209 0
 176 00b0 4FF43053 		mov	r3, #11264
 177 00b4 C4F20003 		movt	r3, 16384
 178 00b8 9DF80720 		ldrb	r2, [sp, #7]	@ zero_extendqisi2
 179 00bc 02F07F02 		and	r2, r2, #127
 180 00c0 1A60     		str	r2, [r3, #0]
 210:../Libraries/STM32F30x_StdPeriph_Driver/src/stm32f30x_wwdg.c **** }
 181              		.loc 1 210 0
 182 00c2 02B0     		add	sp, sp, #8
 183 00c4 7047     		bx	lr
 184              		.cfi_endproc
 185              	.LFE115:
 187 00c6 00BF     		.align	2
 188              		.global	WWDG_Enable
 189              		.thumb
 190              		.thumb_func
 192              	WWDG_Enable:
 193              	.LFB116:
 211:../Libraries/STM32F30x_StdPeriph_Driver/src/stm32f30x_wwdg.c **** 
 212:../Libraries/STM32F30x_StdPeriph_Driver/src/stm32f30x_wwdg.c **** /**
 213:../Libraries/STM32F30x_StdPeriph_Driver/src/stm32f30x_wwdg.c ****   * @}
 214:../Libraries/STM32F30x_StdPeriph_Driver/src/stm32f30x_wwdg.c ****   */
 215:../Libraries/STM32F30x_StdPeriph_Driver/src/stm32f30x_wwdg.c **** 
 216:../Libraries/STM32F30x_StdPeriph_Driver/src/stm32f30x_wwdg.c **** /** @defgroup WWDG_Group2 WWDG activation functions
 217:../Libraries/STM32F30x_StdPeriph_Driver/src/stm32f30x_wwdg.c ****  *  @brief   WWDG activation functions 
 218:../Libraries/STM32F30x_StdPeriph_Driver/src/stm32f30x_wwdg.c ****  *
 219:../Libraries/STM32F30x_StdPeriph_Driver/src/stm32f30x_wwdg.c **** @verbatim   
 220:../Libraries/STM32F30x_StdPeriph_Driver/src/stm32f30x_wwdg.c ****   ==============================================================================
 221:../Libraries/STM32F30x_StdPeriph_Driver/src/stm32f30x_wwdg.c ****                     ##### WWDG activation function #####
 222:../Libraries/STM32F30x_StdPeriph_Driver/src/stm32f30x_wwdg.c ****   ==============================================================================  
 223:../Libraries/STM32F30x_StdPeriph_Driver/src/stm32f30x_wwdg.c **** 
 224:../Libraries/STM32F30x_StdPeriph_Driver/src/stm32f30x_wwdg.c **** @endverbatim
 225:../Libraries/STM32F30x_StdPeriph_Driver/src/stm32f30x_wwdg.c ****   * @{
 226:../Libraries/STM32F30x_StdPeriph_Driver/src/stm32f30x_wwdg.c ****   */
 227:../Libraries/STM32F30x_StdPeriph_Driver/src/stm32f30x_wwdg.c **** 
 228:../Libraries/STM32F30x_StdPeriph_Driver/src/stm32f30x_wwdg.c **** /**
 229:../Libraries/STM32F30x_StdPeriph_Driver/src/stm32f30x_wwdg.c ****   * @brief  Enables WWDG and load the counter value.                  
 230:../Libraries/STM32F30x_StdPeriph_Driver/src/stm32f30x_wwdg.c ****   * @param  Counter: specifies the watchdog counter value.
 231:../Libraries/STM32F30x_StdPeriph_Driver/src/stm32f30x_wwdg.c ****   *   This parameter must be a number between 0x40 and 0x7F (to prevent generating
 232:../Libraries/STM32F30x_StdPeriph_Driver/src/stm32f30x_wwdg.c ****   *   an immediate reset).
 233:../Libraries/STM32F30x_StdPeriph_Driver/src/stm32f30x_wwdg.c ****   * @retval None
 234:../Libraries/STM32F30x_StdPeriph_Driver/src/stm32f30x_wwdg.c ****   */
 235:../Libraries/STM32F30x_StdPeriph_Driver/src/stm32f30x_wwdg.c **** void WWDG_Enable(uint8_t Counter)
 236:../Libraries/STM32F30x_StdPeriph_Driver/src/stm32f30x_wwdg.c **** {
 194              		.loc 1 236 0
 195              		.cfi_startproc
 196              		@ args = 0, pretend = 0, frame = 8
 197              		@ frame_needed = 0, uses_anonymous_args = 0
 198              		@ link register save eliminated.
 199 00c8 82B0     		sub	sp, sp, #8
 200              	.LCFI4:
 201              		.cfi_def_cfa_offset 8
 202 00ca 0346     		mov	r3, r0
 203 00cc 8DF80730 		strb	r3, [sp, #7]
 237:../Libraries/STM32F30x_StdPeriph_Driver/src/stm32f30x_wwdg.c ****   /* Check the parameters */
 238:../Libraries/STM32F30x_StdPeriph_Driver/src/stm32f30x_wwdg.c ****   assert_param(IS_WWDG_COUNTER(Counter));
 239:../Libraries/STM32F30x_StdPeriph_Driver/src/stm32f30x_wwdg.c ****   WWDG->CR = WWDG_CR_WDGA | Counter;
 204              		.loc 1 239 0
 205 00d0 4FF43053 		mov	r3, #11264
 206 00d4 C4F20003 		movt	r3, 16384
 207 00d8 9DF80720 		ldrb	r2, [sp, #7]
 208 00dc 62F07F02 		orn	r2, r2, #127
 209 00e0 D2B2     		uxtb	r2, r2
 210 00e2 1A60     		str	r2, [r3, #0]
 240:../Libraries/STM32F30x_StdPeriph_Driver/src/stm32f30x_wwdg.c **** }
 211              		.loc 1 240 0
 212 00e4 02B0     		add	sp, sp, #8
 213 00e6 7047     		bx	lr
 214              		.cfi_endproc
 215              	.LFE116:
 217              		.align	2
 218              		.global	WWDG_GetFlagStatus
 219              		.thumb
 220              		.thumb_func
 222              	WWDG_GetFlagStatus:
 223              	.LFB117:
 241:../Libraries/STM32F30x_StdPeriph_Driver/src/stm32f30x_wwdg.c **** 
 242:../Libraries/STM32F30x_StdPeriph_Driver/src/stm32f30x_wwdg.c **** /**
 243:../Libraries/STM32F30x_StdPeriph_Driver/src/stm32f30x_wwdg.c ****   * @}
 244:../Libraries/STM32F30x_StdPeriph_Driver/src/stm32f30x_wwdg.c ****   */
 245:../Libraries/STM32F30x_StdPeriph_Driver/src/stm32f30x_wwdg.c **** 
 246:../Libraries/STM32F30x_StdPeriph_Driver/src/stm32f30x_wwdg.c **** /** @defgroup WWDG_Group3 Interrupts and flags management functions
 247:../Libraries/STM32F30x_StdPeriph_Driver/src/stm32f30x_wwdg.c ****  *  @brief   Interrupts and flags management functions 
 248:../Libraries/STM32F30x_StdPeriph_Driver/src/stm32f30x_wwdg.c ****  *
 249:../Libraries/STM32F30x_StdPeriph_Driver/src/stm32f30x_wwdg.c **** @verbatim   
 250:../Libraries/STM32F30x_StdPeriph_Driver/src/stm32f30x_wwdg.c ****   ==============================================================================
 251:../Libraries/STM32F30x_StdPeriph_Driver/src/stm32f30x_wwdg.c ****               ##### Interrupts and flags management functions #####
 252:../Libraries/STM32F30x_StdPeriph_Driver/src/stm32f30x_wwdg.c ****   ==============================================================================  
 253:../Libraries/STM32F30x_StdPeriph_Driver/src/stm32f30x_wwdg.c **** 
 254:../Libraries/STM32F30x_StdPeriph_Driver/src/stm32f30x_wwdg.c **** @endverbatim
 255:../Libraries/STM32F30x_StdPeriph_Driver/src/stm32f30x_wwdg.c ****   * @{
 256:../Libraries/STM32F30x_StdPeriph_Driver/src/stm32f30x_wwdg.c ****   */
 257:../Libraries/STM32F30x_StdPeriph_Driver/src/stm32f30x_wwdg.c **** 
 258:../Libraries/STM32F30x_StdPeriph_Driver/src/stm32f30x_wwdg.c **** /**
 259:../Libraries/STM32F30x_StdPeriph_Driver/src/stm32f30x_wwdg.c ****   * @brief  Checks whether the Early Wakeup interrupt flag is set or not.
 260:../Libraries/STM32F30x_StdPeriph_Driver/src/stm32f30x_wwdg.c ****   * @param  None
 261:../Libraries/STM32F30x_StdPeriph_Driver/src/stm32f30x_wwdg.c ****   * @retval The new state of the Early Wakeup interrupt flag (SET or RESET).
 262:../Libraries/STM32F30x_StdPeriph_Driver/src/stm32f30x_wwdg.c ****   */
 263:../Libraries/STM32F30x_StdPeriph_Driver/src/stm32f30x_wwdg.c **** FlagStatus WWDG_GetFlagStatus(void)
 264:../Libraries/STM32F30x_StdPeriph_Driver/src/stm32f30x_wwdg.c **** {
 224              		.loc 1 264 0
 225              		.cfi_startproc
 226              		@ args = 0, pretend = 0, frame = 8
 227              		@ frame_needed = 0, uses_anonymous_args = 0
 228              		@ link register save eliminated.
 229 00e8 82B0     		sub	sp, sp, #8
 230              	.LCFI5:
 231              		.cfi_def_cfa_offset 8
 265:../Libraries/STM32F30x_StdPeriph_Driver/src/stm32f30x_wwdg.c ****   FlagStatus bitstatus = RESET;
 232              		.loc 1 265 0
 233 00ea 4FF00003 		mov	r3, #0
 234 00ee 8DF80730 		strb	r3, [sp, #7]
 266:../Libraries/STM32F30x_StdPeriph_Driver/src/stm32f30x_wwdg.c ****     
 267:../Libraries/STM32F30x_StdPeriph_Driver/src/stm32f30x_wwdg.c ****   if ((WWDG->SR) != (uint32_t)RESET)
 235              		.loc 1 267 0
 236 00f2 4FF43053 		mov	r3, #11264
 237 00f6 C4F20003 		movt	r3, 16384
 238 00fa 9B68     		ldr	r3, [r3, #8]
 239 00fc 002B     		cmp	r3, #0
 240 00fe 04D0     		beq	.L8
 268:../Libraries/STM32F30x_StdPeriph_Driver/src/stm32f30x_wwdg.c ****   {
 269:../Libraries/STM32F30x_StdPeriph_Driver/src/stm32f30x_wwdg.c ****     bitstatus = SET;
 241              		.loc 1 269 0
 242 0100 4FF00103 		mov	r3, #1
 243 0104 8DF80730 		strb	r3, [sp, #7]
 244 0108 03E0     		b	.L9
 245              	.L8:
 270:../Libraries/STM32F30x_StdPeriph_Driver/src/stm32f30x_wwdg.c ****   }
 271:../Libraries/STM32F30x_StdPeriph_Driver/src/stm32f30x_wwdg.c ****   else
 272:../Libraries/STM32F30x_StdPeriph_Driver/src/stm32f30x_wwdg.c ****   {
 273:../Libraries/STM32F30x_StdPeriph_Driver/src/stm32f30x_wwdg.c ****     bitstatus = RESET;
 246              		.loc 1 273 0
 247 010a 4FF00003 		mov	r3, #0
 248 010e 8DF80730 		strb	r3, [sp, #7]
 249              	.L9:
 274:../Libraries/STM32F30x_StdPeriph_Driver/src/stm32f30x_wwdg.c ****   }
 275:../Libraries/STM32F30x_StdPeriph_Driver/src/stm32f30x_wwdg.c ****   return bitstatus;
 250              		.loc 1 275 0
 251 0112 9DF80730 		ldrb	r3, [sp, #7]	@ zero_extendqisi2
 276:../Libraries/STM32F30x_StdPeriph_Driver/src/stm32f30x_wwdg.c **** }
 252              		.loc 1 276 0
 253 0116 1846     		mov	r0, r3
 254 0118 02B0     		add	sp, sp, #8
 255 011a 7047     		bx	lr
 256              		.cfi_endproc
 257              	.LFE117:
 259              		.align	2
 260              		.global	WWDG_ClearFlag
 261              		.thumb
 262              		.thumb_func
 264              	WWDG_ClearFlag:
 265              	.LFB118:
 277:../Libraries/STM32F30x_StdPeriph_Driver/src/stm32f30x_wwdg.c **** 
 278:../Libraries/STM32F30x_StdPeriph_Driver/src/stm32f30x_wwdg.c **** /**
 279:../Libraries/STM32F30x_StdPeriph_Driver/src/stm32f30x_wwdg.c ****   * @brief  Clears Early Wakeup interrupt flag.
 280:../Libraries/STM32F30x_StdPeriph_Driver/src/stm32f30x_wwdg.c ****   * @param  None
 281:../Libraries/STM32F30x_StdPeriph_Driver/src/stm32f30x_wwdg.c ****   * @retval None
 282:../Libraries/STM32F30x_StdPeriph_Driver/src/stm32f30x_wwdg.c ****   */
 283:../Libraries/STM32F30x_StdPeriph_Driver/src/stm32f30x_wwdg.c **** void WWDG_ClearFlag(void)
 284:../Libraries/STM32F30x_StdPeriph_Driver/src/stm32f30x_wwdg.c **** {
 266              		.loc 1 284 0
 267              		.cfi_startproc
 268              		@ args = 0, pretend = 0, frame = 0
 269              		@ frame_needed = 0, uses_anonymous_args = 0
 270              		@ link register save eliminated.
 285:../Libraries/STM32F30x_StdPeriph_Driver/src/stm32f30x_wwdg.c ****   WWDG->SR = (uint32_t)RESET;
 271              		.loc 1 285 0
 272 011c 4FF43053 		mov	r3, #11264
 273 0120 C4F20003 		movt	r3, 16384
 274 0124 4FF00002 		mov	r2, #0
 275 0128 9A60     		str	r2, [r3, #8]
 286:../Libraries/STM32F30x_StdPeriph_Driver/src/stm32f30x_wwdg.c **** }
 276              		.loc 1 286 0
 277 012a 7047     		bx	lr
 278              		.cfi_endproc
 279              	.LFE118:
 281              	.Letext0:
 282              		.file 2 "c:\\program files\\codesourcery\\sourcery_codebench_lite_for_arm_eabi\\bin\\../lib/gcc/ar
 283              		.file 3 "D:\\Documents and Settings\\e722209\\Desktop\\workspace\\aq32Plus_F3\\Libraries\\Device\\
 284              		.file 4 "D:\\Documents and Settings\\e722209\\Desktop\\workspace\\aq32Plus_F3\\Libraries\\CMSIS\\I