   1              		.syntax unified
   2              		.cpu cortex-m4
   3              		.eabi_attribute 27, 3
   4              		.fpu fpv4-sp-d16
   5              		.eabi_attribute 20, 1
   6              		.eabi_attribute 21, 1
   7              		.eabi_attribute 23, 3
   8              		.eabi_attribute 24, 1
   9              		.eabi_attribute 25, 1
  10              		.eabi_attribute 26, 1
  11              		.eabi_attribute 30, 6
  12              		.eabi_attribute 34, 1
  13              		.eabi_attribute 18, 4
  14              		.thumb
  15              		.file	"stm32f30x_dbgmcu.c"
  16              		.text
  17              	.Ltext0:
  18              		.cfi_sections	.debug_frame
  19              		.align	2
  20              		.global	DBGMCU_GetREVID
  21              		.thumb
  22              		.thumb_func
  24              	DBGMCU_GetREVID:
  25              	.LFB111:
  26              		.file 1 "../Libraries/STM32F30x_StdPeriph_Driver/src/stm32f30x_dbgmcu.c"
   1:../Libraries/STM32F30x_StdPeriph_Driver/src/stm32f30x_dbgmcu.c **** /**
   2:../Libraries/STM32F30x_StdPeriph_Driver/src/stm32f30x_dbgmcu.c ****   ******************************************************************************
   3:../Libraries/STM32F30x_StdPeriph_Driver/src/stm32f30x_dbgmcu.c ****   * @file    stm32f30x_dbgmcu.c
   4:../Libraries/STM32F30x_StdPeriph_Driver/src/stm32f30x_dbgmcu.c ****   * @author  MCD Application Team
   5:../Libraries/STM32F30x_StdPeriph_Driver/src/stm32f30x_dbgmcu.c ****   * @version V1.0.1
   6:../Libraries/STM32F30x_StdPeriph_Driver/src/stm32f30x_dbgmcu.c ****   * @date    23-October-2012
   7:../Libraries/STM32F30x_StdPeriph_Driver/src/stm32f30x_dbgmcu.c ****   * @brief   This file provides firmware functions to manage the following 
   8:../Libraries/STM32F30x_StdPeriph_Driver/src/stm32f30x_dbgmcu.c ****   *          functionalities of the Debug MCU (DBGMCU) peripheral:
   9:../Libraries/STM32F30x_StdPeriph_Driver/src/stm32f30x_dbgmcu.c ****   *           + Device and Revision ID management
  10:../Libraries/STM32F30x_StdPeriph_Driver/src/stm32f30x_dbgmcu.c ****   *           + Peripherals Configuration
  11:../Libraries/STM32F30x_StdPeriph_Driver/src/stm32f30x_dbgmcu.c ****   ******************************************************************************
  12:../Libraries/STM32F30x_StdPeriph_Driver/src/stm32f30x_dbgmcu.c ****   * @attention
  13:../Libraries/STM32F30x_StdPeriph_Driver/src/stm32f30x_dbgmcu.c ****   *
  14:../Libraries/STM32F30x_StdPeriph_Driver/src/stm32f30x_dbgmcu.c ****   * <h2><center>&copy; COPYRIGHT 2012 STMicroelectronics</center></h2>
  15:../Libraries/STM32F30x_StdPeriph_Driver/src/stm32f30x_dbgmcu.c ****   *
  16:../Libraries/STM32F30x_StdPeriph_Driver/src/stm32f30x_dbgmcu.c ****   * Licensed under MCD-ST Liberty SW License Agreement V2, (the "License");
  17:../Libraries/STM32F30x_StdPeriph_Driver/src/stm32f30x_dbgmcu.c ****   * You may not use this file except in compliance with the License.
  18:../Libraries/STM32F30x_StdPeriph_Driver/src/stm32f30x_dbgmcu.c ****   * You may obtain a copy of the License at:
  19:../Libraries/STM32F30x_StdPeriph_Driver/src/stm32f30x_dbgmcu.c ****   *
  20:../Libraries/STM32F30x_StdPeriph_Driver/src/stm32f30x_dbgmcu.c ****   *        http://www.st.com/software_license_agreement_liberty_v2
  21:../Libraries/STM32F30x_StdPeriph_Driver/src/stm32f30x_dbgmcu.c ****   *
  22:../Libraries/STM32F30x_StdPeriph_Driver/src/stm32f30x_dbgmcu.c ****   * Unless required by applicable law or agreed to in writing, software 
  23:../Libraries/STM32F30x_StdPeriph_Driver/src/stm32f30x_dbgmcu.c ****   * distributed under the License is distributed on an "AS IS" BASIS, 
  24:../Libraries/STM32F30x_StdPeriph_Driver/src/stm32f30x_dbgmcu.c ****   * WITHOUT WARRANTIES OR CONDITIONS OF ANY KIND, either express or implied.
  25:../Libraries/STM32F30x_StdPeriph_Driver/src/stm32f30x_dbgmcu.c ****   * See the License for the specific language governing permissions and
  26:../Libraries/STM32F30x_StdPeriph_Driver/src/stm32f30x_dbgmcu.c ****   * limitations under the License.
  27:../Libraries/STM32F30x_StdPeriph_Driver/src/stm32f30x_dbgmcu.c ****   *
  28:../Libraries/STM32F30x_StdPeriph_Driver/src/stm32f30x_dbgmcu.c ****   ******************************************************************************
  29:../Libraries/STM32F30x_StdPeriph_Driver/src/stm32f30x_dbgmcu.c ****   */
  30:../Libraries/STM32F30x_StdPeriph_Driver/src/stm32f30x_dbgmcu.c **** 
  31:../Libraries/STM32F30x_StdPeriph_Driver/src/stm32f30x_dbgmcu.c **** /* Includes ------------------------------------------------------------------*/
  32:../Libraries/STM32F30x_StdPeriph_Driver/src/stm32f30x_dbgmcu.c **** #include "stm32f30x_dbgmcu.h"
  33:../Libraries/STM32F30x_StdPeriph_Driver/src/stm32f30x_dbgmcu.c **** 
  34:../Libraries/STM32F30x_StdPeriph_Driver/src/stm32f30x_dbgmcu.c **** /** @addtogroup STM32F30x_StdPeriph_Driver
  35:../Libraries/STM32F30x_StdPeriph_Driver/src/stm32f30x_dbgmcu.c ****   * @{
  36:../Libraries/STM32F30x_StdPeriph_Driver/src/stm32f30x_dbgmcu.c ****   */
  37:../Libraries/STM32F30x_StdPeriph_Driver/src/stm32f30x_dbgmcu.c **** 
  38:../Libraries/STM32F30x_StdPeriph_Driver/src/stm32f30x_dbgmcu.c **** /** @defgroup DBGMCU 
  39:../Libraries/STM32F30x_StdPeriph_Driver/src/stm32f30x_dbgmcu.c ****   * @brief DBGMCU driver modules
  40:../Libraries/STM32F30x_StdPeriph_Driver/src/stm32f30x_dbgmcu.c ****   * @{
  41:../Libraries/STM32F30x_StdPeriph_Driver/src/stm32f30x_dbgmcu.c ****   */ 
  42:../Libraries/STM32F30x_StdPeriph_Driver/src/stm32f30x_dbgmcu.c **** 
  43:../Libraries/STM32F30x_StdPeriph_Driver/src/stm32f30x_dbgmcu.c **** /* Private typedef -----------------------------------------------------------*/
  44:../Libraries/STM32F30x_StdPeriph_Driver/src/stm32f30x_dbgmcu.c **** /* Private define ------------------------------------------------------------*/
  45:../Libraries/STM32F30x_StdPeriph_Driver/src/stm32f30x_dbgmcu.c **** #define IDCODE_DEVID_MASK    ((uint32_t)0x00000FFF)
  46:../Libraries/STM32F30x_StdPeriph_Driver/src/stm32f30x_dbgmcu.c **** 
  47:../Libraries/STM32F30x_StdPeriph_Driver/src/stm32f30x_dbgmcu.c **** /* Private macro -------------------------------------------------------------*/
  48:../Libraries/STM32F30x_StdPeriph_Driver/src/stm32f30x_dbgmcu.c **** /* Private variables ---------------------------------------------------------*/
  49:../Libraries/STM32F30x_StdPeriph_Driver/src/stm32f30x_dbgmcu.c **** /* Private function prototypes -----------------------------------------------*/
  50:../Libraries/STM32F30x_StdPeriph_Driver/src/stm32f30x_dbgmcu.c **** /* Private functions ---------------------------------------------------------*/
  51:../Libraries/STM32F30x_StdPeriph_Driver/src/stm32f30x_dbgmcu.c **** 
  52:../Libraries/STM32F30x_StdPeriph_Driver/src/stm32f30x_dbgmcu.c **** /** @defgroup DBGMCU_Private_Functions
  53:../Libraries/STM32F30x_StdPeriph_Driver/src/stm32f30x_dbgmcu.c ****   * @{
  54:../Libraries/STM32F30x_StdPeriph_Driver/src/stm32f30x_dbgmcu.c ****   */ 
  55:../Libraries/STM32F30x_StdPeriph_Driver/src/stm32f30x_dbgmcu.c **** 
  56:../Libraries/STM32F30x_StdPeriph_Driver/src/stm32f30x_dbgmcu.c **** /** @defgroup DBGMCU_Group1 Device and Revision ID management functions
  57:../Libraries/STM32F30x_StdPeriph_Driver/src/stm32f30x_dbgmcu.c ****  *  @brief   Device and Revision ID management functions
  58:../Libraries/STM32F30x_StdPeriph_Driver/src/stm32f30x_dbgmcu.c ****  *
  59:../Libraries/STM32F30x_StdPeriph_Driver/src/stm32f30x_dbgmcu.c **** @verbatim
  60:../Libraries/STM32F30x_StdPeriph_Driver/src/stm32f30x_dbgmcu.c ****   ==============================================================================
  61:../Libraries/STM32F30x_StdPeriph_Driver/src/stm32f30x_dbgmcu.c ****             ##### Device and Revision ID management functions #####
  62:../Libraries/STM32F30x_StdPeriph_Driver/src/stm32f30x_dbgmcu.c ****   ==============================================================================
  63:../Libraries/STM32F30x_StdPeriph_Driver/src/stm32f30x_dbgmcu.c **** 
  64:../Libraries/STM32F30x_StdPeriph_Driver/src/stm32f30x_dbgmcu.c **** @endverbatim
  65:../Libraries/STM32F30x_StdPeriph_Driver/src/stm32f30x_dbgmcu.c ****   * @{
  66:../Libraries/STM32F30x_StdPeriph_Driver/src/stm32f30x_dbgmcu.c ****   */
  67:../Libraries/STM32F30x_StdPeriph_Driver/src/stm32f30x_dbgmcu.c **** 
  68:../Libraries/STM32F30x_StdPeriph_Driver/src/stm32f30x_dbgmcu.c **** /**
  69:../Libraries/STM32F30x_StdPeriph_Driver/src/stm32f30x_dbgmcu.c ****   * @brief  Returns the device revision identifier.
  70:../Libraries/STM32F30x_StdPeriph_Driver/src/stm32f30x_dbgmcu.c ****   * @param  None
  71:../Libraries/STM32F30x_StdPeriph_Driver/src/stm32f30x_dbgmcu.c ****   * @retval Device revision identifier
  72:../Libraries/STM32F30x_StdPeriph_Driver/src/stm32f30x_dbgmcu.c ****   */
  73:../Libraries/STM32F30x_StdPeriph_Driver/src/stm32f30x_dbgmcu.c **** uint32_t DBGMCU_GetREVID(void)
  74:../Libraries/STM32F30x_StdPeriph_Driver/src/stm32f30x_dbgmcu.c **** {
  27              		.loc 1 74 0
  28              		.cfi_startproc
  29              		@ args = 0, pretend = 0, frame = 0
  30              		@ frame_needed = 0, uses_anonymous_args = 0
  31              		@ link register save eliminated.
  75:../Libraries/STM32F30x_StdPeriph_Driver/src/stm32f30x_dbgmcu.c ****    return(DBGMCU->IDCODE >> 16);
  32              		.loc 1 75 0
  33 0000 4FF40053 		mov	r3, #8192
  34 0004 CEF20403 		movt	r3, 57348
  35 0008 1B68     		ldr	r3, [r3, #0]
  36 000a 4FEA1343 		lsr	r3, r3, #16
  76:../Libraries/STM32F30x_StdPeriph_Driver/src/stm32f30x_dbgmcu.c **** }
  37              		.loc 1 76 0
  38 000e 1846     		mov	r0, r3
  39 0010 7047     		bx	lr
  40              		.cfi_endproc
  41              	.LFE111:
  43 0012 00BF     		.align	2
  44              		.global	DBGMCU_GetDEVID
  45              		.thumb
  46              		.thumb_func
  48              	DBGMCU_GetDEVID:
  49              	.LFB112:
  77:../Libraries/STM32F30x_StdPeriph_Driver/src/stm32f30x_dbgmcu.c **** 
  78:../Libraries/STM32F30x_StdPeriph_Driver/src/stm32f30x_dbgmcu.c **** /**
  79:../Libraries/STM32F30x_StdPeriph_Driver/src/stm32f30x_dbgmcu.c ****   * @brief   Returns the device identifier.
  80:../Libraries/STM32F30x_StdPeriph_Driver/src/stm32f30x_dbgmcu.c ****   * @param  None
  81:../Libraries/STM32F30x_StdPeriph_Driver/src/stm32f30x_dbgmcu.c ****   * @retval Device identifier
  82:../Libraries/STM32F30x_StdPeriph_Driver/src/stm32f30x_dbgmcu.c ****   */
  83:../Libraries/STM32F30x_StdPeriph_Driver/src/stm32f30x_dbgmcu.c **** uint32_t DBGMCU_GetDEVID(void)
  84:../Libraries/STM32F30x_StdPeriph_Driver/src/stm32f30x_dbgmcu.c **** {
  50              		.loc 1 84 0
  51              		.cfi_startproc
  52              		@ args = 0, pretend = 0, frame = 0
  53              		@ frame_needed = 0, uses_anonymous_args = 0
  54              		@ link register save eliminated.
  85:../Libraries/STM32F30x_StdPeriph_Driver/src/stm32f30x_dbgmcu.c ****    return(DBGMCU->IDCODE & IDCODE_DEVID_MASK);
  55              		.loc 1 85 0
  56 0014 4FF40053 		mov	r3, #8192
  57 0018 CEF20403 		movt	r3, 57348
  58 001c 1B68     		ldr	r3, [r3, #0]
  59 001e 4FEA0353 		lsl	r3, r3, #20
  60 0022 4FEA1353 		lsr	r3, r3, #20
  86:../Libraries/STM32F30x_StdPeriph_Driver/src/stm32f30x_dbgmcu.c **** }
  61              		.loc 1 86 0
  62 0026 1846     		mov	r0, r3
  63 0028 7047     		bx	lr
  64              		.cfi_endproc
  65              	.LFE112:
  67 002a 00BF     		.align	2
  68              		.global	DBGMCU_Config
  69              		.thumb
  70              		.thumb_func
  72              	DBGMCU_Config:
  73              	.LFB113:
  87:../Libraries/STM32F30x_StdPeriph_Driver/src/stm32f30x_dbgmcu.c **** 
  88:../Libraries/STM32F30x_StdPeriph_Driver/src/stm32f30x_dbgmcu.c **** /**
  89:../Libraries/STM32F30x_StdPeriph_Driver/src/stm32f30x_dbgmcu.c ****   * @}
  90:../Libraries/STM32F30x_StdPeriph_Driver/src/stm32f30x_dbgmcu.c ****   */
  91:../Libraries/STM32F30x_StdPeriph_Driver/src/stm32f30x_dbgmcu.c ****   
  92:../Libraries/STM32F30x_StdPeriph_Driver/src/stm32f30x_dbgmcu.c **** /** @defgroup DBGMCU_Group2 Peripherals Configuration functions
  93:../Libraries/STM32F30x_StdPeriph_Driver/src/stm32f30x_dbgmcu.c ****  *  @brief   Peripherals Configuration
  94:../Libraries/STM32F30x_StdPeriph_Driver/src/stm32f30x_dbgmcu.c ****  *
  95:../Libraries/STM32F30x_StdPeriph_Driver/src/stm32f30x_dbgmcu.c **** @verbatim
  96:../Libraries/STM32F30x_StdPeriph_Driver/src/stm32f30x_dbgmcu.c ****   ==============================================================================
  97:../Libraries/STM32F30x_StdPeriph_Driver/src/stm32f30x_dbgmcu.c ****                ##### Peripherals Configuration functions #####
  98:../Libraries/STM32F30x_StdPeriph_Driver/src/stm32f30x_dbgmcu.c ****   ==============================================================================
  99:../Libraries/STM32F30x_StdPeriph_Driver/src/stm32f30x_dbgmcu.c **** 
 100:../Libraries/STM32F30x_StdPeriph_Driver/src/stm32f30x_dbgmcu.c **** @endverbatim
 101:../Libraries/STM32F30x_StdPeriph_Driver/src/stm32f30x_dbgmcu.c ****   * @{
 102:../Libraries/STM32F30x_StdPeriph_Driver/src/stm32f30x_dbgmcu.c ****   */
 103:../Libraries/STM32F30x_StdPeriph_Driver/src/stm32f30x_dbgmcu.c **** 
 104:../Libraries/STM32F30x_StdPeriph_Driver/src/stm32f30x_dbgmcu.c **** /**
 105:../Libraries/STM32F30x_StdPeriph_Driver/src/stm32f30x_dbgmcu.c ****   * @brief  Configures low power mode behavior when the MCU is in Debug mode.
 106:../Libraries/STM32F30x_StdPeriph_Driver/src/stm32f30x_dbgmcu.c ****   * @param  DBGMCU_Periph: specifies the low power mode.
 107:../Libraries/STM32F30x_StdPeriph_Driver/src/stm32f30x_dbgmcu.c ****   *   This parameter can be any combination of the following values:
 108:../Libraries/STM32F30x_StdPeriph_Driver/src/stm32f30x_dbgmcu.c ****   *     @arg DBGMCU_SLEEP: Keep debugger connection during SLEEP mode.              
 109:../Libraries/STM32F30x_StdPeriph_Driver/src/stm32f30x_dbgmcu.c ****   *     @arg DBGMCU_STOP: Keep debugger connection during STOP mode.               
 110:../Libraries/STM32F30x_StdPeriph_Driver/src/stm32f30x_dbgmcu.c ****   *     @arg DBGMCU_STANDBY: Keep debugger connection during STANDBY mode.        
 111:../Libraries/STM32F30x_StdPeriph_Driver/src/stm32f30x_dbgmcu.c ****   * @param  NewState: new state of the specified low power mode in Debug mode.
 112:../Libraries/STM32F30x_StdPeriph_Driver/src/stm32f30x_dbgmcu.c ****   *   This parameter can be: ENABLE or DISABLE.
 113:../Libraries/STM32F30x_StdPeriph_Driver/src/stm32f30x_dbgmcu.c ****   * @retval None
 114:../Libraries/STM32F30x_StdPeriph_Driver/src/stm32f30x_dbgmcu.c ****   */
 115:../Libraries/STM32F30x_StdPeriph_Driver/src/stm32f30x_dbgmcu.c **** void DBGMCU_Config(uint32_t DBGMCU_Periph, FunctionalState NewState)
 116:../Libraries/STM32F30x_StdPeriph_Driver/src/stm32f30x_dbgmcu.c **** {
  74              		.loc 1 116 0
  75              		.cfi_startproc
  76              		@ args = 0, pretend = 0, frame = 8
  77              		@ frame_needed = 0, uses_anonymous_args = 0
  78              		@ link register save eliminated.
  79 002c 82B0     		sub	sp, sp, #8
  80              	.LCFI0:
  81              		.cfi_def_cfa_offset 8
  82 002e 0190     		str	r0, [sp, #4]
  83 0030 0B46     		mov	r3, r1
  84 0032 8DF80330 		strb	r3, [sp, #3]
 117:../Libraries/STM32F30x_StdPeriph_Driver/src/stm32f30x_dbgmcu.c ****   /* Check the parameters */
 118:../Libraries/STM32F30x_StdPeriph_Driver/src/stm32f30x_dbgmcu.c ****   assert_param(IS_DBGMCU_PERIPH(DBGMCU_Periph));
 119:../Libraries/STM32F30x_StdPeriph_Driver/src/stm32f30x_dbgmcu.c ****   assert_param(IS_FUNCTIONAL_STATE(NewState));
 120:../Libraries/STM32F30x_StdPeriph_Driver/src/stm32f30x_dbgmcu.c ****   if (NewState != DISABLE)
  85              		.loc 1 120 0
  86 0036 9DF80330 		ldrb	r3, [sp, #3]	@ zero_extendqisi2
  87 003a 002B     		cmp	r3, #0
  88 003c 0CD0     		beq	.L4
 121:../Libraries/STM32F30x_StdPeriph_Driver/src/stm32f30x_dbgmcu.c ****   {
 122:../Libraries/STM32F30x_StdPeriph_Driver/src/stm32f30x_dbgmcu.c ****     DBGMCU->CR |= DBGMCU_Periph;
  89              		.loc 1 122 0
  90 003e 4FF40053 		mov	r3, #8192
  91 0042 CEF20403 		movt	r3, 57348
  92 0046 4FF40052 		mov	r2, #8192
  93 004a CEF20402 		movt	r2, 57348
  94 004e 5168     		ldr	r1, [r2, #4]
  95 0050 019A     		ldr	r2, [sp, #4]
  96 0052 0A43     		orrs	r2, r2, r1
  97 0054 5A60     		str	r2, [r3, #4]
  98 0056 0DE0     		b	.L3
  99              	.L4:
 123:../Libraries/STM32F30x_StdPeriph_Driver/src/stm32f30x_dbgmcu.c ****   }
 124:../Libraries/STM32F30x_StdPeriph_Driver/src/stm32f30x_dbgmcu.c ****   else
 125:../Libraries/STM32F30x_StdPeriph_Driver/src/stm32f30x_dbgmcu.c ****   {
 126:../Libraries/STM32F30x_StdPeriph_Driver/src/stm32f30x_dbgmcu.c ****     DBGMCU->CR &= ~DBGMCU_Periph;
 100              		.loc 1 126 0
 101 0058 4FF40053 		mov	r3, #8192
 102 005c CEF20403 		movt	r3, 57348
 103 0060 4FF40052 		mov	r2, #8192
 104 0064 CEF20402 		movt	r2, 57348
 105 0068 5168     		ldr	r1, [r2, #4]
 106 006a 019A     		ldr	r2, [sp, #4]
 107 006c 6FEA0202 		mvn	r2, r2
 108 0070 0A40     		ands	r2, r2, r1
 109 0072 5A60     		str	r2, [r3, #4]
 110              	.L3:
 127:../Libraries/STM32F30x_StdPeriph_Driver/src/stm32f30x_dbgmcu.c ****   }
 128:../Libraries/STM32F30x_StdPeriph_Driver/src/stm32f30x_dbgmcu.c **** }
 111              		.loc 1 128 0
 112 0074 02B0     		add	sp, sp, #8
 113 0076 7047     		bx	lr
 114              		.cfi_endproc
 115              	.LFE113:
 117              		.align	2
 118              		.global	DBGMCU_APB1PeriphConfig
 119              		.thumb
 120              		.thumb_func
 122              	DBGMCU_APB1PeriphConfig:
 123              	.LFB114:
 129:../Libraries/STM32F30x_StdPeriph_Driver/src/stm32f30x_dbgmcu.c **** 
 130:../Libraries/STM32F30x_StdPeriph_Driver/src/stm32f30x_dbgmcu.c **** /**
 131:../Libraries/STM32F30x_StdPeriph_Driver/src/stm32f30x_dbgmcu.c ****   * @brief  Configures APB1 peripheral behavior when the MCU is in Debug mode.
 132:../Libraries/STM32F30x_StdPeriph_Driver/src/stm32f30x_dbgmcu.c ****   * @param  DBGMCU_Periph: specifies the APB1 peripheral.
 133:../Libraries/STM32F30x_StdPeriph_Driver/src/stm32f30x_dbgmcu.c ****   *   This parameter can be any combination of the following values:        
 134:../Libraries/STM32F30x_StdPeriph_Driver/src/stm32f30x_dbgmcu.c ****   *     @arg DBGMCU_TIM2_STOP: TIM2 counter stopped when Core is halted.          
 135:../Libraries/STM32F30x_StdPeriph_Driver/src/stm32f30x_dbgmcu.c ****   *     @arg DBGMCU_TIM3_STOP: TIM3 counter stopped when Core is halted.          
 136:../Libraries/STM32F30x_StdPeriph_Driver/src/stm32f30x_dbgmcu.c ****   *     @arg DBGMCU_TIM4_STOP: TIM4 counter stopped when Core is halted.
 137:../Libraries/STM32F30x_StdPeriph_Driver/src/stm32f30x_dbgmcu.c ****   *     @arg DBGMCU_TIM6_STOP: TIM6 counter stopped when Core is halted.          
 138:../Libraries/STM32F30x_StdPeriph_Driver/src/stm32f30x_dbgmcu.c ****   *     @arg DBGMCU_TIM7_STOP: TIM7 counter stopped when Core is halted.
 139:../Libraries/STM32F30x_StdPeriph_Driver/src/stm32f30x_dbgmcu.c ****   *     @arg DBGMCU_RTC_STOP: RTC Calendar and Wakeup counter are stopped when 
 140:../Libraries/STM32F30x_StdPeriph_Driver/src/stm32f30x_dbgmcu.c ****   *          Core is halted. 
 141:../Libraries/STM32F30x_StdPeriph_Driver/src/stm32f30x_dbgmcu.c ****   *     @arg DBGMCU_WWDG_STOP: Debug WWDG stopped when Core is halted.
 142:../Libraries/STM32F30x_StdPeriph_Driver/src/stm32f30x_dbgmcu.c ****   *     @arg DBGMCU_IWDG_STOP: Debug IWDG stopped when Core is halted.        
 143:../Libraries/STM32F30x_StdPeriph_Driver/src/stm32f30x_dbgmcu.c ****   *     @arg DBGMCU_I2C1_SMBUS_TIMEOUT: I2C1 SMBUS timeout mode stopped when 
 144:../Libraries/STM32F30x_StdPeriph_Driver/src/stm32f30x_dbgmcu.c ****   *          Core is halted.
 145:../Libraries/STM32F30x_StdPeriph_Driver/src/stm32f30x_dbgmcu.c ****   *     @arg DBGMCU_I2C2_SMBUS_TIMEOUT: I2C2 SMBUS timeout mode stopped when 
 146:../Libraries/STM32F30x_StdPeriph_Driver/src/stm32f30x_dbgmcu.c ****   *          Core is halted.
 147:../Libraries/STM32F30x_StdPeriph_Driver/src/stm32f30x_dbgmcu.c ****   *     @arg DBGMCU_CAN1_STOP: Debug CAN2 stopped when Core is halted.        
 148:../Libraries/STM32F30x_StdPeriph_Driver/src/stm32f30x_dbgmcu.c ****   * @param  NewState: new state of the specified APB1 peripheral in Debug mode.
 149:../Libraries/STM32F30x_StdPeriph_Driver/src/stm32f30x_dbgmcu.c ****   *         This parameter can be: ENABLE or DISABLE.
 150:../Libraries/STM32F30x_StdPeriph_Driver/src/stm32f30x_dbgmcu.c ****   * @retval None
 151:../Libraries/STM32F30x_StdPeriph_Driver/src/stm32f30x_dbgmcu.c ****   */
 152:../Libraries/STM32F30x_StdPeriph_Driver/src/stm32f30x_dbgmcu.c **** void DBGMCU_APB1PeriphConfig(uint32_t DBGMCU_Periph, FunctionalState NewState)
 153:../Libraries/STM32F30x_StdPeriph_Driver/src/stm32f30x_dbgmcu.c **** {
 124              		.loc 1 153 0
 125              		.cfi_startproc
 126              		@ args = 0, pretend = 0, frame = 8
 127              		@ frame_needed = 0, uses_anonymous_args = 0
 128              		@ link register save eliminated.
 129 0078 82B0     		sub	sp, sp, #8
 130              	.LCFI1:
 131              		.cfi_def_cfa_offset 8
 132 007a 0190     		str	r0, [sp, #4]
 133 007c 0B46     		mov	r3, r1
 134 007e 8DF80330 		strb	r3, [sp, #3]
 154:../Libraries/STM32F30x_StdPeriph_Driver/src/stm32f30x_dbgmcu.c ****   /* Check the parameters */
 155:../Libraries/STM32F30x_StdPeriph_Driver/src/stm32f30x_dbgmcu.c ****   assert_param(IS_DBGMCU_APB1PERIPH(DBGMCU_Periph));
 156:../Libraries/STM32F30x_StdPeriph_Driver/src/stm32f30x_dbgmcu.c ****   assert_param(IS_FUNCTIONAL_STATE(NewState));
 157:../Libraries/STM32F30x_StdPeriph_Driver/src/stm32f30x_dbgmcu.c **** 
 158:../Libraries/STM32F30x_StdPeriph_Driver/src/stm32f30x_dbgmcu.c ****   if (NewState != DISABLE)
 135              		.loc 1 158 0
 136 0082 9DF80330 		ldrb	r3, [sp, #3]	@ zero_extendqisi2
 137 0086 002B     		cmp	r3, #0
 138 0088 0CD0     		beq	.L7
 159:../Libraries/STM32F30x_StdPeriph_Driver/src/stm32f30x_dbgmcu.c ****   {
 160:../Libraries/STM32F30x_StdPeriph_Driver/src/stm32f30x_dbgmcu.c ****     DBGMCU->APB1FZ |= DBGMCU_Periph;
 139              		.loc 1 160 0
 140 008a 4FF40053 		mov	r3, #8192
 141 008e CEF20403 		movt	r3, 57348
 142 0092 4FF40052 		mov	r2, #8192
 143 0096 CEF20402 		movt	r2, 57348
 144 009a 9168     		ldr	r1, [r2, #8]
 145 009c 019A     		ldr	r2, [sp, #4]
 146 009e 0A43     		orrs	r2, r2, r1
 147 00a0 9A60     		str	r2, [r3, #8]
 148 00a2 0DE0     		b	.L6
 149              	.L7:
 161:../Libraries/STM32F30x_StdPeriph_Driver/src/stm32f30x_dbgmcu.c ****   }
 162:../Libraries/STM32F30x_StdPeriph_Driver/src/stm32f30x_dbgmcu.c ****   else
 163:../Libraries/STM32F30x_StdPeriph_Driver/src/stm32f30x_dbgmcu.c ****   {
 164:../Libraries/STM32F30x_StdPeriph_Driver/src/stm32f30x_dbgmcu.c ****     DBGMCU->APB1FZ &= ~DBGMCU_Periph;
 150              		.loc 1 164 0
 151 00a4 4FF40053 		mov	r3, #8192
 152 00a8 CEF20403 		movt	r3, 57348
 153 00ac 4FF40052 		mov	r2, #8192
 154 00b0 CEF20402 		movt	r2, 57348
 155 00b4 9168     		ldr	r1, [r2, #8]
 156 00b6 019A     		ldr	r2, [sp, #4]
 157 00b8 6FEA0202 		mvn	r2, r2
 158 00bc 0A40     		ands	r2, r2, r1
 159 00be 9A60     		str	r2, [r3, #8]
 160              	.L6:
 165:../Libraries/STM32F30x_StdPeriph_Driver/src/stm32f30x_dbgmcu.c ****   }
 166:../Libraries/STM32F30x_StdPeriph_Driver/src/stm32f30x_dbgmcu.c **** }
 161              		.loc 1 166 0
 162 00c0 02B0     		add	sp, sp, #8
 163 00c2 7047     		bx	lr
 164              		.cfi_endproc
 165              	.LFE114:
 167              		.align	2
 168              		.global	DBGMCU_APB2PeriphConfig
 169              		.thumb
 170              		.thumb_func
 172              	DBGMCU_APB2PeriphConfig:
 173              	.LFB115:
 167:../Libraries/STM32F30x_StdPeriph_Driver/src/stm32f30x_dbgmcu.c **** 
 168:../Libraries/STM32F30x_StdPeriph_Driver/src/stm32f30x_dbgmcu.c **** /**
 169:../Libraries/STM32F30x_StdPeriph_Driver/src/stm32f30x_dbgmcu.c ****   * @brief  Configures APB2 peripheral behavior when the MCU is in Debug mode.
 170:../Libraries/STM32F30x_StdPeriph_Driver/src/stm32f30x_dbgmcu.c ****   * @param  DBGMCU_Periph: specifies the APB2 peripheral.
 171:../Libraries/STM32F30x_StdPeriph_Driver/src/stm32f30x_dbgmcu.c ****   *   This parameter can be any combination of the following values:       
 172:../Libraries/STM32F30x_StdPeriph_Driver/src/stm32f30x_dbgmcu.c ****   *     @arg DBGMCU_TIM1_STOP: TIM1 counter stopped when Core is halted.   
 173:../Libraries/STM32F30x_StdPeriph_Driver/src/stm32f30x_dbgmcu.c ****   *     @arg DBGMCU_TIM8_STOP: TIM8 counter stopped when Core is halted. 
 174:../Libraries/STM32F30x_StdPeriph_Driver/src/stm32f30x_dbgmcu.c ****   *     @arg DBGMCU_TIM15_STOP: TIM15 counter stopped when Core is halted.                
 175:../Libraries/STM32F30x_StdPeriph_Driver/src/stm32f30x_dbgmcu.c ****   *     @arg DBGMCU_TIM16_STOP: TIM16 counter stopped when Core is halted.
 176:../Libraries/STM32F30x_StdPeriph_Driver/src/stm32f30x_dbgmcu.c ****   *     @arg DBGMCU_TIM17_STOP: TIM17 counter stopped when Core is halted.   
 177:../Libraries/STM32F30x_StdPeriph_Driver/src/stm32f30x_dbgmcu.c ****   * @param  NewState: new state of the specified APB2 peripheral in Debug mode.
 178:../Libraries/STM32F30x_StdPeriph_Driver/src/stm32f30x_dbgmcu.c ****   *         This parameter can be: ENABLE or DISABLE.
 179:../Libraries/STM32F30x_StdPeriph_Driver/src/stm32f30x_dbgmcu.c ****   * @retval None
 180:../Libraries/STM32F30x_StdPeriph_Driver/src/stm32f30x_dbgmcu.c ****   */
 181:../Libraries/STM32F30x_StdPeriph_Driver/src/stm32f30x_dbgmcu.c **** void DBGMCU_APB2PeriphConfig(uint32_t DBGMCU_Periph, FunctionalState NewState)
 182:../Libraries/STM32F30x_StdPeriph_Driver/src/stm32f30x_dbgmcu.c **** {
 174              		.loc 1 182 0
 175              		.cfi_startproc
 176              		@ args = 0, pretend = 0, frame = 8
 177              		@ frame_needed = 0, uses_anonymous_args = 0
 178              		@ link register save eliminated.
 179 00c4 82B0     		sub	sp, sp, #8
 180              	.LCFI2:
 181              		.cfi_def_cfa_offset 8
 182 00c6 0190     		str	r0, [sp, #4]
 183 00c8 0B46     		mov	r3, r1
 184 00ca 8DF80330 		strb	r3, [sp, #3]
 183:../Libraries/STM32F30x_StdPeriph_Driver/src/stm32f30x_dbgmcu.c ****   /* Check the parameters */
 184:../Libraries/STM32F30x_StdPeriph_Driver/src/stm32f30x_dbgmcu.c ****   assert_param(IS_DBGMCU_APB2PERIPH(DBGMCU_Periph));
 185:../Libraries/STM32F30x_StdPeriph_Driver/src/stm32f30x_dbgmcu.c ****   assert_param(IS_FUNCTIONAL_STATE(NewState));
 186:../Libraries/STM32F30x_StdPeriph_Driver/src/stm32f30x_dbgmcu.c **** 
 187:../Libraries/STM32F30x_StdPeriph_Driver/src/stm32f30x_dbgmcu.c ****   if (NewState != DISABLE)
 185              		.loc 1 187 0
 186 00ce 9DF80330 		ldrb	r3, [sp, #3]	@ zero_extendqisi2
 187 00d2 002B     		cmp	r3, #0
 188 00d4 0CD0     		beq	.L10
 188:../Libraries/STM32F30x_StdPeriph_Driver/src/stm32f30x_dbgmcu.c ****   {
 189:../Libraries/STM32F30x_StdPeriph_Driver/src/stm32f30x_dbgmcu.c ****     DBGMCU->APB2FZ |= DBGMCU_Periph;
 189              		.loc 1 189 0
 190 00d6 4FF40053 		mov	r3, #8192
 191 00da CEF20403 		movt	r3, 57348
 192 00de 4FF40052 		mov	r2, #8192
 193 00e2 CEF20402 		movt	r2, 57348
 194 00e6 D168     		ldr	r1, [r2, #12]
 195 00e8 019A     		ldr	r2, [sp, #4]
 196 00ea 0A43     		orrs	r2, r2, r1
 197 00ec DA60     		str	r2, [r3, #12]
 198 00ee 0DE0     		b	.L9
 199              	.L10:
 190:../Libraries/STM32F30x_StdPeriph_Driver/src/stm32f30x_dbgmcu.c ****   }
 191:../Libraries/STM32F30x_StdPeriph_Driver/src/stm32f30x_dbgmcu.c ****   else
 192:../Libraries/STM32F30x_StdPeriph_Driver/src/stm32f30x_dbgmcu.c ****   {
 193:../Libraries/STM32F30x_StdPeriph_Driver/src/stm32f30x_dbgmcu.c ****     DBGMCU->APB2FZ &= ~DBGMCU_Periph;
 200              		.loc 1 193 0
 201 00f0 4FF40053 		mov	r3, #8192
 202 00f4 CEF20403 		movt	r3, 57348
 203 00f8 4FF40052 		mov	r2, #8192
 204 00fc CEF20402 		movt	r2, 57348
 205 0100 D168     		ldr	r1, [r2, #12]
 206 0102 019A     		ldr	r2, [sp, #4]
 207 0104 6FEA0202 		mvn	r2, r2
 208 0108 0A40     		ands	r2, r2, r1
 209 010a DA60     		str	r2, [r3, #12]
 210              	.L9:
 194:../Libraries/STM32F30x_StdPeriph_Driver/src/stm32f30x_dbgmcu.c ****   }
 195:../Libraries/STM32F30x_StdPeriph_Driver/src/stm32f30x_dbgmcu.c **** }
 211              		.loc 1 195 0
 212 010c 02B0     		add	sp, sp, #8
 213 010e 7047     		bx	lr
 214              		.cfi_endproc
 215              	.LFE115:
 217              	.Letext0:
 218              		.file 2 "c:\\program files\\codesourcery\\sourcery_codebench_lite_for_arm_eabi\\bin\\../lib/gcc/ar
 219              		.file 3 "D:\\Documents and Settings\\e722209\\Desktop\\workspace\\aq32Plus_F3\\Libraries\\Device\\
 220              		.file 4 "D:\\Documents and Settings\\e722209\\Desktop\\workspace\\aq32Plus_F3\\Libraries\\CMSIS\\I