   1              		.syntax unified
   2              		.cpu cortex-m4
   3              		.eabi_attribute 27, 3
   4              		.fpu fpv4-sp-d16
   5              		.eabi_attribute 20, 1
   6              		.eabi_attribute 21, 1
   7              		.eabi_attribute 23, 3
   8              		.eabi_attribute 24, 1
   9              		.eabi_attribute 25, 1
  10              		.eabi_attribute 26, 1
  11              		.eabi_attribute 30, 6
  12              		.eabi_attribute 34, 1
  13              		.eabi_attribute 18, 4
  14              		.thumb
  15              		.file	"stm32f30x_adc.c"
  16              		.text
  17              	.Ltext0:
  18              		.cfi_sections	.debug_frame
  19              		.align	2
  20              		.global	ADC_DeInit
  21              		.thumb
  22              		.thumb_func
  24              	ADC_DeInit:
  25              	.LFB111:
  26              		.file 1 "../Libraries/STM32F30x_StdPeriph_Driver/src/stm32f30x_adc.c"
   1:../Libraries/STM32F30x_StdPeriph_Driver/src/stm32f30x_adc.c **** /**
   2:../Libraries/STM32F30x_StdPeriph_Driver/src/stm32f30x_adc.c ****   ******************************************************************************
   3:../Libraries/STM32F30x_StdPeriph_Driver/src/stm32f30x_adc.c ****   * @file    stm32f30x_adc.c
   4:../Libraries/STM32F30x_StdPeriph_Driver/src/stm32f30x_adc.c ****   * @author  MCD Application Team
   5:../Libraries/STM32F30x_StdPeriph_Driver/src/stm32f30x_adc.c ****   * @version V1.0.1
   6:../Libraries/STM32F30x_StdPeriph_Driver/src/stm32f30x_adc.c ****   * @date    23-October-2012
   7:../Libraries/STM32F30x_StdPeriph_Driver/src/stm32f30x_adc.c ****   * @brief   This file provides firmware functions to manage the following 
   8:../Libraries/STM32F30x_StdPeriph_Driver/src/stm32f30x_adc.c ****   *          functionalities of the Analog to Digital Convertor (ADC) peripheral:
   9:../Libraries/STM32F30x_StdPeriph_Driver/src/stm32f30x_adc.c ****   *           + Initialization and Configuration
  10:../Libraries/STM32F30x_StdPeriph_Driver/src/stm32f30x_adc.c ****   *           + Analog Watchdog configuration
  11:../Libraries/STM32F30x_StdPeriph_Driver/src/stm32f30x_adc.c ****   *           + Temperature Sensor, Vbat & Vrefint (Internal Reference Voltage) management 
  12:../Libraries/STM32F30x_StdPeriph_Driver/src/stm32f30x_adc.c ****   *           + Regular Channels Configuration
  13:../Libraries/STM32F30x_StdPeriph_Driver/src/stm32f30x_adc.c ****   *           + Regular Channels DMA Configuration
  14:../Libraries/STM32F30x_StdPeriph_Driver/src/stm32f30x_adc.c ****   *           + Injected channels Configuration
  15:../Libraries/STM32F30x_StdPeriph_Driver/src/stm32f30x_adc.c ****   *           + Interrupts and flags management
  16:../Libraries/STM32F30x_StdPeriph_Driver/src/stm32f30x_adc.c ****   *           + Dual mode configuration  
  17:../Libraries/STM32F30x_StdPeriph_Driver/src/stm32f30x_adc.c ****   *         
  18:../Libraries/STM32F30x_StdPeriph_Driver/src/stm32f30x_adc.c ****   @verbatim
  19:../Libraries/STM32F30x_StdPeriph_Driver/src/stm32f30x_adc.c ****   ==============================================================================
  20:../Libraries/STM32F30x_StdPeriph_Driver/src/stm32f30x_adc.c ****                              ##### How to use this driver #####
  21:../Libraries/STM32F30x_StdPeriph_Driver/src/stm32f30x_adc.c ****   ==============================================================================
  22:../Libraries/STM32F30x_StdPeriph_Driver/src/stm32f30x_adc.c ****     [..]
  23:../Libraries/STM32F30x_StdPeriph_Driver/src/stm32f30x_adc.c ****     (#) select the ADC clock using the function RCC_ADCCLKConfig()
  24:../Libraries/STM32F30x_StdPeriph_Driver/src/stm32f30x_adc.c ****     (#) Enable the ADC interface clock using RCC_AHBPeriphClockCmd();
  25:../Libraries/STM32F30x_StdPeriph_Driver/src/stm32f30x_adc.c ****     (#) ADC pins configuration
  26:../Libraries/STM32F30x_StdPeriph_Driver/src/stm32f30x_adc.c ****         (++) Enable the clock for the ADC GPIOs using the following function:
  27:../Libraries/STM32F30x_StdPeriph_Driver/src/stm32f30x_adc.c ****              RCC_AHBPeriphClockCmd(RCC_AHBPeriph_GPIOx, ENABLE);
  28:../Libraries/STM32F30x_StdPeriph_Driver/src/stm32f30x_adc.c ****         (++) Configure these ADC pins in analog mode using GPIO_Init();
  29:../Libraries/STM32F30x_StdPeriph_Driver/src/stm32f30x_adc.c ****     (#) Configure the ADC conversion resolution, data alignment, external
  30:../Libraries/STM32F30x_StdPeriph_Driver/src/stm32f30x_adc.c ****         trigger and edge, sequencer lenght and Enable/Disable the continuous mode
  31:../Libraries/STM32F30x_StdPeriph_Driver/src/stm32f30x_adc.c ****         using the ADC_Init() function.
  32:../Libraries/STM32F30x_StdPeriph_Driver/src/stm32f30x_adc.c ****     (#) Activate the ADC peripheral using ADC_Cmd() function.
  33:../Libraries/STM32F30x_StdPeriph_Driver/src/stm32f30x_adc.c **** 
  34:../Libraries/STM32F30x_StdPeriph_Driver/src/stm32f30x_adc.c ****     *** ADC channels group configuration ***
  35:../Libraries/STM32F30x_StdPeriph_Driver/src/stm32f30x_adc.c ****     ========================================    
  36:../Libraries/STM32F30x_StdPeriph_Driver/src/stm32f30x_adc.c ****     [..] 
  37:../Libraries/STM32F30x_StdPeriph_Driver/src/stm32f30x_adc.c ****     (+) To configure the ADC channels features, use ADC_Init(), ADC_InjectedInit()
  38:../Libraries/STM32F30x_StdPeriph_Driver/src/stm32f30x_adc.c ****         and ADC_RegularChannelConfig() functions or/and ADC_InjectedChannelConfig()
  39:../Libraries/STM32F30x_StdPeriph_Driver/src/stm32f30x_adc.c ****     (+) To activate the continuous mode, use the ADC_ContinuousModeCmd()
  40:../Libraries/STM32F30x_StdPeriph_Driver/src/stm32f30x_adc.c ****         function.
  41:../Libraries/STM32F30x_StdPeriph_Driver/src/stm32f30x_adc.c ****     (+) To activate the Discontinuous mode, use the ADC_DiscModeCmd() functions. 
  42:../Libraries/STM32F30x_StdPeriph_Driver/src/stm32f30x_adc.c ****     (+) To activate the overrun mode, use the ADC_OverrunModeCmd() functions.
  43:../Libraries/STM32F30x_StdPeriph_Driver/src/stm32f30x_adc.c ****     (+) To activate the calibration mode, use the ADC_StartCalibration() functions.
  44:../Libraries/STM32F30x_StdPeriph_Driver/src/stm32f30x_adc.c ****     (+) To read the ADC converted values, use the ADC_GetConversionValue()
  45:../Libraries/STM32F30x_StdPeriph_Driver/src/stm32f30x_adc.c ****         function.
  46:../Libraries/STM32F30x_StdPeriph_Driver/src/stm32f30x_adc.c **** 
  47:../Libraries/STM32F30x_StdPeriph_Driver/src/stm32f30x_adc.c ****     *** DMA for ADC channels features configuration ***
  48:../Libraries/STM32F30x_StdPeriph_Driver/src/stm32f30x_adc.c ****     ===================================================     
  49:../Libraries/STM32F30x_StdPeriph_Driver/src/stm32f30x_adc.c ****     [..] 
  50:../Libraries/STM32F30x_StdPeriph_Driver/src/stm32f30x_adc.c ****     (+) To enable the DMA mode for ADC channels group, use the ADC_DMACmd() function.
  51:../Libraries/STM32F30x_StdPeriph_Driver/src/stm32f30x_adc.c ****     (+) To configure the DMA transfer request, use ADC_DMAConfig() function.
  52:../Libraries/STM32F30x_StdPeriph_Driver/src/stm32f30x_adc.c **** 
  53:../Libraries/STM32F30x_StdPeriph_Driver/src/stm32f30x_adc.c ****   @endverbatim
  54:../Libraries/STM32F30x_StdPeriph_Driver/src/stm32f30x_adc.c ****   *
  55:../Libraries/STM32F30x_StdPeriph_Driver/src/stm32f30x_adc.c ****   ******************************************************************************
  56:../Libraries/STM32F30x_StdPeriph_Driver/src/stm32f30x_adc.c ****   * @attention
  57:../Libraries/STM32F30x_StdPeriph_Driver/src/stm32f30x_adc.c ****   *
  58:../Libraries/STM32F30x_StdPeriph_Driver/src/stm32f30x_adc.c ****   * <h2><center>&copy; COPYRIGHT 2012 STMicroelectronics</center></h2>
  59:../Libraries/STM32F30x_StdPeriph_Driver/src/stm32f30x_adc.c ****   *
  60:../Libraries/STM32F30x_StdPeriph_Driver/src/stm32f30x_adc.c ****   * Licensed under MCD-ST Liberty SW License Agreement V2, (the "License");
  61:../Libraries/STM32F30x_StdPeriph_Driver/src/stm32f30x_adc.c ****   * You may not use this file except in compliance with the License.
  62:../Libraries/STM32F30x_StdPeriph_Driver/src/stm32f30x_adc.c ****   * You may obtain a copy of the License at:
  63:../Libraries/STM32F30x_StdPeriph_Driver/src/stm32f30x_adc.c ****   *
  64:../Libraries/STM32F30x_StdPeriph_Driver/src/stm32f30x_adc.c ****   *        http://www.st.com/software_license_agreement_liberty_v2
  65:../Libraries/STM32F30x_StdPeriph_Driver/src/stm32f30x_adc.c ****   *
  66:../Libraries/STM32F30x_StdPeriph_Driver/src/stm32f30x_adc.c ****   * Unless required by applicable law or agreed to in writing, software 
  67:../Libraries/STM32F30x_StdPeriph_Driver/src/stm32f30x_adc.c ****   * distributed under the License is distributed on an "AS IS" BASIS, 
  68:../Libraries/STM32F30x_StdPeriph_Driver/src/stm32f30x_adc.c ****   * WITHOUT WARRANTIES OR CONDITIONS OF ANY KIND, either express or implied.
  69:../Libraries/STM32F30x_StdPeriph_Driver/src/stm32f30x_adc.c ****   * See the License for the specific language governing permissions and
  70:../Libraries/STM32F30x_StdPeriph_Driver/src/stm32f30x_adc.c ****   * limitations under the License.
  71:../Libraries/STM32F30x_StdPeriph_Driver/src/stm32f30x_adc.c ****   *
  72:../Libraries/STM32F30x_StdPeriph_Driver/src/stm32f30x_adc.c ****   ******************************************************************************
  73:../Libraries/STM32F30x_StdPeriph_Driver/src/stm32f30x_adc.c ****   */
  74:../Libraries/STM32F30x_StdPeriph_Driver/src/stm32f30x_adc.c **** 
  75:../Libraries/STM32F30x_StdPeriph_Driver/src/stm32f30x_adc.c **** /* Includes ------------------------------------------------------------------*/
  76:../Libraries/STM32F30x_StdPeriph_Driver/src/stm32f30x_adc.c **** #include "stm32f30x_adc.h"
  77:../Libraries/STM32F30x_StdPeriph_Driver/src/stm32f30x_adc.c **** #include "stm32f30x_rcc.h"
  78:../Libraries/STM32F30x_StdPeriph_Driver/src/stm32f30x_adc.c **** 
  79:../Libraries/STM32F30x_StdPeriph_Driver/src/stm32f30x_adc.c **** /** @addtogroup STM32F30x_StdPeriph_Driver
  80:../Libraries/STM32F30x_StdPeriph_Driver/src/stm32f30x_adc.c ****   * @{
  81:../Libraries/STM32F30x_StdPeriph_Driver/src/stm32f30x_adc.c ****   */
  82:../Libraries/STM32F30x_StdPeriph_Driver/src/stm32f30x_adc.c **** 
  83:../Libraries/STM32F30x_StdPeriph_Driver/src/stm32f30x_adc.c **** /** @defgroup ADC 
  84:../Libraries/STM32F30x_StdPeriph_Driver/src/stm32f30x_adc.c ****   * @brief ADC driver modules
  85:../Libraries/STM32F30x_StdPeriph_Driver/src/stm32f30x_adc.c ****   * @{
  86:../Libraries/STM32F30x_StdPeriph_Driver/src/stm32f30x_adc.c ****   */
  87:../Libraries/STM32F30x_StdPeriph_Driver/src/stm32f30x_adc.c **** 
  88:../Libraries/STM32F30x_StdPeriph_Driver/src/stm32f30x_adc.c **** /* Private typedef -----------------------------------------------------------*/
  89:../Libraries/STM32F30x_StdPeriph_Driver/src/stm32f30x_adc.c **** /* Private define ------------------------------------------------------------*/
  90:../Libraries/STM32F30x_StdPeriph_Driver/src/stm32f30x_adc.c **** 
  91:../Libraries/STM32F30x_StdPeriph_Driver/src/stm32f30x_adc.c **** /* CFGR register Mask */
  92:../Libraries/STM32F30x_StdPeriph_Driver/src/stm32f30x_adc.c **** #define CFGR_CLEAR_Mask             ((uint32_t)0xFDFFC007)
  93:../Libraries/STM32F30x_StdPeriph_Driver/src/stm32f30x_adc.c **** 
  94:../Libraries/STM32F30x_StdPeriph_Driver/src/stm32f30x_adc.c **** /* JSQR register Mask */
  95:../Libraries/STM32F30x_StdPeriph_Driver/src/stm32f30x_adc.c **** #define JSQR_CLEAR_Mask             ((uint32_t)0x00000000)
  96:../Libraries/STM32F30x_StdPeriph_Driver/src/stm32f30x_adc.c **** 
  97:../Libraries/STM32F30x_StdPeriph_Driver/src/stm32f30x_adc.c **** /* ADC ADON mask */
  98:../Libraries/STM32F30x_StdPeriph_Driver/src/stm32f30x_adc.c **** #define CCR_CLEAR_MASK              ((uint32_t)0xFFFC10E0)
  99:../Libraries/STM32F30x_StdPeriph_Driver/src/stm32f30x_adc.c **** 
 100:../Libraries/STM32F30x_StdPeriph_Driver/src/stm32f30x_adc.c **** /* ADC JDRx registers offset */
 101:../Libraries/STM32F30x_StdPeriph_Driver/src/stm32f30x_adc.c **** #define JDR_Offset                  ((uint8_t)0x80)
 102:../Libraries/STM32F30x_StdPeriph_Driver/src/stm32f30x_adc.c **** 
 103:../Libraries/STM32F30x_StdPeriph_Driver/src/stm32f30x_adc.c **** /* Private macro -------------------------------------------------------------*/
 104:../Libraries/STM32F30x_StdPeriph_Driver/src/stm32f30x_adc.c **** /* Private variables ---------------------------------------------------------*/
 105:../Libraries/STM32F30x_StdPeriph_Driver/src/stm32f30x_adc.c **** /* Private function prototypes -----------------------------------------------*/
 106:../Libraries/STM32F30x_StdPeriph_Driver/src/stm32f30x_adc.c **** /* Private functions ---------------------------------------------------------*/
 107:../Libraries/STM32F30x_StdPeriph_Driver/src/stm32f30x_adc.c **** 
 108:../Libraries/STM32F30x_StdPeriph_Driver/src/stm32f30x_adc.c **** /** @defgroup ADC_Private_Functions
 109:../Libraries/STM32F30x_StdPeriph_Driver/src/stm32f30x_adc.c ****   * @{
 110:../Libraries/STM32F30x_StdPeriph_Driver/src/stm32f30x_adc.c ****   */
 111:../Libraries/STM32F30x_StdPeriph_Driver/src/stm32f30x_adc.c **** 
 112:../Libraries/STM32F30x_StdPeriph_Driver/src/stm32f30x_adc.c **** /** @defgroup ADC_Group1 Initialization and Configuration functions
 113:../Libraries/STM32F30x_StdPeriph_Driver/src/stm32f30x_adc.c ****  *  @brief   Initialization and Configuration functions 
 114:../Libraries/STM32F30x_StdPeriph_Driver/src/stm32f30x_adc.c ****  *
 115:../Libraries/STM32F30x_StdPeriph_Driver/src/stm32f30x_adc.c **** @verbatim    
 116:../Libraries/STM32F30x_StdPeriph_Driver/src/stm32f30x_adc.c ****  ===============================================================================
 117:../Libraries/STM32F30x_StdPeriph_Driver/src/stm32f30x_adc.c ****                  ##### Initialization and Configuration functions  #####
 118:../Libraries/STM32F30x_StdPeriph_Driver/src/stm32f30x_adc.c ****  ===============================================================================  
 119:../Libraries/STM32F30x_StdPeriph_Driver/src/stm32f30x_adc.c ****   [..] 
 120:../Libraries/STM32F30x_StdPeriph_Driver/src/stm32f30x_adc.c ****   This section provides functions allowing to:
 121:../Libraries/STM32F30x_StdPeriph_Driver/src/stm32f30x_adc.c ****    (#) Initialize and configure the ADC injected and/or regular channels and dual mode.
 122:../Libraries/STM32F30x_StdPeriph_Driver/src/stm32f30x_adc.c ****    (#) Management of the calibration process
 123:../Libraries/STM32F30x_StdPeriph_Driver/src/stm32f30x_adc.c ****    (#) ADC Power-on Power-off
 124:../Libraries/STM32F30x_StdPeriph_Driver/src/stm32f30x_adc.c ****    (#) Single ended or differential mode 
 125:../Libraries/STM32F30x_StdPeriph_Driver/src/stm32f30x_adc.c ****    (#) Enabling the queue of context and the auto delay mode
 126:../Libraries/STM32F30x_StdPeriph_Driver/src/stm32f30x_adc.c ****    (#) The number of ADC conversions that will be done using the sequencer for regular 
 127:../Libraries/STM32F30x_StdPeriph_Driver/src/stm32f30x_adc.c ****        channel group
 128:../Libraries/STM32F30x_StdPeriph_Driver/src/stm32f30x_adc.c ****    (#) Enable or disable the ADC peripheral
 129:../Libraries/STM32F30x_StdPeriph_Driver/src/stm32f30x_adc.c ****    
 130:../Libraries/STM32F30x_StdPeriph_Driver/src/stm32f30x_adc.c **** @endverbatim
 131:../Libraries/STM32F30x_StdPeriph_Driver/src/stm32f30x_adc.c ****   * @{
 132:../Libraries/STM32F30x_StdPeriph_Driver/src/stm32f30x_adc.c ****   */
 133:../Libraries/STM32F30x_StdPeriph_Driver/src/stm32f30x_adc.c **** 
 134:../Libraries/STM32F30x_StdPeriph_Driver/src/stm32f30x_adc.c **** /**
 135:../Libraries/STM32F30x_StdPeriph_Driver/src/stm32f30x_adc.c ****   * @brief  Deinitializes the ADCx peripheral registers to their default reset values.
 136:../Libraries/STM32F30x_StdPeriph_Driver/src/stm32f30x_adc.c ****   * @param  ADCx: where x can be 1, 2,3 or 4 to select the ADC peripheral.
 137:../Libraries/STM32F30x_StdPeriph_Driver/src/stm32f30x_adc.c ****   * @retval None
 138:../Libraries/STM32F30x_StdPeriph_Driver/src/stm32f30x_adc.c ****   */
 139:../Libraries/STM32F30x_StdPeriph_Driver/src/stm32f30x_adc.c **** void ADC_DeInit(ADC_TypeDef* ADCx)
 140:../Libraries/STM32F30x_StdPeriph_Driver/src/stm32f30x_adc.c **** {
  27              		.loc 1 140 0
  28              		.cfi_startproc
  29              		@ args = 0, pretend = 0, frame = 8
  30              		@ frame_needed = 0, uses_anonymous_args = 0
  31 0000 00B5     		push	{lr}
  32              	.LCFI0:
  33              		.cfi_def_cfa_offset 4
  34              		.cfi_offset 14, -4
  35 0002 83B0     		sub	sp, sp, #12
  36              	.LCFI1:
  37              		.cfi_def_cfa_offset 16
  38 0004 0190     		str	r0, [sp, #4]
 141:../Libraries/STM32F30x_StdPeriph_Driver/src/stm32f30x_adc.c ****   /* Check the parameters */
 142:../Libraries/STM32F30x_StdPeriph_Driver/src/stm32f30x_adc.c ****   assert_param(IS_ADC_ALL_PERIPH(ADCx));
 143:../Libraries/STM32F30x_StdPeriph_Driver/src/stm32f30x_adc.c **** 
 144:../Libraries/STM32F30x_StdPeriph_Driver/src/stm32f30x_adc.c **** 
 145:../Libraries/STM32F30x_StdPeriph_Driver/src/stm32f30x_adc.c ****   if((ADCx == ADC1) || (ADCx == ADC2))
  39              		.loc 1 145 0
  40 0006 019B     		ldr	r3, [sp, #4]
  41 0008 B3F1A04F 		cmp	r3, #1342177280
  42 000c 06D0     		beq	.L2
  43              		.loc 1 145 0 is_stmt 0 discriminator 1
  44 000e 019A     		ldr	r2, [sp, #4]
  45 0010 4FF48073 		mov	r3, #256
  46 0014 C5F20003 		movt	r3, 20480
  47 0018 9A42     		cmp	r2, r3
  48 001a 0CD1     		bne	.L3
  49              	.L2:
 146:../Libraries/STM32F30x_StdPeriph_Driver/src/stm32f30x_adc.c ****   {
 147:../Libraries/STM32F30x_StdPeriph_Driver/src/stm32f30x_adc.c ****     /* Enable ADC1/ADC2 reset state */
 148:../Libraries/STM32F30x_StdPeriph_Driver/src/stm32f30x_adc.c ****     RCC_AHBPeriphResetCmd(RCC_AHBPeriph_ADC12, ENABLE);
  50              		.loc 1 148 0 is_stmt 1
  51 001c 4FF08050 		mov	r0, #268435456
  52 0020 4FF00101 		mov	r1, #1
  53 0024 FFF7FEFF 		bl	RCC_AHBPeriphResetCmd
 149:../Libraries/STM32F30x_StdPeriph_Driver/src/stm32f30x_adc.c ****     /* Release ADC1/ADC2 from reset state */
 150:../Libraries/STM32F30x_StdPeriph_Driver/src/stm32f30x_adc.c ****     RCC_AHBPeriphResetCmd(RCC_AHBPeriph_ADC12, DISABLE);
  54              		.loc 1 150 0
  55 0028 4FF08050 		mov	r0, #268435456
  56 002c 4FF00001 		mov	r1, #0
  57 0030 FFF7FEFF 		bl	RCC_AHBPeriphResetCmd
  58 0034 19E0     		b	.L1
  59              	.L3:
 151:../Libraries/STM32F30x_StdPeriph_Driver/src/stm32f30x_adc.c ****   }
 152:../Libraries/STM32F30x_StdPeriph_Driver/src/stm32f30x_adc.c ****   else if((ADCx == ADC3) || (ADCx == ADC4))
  60              		.loc 1 152 0
  61 0036 019A     		ldr	r2, [sp, #4]
  62 0038 4FF48063 		mov	r3, #1024
  63 003c C5F20003 		movt	r3, 20480
  64 0040 9A42     		cmp	r2, r3
  65 0042 06D0     		beq	.L5
  66              		.loc 1 152 0 is_stmt 0 discriminator 1
  67 0044 019A     		ldr	r2, [sp, #4]
  68 0046 4FF4A063 		mov	r3, #1280
  69 004a C5F20003 		movt	r3, 20480
  70 004e 9A42     		cmp	r2, r3
  71 0050 0BD1     		bne	.L1
  72              	.L5:
 153:../Libraries/STM32F30x_StdPeriph_Driver/src/stm32f30x_adc.c ****   {
 154:../Libraries/STM32F30x_StdPeriph_Driver/src/stm32f30x_adc.c ****     /* Enable ADC3/ADC4 reset state */
 155:../Libraries/STM32F30x_StdPeriph_Driver/src/stm32f30x_adc.c ****     RCC_AHBPeriphResetCmd(RCC_AHBPeriph_ADC34, ENABLE);
  73              		.loc 1 155 0 is_stmt 1
  74 0052 4FF00050 		mov	r0, #536870912
  75 0056 4FF00101 		mov	r1, #1
  76 005a FFF7FEFF 		bl	RCC_AHBPeriphResetCmd
 156:../Libraries/STM32F30x_StdPeriph_Driver/src/stm32f30x_adc.c ****     /* Release ADC3/ADC4 from reset state */
 157:../Libraries/STM32F30x_StdPeriph_Driver/src/stm32f30x_adc.c ****     RCC_AHBPeriphResetCmd(RCC_AHBPeriph_ADC34, DISABLE);
  77              		.loc 1 157 0
  78 005e 4FF00050 		mov	r0, #536870912
  79 0062 4FF00001 		mov	r1, #0
  80 0066 FFF7FEFF 		bl	RCC_AHBPeriphResetCmd
  81              	.L1:
 158:../Libraries/STM32F30x_StdPeriph_Driver/src/stm32f30x_adc.c ****   }
 159:../Libraries/STM32F30x_StdPeriph_Driver/src/stm32f30x_adc.c **** }
  82              		.loc 1 159 0
  83 006a 03B0     		add	sp, sp, #12
  84 006c 00BD     		pop	{pc}
  85              		.cfi_endproc
  86              	.LFE111:
  88 006e 00BF     		.align	2
  89              		.global	ADC_Init
  90              		.thumb
  91              		.thumb_func
  93              	ADC_Init:
  94              	.LFB112:
 160:../Libraries/STM32F30x_StdPeriph_Driver/src/stm32f30x_adc.c **** /**
 161:../Libraries/STM32F30x_StdPeriph_Driver/src/stm32f30x_adc.c ****   * @brief  Initializes the ADCx peripheral according to the specified parameters
 162:../Libraries/STM32F30x_StdPeriph_Driver/src/stm32f30x_adc.c ****   *         in the ADC_InitStruct.
 163:../Libraries/STM32F30x_StdPeriph_Driver/src/stm32f30x_adc.c ****   * @param  ADCx: where x can be 1, 2, 3 or 4 to select the ADC peripheral.
 164:../Libraries/STM32F30x_StdPeriph_Driver/src/stm32f30x_adc.c ****   * @param  ADC_InitStruct: pointer to an ADC_InitTypeDef structure that contains
 165:../Libraries/STM32F30x_StdPeriph_Driver/src/stm32f30x_adc.c ****   *         the configuration information for the specified ADC peripheral.
 166:../Libraries/STM32F30x_StdPeriph_Driver/src/stm32f30x_adc.c ****   * @retval None
 167:../Libraries/STM32F30x_StdPeriph_Driver/src/stm32f30x_adc.c ****   */
 168:../Libraries/STM32F30x_StdPeriph_Driver/src/stm32f30x_adc.c **** void ADC_Init(ADC_TypeDef* ADCx, ADC_InitTypeDef* ADC_InitStruct)
 169:../Libraries/STM32F30x_StdPeriph_Driver/src/stm32f30x_adc.c **** {
  95              		.loc 1 169 0
  96              		.cfi_startproc
  97              		@ args = 0, pretend = 0, frame = 16
  98              		@ frame_needed = 0, uses_anonymous_args = 0
  99              		@ link register save eliminated.
 100 0070 84B0     		sub	sp, sp, #16
 101              	.LCFI2:
 102              		.cfi_def_cfa_offset 16
 103 0072 0190     		str	r0, [sp, #4]
 104 0074 0091     		str	r1, [sp, #0]
 170:../Libraries/STM32F30x_StdPeriph_Driver/src/stm32f30x_adc.c ****   uint32_t tmpreg1 = 0;
 105              		.loc 1 170 0
 106 0076 4FF00003 		mov	r3, #0
 107 007a 0393     		str	r3, [sp, #12]
 171:../Libraries/STM32F30x_StdPeriph_Driver/src/stm32f30x_adc.c ****   /* Check the parameters */
 172:../Libraries/STM32F30x_StdPeriph_Driver/src/stm32f30x_adc.c ****   assert_param(IS_ADC_ALL_PERIPH(ADCx));
 173:../Libraries/STM32F30x_StdPeriph_Driver/src/stm32f30x_adc.c ****   assert_param(IS_ADC_CONVMODE(ADC_InitStruct->ADC_ContinuousConvMode));
 174:../Libraries/STM32F30x_StdPeriph_Driver/src/stm32f30x_adc.c ****   assert_param(IS_ADC_RESOLUTION(ADC_InitStruct->ADC_Resolution));
 175:../Libraries/STM32F30x_StdPeriph_Driver/src/stm32f30x_adc.c ****   assert_param(IS_ADC_EXT_TRIG(ADC_InitStruct->ADC_ExternalTrigConvEvent)); 
 176:../Libraries/STM32F30x_StdPeriph_Driver/src/stm32f30x_adc.c ****   assert_param(IS_EXTERNALTRIG_EDGE(ADC_InitStruct->ADC_ExternalTrigEventEdge));  
 177:../Libraries/STM32F30x_StdPeriph_Driver/src/stm32f30x_adc.c ****   assert_param(IS_ADC_DATA_ALIGN(ADC_InitStruct->ADC_DataAlign)); 
 178:../Libraries/STM32F30x_StdPeriph_Driver/src/stm32f30x_adc.c ****   assert_param(IS_ADC_OVRUNMODE(ADC_InitStruct->ADC_OverrunMode));
 179:../Libraries/STM32F30x_StdPeriph_Driver/src/stm32f30x_adc.c ****   assert_param(IS_ADC_AUTOINJECMODE(ADC_InitStruct->ADC_AutoInjMode));
 180:../Libraries/STM32F30x_StdPeriph_Driver/src/stm32f30x_adc.c ****   assert_param(IS_ADC_REGULAR_LENGTH(ADC_InitStruct->ADC_NbrOfRegChannel));
 181:../Libraries/STM32F30x_StdPeriph_Driver/src/stm32f30x_adc.c **** 
 182:../Libraries/STM32F30x_StdPeriph_Driver/src/stm32f30x_adc.c ****   /*---------------------------- ADCx CFGR Configuration -----------------*/
 183:../Libraries/STM32F30x_StdPeriph_Driver/src/stm32f30x_adc.c ****   /* Get the ADCx CFGR value */
 184:../Libraries/STM32F30x_StdPeriph_Driver/src/stm32f30x_adc.c ****   tmpreg1 = ADCx->CFGR;
 108              		.loc 1 184 0
 109 007c 019B     		ldr	r3, [sp, #4]
 110 007e DB68     		ldr	r3, [r3, #12]
 111 0080 0393     		str	r3, [sp, #12]
 185:../Libraries/STM32F30x_StdPeriph_Driver/src/stm32f30x_adc.c ****   /* Clear SCAN bit */
 186:../Libraries/STM32F30x_StdPeriph_Driver/src/stm32f30x_adc.c ****   tmpreg1 &= CFGR_CLEAR_Mask; 
 112              		.loc 1 186 0
 113 0082 039A     		ldr	r2, [sp, #12]
 114 0084 4CF20703 		movw	r3, #49159
 115 0088 CFF6FF53 		movt	r3, 65023
 116 008c 1340     		ands	r3, r3, r2
 117 008e 0393     		str	r3, [sp, #12]
 187:../Libraries/STM32F30x_StdPeriph_Driver/src/stm32f30x_adc.c ****   /* Configure ADCx: scan conversion mode */
 188:../Libraries/STM32F30x_StdPeriph_Driver/src/stm32f30x_adc.c ****   /* Set SCAN bit according to ADC_ScanConvMode value */
 189:../Libraries/STM32F30x_StdPeriph_Driver/src/stm32f30x_adc.c ****   tmpreg1 |= (uint32_t)ADC_InitStruct->ADC_ContinuousConvMode | 
 118              		.loc 1 189 0
 119 0090 009B     		ldr	r3, [sp, #0]
 120 0092 1A68     		ldr	r2, [r3, #0]
 190:../Libraries/STM32F30x_StdPeriph_Driver/src/stm32f30x_adc.c ****   ADC_InitStruct->ADC_Resolution|                 
 121              		.loc 1 190 0
 122 0094 009B     		ldr	r3, [sp, #0]
 123 0096 5B68     		ldr	r3, [r3, #4]
 189:../Libraries/STM32F30x_StdPeriph_Driver/src/stm32f30x_adc.c ****   tmpreg1 |= (uint32_t)ADC_InitStruct->ADC_ContinuousConvMode | 
 124              		.loc 1 189 0
 125 0098 1A43     		orrs	r2, r2, r3
 191:../Libraries/STM32F30x_StdPeriph_Driver/src/stm32f30x_adc.c ****   ADC_InitStruct->ADC_ExternalTrigConvEvent|         
 126              		.loc 1 191 0
 127 009a 009B     		ldr	r3, [sp, #0]
 128 009c 9B68     		ldr	r3, [r3, #8]
 190:../Libraries/STM32F30x_StdPeriph_Driver/src/stm32f30x_adc.c ****   ADC_InitStruct->ADC_Resolution|                 
 129              		.loc 1 190 0
 130 009e 1A43     		orrs	r2, r2, r3
 192:../Libraries/STM32F30x_StdPeriph_Driver/src/stm32f30x_adc.c ****   ADC_InitStruct->ADC_ExternalTrigEventEdge|     
 131              		.loc 1 192 0
 132 00a0 009B     		ldr	r3, [sp, #0]
 133 00a2 DB68     		ldr	r3, [r3, #12]
 191:../Libraries/STM32F30x_StdPeriph_Driver/src/stm32f30x_adc.c ****   ADC_InitStruct->ADC_ExternalTrigConvEvent|         
 134              		.loc 1 191 0
 135 00a4 1A43     		orrs	r2, r2, r3
 193:../Libraries/STM32F30x_StdPeriph_Driver/src/stm32f30x_adc.c ****   ADC_InitStruct->ADC_DataAlign|                 
 136              		.loc 1 193 0
 137 00a6 009B     		ldr	r3, [sp, #0]
 138 00a8 1B69     		ldr	r3, [r3, #16]
 192:../Libraries/STM32F30x_StdPeriph_Driver/src/stm32f30x_adc.c ****   ADC_InitStruct->ADC_ExternalTrigEventEdge|     
 139              		.loc 1 192 0
 140 00aa 1A43     		orrs	r2, r2, r3
 194:../Libraries/STM32F30x_StdPeriph_Driver/src/stm32f30x_adc.c ****   ADC_InitStruct->ADC_OverrunMode|        
 141              		.loc 1 194 0
 142 00ac 009B     		ldr	r3, [sp, #0]
 143 00ae 5B69     		ldr	r3, [r3, #20]
 193:../Libraries/STM32F30x_StdPeriph_Driver/src/stm32f30x_adc.c ****   ADC_InitStruct->ADC_DataAlign|                 
 144              		.loc 1 193 0
 145 00b0 1A43     		orrs	r2, r2, r3
 195:../Libraries/STM32F30x_StdPeriph_Driver/src/stm32f30x_adc.c ****   ADC_InitStruct->ADC_AutoInjMode;
 146              		.loc 1 195 0
 147 00b2 009B     		ldr	r3, [sp, #0]
 148 00b4 9B69     		ldr	r3, [r3, #24]
 194:../Libraries/STM32F30x_StdPeriph_Driver/src/stm32f30x_adc.c ****   ADC_InitStruct->ADC_OverrunMode|        
 149              		.loc 1 194 0
 150 00b6 1343     		orrs	r3, r3, r2
 189:../Libraries/STM32F30x_StdPeriph_Driver/src/stm32f30x_adc.c ****   tmpreg1 |= (uint32_t)ADC_InitStruct->ADC_ContinuousConvMode | 
 151              		.loc 1 189 0
 152 00b8 039A     		ldr	r2, [sp, #12]
 153 00ba 1343     		orrs	r3, r3, r2
 154 00bc 0393     		str	r3, [sp, #12]
 196:../Libraries/STM32F30x_StdPeriph_Driver/src/stm32f30x_adc.c ****   
 197:../Libraries/STM32F30x_StdPeriph_Driver/src/stm32f30x_adc.c ****   /* Write to ADCx CFGR */
 198:../Libraries/STM32F30x_StdPeriph_Driver/src/stm32f30x_adc.c ****   ADCx->CFGR = tmpreg1;
 155              		.loc 1 198 0
 156 00be 019B     		ldr	r3, [sp, #4]
 157 00c0 039A     		ldr	r2, [sp, #12]
 158 00c2 DA60     		str	r2, [r3, #12]
 199:../Libraries/STM32F30x_StdPeriph_Driver/src/stm32f30x_adc.c ****   
 200:../Libraries/STM32F30x_StdPeriph_Driver/src/stm32f30x_adc.c ****   /*---------------------------- ADCx SQR1 Configuration -----------------*/
 201:../Libraries/STM32F30x_StdPeriph_Driver/src/stm32f30x_adc.c ****   /* Get the ADCx SQR1 value */
 202:../Libraries/STM32F30x_StdPeriph_Driver/src/stm32f30x_adc.c ****   tmpreg1 = ADCx->SQR1;
 159              		.loc 1 202 0
 160 00c4 019B     		ldr	r3, [sp, #4]
 161 00c6 1B6B     		ldr	r3, [r3, #48]
 162 00c8 0393     		str	r3, [sp, #12]
 203:../Libraries/STM32F30x_StdPeriph_Driver/src/stm32f30x_adc.c ****   /* Clear L bits */
 204:../Libraries/STM32F30x_StdPeriph_Driver/src/stm32f30x_adc.c ****   tmpreg1 &= ~(uint32_t)(ADC_SQR1_L);
 163              		.loc 1 204 0
 164 00ca 039B     		ldr	r3, [sp, #12]
 165 00cc 23F00F03 		bic	r3, r3, #15
 166 00d0 0393     		str	r3, [sp, #12]
 205:../Libraries/STM32F30x_StdPeriph_Driver/src/stm32f30x_adc.c ****   /* Configure ADCx: regular channel sequence length */
 206:../Libraries/STM32F30x_StdPeriph_Driver/src/stm32f30x_adc.c ****   /* Set L bits according to ADC_NbrOfRegChannel value */
 207:../Libraries/STM32F30x_StdPeriph_Driver/src/stm32f30x_adc.c ****   tmpreg1 |= (uint32_t) (ADC_InitStruct->ADC_NbrOfRegChannel - 1);
 167              		.loc 1 207 0
 168 00d2 009B     		ldr	r3, [sp, #0]
 169 00d4 1B7F     		ldrb	r3, [r3, #28]	@ zero_extendqisi2
 170 00d6 03F1FF33 		add	r3, r3, #-1
 171 00da 039A     		ldr	r2, [sp, #12]
 172 00dc 1343     		orrs	r3, r3, r2
 173 00de 0393     		str	r3, [sp, #12]
 208:../Libraries/STM32F30x_StdPeriph_Driver/src/stm32f30x_adc.c ****   /* Write to ADCx SQR1 */
 209:../Libraries/STM32F30x_StdPeriph_Driver/src/stm32f30x_adc.c ****   ADCx->SQR1 = tmpreg1; 
 174              		.loc 1 209 0
 175 00e0 019B     		ldr	r3, [sp, #4]
 176 00e2 039A     		ldr	r2, [sp, #12]
 177 00e4 1A63     		str	r2, [r3, #48]
 210:../Libraries/STM32F30x_StdPeriph_Driver/src/stm32f30x_adc.c ****    
 211:../Libraries/STM32F30x_StdPeriph_Driver/src/stm32f30x_adc.c **** }  
 178              		.loc 1 211 0
 179 00e6 04B0     		add	sp, sp, #16
 180 00e8 7047     		bx	lr
 181              		.cfi_endproc
 182              	.LFE112:
 184 00ea 00BF     		.align	2
 185              		.global	ADC_StructInit
 186              		.thumb
 187              		.thumb_func
 189              	ADC_StructInit:
 190              	.LFB113:
 212:../Libraries/STM32F30x_StdPeriph_Driver/src/stm32f30x_adc.c **** 
 213:../Libraries/STM32F30x_StdPeriph_Driver/src/stm32f30x_adc.c **** /**
 214:../Libraries/STM32F30x_StdPeriph_Driver/src/stm32f30x_adc.c ****   * @brief  Fills each ADC_InitStruct member with its default value.
 215:../Libraries/STM32F30x_StdPeriph_Driver/src/stm32f30x_adc.c ****   * @param  ADC_InitStruct : pointer to an ADC_InitTypeDef structure which will be initialized.
 216:../Libraries/STM32F30x_StdPeriph_Driver/src/stm32f30x_adc.c ****   * @retval None
 217:../Libraries/STM32F30x_StdPeriph_Driver/src/stm32f30x_adc.c ****   */
 218:../Libraries/STM32F30x_StdPeriph_Driver/src/stm32f30x_adc.c **** void ADC_StructInit(ADC_InitTypeDef* ADC_InitStruct)
 219:../Libraries/STM32F30x_StdPeriph_Driver/src/stm32f30x_adc.c **** {
 191              		.loc 1 219 0
 192              		.cfi_startproc
 193              		@ args = 0, pretend = 0, frame = 8
 194              		@ frame_needed = 0, uses_anonymous_args = 0
 195              		@ link register save eliminated.
 196 00ec 82B0     		sub	sp, sp, #8
 197              	.LCFI3:
 198              		.cfi_def_cfa_offset 8
 199 00ee 0190     		str	r0, [sp, #4]
 220:../Libraries/STM32F30x_StdPeriph_Driver/src/stm32f30x_adc.c ****   /* Reset ADC init structure parameters values */
 221:../Libraries/STM32F30x_StdPeriph_Driver/src/stm32f30x_adc.c ****   ADC_InitStruct->ADC_ContinuousConvMode = DISABLE;
 200              		.loc 1 221 0
 201 00f0 019B     		ldr	r3, [sp, #4]
 202 00f2 4FF00002 		mov	r2, #0
 203 00f6 1A60     		str	r2, [r3, #0]
 222:../Libraries/STM32F30x_StdPeriph_Driver/src/stm32f30x_adc.c ****   ADC_InitStruct->ADC_Resolution = ADC_Resolution_12b;                 
 204              		.loc 1 222 0
 205 00f8 019B     		ldr	r3, [sp, #4]
 206 00fa 4FF00002 		mov	r2, #0
 207 00fe 5A60     		str	r2, [r3, #4]
 223:../Libraries/STM32F30x_StdPeriph_Driver/src/stm32f30x_adc.c ****   ADC_InitStruct->ADC_ExternalTrigConvEvent = ADC_ExternalTrigConvEvent_0;         
 208              		.loc 1 223 0
 209 0100 019B     		ldr	r3, [sp, #4]
 210 0102 4FF00002 		mov	r2, #0
 211 0106 9A60     		str	r2, [r3, #8]
 224:../Libraries/STM32F30x_StdPeriph_Driver/src/stm32f30x_adc.c ****   ADC_InitStruct->ADC_ExternalTrigEventEdge = ADC_ExternalTrigEventEdge_None;
 212              		.loc 1 224 0
 213 0108 019B     		ldr	r3, [sp, #4]
 214 010a 4FF00002 		mov	r2, #0
 215 010e DA60     		str	r2, [r3, #12]
 225:../Libraries/STM32F30x_StdPeriph_Driver/src/stm32f30x_adc.c ****   ADC_InitStruct->ADC_DataAlign = ADC_DataAlign_Right;                 
 216              		.loc 1 225 0
 217 0110 019B     		ldr	r3, [sp, #4]
 218 0112 4FF00002 		mov	r2, #0
 219 0116 1A61     		str	r2, [r3, #16]
 226:../Libraries/STM32F30x_StdPeriph_Driver/src/stm32f30x_adc.c ****   ADC_InitStruct->ADC_OverrunMode = DISABLE;   
 220              		.loc 1 226 0
 221 0118 019B     		ldr	r3, [sp, #4]
 222 011a 4FF00002 		mov	r2, #0
 223 011e 5A61     		str	r2, [r3, #20]
 227:../Libraries/STM32F30x_StdPeriph_Driver/src/stm32f30x_adc.c ****   ADC_InitStruct->ADC_AutoInjMode = DISABLE;  
 224              		.loc 1 227 0
 225 0120 019B     		ldr	r3, [sp, #4]
 226 0122 4FF00002 		mov	r2, #0
 227 0126 9A61     		str	r2, [r3, #24]
 228:../Libraries/STM32F30x_StdPeriph_Driver/src/stm32f30x_adc.c ****   ADC_InitStruct->ADC_NbrOfRegChannel = 1; 
 228              		.loc 1 228 0
 229 0128 019B     		ldr	r3, [sp, #4]
 230 012a 4FF00102 		mov	r2, #1
 231 012e 1A77     		strb	r2, [r3, #28]
 229:../Libraries/STM32F30x_StdPeriph_Driver/src/stm32f30x_adc.c **** }
 232              		.loc 1 229 0
 233 0130 02B0     		add	sp, sp, #8
 234 0132 7047     		bx	lr
 235              		.cfi_endproc
 236              	.LFE113:
 238              		.align	2
 239              		.global	ADC_InjectedInit
 240              		.thumb
 241              		.thumb_func
 243              	ADC_InjectedInit:
 244              	.LFB114:
 230:../Libraries/STM32F30x_StdPeriph_Driver/src/stm32f30x_adc.c **** 
 231:../Libraries/STM32F30x_StdPeriph_Driver/src/stm32f30x_adc.c **** /**
 232:../Libraries/STM32F30x_StdPeriph_Driver/src/stm32f30x_adc.c ****   * @brief  Initializes the ADCx peripheral according to the specified parameters
 233:../Libraries/STM32F30x_StdPeriph_Driver/src/stm32f30x_adc.c ****   *         in the ADC_InitStruct.
 234:../Libraries/STM32F30x_StdPeriph_Driver/src/stm32f30x_adc.c ****   * @param  ADCx: where x can be 1, 2, 3 or 4 to select the ADC peripheral.
 235:../Libraries/STM32F30x_StdPeriph_Driver/src/stm32f30x_adc.c ****   * @param  ADC_InjectInitStruct: pointer to an ADC_InjecInitTypeDef structure that contains
 236:../Libraries/STM32F30x_StdPeriph_Driver/src/stm32f30x_adc.c ****   *         the configuration information for the specified ADC injected channel.
 237:../Libraries/STM32F30x_StdPeriph_Driver/src/stm32f30x_adc.c ****   * @retval None
 238:../Libraries/STM32F30x_StdPeriph_Driver/src/stm32f30x_adc.c ****   */
 239:../Libraries/STM32F30x_StdPeriph_Driver/src/stm32f30x_adc.c **** void ADC_InjectedInit(ADC_TypeDef* ADCx, ADC_InjectedInitTypeDef* ADC_InjectedInitStruct)
 240:../Libraries/STM32F30x_StdPeriph_Driver/src/stm32f30x_adc.c **** {
 245              		.loc 1 240 0
 246              		.cfi_startproc
 247              		@ args = 0, pretend = 0, frame = 16
 248              		@ frame_needed = 0, uses_anonymous_args = 0
 249              		@ link register save eliminated.
 250 0134 84B0     		sub	sp, sp, #16
 251              	.LCFI4:
 252              		.cfi_def_cfa_offset 16
 253 0136 0190     		str	r0, [sp, #4]
 254 0138 0091     		str	r1, [sp, #0]
 241:../Libraries/STM32F30x_StdPeriph_Driver/src/stm32f30x_adc.c ****   uint32_t tmpreg1 = 0;
 255              		.loc 1 241 0
 256 013a 4FF00003 		mov	r3, #0
 257 013e 0393     		str	r3, [sp, #12]
 242:../Libraries/STM32F30x_StdPeriph_Driver/src/stm32f30x_adc.c ****   /* Check the parameters */
 243:../Libraries/STM32F30x_StdPeriph_Driver/src/stm32f30x_adc.c ****   assert_param(IS_ADC_ALL_PERIPH(ADCx));
 244:../Libraries/STM32F30x_StdPeriph_Driver/src/stm32f30x_adc.c ****   assert_param(IS_ADC_EXT_INJEC_TRIG(ADC_InjectedInitStruct->ADC_ExternalTrigInjecConvEvent)); 
 245:../Libraries/STM32F30x_StdPeriph_Driver/src/stm32f30x_adc.c ****   assert_param(IS_EXTERNALTRIGINJ_EDGE(ADC_InjectedInitStruct->ADC_ExternalTrigInjecEventEdge));   
 246:../Libraries/STM32F30x_StdPeriph_Driver/src/stm32f30x_adc.c ****   assert_param(IS_ADC_INJECTED_LENGTH(ADC_InjectedInitStruct->ADC_NbrOfInjecChannel));
 247:../Libraries/STM32F30x_StdPeriph_Driver/src/stm32f30x_adc.c ****   assert_param(IS_ADC_INJECTED_CHANNEL(ADC_InjectedInitStruct->ADC_InjecSequence1));
 248:../Libraries/STM32F30x_StdPeriph_Driver/src/stm32f30x_adc.c ****   assert_param(IS_ADC_INJECTED_CHANNEL(ADC_InjectedInitStruct->ADC_InjecSequence2));
 249:../Libraries/STM32F30x_StdPeriph_Driver/src/stm32f30x_adc.c ****   assert_param(IS_ADC_INJECTED_CHANNEL(ADC_InjectedInitStruct->ADC_InjecSequence3));
 250:../Libraries/STM32F30x_StdPeriph_Driver/src/stm32f30x_adc.c ****   assert_param(IS_ADC_INJECTED_CHANNEL(ADC_InjectedInitStruct->ADC_InjecSequence4));
 251:../Libraries/STM32F30x_StdPeriph_Driver/src/stm32f30x_adc.c ****   
 252:../Libraries/STM32F30x_StdPeriph_Driver/src/stm32f30x_adc.c ****   /*---------------------------- ADCx JSQR Configuration -----------------*/
 253:../Libraries/STM32F30x_StdPeriph_Driver/src/stm32f30x_adc.c ****   /* Get the ADCx JSQR value */
 254:../Libraries/STM32F30x_StdPeriph_Driver/src/stm32f30x_adc.c ****   tmpreg1 = ADCx->JSQR;
 258              		.loc 1 254 0
 259 0140 019B     		ldr	r3, [sp, #4]
 260 0142 DB6C     		ldr	r3, [r3, #76]
 261 0144 0393     		str	r3, [sp, #12]
 255:../Libraries/STM32F30x_StdPeriph_Driver/src/stm32f30x_adc.c ****   /* Clear L bits */
 256:../Libraries/STM32F30x_StdPeriph_Driver/src/stm32f30x_adc.c ****   tmpreg1 &= JSQR_CLEAR_Mask;
 262              		.loc 1 256 0
 263 0146 4FF00003 		mov	r3, #0
 264 014a 0393     		str	r3, [sp, #12]
 257:../Libraries/STM32F30x_StdPeriph_Driver/src/stm32f30x_adc.c ****   /* Configure ADCx: Injected channel sequence length, external trigger, 
 258:../Libraries/STM32F30x_StdPeriph_Driver/src/stm32f30x_adc.c ****      external trigger edge and sequences
 259:../Libraries/STM32F30x_StdPeriph_Driver/src/stm32f30x_adc.c ****   */
 260:../Libraries/STM32F30x_StdPeriph_Driver/src/stm32f30x_adc.c ****   tmpreg1 = (uint32_t) ((ADC_InjectedInitStruct->ADC_NbrOfInjecChannel - (uint8_t)1) |
 265              		.loc 1 260 0
 266 014c 009B     		ldr	r3, [sp, #0]
 267 014e 1B7A     		ldrb	r3, [r3, #8]	@ zero_extendqisi2
 268 0150 03F1FF33 		add	r3, r3, #-1
 269 0154 1A46     		mov	r2, r3
 261:../Libraries/STM32F30x_StdPeriph_Driver/src/stm32f30x_adc.c ****                          ADC_InjectedInitStruct->ADC_ExternalTrigInjecConvEvent |         
 270              		.loc 1 261 0
 271 0156 009B     		ldr	r3, [sp, #0]
 272 0158 1B68     		ldr	r3, [r3, #0]
 260:../Libraries/STM32F30x_StdPeriph_Driver/src/stm32f30x_adc.c ****   tmpreg1 = (uint32_t) ((ADC_InjectedInitStruct->ADC_NbrOfInjecChannel - (uint8_t)1) |
 273              		.loc 1 260 0
 274 015a 1A43     		orrs	r2, r2, r3
 262:../Libraries/STM32F30x_StdPeriph_Driver/src/stm32f30x_adc.c ****                          ADC_InjectedInitStruct->ADC_ExternalTrigInjecEventEdge |
 275              		.loc 1 262 0
 276 015c 009B     		ldr	r3, [sp, #0]
 277 015e 5B68     		ldr	r3, [r3, #4]
 261:../Libraries/STM32F30x_StdPeriph_Driver/src/stm32f30x_adc.c ****                          ADC_InjectedInitStruct->ADC_ExternalTrigInjecConvEvent |         
 278              		.loc 1 261 0
 279 0160 1A43     		orrs	r2, r2, r3
 263:../Libraries/STM32F30x_StdPeriph_Driver/src/stm32f30x_adc.c ****                          (uint32_t)((ADC_InjectedInitStruct->ADC_InjecSequence1) << 8) |
 280              		.loc 1 263 0
 281 0162 009B     		ldr	r3, [sp, #0]
 282 0164 DB68     		ldr	r3, [r3, #12]
 283 0166 4FEA0323 		lsl	r3, r3, #8
 262:../Libraries/STM32F30x_StdPeriph_Driver/src/stm32f30x_adc.c ****                          ADC_InjectedInitStruct->ADC_ExternalTrigInjecEventEdge |
 284              		.loc 1 262 0
 285 016a 1A43     		orrs	r2, r2, r3
 264:../Libraries/STM32F30x_StdPeriph_Driver/src/stm32f30x_adc.c ****                          (uint32_t)((ADC_InjectedInitStruct->ADC_InjecSequence2) << 14) |
 286              		.loc 1 264 0
 287 016c 009B     		ldr	r3, [sp, #0]
 288 016e 1B69     		ldr	r3, [r3, #16]
 289 0170 4FEA8333 		lsl	r3, r3, #14
 263:../Libraries/STM32F30x_StdPeriph_Driver/src/stm32f30x_adc.c ****                          (uint32_t)((ADC_InjectedInitStruct->ADC_InjecSequence1) << 8) |
 290              		.loc 1 263 0
 291 0174 1A43     		orrs	r2, r2, r3
 265:../Libraries/STM32F30x_StdPeriph_Driver/src/stm32f30x_adc.c ****                          (uint32_t)((ADC_InjectedInitStruct->ADC_InjecSequence3) << 20) |
 292              		.loc 1 265 0
 293 0176 009B     		ldr	r3, [sp, #0]
 294 0178 5B69     		ldr	r3, [r3, #20]
 295 017a 4FEA0353 		lsl	r3, r3, #20
 264:../Libraries/STM32F30x_StdPeriph_Driver/src/stm32f30x_adc.c ****                          (uint32_t)((ADC_InjectedInitStruct->ADC_InjecSequence2) << 14) |
 296              		.loc 1 264 0
 297 017e 1A43     		orrs	r2, r2, r3
 266:../Libraries/STM32F30x_StdPeriph_Driver/src/stm32f30x_adc.c ****                          (uint32_t)((ADC_InjectedInitStruct->ADC_InjecSequence4) << 26));
 298              		.loc 1 266 0
 299 0180 009B     		ldr	r3, [sp, #0]
 300 0182 9B69     		ldr	r3, [r3, #24]
 301 0184 4FEA8363 		lsl	r3, r3, #26
 260:../Libraries/STM32F30x_StdPeriph_Driver/src/stm32f30x_adc.c ****   tmpreg1 = (uint32_t) ((ADC_InjectedInitStruct->ADC_NbrOfInjecChannel - (uint8_t)1) |
 302              		.loc 1 260 0
 303 0188 1343     		orrs	r3, r3, r2
 304 018a 0393     		str	r3, [sp, #12]
 267:../Libraries/STM32F30x_StdPeriph_Driver/src/stm32f30x_adc.c ****   /* Write to ADCx SQR1 */
 268:../Libraries/STM32F30x_StdPeriph_Driver/src/stm32f30x_adc.c ****   ADCx->JSQR = tmpreg1;  
 305              		.loc 1 268 0
 306 018c 019B     		ldr	r3, [sp, #4]
 307 018e 039A     		ldr	r2, [sp, #12]
 308 0190 DA64     		str	r2, [r3, #76]
 269:../Libraries/STM32F30x_StdPeriph_Driver/src/stm32f30x_adc.c **** }
 309              		.loc 1 269 0
 310 0192 04B0     		add	sp, sp, #16
 311 0194 7047     		bx	lr
 312              		.cfi_endproc
 313              	.LFE114:
 315 0196 00BF     		.align	2
 316              		.global	ADC_InjectedStructInit
 317              		.thumb
 318              		.thumb_func
 320              	ADC_InjectedStructInit:
 321              	.LFB115:
 270:../Libraries/STM32F30x_StdPeriph_Driver/src/stm32f30x_adc.c **** 
 271:../Libraries/STM32F30x_StdPeriph_Driver/src/stm32f30x_adc.c **** /**
 272:../Libraries/STM32F30x_StdPeriph_Driver/src/stm32f30x_adc.c ****   * @brief  Fills each ADC_InjectedInitStruct member with its default value.
 273:../Libraries/STM32F30x_StdPeriph_Driver/src/stm32f30x_adc.c ****   * @param  ADC_InjectedInitStruct : pointer to an ADC_InjectedInitTypeDef structure which will be 
 274:../Libraries/STM32F30x_StdPeriph_Driver/src/stm32f30x_adc.c ****   * @retval None
 275:../Libraries/STM32F30x_StdPeriph_Driver/src/stm32f30x_adc.c ****   */
 276:../Libraries/STM32F30x_StdPeriph_Driver/src/stm32f30x_adc.c **** void ADC_InjectedStructInit(ADC_InjectedInitTypeDef* ADC_InjectedInitStruct)
 277:../Libraries/STM32F30x_StdPeriph_Driver/src/stm32f30x_adc.c **** {
 322              		.loc 1 277 0
 323              		.cfi_startproc
 324              		@ args = 0, pretend = 0, frame = 8
 325              		@ frame_needed = 0, uses_anonymous_args = 0
 326              		@ link register save eliminated.
 327 0198 82B0     		sub	sp, sp, #8
 328              	.LCFI5:
 329              		.cfi_def_cfa_offset 8
 330 019a 0190     		str	r0, [sp, #4]
 278:../Libraries/STM32F30x_StdPeriph_Driver/src/stm32f30x_adc.c ****   ADC_InjectedInitStruct->ADC_ExternalTrigInjecConvEvent = ADC_ExternalTrigInjecConvEvent_0;    
 331              		.loc 1 278 0
 332 019c 019B     		ldr	r3, [sp, #4]
 333 019e 4FF00002 		mov	r2, #0
 334 01a2 1A60     		str	r2, [r3, #0]
 279:../Libraries/STM32F30x_StdPeriph_Driver/src/stm32f30x_adc.c ****   ADC_InjectedInitStruct->ADC_ExternalTrigInjecEventEdge = ADC_ExternalTrigInjecEventEdge_None;    
 335              		.loc 1 279 0
 336 01a4 019B     		ldr	r3, [sp, #4]
 337 01a6 4FF00002 		mov	r2, #0
 338 01aa 5A60     		str	r2, [r3, #4]
 280:../Libraries/STM32F30x_StdPeriph_Driver/src/stm32f30x_adc.c ****   ADC_InjectedInitStruct->ADC_NbrOfInjecChannel = 1;                                               
 339              		.loc 1 280 0
 340 01ac 019B     		ldr	r3, [sp, #4]
 341 01ae 4FF00102 		mov	r2, #1
 342 01b2 1A72     		strb	r2, [r3, #8]
 281:../Libraries/STM32F30x_StdPeriph_Driver/src/stm32f30x_adc.c ****   ADC_InjectedInitStruct->ADC_InjecSequence1 = ADC_InjectedChannel_1; 
 343              		.loc 1 281 0
 344 01b4 019B     		ldr	r3, [sp, #4]
 345 01b6 4FF00102 		mov	r2, #1
 346 01ba DA60     		str	r2, [r3, #12]
 282:../Libraries/STM32F30x_StdPeriph_Driver/src/stm32f30x_adc.c ****   ADC_InjectedInitStruct->ADC_InjecSequence2 = ADC_InjectedChannel_1;
 347              		.loc 1 282 0
 348 01bc 019B     		ldr	r3, [sp, #4]
 349 01be 4FF00102 		mov	r2, #1
 350 01c2 1A61     		str	r2, [r3, #16]
 283:../Libraries/STM32F30x_StdPeriph_Driver/src/stm32f30x_adc.c ****   ADC_InjectedInitStruct->ADC_InjecSequence3 = ADC_InjectedChannel_1;
 351              		.loc 1 283 0
 352 01c4 019B     		ldr	r3, [sp, #4]
 353 01c6 4FF00102 		mov	r2, #1
 354 01ca 5A61     		str	r2, [r3, #20]
 284:../Libraries/STM32F30x_StdPeriph_Driver/src/stm32f30x_adc.c ****   ADC_InjectedInitStruct->ADC_InjecSequence4 = ADC_InjectedChannel_1; 
 355              		.loc 1 284 0
 356 01cc 019B     		ldr	r3, [sp, #4]
 357 01ce 4FF00102 		mov	r2, #1
 358 01d2 9A61     		str	r2, [r3, #24]
 285:../Libraries/STM32F30x_StdPeriph_Driver/src/stm32f30x_adc.c **** }
 359              		.loc 1 285 0
 360 01d4 02B0     		add	sp, sp, #8
 361 01d6 7047     		bx	lr
 362              		.cfi_endproc
 363              	.LFE115:
 365              		.align	2
 366              		.global	ADC_CommonInit
 367              		.thumb
 368              		.thumb_func
 370              	ADC_CommonInit:
 371              	.LFB116:
 286:../Libraries/STM32F30x_StdPeriph_Driver/src/stm32f30x_adc.c ****     
 287:../Libraries/STM32F30x_StdPeriph_Driver/src/stm32f30x_adc.c **** /**
 288:../Libraries/STM32F30x_StdPeriph_Driver/src/stm32f30x_adc.c ****   * @brief  Initializes the ADCs peripherals according to the specified parameters 
 289:../Libraries/STM32F30x_StdPeriph_Driver/src/stm32f30x_adc.c ****   *         in the ADC_CommonInitStruct.
 290:../Libraries/STM32F30x_StdPeriph_Driver/src/stm32f30x_adc.c ****   * @param  ADCx: where x can be 1 or 4 to select the ADC peripheral.
 291:../Libraries/STM32F30x_StdPeriph_Driver/src/stm32f30x_adc.c ****   * @param  ADC_CommonInitStruct: pointer to an ADC_CommonInitTypeDef structure 
 292:../Libraries/STM32F30x_StdPeriph_Driver/src/stm32f30x_adc.c ****   *         that contains the configuration information for  All ADCs peripherals.
 293:../Libraries/STM32F30x_StdPeriph_Driver/src/stm32f30x_adc.c ****   * @retval None
 294:../Libraries/STM32F30x_StdPeriph_Driver/src/stm32f30x_adc.c ****   */
 295:../Libraries/STM32F30x_StdPeriph_Driver/src/stm32f30x_adc.c **** void ADC_CommonInit(ADC_TypeDef* ADCx, ADC_CommonInitTypeDef* ADC_CommonInitStruct)
 296:../Libraries/STM32F30x_StdPeriph_Driver/src/stm32f30x_adc.c **** {
 372              		.loc 1 296 0
 373              		.cfi_startproc
 374              		@ args = 0, pretend = 0, frame = 16
 375              		@ frame_needed = 0, uses_anonymous_args = 0
 376              		@ link register save eliminated.
 377 01d8 84B0     		sub	sp, sp, #16
 378              	.LCFI6:
 379              		.cfi_def_cfa_offset 16
 380 01da 0190     		str	r0, [sp, #4]
 381 01dc 0091     		str	r1, [sp, #0]
 297:../Libraries/STM32F30x_StdPeriph_Driver/src/stm32f30x_adc.c ****   uint32_t tmpreg1 = 0;
 382              		.loc 1 297 0
 383 01de 4FF00003 		mov	r3, #0
 384 01e2 0393     		str	r3, [sp, #12]
 298:../Libraries/STM32F30x_StdPeriph_Driver/src/stm32f30x_adc.c ****   /* Check the parameters */
 299:../Libraries/STM32F30x_StdPeriph_Driver/src/stm32f30x_adc.c ****   assert_param(IS_ADC_MODE(ADC_CommonInitStruct->ADC_Mode));
 300:../Libraries/STM32F30x_StdPeriph_Driver/src/stm32f30x_adc.c ****   assert_param(IS_ADC_CLOCKMODE(ADC_CommonInitStruct->ADC_Clock));
 301:../Libraries/STM32F30x_StdPeriph_Driver/src/stm32f30x_adc.c ****   assert_param(IS_ADC_DMA_MODE(ADC_CommonInitStruct->ADC_DMAMode));
 302:../Libraries/STM32F30x_StdPeriph_Driver/src/stm32f30x_adc.c ****   assert_param(IS_ADC_DMA_ACCESS_MODE(ADC_CommonInitStruct->ADC_DMAAccessMode));
 303:../Libraries/STM32F30x_StdPeriph_Driver/src/stm32f30x_adc.c ****   assert_param(IS_ADC_TWOSAMPLING_DELAY(ADC_CommonInitStruct->ADC_TwoSamplingDelay));
 304:../Libraries/STM32F30x_StdPeriph_Driver/src/stm32f30x_adc.c **** 
 305:../Libraries/STM32F30x_StdPeriph_Driver/src/stm32f30x_adc.c ****   if((ADCx == ADC1) || (ADCx == ADC2))
 385              		.loc 1 305 0
 386 01e4 019B     		ldr	r3, [sp, #4]
 387 01e6 B3F1A04F 		cmp	r3, #1342177280
 388 01ea 06D0     		beq	.L11
 389              		.loc 1 305 0 is_stmt 0 discriminator 1
 390 01ec 019A     		ldr	r2, [sp, #4]
 391 01ee 4FF48073 		mov	r3, #256
 392 01f2 C5F20003 		movt	r3, 20480
 393 01f6 9A42     		cmp	r2, r3
 394 01f8 0DD1     		bne	.L12
 395              	.L11:
 306:../Libraries/STM32F30x_StdPeriph_Driver/src/stm32f30x_adc.c ****   {
 307:../Libraries/STM32F30x_StdPeriph_Driver/src/stm32f30x_adc.c ****     /* Get the ADC CCR value */
 308:../Libraries/STM32F30x_StdPeriph_Driver/src/stm32f30x_adc.c ****     tmpreg1 = ADC1_2->CCR;
 396              		.loc 1 308 0 is_stmt 1
 397 01fa 4FF44073 		mov	r3, #768
 398 01fe C5F20003 		movt	r3, 20480
 399 0202 9B68     		ldr	r3, [r3, #8]
 400 0204 0393     		str	r3, [sp, #12]
 309:../Libraries/STM32F30x_StdPeriph_Driver/src/stm32f30x_adc.c ****   
 310:../Libraries/STM32F30x_StdPeriph_Driver/src/stm32f30x_adc.c ****     /* Clear MULTI, DELAY, DMA and ADCPRE bits */
 311:../Libraries/STM32F30x_StdPeriph_Driver/src/stm32f30x_adc.c ****     tmpreg1 &= CCR_CLEAR_MASK;
 401              		.loc 1 311 0
 402 0206 039A     		ldr	r2, [sp, #12]
 403 0208 4FF48753 		mov	r3, #4320
 404 020c CFF6FC73 		movt	r3, 65532
 405 0210 1340     		ands	r3, r3, r2
 406 0212 0393     		str	r3, [sp, #12]
 407 0214 0CE0     		b	.L13
 408              	.L12:
 312:../Libraries/STM32F30x_StdPeriph_Driver/src/stm32f30x_adc.c ****   }
 313:../Libraries/STM32F30x_StdPeriph_Driver/src/stm32f30x_adc.c ****   else
 314:../Libraries/STM32F30x_StdPeriph_Driver/src/stm32f30x_adc.c ****   {
 315:../Libraries/STM32F30x_StdPeriph_Driver/src/stm32f30x_adc.c ****     /* Get the ADC CCR value */
 316:../Libraries/STM32F30x_StdPeriph_Driver/src/stm32f30x_adc.c ****     tmpreg1 = ADC3_4->CCR;
 409              		.loc 1 316 0
 410 0216 4FF4E063 		mov	r3, #1792
 411 021a C5F20003 		movt	r3, 20480
 412 021e 9B68     		ldr	r3, [r3, #8]
 413 0220 0393     		str	r3, [sp, #12]
 317:../Libraries/STM32F30x_StdPeriph_Driver/src/stm32f30x_adc.c ****   
 318:../Libraries/STM32F30x_StdPeriph_Driver/src/stm32f30x_adc.c ****     /* Clear MULTI, DELAY, DMA and ADCPRE bits */
 319:../Libraries/STM32F30x_StdPeriph_Driver/src/stm32f30x_adc.c ****     tmpreg1 &= CCR_CLEAR_MASK;
 414              		.loc 1 319 0
 415 0222 039A     		ldr	r2, [sp, #12]
 416 0224 4FF48753 		mov	r3, #4320
 417 0228 CFF6FC73 		movt	r3, 65532
 418 022c 1340     		ands	r3, r3, r2
 419 022e 0393     		str	r3, [sp, #12]
 420              	.L13:
 320:../Libraries/STM32F30x_StdPeriph_Driver/src/stm32f30x_adc.c ****   }
 321:../Libraries/STM32F30x_StdPeriph_Driver/src/stm32f30x_adc.c ****   /*---------------------------- ADC CCR Configuration -----------------*/  
 322:../Libraries/STM32F30x_StdPeriph_Driver/src/stm32f30x_adc.c ****   /* Configure ADCx: Multi mode, Delay between two sampling time, ADC clock, DMA mode
 323:../Libraries/STM32F30x_StdPeriph_Driver/src/stm32f30x_adc.c ****      and DMA access mode for dual mode */
 324:../Libraries/STM32F30x_StdPeriph_Driver/src/stm32f30x_adc.c ****   /* Set MULTI bits according to ADC_Mode value */
 325:../Libraries/STM32F30x_StdPeriph_Driver/src/stm32f30x_adc.c ****   /* Set CKMODE bits according to ADC_Clock value */
 326:../Libraries/STM32F30x_StdPeriph_Driver/src/stm32f30x_adc.c ****   /* Set MDMA bits according to ADC_DMAAccessMode value */
 327:../Libraries/STM32F30x_StdPeriph_Driver/src/stm32f30x_adc.c ****   /* Set DMACFG bits according to ADC_DMAMode value */
 328:../Libraries/STM32F30x_StdPeriph_Driver/src/stm32f30x_adc.c ****   /* Set DELAY bits according to ADC_TwoSamplingDelay value */    
 329:../Libraries/STM32F30x_StdPeriph_Driver/src/stm32f30x_adc.c ****   tmpreg1 |= (uint32_t)(ADC_CommonInitStruct->ADC_Mode | 
 421              		.loc 1 329 0
 422 0230 009B     		ldr	r3, [sp, #0]
 423 0232 1A68     		ldr	r2, [r3, #0]
 330:../Libraries/STM32F30x_StdPeriph_Driver/src/stm32f30x_adc.c ****                         ADC_CommonInitStruct->ADC_Clock | 
 424              		.loc 1 330 0
 425 0234 009B     		ldr	r3, [sp, #0]
 426 0236 5B68     		ldr	r3, [r3, #4]
 329:../Libraries/STM32F30x_StdPeriph_Driver/src/stm32f30x_adc.c ****   tmpreg1 |= (uint32_t)(ADC_CommonInitStruct->ADC_Mode | 
 427              		.loc 1 329 0
 428 0238 1A43     		orrs	r2, r2, r3
 331:../Libraries/STM32F30x_StdPeriph_Driver/src/stm32f30x_adc.c ****                         ADC_CommonInitStruct->ADC_DMAAccessMode | 
 429              		.loc 1 331 0
 430 023a 009B     		ldr	r3, [sp, #0]
 431 023c 9B68     		ldr	r3, [r3, #8]
 330:../Libraries/STM32F30x_StdPeriph_Driver/src/stm32f30x_adc.c ****                         ADC_CommonInitStruct->ADC_Clock | 
 432              		.loc 1 330 0
 433 023e 1A43     		orrs	r2, r2, r3
 332:../Libraries/STM32F30x_StdPeriph_Driver/src/stm32f30x_adc.c ****                         (uint32_t)(ADC_CommonInitStruct->ADC_DMAMode << 12) |
 434              		.loc 1 332 0
 435 0240 009B     		ldr	r3, [sp, #0]
 436 0242 DB68     		ldr	r3, [r3, #12]
 437 0244 4FEA0333 		lsl	r3, r3, #12
 331:../Libraries/STM32F30x_StdPeriph_Driver/src/stm32f30x_adc.c ****                         ADC_CommonInitStruct->ADC_DMAAccessMode | 
 438              		.loc 1 331 0
 439 0248 1A43     		orrs	r2, r2, r3
 333:../Libraries/STM32F30x_StdPeriph_Driver/src/stm32f30x_adc.c ****                         (uint32_t)((uint32_t)ADC_CommonInitStruct->ADC_TwoSamplingDelay << 8));
 440              		.loc 1 333 0
 441 024a 009B     		ldr	r3, [sp, #0]
 442 024c 1B7C     		ldrb	r3, [r3, #16]	@ zero_extendqisi2
 443 024e 4FEA0323 		lsl	r3, r3, #8
 329:../Libraries/STM32F30x_StdPeriph_Driver/src/stm32f30x_adc.c ****   tmpreg1 |= (uint32_t)(ADC_CommonInitStruct->ADC_Mode | 
 444              		.loc 1 329 0
 445 0252 1343     		orrs	r3, r3, r2
 446 0254 039A     		ldr	r2, [sp, #12]
 447 0256 1343     		orrs	r3, r3, r2
 448 0258 0393     		str	r3, [sp, #12]
 334:../Libraries/STM32F30x_StdPeriph_Driver/src/stm32f30x_adc.c **** 
 335:../Libraries/STM32F30x_StdPeriph_Driver/src/stm32f30x_adc.c ****   if((ADCx == ADC1) || (ADCx == ADC2))
 449              		.loc 1 335 0
 450 025a 019B     		ldr	r3, [sp, #4]
 451 025c B3F1A04F 		cmp	r3, #1342177280
 452 0260 06D0     		beq	.L14
 453              		.loc 1 335 0 is_stmt 0 discriminator 1
 454 0262 019A     		ldr	r2, [sp, #4]
 455 0264 4FF48073 		mov	r3, #256
 456 0268 C5F20003 		movt	r3, 20480
 457 026c 9A42     		cmp	r2, r3
 458 026e 06D1     		bne	.L15
 459              	.L14:
 336:../Libraries/STM32F30x_StdPeriph_Driver/src/stm32f30x_adc.c ****   {                        
 337:../Libraries/STM32F30x_StdPeriph_Driver/src/stm32f30x_adc.c ****     /* Write to ADC CCR */
 338:../Libraries/STM32F30x_StdPeriph_Driver/src/stm32f30x_adc.c ****     ADC1_2->CCR = tmpreg1;
 460              		.loc 1 338 0 is_stmt 1
 461 0270 4FF44073 		mov	r3, #768
 462 0274 C5F20003 		movt	r3, 20480
 463 0278 039A     		ldr	r2, [sp, #12]
 464 027a 9A60     		str	r2, [r3, #8]
 465 027c 05E0     		b	.L10
 466              	.L15:
 339:../Libraries/STM32F30x_StdPeriph_Driver/src/stm32f30x_adc.c ****   }
 340:../Libraries/STM32F30x_StdPeriph_Driver/src/stm32f30x_adc.c ****   else
 341:../Libraries/STM32F30x_StdPeriph_Driver/src/stm32f30x_adc.c ****   {
 342:../Libraries/STM32F30x_StdPeriph_Driver/src/stm32f30x_adc.c ****     /* Write to ADC CCR */
 343:../Libraries/STM32F30x_StdPeriph_Driver/src/stm32f30x_adc.c ****     ADC3_4->CCR = tmpreg1;
 467              		.loc 1 343 0
 468 027e 4FF4E063 		mov	r3, #1792
 469 0282 C5F20003 		movt	r3, 20480
 470 0286 039A     		ldr	r2, [sp, #12]
 471 0288 9A60     		str	r2, [r3, #8]
 472              	.L10:
 344:../Libraries/STM32F30x_StdPeriph_Driver/src/stm32f30x_adc.c ****   }
 345:../Libraries/STM32F30x_StdPeriph_Driver/src/stm32f30x_adc.c **** }
 473              		.loc 1 345 0
 474 028a 04B0     		add	sp, sp, #16
 475 028c 7047     		bx	lr
 476              		.cfi_endproc
 477              	.LFE116:
 479 028e 00BF     		.align	2
 480              		.global	ADC_CommonStructInit
 481              		.thumb
 482              		.thumb_func
 484              	ADC_CommonStructInit:
 485              	.LFB117:
 346:../Libraries/STM32F30x_StdPeriph_Driver/src/stm32f30x_adc.c **** 
 347:../Libraries/STM32F30x_StdPeriph_Driver/src/stm32f30x_adc.c **** /**
 348:../Libraries/STM32F30x_StdPeriph_Driver/src/stm32f30x_adc.c ****   * @brief  Fills each ADC_CommonInitStruct member with its default value.
 349:../Libraries/STM32F30x_StdPeriph_Driver/src/stm32f30x_adc.c ****   * @param  ADC_CommonInitStruct: pointer to an ADC_CommonInitTypeDef structure
 350:../Libraries/STM32F30x_StdPeriph_Driver/src/stm32f30x_adc.c ****   *         which will be initialized.
 351:../Libraries/STM32F30x_StdPeriph_Driver/src/stm32f30x_adc.c ****   * @retval None
 352:../Libraries/STM32F30x_StdPeriph_Driver/src/stm32f30x_adc.c ****   */
 353:../Libraries/STM32F30x_StdPeriph_Driver/src/stm32f30x_adc.c **** void ADC_CommonStructInit(ADC_CommonInitTypeDef* ADC_CommonInitStruct)
 354:../Libraries/STM32F30x_StdPeriph_Driver/src/stm32f30x_adc.c **** {
 486              		.loc 1 354 0
 487              		.cfi_startproc
 488              		@ args = 0, pretend = 0, frame = 8
 489              		@ frame_needed = 0, uses_anonymous_args = 0
 490              		@ link register save eliminated.
 491 0290 82B0     		sub	sp, sp, #8
 492              	.LCFI7:
 493              		.cfi_def_cfa_offset 8
 494 0292 0190     		str	r0, [sp, #4]
 355:../Libraries/STM32F30x_StdPeriph_Driver/src/stm32f30x_adc.c ****   /* Initialize the ADC_Mode member */
 356:../Libraries/STM32F30x_StdPeriph_Driver/src/stm32f30x_adc.c ****   ADC_CommonInitStruct->ADC_Mode = ADC_Mode_Independent;
 495              		.loc 1 356 0
 496 0294 019B     		ldr	r3, [sp, #4]
 497 0296 4FF00002 		mov	r2, #0
 498 029a 1A60     		str	r2, [r3, #0]
 357:../Libraries/STM32F30x_StdPeriph_Driver/src/stm32f30x_adc.c **** 
 358:../Libraries/STM32F30x_StdPeriph_Driver/src/stm32f30x_adc.c ****   /* initialize the ADC_Clock member */
 359:../Libraries/STM32F30x_StdPeriph_Driver/src/stm32f30x_adc.c ****   ADC_CommonInitStruct->ADC_Clock = ADC_Clock_AsynClkMode;
 499              		.loc 1 359 0
 500 029c 019B     		ldr	r3, [sp, #4]
 501 029e 4FF00002 		mov	r2, #0
 502 02a2 5A60     		str	r2, [r3, #4]
 360:../Libraries/STM32F30x_StdPeriph_Driver/src/stm32f30x_adc.c **** 
 361:../Libraries/STM32F30x_StdPeriph_Driver/src/stm32f30x_adc.c ****   /* Initialize the ADC_DMAAccessMode member */
 362:../Libraries/STM32F30x_StdPeriph_Driver/src/stm32f30x_adc.c ****   ADC_CommonInitStruct->ADC_DMAAccessMode = ADC_DMAAccessMode_Disabled;
 503              		.loc 1 362 0
 504 02a4 019B     		ldr	r3, [sp, #4]
 505 02a6 4FF00002 		mov	r2, #0
 506 02aa 9A60     		str	r2, [r3, #8]
 363:../Libraries/STM32F30x_StdPeriph_Driver/src/stm32f30x_adc.c **** 
 364:../Libraries/STM32F30x_StdPeriph_Driver/src/stm32f30x_adc.c ****   /* Initialize the ADC_DMAMode member */
 365:../Libraries/STM32F30x_StdPeriph_Driver/src/stm32f30x_adc.c ****   ADC_CommonInitStruct->ADC_DMAMode = ADC_DMAMode_OneShot;
 507              		.loc 1 365 0
 508 02ac 019B     		ldr	r3, [sp, #4]
 509 02ae 4FF00002 		mov	r2, #0
 510 02b2 DA60     		str	r2, [r3, #12]
 366:../Libraries/STM32F30x_StdPeriph_Driver/src/stm32f30x_adc.c **** 
 367:../Libraries/STM32F30x_StdPeriph_Driver/src/stm32f30x_adc.c ****   /* Initialize the ADC_TwoSamplingDelay member */
 368:../Libraries/STM32F30x_StdPeriph_Driver/src/stm32f30x_adc.c ****   ADC_CommonInitStruct->ADC_TwoSamplingDelay = 0;
 511              		.loc 1 368 0
 512 02b4 019B     		ldr	r3, [sp, #4]
 513 02b6 4FF00002 		mov	r2, #0
 514 02ba 1A74     		strb	r2, [r3, #16]
 369:../Libraries/STM32F30x_StdPeriph_Driver/src/stm32f30x_adc.c **** 
 370:../Libraries/STM32F30x_StdPeriph_Driver/src/stm32f30x_adc.c **** }
 515              		.loc 1 370 0
 516 02bc 02B0     		add	sp, sp, #8
 517 02be 7047     		bx	lr
 518              		.cfi_endproc
 519              	.LFE117:
 521              		.align	2
 522              		.global	ADC_Cmd
 523              		.thumb
 524              		.thumb_func
 526              	ADC_Cmd:
 527              	.LFB118:
 371:../Libraries/STM32F30x_StdPeriph_Driver/src/stm32f30x_adc.c **** 
 372:../Libraries/STM32F30x_StdPeriph_Driver/src/stm32f30x_adc.c **** /**
 373:../Libraries/STM32F30x_StdPeriph_Driver/src/stm32f30x_adc.c ****   * @brief  Enables or disables the specified ADC peripheral.
 374:../Libraries/STM32F30x_StdPeriph_Driver/src/stm32f30x_adc.c ****   * @param  ADCx: where x can be 1, 2, 3 or 4 to select the ADC peripheral.
 375:../Libraries/STM32F30x_StdPeriph_Driver/src/stm32f30x_adc.c ****   * @param  NewState: new state of the ADCx peripheral.
 376:../Libraries/STM32F30x_StdPeriph_Driver/src/stm32f30x_adc.c ****   *   This parameter can be: ENABLE or DISABLE.
 377:../Libraries/STM32F30x_StdPeriph_Driver/src/stm32f30x_adc.c ****   * @retval None
 378:../Libraries/STM32F30x_StdPeriph_Driver/src/stm32f30x_adc.c ****   */
 379:../Libraries/STM32F30x_StdPeriph_Driver/src/stm32f30x_adc.c **** void ADC_Cmd(ADC_TypeDef* ADCx, FunctionalState NewState)
 380:../Libraries/STM32F30x_StdPeriph_Driver/src/stm32f30x_adc.c **** {
 528              		.loc 1 380 0
 529              		.cfi_startproc
 530              		@ args = 0, pretend = 0, frame = 8
 531              		@ frame_needed = 0, uses_anonymous_args = 0
 532              		@ link register save eliminated.
 533 02c0 82B0     		sub	sp, sp, #8
 534              	.LCFI8:
 535              		.cfi_def_cfa_offset 8
 536 02c2 0190     		str	r0, [sp, #4]
 537 02c4 0B46     		mov	r3, r1
 538 02c6 8DF80330 		strb	r3, [sp, #3]
 381:../Libraries/STM32F30x_StdPeriph_Driver/src/stm32f30x_adc.c ****   /* Check the parameters */
 382:../Libraries/STM32F30x_StdPeriph_Driver/src/stm32f30x_adc.c ****   assert_param(IS_ADC_ALL_PERIPH(ADCx));
 383:../Libraries/STM32F30x_StdPeriph_Driver/src/stm32f30x_adc.c ****   assert_param(IS_FUNCTIONAL_STATE(NewState));
 384:../Libraries/STM32F30x_StdPeriph_Driver/src/stm32f30x_adc.c **** 
 385:../Libraries/STM32F30x_StdPeriph_Driver/src/stm32f30x_adc.c ****   if (NewState != DISABLE)
 539              		.loc 1 385 0
 540 02ca 9DF80330 		ldrb	r3, [sp, #3]	@ zero_extendqisi2
 541 02ce 002B     		cmp	r3, #0
 542 02d0 06D0     		beq	.L19
 386:../Libraries/STM32F30x_StdPeriph_Driver/src/stm32f30x_adc.c ****   {
 387:../Libraries/STM32F30x_StdPeriph_Driver/src/stm32f30x_adc.c ****     /* Set the ADEN bit */
 388:../Libraries/STM32F30x_StdPeriph_Driver/src/stm32f30x_adc.c ****     ADCx->CR |= ADC_CR_ADEN;
 543              		.loc 1 388 0
 544 02d2 019B     		ldr	r3, [sp, #4]
 545 02d4 9B68     		ldr	r3, [r3, #8]
 546 02d6 43F00102 		orr	r2, r3, #1
 547 02da 019B     		ldr	r3, [sp, #4]
 548 02dc 9A60     		str	r2, [r3, #8]
 549 02de 05E0     		b	.L18
 550              	.L19:
 389:../Libraries/STM32F30x_StdPeriph_Driver/src/stm32f30x_adc.c ****   }
 390:../Libraries/STM32F30x_StdPeriph_Driver/src/stm32f30x_adc.c ****   else
 391:../Libraries/STM32F30x_StdPeriph_Driver/src/stm32f30x_adc.c ****   {
 392:../Libraries/STM32F30x_StdPeriph_Driver/src/stm32f30x_adc.c ****     /* Disable the selected ADC peripheral: Set the ADDIS bit */
 393:../Libraries/STM32F30x_StdPeriph_Driver/src/stm32f30x_adc.c ****     ADCx->CR |= ADC_CR_ADDIS;
 551              		.loc 1 393 0
 552 02e0 019B     		ldr	r3, [sp, #4]
 553 02e2 9B68     		ldr	r3, [r3, #8]
 554 02e4 43F00202 		orr	r2, r3, #2
 555 02e8 019B     		ldr	r3, [sp, #4]
 556 02ea 9A60     		str	r2, [r3, #8]
 557              	.L18:
 394:../Libraries/STM32F30x_StdPeriph_Driver/src/stm32f30x_adc.c ****   }
 395:../Libraries/STM32F30x_StdPeriph_Driver/src/stm32f30x_adc.c **** }
 558              		.loc 1 395 0
 559 02ec 02B0     		add	sp, sp, #8
 560 02ee 7047     		bx	lr
 561              		.cfi_endproc
 562              	.LFE118:
 564              		.align	2
 565              		.global	ADC_StartCalibration
 566              		.thumb
 567              		.thumb_func
 569              	ADC_StartCalibration:
 570              	.LFB119:
 396:../Libraries/STM32F30x_StdPeriph_Driver/src/stm32f30x_adc.c **** 
 397:../Libraries/STM32F30x_StdPeriph_Driver/src/stm32f30x_adc.c **** /**
 398:../Libraries/STM32F30x_StdPeriph_Driver/src/stm32f30x_adc.c ****   * @brief  Starts the selected ADC calibration process.
 399:../Libraries/STM32F30x_StdPeriph_Driver/src/stm32f30x_adc.c ****   * @param  ADCx: where x can be 1, 2, 3 or 4 to select the ADC peripheral.
 400:../Libraries/STM32F30x_StdPeriph_Driver/src/stm32f30x_adc.c ****   * @retval None
 401:../Libraries/STM32F30x_StdPeriph_Driver/src/stm32f30x_adc.c ****   */
 402:../Libraries/STM32F30x_StdPeriph_Driver/src/stm32f30x_adc.c **** void ADC_StartCalibration(ADC_TypeDef* ADCx)
 403:../Libraries/STM32F30x_StdPeriph_Driver/src/stm32f30x_adc.c **** {
 571              		.loc 1 403 0
 572              		.cfi_startproc
 573              		@ args = 0, pretend = 0, frame = 8
 574              		@ frame_needed = 0, uses_anonymous_args = 0
 575              		@ link register save eliminated.
 576 02f0 82B0     		sub	sp, sp, #8
 577              	.LCFI9:
 578              		.cfi_def_cfa_offset 8
 579 02f2 0190     		str	r0, [sp, #4]
 404:../Libraries/STM32F30x_StdPeriph_Driver/src/stm32f30x_adc.c ****   /* Check the parameters */
 405:../Libraries/STM32F30x_StdPeriph_Driver/src/stm32f30x_adc.c ****   assert_param(IS_ADC_ALL_PERIPH(ADCx));
 406:../Libraries/STM32F30x_StdPeriph_Driver/src/stm32f30x_adc.c **** 
 407:../Libraries/STM32F30x_StdPeriph_Driver/src/stm32f30x_adc.c ****   /* Set the ADCAL bit */
 408:../Libraries/STM32F30x_StdPeriph_Driver/src/stm32f30x_adc.c ****   ADCx->CR |= ADC_CR_ADCAL;
 580              		.loc 1 408 0
 581 02f4 019B     		ldr	r3, [sp, #4]
 582 02f6 9B68     		ldr	r3, [r3, #8]
 583 02f8 43F00042 		orr	r2, r3, #-2147483648
 584 02fc 019B     		ldr	r3, [sp, #4]
 585 02fe 9A60     		str	r2, [r3, #8]
 409:../Libraries/STM32F30x_StdPeriph_Driver/src/stm32f30x_adc.c **** }
 586              		.loc 1 409 0
 587 0300 02B0     		add	sp, sp, #8
 588 0302 7047     		bx	lr
 589              		.cfi_endproc
 590              	.LFE119:
 592              		.align	2
 593              		.global	ADC_GetCalibrationValue
 594              		.thumb
 595              		.thumb_func
 597              	ADC_GetCalibrationValue:
 598              	.LFB120:
 410:../Libraries/STM32F30x_StdPeriph_Driver/src/stm32f30x_adc.c **** 
 411:../Libraries/STM32F30x_StdPeriph_Driver/src/stm32f30x_adc.c **** /**
 412:../Libraries/STM32F30x_StdPeriph_Driver/src/stm32f30x_adc.c ****   * @brief  Returns the ADCx calibration value.
 413:../Libraries/STM32F30x_StdPeriph_Driver/src/stm32f30x_adc.c ****   * @param  ADCx: where x can be 1, 2, 3 or 4 to select the ADC peripheral.
 414:../Libraries/STM32F30x_StdPeriph_Driver/src/stm32f30x_adc.c ****   * @retval None
 415:../Libraries/STM32F30x_StdPeriph_Driver/src/stm32f30x_adc.c ****   */
 416:../Libraries/STM32F30x_StdPeriph_Driver/src/stm32f30x_adc.c **** uint32_t ADC_GetCalibrationValue(ADC_TypeDef* ADCx)
 417:../Libraries/STM32F30x_StdPeriph_Driver/src/stm32f30x_adc.c **** {
 599              		.loc 1 417 0
 600              		.cfi_startproc
 601              		@ args = 0, pretend = 0, frame = 8
 602              		@ frame_needed = 0, uses_anonymous_args = 0
 603              		@ link register save eliminated.
 604 0304 82B0     		sub	sp, sp, #8
 605              	.LCFI10:
 606              		.cfi_def_cfa_offset 8
 607 0306 0190     		str	r0, [sp, #4]
 418:../Libraries/STM32F30x_StdPeriph_Driver/src/stm32f30x_adc.c ****   /* Check the parameters */
 419:../Libraries/STM32F30x_StdPeriph_Driver/src/stm32f30x_adc.c ****   assert_param(IS_ADC_ALL_PERIPH(ADCx));
 420:../Libraries/STM32F30x_StdPeriph_Driver/src/stm32f30x_adc.c **** 
 421:../Libraries/STM32F30x_StdPeriph_Driver/src/stm32f30x_adc.c ****   /* Return the selected ADC calibration value */
 422:../Libraries/STM32F30x_StdPeriph_Driver/src/stm32f30x_adc.c ****   return (uint32_t)ADCx->CALFACT;
 608              		.loc 1 422 0
 609 0308 019B     		ldr	r3, [sp, #4]
 610 030a D3F8B430 		ldr	r3, [r3, #180]
 423:../Libraries/STM32F30x_StdPeriph_Driver/src/stm32f30x_adc.c **** }
 611              		.loc 1 423 0
 612 030e 1846     		mov	r0, r3
 613 0310 02B0     		add	sp, sp, #8
 614 0312 7047     		bx	lr
 615              		.cfi_endproc
 616              	.LFE120:
 618              		.align	2
 619              		.global	ADC_SetCalibrationValue
 620              		.thumb
 621              		.thumb_func
 623              	ADC_SetCalibrationValue:
 624              	.LFB121:
 424:../Libraries/STM32F30x_StdPeriph_Driver/src/stm32f30x_adc.c **** 
 425:../Libraries/STM32F30x_StdPeriph_Driver/src/stm32f30x_adc.c **** /**
 426:../Libraries/STM32F30x_StdPeriph_Driver/src/stm32f30x_adc.c ****   * @brief  Sets the ADCx calibration register.
 427:../Libraries/STM32F30x_StdPeriph_Driver/src/stm32f30x_adc.c ****   * @param  ADCx: where x can be 1, 2, 3 or 4 to select the ADC peripheral.
 428:../Libraries/STM32F30x_StdPeriph_Driver/src/stm32f30x_adc.c ****   * @retval None
 429:../Libraries/STM32F30x_StdPeriph_Driver/src/stm32f30x_adc.c ****   */
 430:../Libraries/STM32F30x_StdPeriph_Driver/src/stm32f30x_adc.c **** void ADC_SetCalibrationValue(ADC_TypeDef* ADCx, uint32_t ADC_Calibration)
 431:../Libraries/STM32F30x_StdPeriph_Driver/src/stm32f30x_adc.c **** {
 625              		.loc 1 431 0
 626              		.cfi_startproc
 627              		@ args = 0, pretend = 0, frame = 8
 628              		@ frame_needed = 0, uses_anonymous_args = 0
 629              		@ link register save eliminated.
 630 0314 82B0     		sub	sp, sp, #8
 631              	.LCFI11:
 632              		.cfi_def_cfa_offset 8
 633 0316 0190     		str	r0, [sp, #4]
 634 0318 0091     		str	r1, [sp, #0]
 432:../Libraries/STM32F30x_StdPeriph_Driver/src/stm32f30x_adc.c ****   /* Check the parameters */
 433:../Libraries/STM32F30x_StdPeriph_Driver/src/stm32f30x_adc.c ****   assert_param(IS_ADC_ALL_PERIPH(ADCx));
 434:../Libraries/STM32F30x_StdPeriph_Driver/src/stm32f30x_adc.c **** 
 435:../Libraries/STM32F30x_StdPeriph_Driver/src/stm32f30x_adc.c ****   /* Set the ADC calibration register value */
 436:../Libraries/STM32F30x_StdPeriph_Driver/src/stm32f30x_adc.c ****   ADCx->CALFACT = ADC_Calibration;
 635              		.loc 1 436 0
 636 031a 019B     		ldr	r3, [sp, #4]
 637 031c 009A     		ldr	r2, [sp, #0]
 638 031e C3F8B420 		str	r2, [r3, #180]
 437:../Libraries/STM32F30x_StdPeriph_Driver/src/stm32f30x_adc.c **** }
 639              		.loc 1 437 0
 640 0322 02B0     		add	sp, sp, #8
 641 0324 7047     		bx	lr
 642              		.cfi_endproc
 643              	.LFE121:
 645 0326 00BF     		.align	2
 646              		.global	ADC_SelectCalibrationMode
 647              		.thumb
 648              		.thumb_func
 650              	ADC_SelectCalibrationMode:
 651              	.LFB122:
 438:../Libraries/STM32F30x_StdPeriph_Driver/src/stm32f30x_adc.c **** 
 439:../Libraries/STM32F30x_StdPeriph_Driver/src/stm32f30x_adc.c **** /**
 440:../Libraries/STM32F30x_StdPeriph_Driver/src/stm32f30x_adc.c ****   * @brief  Select the ADC calibration mode.
 441:../Libraries/STM32F30x_StdPeriph_Driver/src/stm32f30x_adc.c ****   * @param  ADCx: where x can be 1, 2, 3 or 4 to select the ADC peripheral.
 442:../Libraries/STM32F30x_StdPeriph_Driver/src/stm32f30x_adc.c ****   * @param  ADC_CalibrationMode: the ADC calibration mode.
 443:../Libraries/STM32F30x_StdPeriph_Driver/src/stm32f30x_adc.c ****   *         This parameter can be one of the following values: 
 444:../Libraries/STM32F30x_StdPeriph_Driver/src/stm32f30x_adc.c ****   *          @arg ADC_CalibrationMode_Single: to select the calibration for single channel
 445:../Libraries/STM32F30x_StdPeriph_Driver/src/stm32f30x_adc.c ****   *          @arg ADC_CalibrationMode_Differential: to select the calibration for differential chan
 446:../Libraries/STM32F30x_StdPeriph_Driver/src/stm32f30x_adc.c ****   * @retval None
 447:../Libraries/STM32F30x_StdPeriph_Driver/src/stm32f30x_adc.c ****   */
 448:../Libraries/STM32F30x_StdPeriph_Driver/src/stm32f30x_adc.c **** void ADC_SelectCalibrationMode(ADC_TypeDef* ADCx, uint32_t ADC_CalibrationMode)
 449:../Libraries/STM32F30x_StdPeriph_Driver/src/stm32f30x_adc.c **** {
 652              		.loc 1 449 0
 653              		.cfi_startproc
 654              		@ args = 0, pretend = 0, frame = 8
 655              		@ frame_needed = 0, uses_anonymous_args = 0
 656              		@ link register save eliminated.
 657 0328 82B0     		sub	sp, sp, #8
 658              	.LCFI12:
 659              		.cfi_def_cfa_offset 8
 660 032a 0190     		str	r0, [sp, #4]
 661 032c 0091     		str	r1, [sp, #0]
 450:../Libraries/STM32F30x_StdPeriph_Driver/src/stm32f30x_adc.c ****   /* Check the parameters */
 451:../Libraries/STM32F30x_StdPeriph_Driver/src/stm32f30x_adc.c ****   assert_param(IS_ADC_ALL_PERIPH(ADCx));
 452:../Libraries/STM32F30x_StdPeriph_Driver/src/stm32f30x_adc.c ****   assert_param(IS_ADC_CALIBRATION_MODE(ADC_CalibrationMode));
 453:../Libraries/STM32F30x_StdPeriph_Driver/src/stm32f30x_adc.c ****   /* Set or Reset the ADCALDIF bit */
 454:../Libraries/STM32F30x_StdPeriph_Driver/src/stm32f30x_adc.c ****   ADCx->CR &= (~ADC_CR_ADCALDIF);
 662              		.loc 1 454 0
 663 032e 019B     		ldr	r3, [sp, #4]
 664 0330 9B68     		ldr	r3, [r3, #8]
 665 0332 23F08042 		bic	r2, r3, #1073741824
 666 0336 019B     		ldr	r3, [sp, #4]
 667 0338 9A60     		str	r2, [r3, #8]
 455:../Libraries/STM32F30x_StdPeriph_Driver/src/stm32f30x_adc.c ****   ADCx->CR |= ADC_CalibrationMode;
 668              		.loc 1 455 0
 669 033a 019B     		ldr	r3, [sp, #4]
 670 033c 9A68     		ldr	r2, [r3, #8]
 671 033e 009B     		ldr	r3, [sp, #0]
 672 0340 1A43     		orrs	r2, r2, r3
 673 0342 019B     		ldr	r3, [sp, #4]
 674 0344 9A60     		str	r2, [r3, #8]
 456:../Libraries/STM32F30x_StdPeriph_Driver/src/stm32f30x_adc.c **** 
 457:../Libraries/STM32F30x_StdPeriph_Driver/src/stm32f30x_adc.c **** }
 675              		.loc 1 457 0
 676 0346 02B0     		add	sp, sp, #8
 677 0348 7047     		bx	lr
 678              		.cfi_endproc
 679              	.LFE122:
 681 034a 00BF     		.align	2
 682              		.global	ADC_GetCalibrationStatus
 683              		.thumb
 684              		.thumb_func
 686              	ADC_GetCalibrationStatus:
 687              	.LFB123:
 458:../Libraries/STM32F30x_StdPeriph_Driver/src/stm32f30x_adc.c **** 
 459:../Libraries/STM32F30x_StdPeriph_Driver/src/stm32f30x_adc.c **** /**
 460:../Libraries/STM32F30x_StdPeriph_Driver/src/stm32f30x_adc.c ****   * @brief  Gets the selected ADC calibration status.
 461:../Libraries/STM32F30x_StdPeriph_Driver/src/stm32f30x_adc.c ****   * @param  ADCx: where x can be 1, 2, 3 or 4 to select the ADC peripheral.
 462:../Libraries/STM32F30x_StdPeriph_Driver/src/stm32f30x_adc.c ****   * @retval The new state of ADC calibration (SET or RESET).
 463:../Libraries/STM32F30x_StdPeriph_Driver/src/stm32f30x_adc.c ****   */
 464:../Libraries/STM32F30x_StdPeriph_Driver/src/stm32f30x_adc.c **** FlagStatus ADC_GetCalibrationStatus(ADC_TypeDef* ADCx)
 465:../Libraries/STM32F30x_StdPeriph_Driver/src/stm32f30x_adc.c **** {
 688              		.loc 1 465 0
 689              		.cfi_startproc
 690              		@ args = 0, pretend = 0, frame = 16
 691              		@ frame_needed = 0, uses_anonymous_args = 0
 692              		@ link register save eliminated.
 693 034c 84B0     		sub	sp, sp, #16
 694              	.LCFI13:
 695              		.cfi_def_cfa_offset 16
 696 034e 0190     		str	r0, [sp, #4]
 466:../Libraries/STM32F30x_StdPeriph_Driver/src/stm32f30x_adc.c ****   FlagStatus bitstatus = RESET;
 697              		.loc 1 466 0
 698 0350 4FF00003 		mov	r3, #0
 699 0354 8DF80F30 		strb	r3, [sp, #15]
 467:../Libraries/STM32F30x_StdPeriph_Driver/src/stm32f30x_adc.c ****   /* Check the parameters */
 468:../Libraries/STM32F30x_StdPeriph_Driver/src/stm32f30x_adc.c ****   assert_param(IS_ADC_ALL_PERIPH(ADCx));
 469:../Libraries/STM32F30x_StdPeriph_Driver/src/stm32f30x_adc.c ****   /* Check the status of CAL bit */
 470:../Libraries/STM32F30x_StdPeriph_Driver/src/stm32f30x_adc.c ****   if ((ADCx->CR & ADC_CR_ADCAL) != (uint32_t)RESET)
 700              		.loc 1 470 0
 701 0358 019B     		ldr	r3, [sp, #4]
 702 035a 9B68     		ldr	r3, [r3, #8]
 703 035c 002B     		cmp	r3, #0
 704 035e 04DA     		bge	.L26
 471:../Libraries/STM32F30x_StdPeriph_Driver/src/stm32f30x_adc.c ****   {
 472:../Libraries/STM32F30x_StdPeriph_Driver/src/stm32f30x_adc.c ****     /* CAL bit is set: calibration on going */
 473:../Libraries/STM32F30x_StdPeriph_Driver/src/stm32f30x_adc.c ****     bitstatus = SET;
 705              		.loc 1 473 0
 706 0360 4FF00103 		mov	r3, #1
 707 0364 8DF80F30 		strb	r3, [sp, #15]
 708 0368 03E0     		b	.L27
 709              	.L26:
 474:../Libraries/STM32F30x_StdPeriph_Driver/src/stm32f30x_adc.c ****   }
 475:../Libraries/STM32F30x_StdPeriph_Driver/src/stm32f30x_adc.c ****   else
 476:../Libraries/STM32F30x_StdPeriph_Driver/src/stm32f30x_adc.c ****   {
 477:../Libraries/STM32F30x_StdPeriph_Driver/src/stm32f30x_adc.c ****     /* CAL bit is reset: end of calibration */
 478:../Libraries/STM32F30x_StdPeriph_Driver/src/stm32f30x_adc.c ****     bitstatus = RESET;
 710              		.loc 1 478 0
 711 036a 4FF00003 		mov	r3, #0
 712 036e 8DF80F30 		strb	r3, [sp, #15]
 713              	.L27:
 479:../Libraries/STM32F30x_StdPeriph_Driver/src/stm32f30x_adc.c ****   }
 480:../Libraries/STM32F30x_StdPeriph_Driver/src/stm32f30x_adc.c ****   /* Return the CAL bit status */
 481:../Libraries/STM32F30x_StdPeriph_Driver/src/stm32f30x_adc.c ****   return  bitstatus;
 714              		.loc 1 481 0
 715 0372 9DF80F30 		ldrb	r3, [sp, #15]	@ zero_extendqisi2
 482:../Libraries/STM32F30x_StdPeriph_Driver/src/stm32f30x_adc.c **** }
 716              		.loc 1 482 0
 717 0376 1846     		mov	r0, r3
 718 0378 04B0     		add	sp, sp, #16
 719 037a 7047     		bx	lr
 720              		.cfi_endproc
 721              	.LFE123:
 723              		.align	2
 724              		.global	ADC_DisableCmd
 725              		.thumb
 726              		.thumb_func
 728              	ADC_DisableCmd:
 729              	.LFB124:
 483:../Libraries/STM32F30x_StdPeriph_Driver/src/stm32f30x_adc.c **** 
 484:../Libraries/STM32F30x_StdPeriph_Driver/src/stm32f30x_adc.c **** /**
 485:../Libraries/STM32F30x_StdPeriph_Driver/src/stm32f30x_adc.c ****   * @brief  ADC Disable Command.
 486:../Libraries/STM32F30x_StdPeriph_Driver/src/stm32f30x_adc.c ****   * @param  ADCx: where x can be 1, 2, 3 or 4 to select the ADC peripheral.
 487:../Libraries/STM32F30x_StdPeriph_Driver/src/stm32f30x_adc.c ****   * @retval None
 488:../Libraries/STM32F30x_StdPeriph_Driver/src/stm32f30x_adc.c ****   */
 489:../Libraries/STM32F30x_StdPeriph_Driver/src/stm32f30x_adc.c **** void ADC_DisableCmd(ADC_TypeDef* ADCx)
 490:../Libraries/STM32F30x_StdPeriph_Driver/src/stm32f30x_adc.c **** {
 730              		.loc 1 490 0
 731              		.cfi_startproc
 732              		@ args = 0, pretend = 0, frame = 8
 733              		@ frame_needed = 0, uses_anonymous_args = 0
 734              		@ link register save eliminated.
 735 037c 82B0     		sub	sp, sp, #8
 736              	.LCFI14:
 737              		.cfi_def_cfa_offset 8
 738 037e 0190     		str	r0, [sp, #4]
 491:../Libraries/STM32F30x_StdPeriph_Driver/src/stm32f30x_adc.c ****   /* Check the parameters */
 492:../Libraries/STM32F30x_StdPeriph_Driver/src/stm32f30x_adc.c ****   assert_param(IS_ADC_ALL_PERIPH(ADCx));
 493:../Libraries/STM32F30x_StdPeriph_Driver/src/stm32f30x_adc.c **** 
 494:../Libraries/STM32F30x_StdPeriph_Driver/src/stm32f30x_adc.c ****   /* Set the ADDIS bit */
 495:../Libraries/STM32F30x_StdPeriph_Driver/src/stm32f30x_adc.c ****   ADCx->CR |= ADC_CR_ADDIS;
 739              		.loc 1 495 0
 740 0380 019B     		ldr	r3, [sp, #4]
 741 0382 9B68     		ldr	r3, [r3, #8]
 742 0384 43F00202 		orr	r2, r3, #2
 743 0388 019B     		ldr	r3, [sp, #4]
 744 038a 9A60     		str	r2, [r3, #8]
 496:../Libraries/STM32F30x_StdPeriph_Driver/src/stm32f30x_adc.c **** }
 745              		.loc 1 496 0
 746 038c 02B0     		add	sp, sp, #8
 747 038e 7047     		bx	lr
 748              		.cfi_endproc
 749              	.LFE124:
 751              		.align	2
 752              		.global	ADC_GetDisableCmdStatus
 753              		.thumb
 754              		.thumb_func
 756              	ADC_GetDisableCmdStatus:
 757              	.LFB125:
 497:../Libraries/STM32F30x_StdPeriph_Driver/src/stm32f30x_adc.c **** 
 498:../Libraries/STM32F30x_StdPeriph_Driver/src/stm32f30x_adc.c **** 
 499:../Libraries/STM32F30x_StdPeriph_Driver/src/stm32f30x_adc.c **** /**
 500:../Libraries/STM32F30x_StdPeriph_Driver/src/stm32f30x_adc.c ****   * @brief  Gets the selected ADC disable command Status.
 501:../Libraries/STM32F30x_StdPeriph_Driver/src/stm32f30x_adc.c ****   * @param  ADCx: where x can be 1, 2, 3 or 4 to select the ADC peripheral.
 502:../Libraries/STM32F30x_StdPeriph_Driver/src/stm32f30x_adc.c ****   * @retval The new state of ADC ADC disable command (SET or RESET).
 503:../Libraries/STM32F30x_StdPeriph_Driver/src/stm32f30x_adc.c ****   */
 504:../Libraries/STM32F30x_StdPeriph_Driver/src/stm32f30x_adc.c **** FlagStatus ADC_GetDisableCmdStatus(ADC_TypeDef* ADCx)
 505:../Libraries/STM32F30x_StdPeriph_Driver/src/stm32f30x_adc.c **** {
 758              		.loc 1 505 0
 759              		.cfi_startproc
 760              		@ args = 0, pretend = 0, frame = 16
 761              		@ frame_needed = 0, uses_anonymous_args = 0
 762              		@ link register save eliminated.
 763 0390 84B0     		sub	sp, sp, #16
 764              	.LCFI15:
 765              		.cfi_def_cfa_offset 16
 766 0392 0190     		str	r0, [sp, #4]
 506:../Libraries/STM32F30x_StdPeriph_Driver/src/stm32f30x_adc.c ****   FlagStatus bitstatus = RESET;
 767              		.loc 1 506 0
 768 0394 4FF00003 		mov	r3, #0
 769 0398 8DF80F30 		strb	r3, [sp, #15]
 507:../Libraries/STM32F30x_StdPeriph_Driver/src/stm32f30x_adc.c ****   /* Check the parameters */
 508:../Libraries/STM32F30x_StdPeriph_Driver/src/stm32f30x_adc.c ****   assert_param(IS_ADC_ALL_PERIPH(ADCx));
 509:../Libraries/STM32F30x_StdPeriph_Driver/src/stm32f30x_adc.c **** 
 510:../Libraries/STM32F30x_StdPeriph_Driver/src/stm32f30x_adc.c ****   /* Check the status of ADDIS bit */
 511:../Libraries/STM32F30x_StdPeriph_Driver/src/stm32f30x_adc.c ****   if ((ADCx->CR & ADC_CR_ADDIS) != (uint32_t)RESET)
 770              		.loc 1 511 0
 771 039c 019B     		ldr	r3, [sp, #4]
 772 039e 9B68     		ldr	r3, [r3, #8]
 773 03a0 03F00203 		and	r3, r3, #2
 774 03a4 002B     		cmp	r3, #0
 775 03a6 04D0     		beq	.L30
 512:../Libraries/STM32F30x_StdPeriph_Driver/src/stm32f30x_adc.c ****   {
 513:../Libraries/STM32F30x_StdPeriph_Driver/src/stm32f30x_adc.c ****     /* ADDIS bit is set */
 514:../Libraries/STM32F30x_StdPeriph_Driver/src/stm32f30x_adc.c ****     bitstatus = SET;
 776              		.loc 1 514 0
 777 03a8 4FF00103 		mov	r3, #1
 778 03ac 8DF80F30 		strb	r3, [sp, #15]
 779 03b0 03E0     		b	.L31
 780              	.L30:
 515:../Libraries/STM32F30x_StdPeriph_Driver/src/stm32f30x_adc.c ****   }
 516:../Libraries/STM32F30x_StdPeriph_Driver/src/stm32f30x_adc.c ****   else
 517:../Libraries/STM32F30x_StdPeriph_Driver/src/stm32f30x_adc.c ****   {
 518:../Libraries/STM32F30x_StdPeriph_Driver/src/stm32f30x_adc.c ****     /* ADDIS bit is reset */
 519:../Libraries/STM32F30x_StdPeriph_Driver/src/stm32f30x_adc.c ****     bitstatus = RESET;
 781              		.loc 1 519 0
 782 03b2 4FF00003 		mov	r3, #0
 783 03b6 8DF80F30 		strb	r3, [sp, #15]
 784              	.L31:
 520:../Libraries/STM32F30x_StdPeriph_Driver/src/stm32f30x_adc.c ****   }
 521:../Libraries/STM32F30x_StdPeriph_Driver/src/stm32f30x_adc.c ****   /* Return the ADDIS bit status */
 522:../Libraries/STM32F30x_StdPeriph_Driver/src/stm32f30x_adc.c ****   return  bitstatus;
 785              		.loc 1 522 0
 786 03ba 9DF80F30 		ldrb	r3, [sp, #15]	@ zero_extendqisi2
 523:../Libraries/STM32F30x_StdPeriph_Driver/src/stm32f30x_adc.c **** }
 787              		.loc 1 523 0
 788 03be 1846     		mov	r0, r3
 789 03c0 04B0     		add	sp, sp, #16
 790 03c2 7047     		bx	lr
 791              		.cfi_endproc
 792              	.LFE125:
 794              		.align	2
 795              		.global	ADC_VoltageRegulatorCmd
 796              		.thumb
 797              		.thumb_func
 799              	ADC_VoltageRegulatorCmd:
 800              	.LFB126:
 524:../Libraries/STM32F30x_StdPeriph_Driver/src/stm32f30x_adc.c **** 
 525:../Libraries/STM32F30x_StdPeriph_Driver/src/stm32f30x_adc.c **** /**
 526:../Libraries/STM32F30x_StdPeriph_Driver/src/stm32f30x_adc.c ****   * @brief  Enables or disables the specified ADC Voltage Regulator.
 527:../Libraries/STM32F30x_StdPeriph_Driver/src/stm32f30x_adc.c ****   * @param  ADCx: where x can be 1, 2, 3 or 4 to select the ADC peripheral.
 528:../Libraries/STM32F30x_StdPeriph_Driver/src/stm32f30x_adc.c ****   * @param  NewState: new state of the ADCx Voltage Regulator.
 529:../Libraries/STM32F30x_StdPeriph_Driver/src/stm32f30x_adc.c ****   *         This parameter can be: ENABLE or DISABLE.
 530:../Libraries/STM32F30x_StdPeriph_Driver/src/stm32f30x_adc.c ****   * @retval None
 531:../Libraries/STM32F30x_StdPeriph_Driver/src/stm32f30x_adc.c ****   */
 532:../Libraries/STM32F30x_StdPeriph_Driver/src/stm32f30x_adc.c **** void ADC_VoltageRegulatorCmd(ADC_TypeDef* ADCx, FunctionalState NewState)
 533:../Libraries/STM32F30x_StdPeriph_Driver/src/stm32f30x_adc.c **** {
 801              		.loc 1 533 0
 802              		.cfi_startproc
 803              		@ args = 0, pretend = 0, frame = 8
 804              		@ frame_needed = 0, uses_anonymous_args = 0
 805              		@ link register save eliminated.
 806 03c4 82B0     		sub	sp, sp, #8
 807              	.LCFI16:
 808              		.cfi_def_cfa_offset 8
 809 03c6 0190     		str	r0, [sp, #4]
 810 03c8 0B46     		mov	r3, r1
 811 03ca 8DF80330 		strb	r3, [sp, #3]
 534:../Libraries/STM32F30x_StdPeriph_Driver/src/stm32f30x_adc.c ****   /* Check the parameters */
 535:../Libraries/STM32F30x_StdPeriph_Driver/src/stm32f30x_adc.c ****   assert_param(IS_ADC_ALL_PERIPH(ADCx));
 536:../Libraries/STM32F30x_StdPeriph_Driver/src/stm32f30x_adc.c ****   assert_param(IS_FUNCTIONAL_STATE(NewState));
 537:../Libraries/STM32F30x_StdPeriph_Driver/src/stm32f30x_adc.c **** 
 538:../Libraries/STM32F30x_StdPeriph_Driver/src/stm32f30x_adc.c ****   /* set the intermediate state before moving the ADC voltage regulator 
 539:../Libraries/STM32F30x_StdPeriph_Driver/src/stm32f30x_adc.c ****   from enable state to disable state or from disable state to enable state */
 540:../Libraries/STM32F30x_StdPeriph_Driver/src/stm32f30x_adc.c ****   ADCx->CR &= ~(ADC_CR_ADVREGEN);
 812              		.loc 1 540 0
 813 03ce 019B     		ldr	r3, [sp, #4]
 814 03d0 9B68     		ldr	r3, [r3, #8]
 815 03d2 23F04052 		bic	r2, r3, #805306368
 816 03d6 019B     		ldr	r3, [sp, #4]
 817 03d8 9A60     		str	r2, [r3, #8]
 541:../Libraries/STM32F30x_StdPeriph_Driver/src/stm32f30x_adc.c ****   
 542:../Libraries/STM32F30x_StdPeriph_Driver/src/stm32f30x_adc.c ****   if (NewState != DISABLE)
 818              		.loc 1 542 0
 819 03da 9DF80330 		ldrb	r3, [sp, #3]	@ zero_extendqisi2
 820 03de 002B     		cmp	r3, #0
 821 03e0 06D0     		beq	.L33
 543:../Libraries/STM32F30x_StdPeriph_Driver/src/stm32f30x_adc.c ****   {
 544:../Libraries/STM32F30x_StdPeriph_Driver/src/stm32f30x_adc.c ****     /* Set the ADVREGEN bit 0 */
 545:../Libraries/STM32F30x_StdPeriph_Driver/src/stm32f30x_adc.c ****     ADCx->CR |= ADC_CR_ADVREGEN_0;
 822              		.loc 1 545 0
 823 03e2 019B     		ldr	r3, [sp, #4]
 824 03e4 9B68     		ldr	r3, [r3, #8]
 825 03e6 43F08052 		orr	r2, r3, #268435456
 826 03ea 019B     		ldr	r3, [sp, #4]
 827 03ec 9A60     		str	r2, [r3, #8]
 828 03ee 05E0     		b	.L32
 829              	.L33:
 546:../Libraries/STM32F30x_StdPeriph_Driver/src/stm32f30x_adc.c ****   }
 547:../Libraries/STM32F30x_StdPeriph_Driver/src/stm32f30x_adc.c ****   else
 548:../Libraries/STM32F30x_StdPeriph_Driver/src/stm32f30x_adc.c ****   {
 549:../Libraries/STM32F30x_StdPeriph_Driver/src/stm32f30x_adc.c ****     /* Set the ADVREGEN bit 1 */
 550:../Libraries/STM32F30x_StdPeriph_Driver/src/stm32f30x_adc.c ****     ADCx->CR |=ADC_CR_ADVREGEN_1;
 830              		.loc 1 550 0
 831 03f0 019B     		ldr	r3, [sp, #4]
 832 03f2 9B68     		ldr	r3, [r3, #8]
 833 03f4 43F00052 		orr	r2, r3, #536870912
 834 03f8 019B     		ldr	r3, [sp, #4]
 835 03fa 9A60     		str	r2, [r3, #8]
 836              	.L32:
 551:../Libraries/STM32F30x_StdPeriph_Driver/src/stm32f30x_adc.c ****   }
 552:../Libraries/STM32F30x_StdPeriph_Driver/src/stm32f30x_adc.c **** }
 837              		.loc 1 552 0
 838 03fc 02B0     		add	sp, sp, #8
 839 03fe 7047     		bx	lr
 840              		.cfi_endproc
 841              	.LFE126:
 843              		.align	2
 844              		.global	ADC_SelectDifferentialMode
 845              		.thumb
 846              		.thumb_func
 848              	ADC_SelectDifferentialMode:
 849              	.LFB127:
 553:../Libraries/STM32F30x_StdPeriph_Driver/src/stm32f30x_adc.c **** 
 554:../Libraries/STM32F30x_StdPeriph_Driver/src/stm32f30x_adc.c **** /**
 555:../Libraries/STM32F30x_StdPeriph_Driver/src/stm32f30x_adc.c ****   * @brief  Selectes the differential mode for a specific channel
 556:../Libraries/STM32F30x_StdPeriph_Driver/src/stm32f30x_adc.c ****   * @param  ADCx: where x can be 1, 2, 3 or 4 to select the ADC peripheral.
 557:../Libraries/STM32F30x_StdPeriph_Driver/src/stm32f30x_adc.c ****   * @param  ADC_Channel: the ADC channel to configure for the analog watchdog. 
 558:../Libraries/STM32F30x_StdPeriph_Driver/src/stm32f30x_adc.c ****   *   This parameter can be one of the following values:
 559:../Libraries/STM32F30x_StdPeriph_Driver/src/stm32f30x_adc.c ****   *     @arg ADC_Channel_1: ADC Channel1 selected
 560:../Libraries/STM32F30x_StdPeriph_Driver/src/stm32f30x_adc.c ****   *     @arg ADC_Channel_2: ADC Channel2 selected
 561:../Libraries/STM32F30x_StdPeriph_Driver/src/stm32f30x_adc.c ****   *     @arg ADC_Channel_3: ADC Channel3 selected
 562:../Libraries/STM32F30x_StdPeriph_Driver/src/stm32f30x_adc.c ****   *     @arg ADC_Channel_4: ADC Channel4 selected
 563:../Libraries/STM32F30x_StdPeriph_Driver/src/stm32f30x_adc.c ****   *     @arg ADC_Channel_5: ADC Channel5 selected
 564:../Libraries/STM32F30x_StdPeriph_Driver/src/stm32f30x_adc.c ****   *     @arg ADC_Channel_6: ADC Channel6 selected
 565:../Libraries/STM32F30x_StdPeriph_Driver/src/stm32f30x_adc.c ****   *     @arg ADC_Channel_7: ADC Channel7 selected
 566:../Libraries/STM32F30x_StdPeriph_Driver/src/stm32f30x_adc.c ****   *     @arg ADC_Channel_8: ADC Channel8 selected
 567:../Libraries/STM32F30x_StdPeriph_Driver/src/stm32f30x_adc.c ****   *     @arg ADC_Channel_9: ADC Channel9 selected
 568:../Libraries/STM32F30x_StdPeriph_Driver/src/stm32f30x_adc.c ****   *     @arg ADC_Channel_10: ADC Channel10 selected
 569:../Libraries/STM32F30x_StdPeriph_Driver/src/stm32f30x_adc.c ****   *     @arg ADC_Channel_11: ADC Channel11 selected
 570:../Libraries/STM32F30x_StdPeriph_Driver/src/stm32f30x_adc.c ****   *     @arg ADC_Channel_12: ADC Channel12 selected
 571:../Libraries/STM32F30x_StdPeriph_Driver/src/stm32f30x_adc.c ****   *     @arg ADC_Channel_13: ADC Channel13 selected
 572:../Libraries/STM32F30x_StdPeriph_Driver/src/stm32f30x_adc.c ****   *     @arg ADC_Channel_14: ADC Channel14 selected
 573:../Libraries/STM32F30x_StdPeriph_Driver/src/stm32f30x_adc.c ****   * @note : Channel 15, 16 and 17 are fixed to single-ended inputs mode.
 574:../Libraries/STM32F30x_StdPeriph_Driver/src/stm32f30x_adc.c ****   * @retval None
 575:../Libraries/STM32F30x_StdPeriph_Driver/src/stm32f30x_adc.c ****   */
 576:../Libraries/STM32F30x_StdPeriph_Driver/src/stm32f30x_adc.c **** void ADC_SelectDifferentialMode(ADC_TypeDef* ADCx, uint8_t ADC_Channel, FunctionalState NewState)
 577:../Libraries/STM32F30x_StdPeriph_Driver/src/stm32f30x_adc.c **** {
 850              		.loc 1 577 0
 851              		.cfi_startproc
 852              		@ args = 0, pretend = 0, frame = 8
 853              		@ frame_needed = 0, uses_anonymous_args = 0
 854              		@ link register save eliminated.
 855 0400 82B0     		sub	sp, sp, #8
 856              	.LCFI17:
 857              		.cfi_def_cfa_offset 8
 858 0402 0190     		str	r0, [sp, #4]
 859 0404 1346     		mov	r3, r2
 860 0406 0A46     		mov	r2, r1
 861 0408 8DF80320 		strb	r2, [sp, #3]
 862 040c 8DF80230 		strb	r3, [sp, #2]
 578:../Libraries/STM32F30x_StdPeriph_Driver/src/stm32f30x_adc.c ****   /* Check the parameters */
 579:../Libraries/STM32F30x_StdPeriph_Driver/src/stm32f30x_adc.c ****   assert_param(IS_ADC_ALL_PERIPH(ADCx)); 
 580:../Libraries/STM32F30x_StdPeriph_Driver/src/stm32f30x_adc.c ****   assert_param(IS_ADC_DIFFCHANNEL(ADC_Channel)); 
 581:../Libraries/STM32F30x_StdPeriph_Driver/src/stm32f30x_adc.c ****   assert_param(IS_FUNCTIONAL_STATE(NewState));
 582:../Libraries/STM32F30x_StdPeriph_Driver/src/stm32f30x_adc.c **** 
 583:../Libraries/STM32F30x_StdPeriph_Driver/src/stm32f30x_adc.c ****   if (NewState != DISABLE)
 863              		.loc 1 583 0
 864 0410 9DF80230 		ldrb	r3, [sp, #2]	@ zero_extendqisi2
 865 0414 002B     		cmp	r3, #0
 866 0416 0DD0     		beq	.L36
 584:../Libraries/STM32F30x_StdPeriph_Driver/src/stm32f30x_adc.c ****   {
 585:../Libraries/STM32F30x_StdPeriph_Driver/src/stm32f30x_adc.c ****     /* Set the DIFSEL bit */
 586:../Libraries/STM32F30x_StdPeriph_Driver/src/stm32f30x_adc.c ****    ADCx->DIFSEL |= (uint32_t)(1 << ADC_Channel );
 867              		.loc 1 586 0
 868 0418 019B     		ldr	r3, [sp, #4]
 869 041a D3F8B020 		ldr	r2, [r3, #176]
 870 041e 9DF80330 		ldrb	r3, [sp, #3]	@ zero_extendqisi2
 871 0422 4FF00101 		mov	r1, #1
 872 0426 01FA03F3 		lsl	r3, r1, r3
 873 042a 1A43     		orrs	r2, r2, r3
 874 042c 019B     		ldr	r3, [sp, #4]
 875 042e C3F8B020 		str	r2, [r3, #176]
 876 0432 0EE0     		b	.L35
 877              	.L36:
 587:../Libraries/STM32F30x_StdPeriph_Driver/src/stm32f30x_adc.c ****   }
 588:../Libraries/STM32F30x_StdPeriph_Driver/src/stm32f30x_adc.c ****   else
 589:../Libraries/STM32F30x_StdPeriph_Driver/src/stm32f30x_adc.c ****   {
 590:../Libraries/STM32F30x_StdPeriph_Driver/src/stm32f30x_adc.c ****     /* Reset the DIFSEL bit */
 591:../Libraries/STM32F30x_StdPeriph_Driver/src/stm32f30x_adc.c ****    ADCx->DIFSEL &= ~(uint32_t)(1 << ADC_Channel);
 878              		.loc 1 591 0
 879 0434 019B     		ldr	r3, [sp, #4]
 880 0436 D3F8B020 		ldr	r2, [r3, #176]
 881 043a 9DF80330 		ldrb	r3, [sp, #3]	@ zero_extendqisi2
 882 043e 4FF00101 		mov	r1, #1
 883 0442 01FA03F3 		lsl	r3, r1, r3
 884 0446 6FEA0303 		mvn	r3, r3
 885 044a 1A40     		ands	r2, r2, r3
 886 044c 019B     		ldr	r3, [sp, #4]
 887 044e C3F8B020 		str	r2, [r3, #176]
 888              	.L35:
 592:../Libraries/STM32F30x_StdPeriph_Driver/src/stm32f30x_adc.c ****   }
 593:../Libraries/STM32F30x_StdPeriph_Driver/src/stm32f30x_adc.c **** }
 889              		.loc 1 593 0
 890 0452 02B0     		add	sp, sp, #8
 891 0454 7047     		bx	lr
 892              		.cfi_endproc
 893              	.LFE127:
 895 0456 00BF     		.align	2
 896              		.global	ADC_SelectQueueOfContextMode
 897              		.thumb
 898              		.thumb_func
 900              	ADC_SelectQueueOfContextMode:
 901              	.LFB128:
 594:../Libraries/STM32F30x_StdPeriph_Driver/src/stm32f30x_adc.c **** 
 595:../Libraries/STM32F30x_StdPeriph_Driver/src/stm32f30x_adc.c **** /**
 596:../Libraries/STM32F30x_StdPeriph_Driver/src/stm32f30x_adc.c ****   * @brief  Selects the Queue Of Context Mode for injected channels.
 597:../Libraries/STM32F30x_StdPeriph_Driver/src/stm32f30x_adc.c ****   * @param  ADCx: where x can be 1, 2, 3 or 4 to select the ADC peripheral.
 598:../Libraries/STM32F30x_StdPeriph_Driver/src/stm32f30x_adc.c ****   * @param  NewState: new state of the Queue Of Context Mode.
 599:../Libraries/STM32F30x_StdPeriph_Driver/src/stm32f30x_adc.c ****   *   This parameter can be: ENABLE or DISABLE.
 600:../Libraries/STM32F30x_StdPeriph_Driver/src/stm32f30x_adc.c ****   * @retval None
 601:../Libraries/STM32F30x_StdPeriph_Driver/src/stm32f30x_adc.c ****   */
 602:../Libraries/STM32F30x_StdPeriph_Driver/src/stm32f30x_adc.c **** void ADC_SelectQueueOfContextMode(ADC_TypeDef* ADCx, FunctionalState NewState)
 603:../Libraries/STM32F30x_StdPeriph_Driver/src/stm32f30x_adc.c **** {
 902              		.loc 1 603 0
 903              		.cfi_startproc
 904              		@ args = 0, pretend = 0, frame = 8
 905              		@ frame_needed = 0, uses_anonymous_args = 0
 906              		@ link register save eliminated.
 907 0458 82B0     		sub	sp, sp, #8
 908              	.LCFI18:
 909              		.cfi_def_cfa_offset 8
 910 045a 0190     		str	r0, [sp, #4]
 911 045c 0B46     		mov	r3, r1
 912 045e 8DF80330 		strb	r3, [sp, #3]
 604:../Libraries/STM32F30x_StdPeriph_Driver/src/stm32f30x_adc.c ****   /* Check the parameters */
 605:../Libraries/STM32F30x_StdPeriph_Driver/src/stm32f30x_adc.c ****   assert_param(IS_ADC_ALL_PERIPH(ADCx)); 
 606:../Libraries/STM32F30x_StdPeriph_Driver/src/stm32f30x_adc.c ****   assert_param(IS_FUNCTIONAL_STATE(NewState));
 607:../Libraries/STM32F30x_StdPeriph_Driver/src/stm32f30x_adc.c **** 
 608:../Libraries/STM32F30x_StdPeriph_Driver/src/stm32f30x_adc.c ****   if (NewState != DISABLE)
 913              		.loc 1 608 0
 914 0462 9DF80330 		ldrb	r3, [sp, #3]	@ zero_extendqisi2
 915 0466 002B     		cmp	r3, #0
 916 0468 06D0     		beq	.L39
 609:../Libraries/STM32F30x_StdPeriph_Driver/src/stm32f30x_adc.c ****   {
 610:../Libraries/STM32F30x_StdPeriph_Driver/src/stm32f30x_adc.c ****     /* Set the JQM bit */
 611:../Libraries/STM32F30x_StdPeriph_Driver/src/stm32f30x_adc.c ****     ADCx->CFGR |= (uint32_t)(ADC_CFGR_JQM );
 917              		.loc 1 611 0
 918 046a 019B     		ldr	r3, [sp, #4]
 919 046c DB68     		ldr	r3, [r3, #12]
 920 046e 43F40012 		orr	r2, r3, #2097152
 921 0472 019B     		ldr	r3, [sp, #4]
 922 0474 DA60     		str	r2, [r3, #12]
 923 0476 05E0     		b	.L38
 924              	.L39:
 612:../Libraries/STM32F30x_StdPeriph_Driver/src/stm32f30x_adc.c ****   }
 613:../Libraries/STM32F30x_StdPeriph_Driver/src/stm32f30x_adc.c ****   else
 614:../Libraries/STM32F30x_StdPeriph_Driver/src/stm32f30x_adc.c ****   {
 615:../Libraries/STM32F30x_StdPeriph_Driver/src/stm32f30x_adc.c ****     /* Reset the JQM bit */
 616:../Libraries/STM32F30x_StdPeriph_Driver/src/stm32f30x_adc.c ****     ADCx->CFGR &= ~(uint32_t)(ADC_CFGR_JQM);
 925              		.loc 1 616 0
 926 0478 019B     		ldr	r3, [sp, #4]
 927 047a DB68     		ldr	r3, [r3, #12]
 928 047c 23F40012 		bic	r2, r3, #2097152
 929 0480 019B     		ldr	r3, [sp, #4]
 930 0482 DA60     		str	r2, [r3, #12]
 931              	.L38:
 617:../Libraries/STM32F30x_StdPeriph_Driver/src/stm32f30x_adc.c ****   }
 618:../Libraries/STM32F30x_StdPeriph_Driver/src/stm32f30x_adc.c **** }
 932              		.loc 1 618 0
 933 0484 02B0     		add	sp, sp, #8
 934 0486 7047     		bx	lr
 935              		.cfi_endproc
 936              	.LFE128:
 938              		.align	2
 939              		.global	ADC_AutoDelayCmd
 940              		.thumb
 941              		.thumb_func
 943              	ADC_AutoDelayCmd:
 944              	.LFB129:
 619:../Libraries/STM32F30x_StdPeriph_Driver/src/stm32f30x_adc.c **** 
 620:../Libraries/STM32F30x_StdPeriph_Driver/src/stm32f30x_adc.c **** /**
 621:../Libraries/STM32F30x_StdPeriph_Driver/src/stm32f30x_adc.c ****   * @brief  Selects the ADC Delayed Conversion Mode.
 622:../Libraries/STM32F30x_StdPeriph_Driver/src/stm32f30x_adc.c ****   * @param  ADCx: where x can be 1, 2, 3 or 4 to select the ADC peripheral.
 623:../Libraries/STM32F30x_StdPeriph_Driver/src/stm32f30x_adc.c ****   * @param  NewState: new state of the ADC Delayed Conversion Mode.
 624:../Libraries/STM32F30x_StdPeriph_Driver/src/stm32f30x_adc.c ****   *   This parameter can be: ENABLE or DISABLE.
 625:../Libraries/STM32F30x_StdPeriph_Driver/src/stm32f30x_adc.c ****   * @retval None
 626:../Libraries/STM32F30x_StdPeriph_Driver/src/stm32f30x_adc.c ****   */
 627:../Libraries/STM32F30x_StdPeriph_Driver/src/stm32f30x_adc.c **** void ADC_AutoDelayCmd(ADC_TypeDef* ADCx, FunctionalState NewState)
 628:../Libraries/STM32F30x_StdPeriph_Driver/src/stm32f30x_adc.c **** {
 945              		.loc 1 628 0
 946              		.cfi_startproc
 947              		@ args = 0, pretend = 0, frame = 8
 948              		@ frame_needed = 0, uses_anonymous_args = 0
 949              		@ link register save eliminated.
 950 0488 82B0     		sub	sp, sp, #8
 951              	.LCFI19:
 952              		.cfi_def_cfa_offset 8
 953 048a 0190     		str	r0, [sp, #4]
 954 048c 0B46     		mov	r3, r1
 955 048e 8DF80330 		strb	r3, [sp, #3]
 629:../Libraries/STM32F30x_StdPeriph_Driver/src/stm32f30x_adc.c ****   /* Check the parameters */
 630:../Libraries/STM32F30x_StdPeriph_Driver/src/stm32f30x_adc.c ****   assert_param(IS_ADC_ALL_PERIPH(ADCx)); 
 631:../Libraries/STM32F30x_StdPeriph_Driver/src/stm32f30x_adc.c ****   assert_param(IS_FUNCTIONAL_STATE(NewState));
 632:../Libraries/STM32F30x_StdPeriph_Driver/src/stm32f30x_adc.c **** 
 633:../Libraries/STM32F30x_StdPeriph_Driver/src/stm32f30x_adc.c ****   if (NewState != DISABLE)
 956              		.loc 1 633 0
 957 0492 9DF80330 		ldrb	r3, [sp, #3]	@ zero_extendqisi2
 958 0496 002B     		cmp	r3, #0
 959 0498 06D0     		beq	.L42
 634:../Libraries/STM32F30x_StdPeriph_Driver/src/stm32f30x_adc.c ****   {
 635:../Libraries/STM32F30x_StdPeriph_Driver/src/stm32f30x_adc.c ****     /* Set the AUTDLY bit */
 636:../Libraries/STM32F30x_StdPeriph_Driver/src/stm32f30x_adc.c ****     ADCx->CFGR |= (uint32_t)(ADC_CFGR_AUTDLY );
 960              		.loc 1 636 0
 961 049a 019B     		ldr	r3, [sp, #4]
 962 049c DB68     		ldr	r3, [r3, #12]
 963 049e 43F48042 		orr	r2, r3, #16384
 964 04a2 019B     		ldr	r3, [sp, #4]
 965 04a4 DA60     		str	r2, [r3, #12]
 966 04a6 05E0     		b	.L41
 967              	.L42:
 637:../Libraries/STM32F30x_StdPeriph_Driver/src/stm32f30x_adc.c ****   }
 638:../Libraries/STM32F30x_StdPeriph_Driver/src/stm32f30x_adc.c ****   else
 639:../Libraries/STM32F30x_StdPeriph_Driver/src/stm32f30x_adc.c ****   {
 640:../Libraries/STM32F30x_StdPeriph_Driver/src/stm32f30x_adc.c ****     /* Reset the AUTDLY bit */
 641:../Libraries/STM32F30x_StdPeriph_Driver/src/stm32f30x_adc.c ****     ADCx->CFGR &= ~(uint32_t)(ADC_CFGR_AUTDLY);
 968              		.loc 1 641 0
 969 04a8 019B     		ldr	r3, [sp, #4]
 970 04aa DB68     		ldr	r3, [r3, #12]
 971 04ac 23F48042 		bic	r2, r3, #16384
 972 04b0 019B     		ldr	r3, [sp, #4]
 973 04b2 DA60     		str	r2, [r3, #12]
 974              	.L41:
 642:../Libraries/STM32F30x_StdPeriph_Driver/src/stm32f30x_adc.c ****   }
 643:../Libraries/STM32F30x_StdPeriph_Driver/src/stm32f30x_adc.c **** }
 975              		.loc 1 643 0
 976 04b4 02B0     		add	sp, sp, #8
 977 04b6 7047     		bx	lr
 978              		.cfi_endproc
 979              	.LFE129:
 981              		.align	2
 982              		.global	ADC_AnalogWatchdogCmd
 983              		.thumb
 984              		.thumb_func
 986              	ADC_AnalogWatchdogCmd:
 987              	.LFB130:
 644:../Libraries/STM32F30x_StdPeriph_Driver/src/stm32f30x_adc.c **** 
 645:../Libraries/STM32F30x_StdPeriph_Driver/src/stm32f30x_adc.c **** /**
 646:../Libraries/STM32F30x_StdPeriph_Driver/src/stm32f30x_adc.c ****   * @}
 647:../Libraries/STM32F30x_StdPeriph_Driver/src/stm32f30x_adc.c ****   */
 648:../Libraries/STM32F30x_StdPeriph_Driver/src/stm32f30x_adc.c **** 
 649:../Libraries/STM32F30x_StdPeriph_Driver/src/stm32f30x_adc.c **** /** @defgroup ADC_Group2 Analog Watchdog configuration functions
 650:../Libraries/STM32F30x_StdPeriph_Driver/src/stm32f30x_adc.c ****  *  @brief   Analog Watchdog configuration functions 
 651:../Libraries/STM32F30x_StdPeriph_Driver/src/stm32f30x_adc.c ****  *
 652:../Libraries/STM32F30x_StdPeriph_Driver/src/stm32f30x_adc.c **** @verbatim   
 653:../Libraries/STM32F30x_StdPeriph_Driver/src/stm32f30x_adc.c ****  ===============================================================================
 654:../Libraries/STM32F30x_StdPeriph_Driver/src/stm32f30x_adc.c ****                     ##### Analog Watchdog configuration functions #####
 655:../Libraries/STM32F30x_StdPeriph_Driver/src/stm32f30x_adc.c ****  ===============================================================================  
 656:../Libraries/STM32F30x_StdPeriph_Driver/src/stm32f30x_adc.c **** 
 657:../Libraries/STM32F30x_StdPeriph_Driver/src/stm32f30x_adc.c ****   [..] This section provides functions allowing to configure the 3 Analog Watchdogs 
 658:../Libraries/STM32F30x_StdPeriph_Driver/src/stm32f30x_adc.c ****        (AWDG1, AWDG2 and AWDG3) in the ADC.
 659:../Libraries/STM32F30x_StdPeriph_Driver/src/stm32f30x_adc.c ****   
 660:../Libraries/STM32F30x_StdPeriph_Driver/src/stm32f30x_adc.c ****   [..] A typical configuration Analog Watchdog is done following these steps :
 661:../Libraries/STM32F30x_StdPeriph_Driver/src/stm32f30x_adc.c ****    (#) The ADC guarded channel(s) is (are) selected using the functions: 
 662:../Libraries/STM32F30x_StdPeriph_Driver/src/stm32f30x_adc.c ****       (++) ADC_AnalogWatchdog1SingleChannelConfig().
 663:../Libraries/STM32F30x_StdPeriph_Driver/src/stm32f30x_adc.c ****       (++) ADC_AnalogWatchdog2SingleChannelConfig().
 664:../Libraries/STM32F30x_StdPeriph_Driver/src/stm32f30x_adc.c ****       (++) ADC_AnalogWatchdog3SingleChannelConfig().
 665:../Libraries/STM32F30x_StdPeriph_Driver/src/stm32f30x_adc.c **** 
 666:../Libraries/STM32F30x_StdPeriph_Driver/src/stm32f30x_adc.c ****    (#) The Analog watchdog lower and higher threshold are configured using the functions: 
 667:../Libraries/STM32F30x_StdPeriph_Driver/src/stm32f30x_adc.c ****       (++) ADC_AnalogWatchdog1ThresholdsConfig().
 668:../Libraries/STM32F30x_StdPeriph_Driver/src/stm32f30x_adc.c ****       (++) ADC_AnalogWatchdog2ThresholdsConfig().
 669:../Libraries/STM32F30x_StdPeriph_Driver/src/stm32f30x_adc.c ****       (++) ADC_AnalogWatchdog3ThresholdsConfig().
 670:../Libraries/STM32F30x_StdPeriph_Driver/src/stm32f30x_adc.c **** 
 671:../Libraries/STM32F30x_StdPeriph_Driver/src/stm32f30x_adc.c ****    (#) The Analog watchdog is enabled and configured to enable the check, on one
 672:../Libraries/STM32F30x_StdPeriph_Driver/src/stm32f30x_adc.c ****       or more channels, using the function:
 673:../Libraries/STM32F30x_StdPeriph_Driver/src/stm32f30x_adc.c ****       (++) ADC_AnalogWatchdogCmd().
 674:../Libraries/STM32F30x_StdPeriph_Driver/src/stm32f30x_adc.c **** 
 675:../Libraries/STM32F30x_StdPeriph_Driver/src/stm32f30x_adc.c **** @endverbatim
 676:../Libraries/STM32F30x_StdPeriph_Driver/src/stm32f30x_adc.c ****   * @{
 677:../Libraries/STM32F30x_StdPeriph_Driver/src/stm32f30x_adc.c ****   */
 678:../Libraries/STM32F30x_StdPeriph_Driver/src/stm32f30x_adc.c **** 
 679:../Libraries/STM32F30x_StdPeriph_Driver/src/stm32f30x_adc.c **** /**
 680:../Libraries/STM32F30x_StdPeriph_Driver/src/stm32f30x_adc.c ****   * @brief  Enables or disables the analog watchdog on single/all regular
 681:../Libraries/STM32F30x_StdPeriph_Driver/src/stm32f30x_adc.c ****   *         or injected channels
 682:../Libraries/STM32F30x_StdPeriph_Driver/src/stm32f30x_adc.c ****   * @param  ADCx: where x can be 1, 2, 3 or 4 to select the ADC peripheral.
 683:../Libraries/STM32F30x_StdPeriph_Driver/src/stm32f30x_adc.c ****   * @param  ADC_AnalogWatchdog: the ADC analog watchdog configuration.
 684:../Libraries/STM32F30x_StdPeriph_Driver/src/stm32f30x_adc.c ****   *   This parameter can be one of the following values:
 685:../Libraries/STM32F30x_StdPeriph_Driver/src/stm32f30x_adc.c ****   *     @arg ADC_AnalogWatchdog_SingleRegEnable: Analog watchdog on a single regular channel
 686:../Libraries/STM32F30x_StdPeriph_Driver/src/stm32f30x_adc.c ****   *     @arg ADC_AnalogWatchdog_SingleInjecEnable: Analog watchdog on a single injected channel
 687:../Libraries/STM32F30x_StdPeriph_Driver/src/stm32f30x_adc.c ****   *     @arg ADC_AnalogWatchdog_SingleRegOrInjecEnable: Analog watchdog on a single regular or inje
 688:../Libraries/STM32F30x_StdPeriph_Driver/src/stm32f30x_adc.c ****   *     @arg ADC_AnalogWatchdog_AllRegEnable: Analog watchdog on  all regular channel
 689:../Libraries/STM32F30x_StdPeriph_Driver/src/stm32f30x_adc.c ****   *     @arg ADC_AnalogWatchdog_AllInjecEnable: Analog watchdog on  all injected channel
 690:../Libraries/STM32F30x_StdPeriph_Driver/src/stm32f30x_adc.c ****   *     @arg ADC_AnalogWatchdog_AllRegAllInjecEnable: Analog watchdog on all regular and injected c
 691:../Libraries/STM32F30x_StdPeriph_Driver/src/stm32f30x_adc.c ****   *     @arg ADC_AnalogWatchdog_None: No channel guarded by the analog watchdog
 692:../Libraries/STM32F30x_StdPeriph_Driver/src/stm32f30x_adc.c ****   * @retval None	  
 693:../Libraries/STM32F30x_StdPeriph_Driver/src/stm32f30x_adc.c ****   */
 694:../Libraries/STM32F30x_StdPeriph_Driver/src/stm32f30x_adc.c **** void ADC_AnalogWatchdogCmd(ADC_TypeDef* ADCx, uint32_t ADC_AnalogWatchdog)
 695:../Libraries/STM32F30x_StdPeriph_Driver/src/stm32f30x_adc.c **** {
 988              		.loc 1 695 0
 989              		.cfi_startproc
 990              		@ args = 0, pretend = 0, frame = 16
 991              		@ frame_needed = 0, uses_anonymous_args = 0
 992              		@ link register save eliminated.
 993 04b8 84B0     		sub	sp, sp, #16
 994              	.LCFI20:
 995              		.cfi_def_cfa_offset 16
 996 04ba 0190     		str	r0, [sp, #4]
 997 04bc 0091     		str	r1, [sp, #0]
 696:../Libraries/STM32F30x_StdPeriph_Driver/src/stm32f30x_adc.c ****   uint32_t tmpreg = 0;
 998              		.loc 1 696 0
 999 04be 4FF00003 		mov	r3, #0
 1000 04c2 0393     		str	r3, [sp, #12]
 697:../Libraries/STM32F30x_StdPeriph_Driver/src/stm32f30x_adc.c ****   /* Check the parameters */
 698:../Libraries/STM32F30x_StdPeriph_Driver/src/stm32f30x_adc.c ****   assert_param(IS_ADC_ALL_PERIPH(ADCx));
 699:../Libraries/STM32F30x_StdPeriph_Driver/src/stm32f30x_adc.c ****   assert_param(IS_ADC_ANALOG_WATCHDOG(ADC_AnalogWatchdog));
 700:../Libraries/STM32F30x_StdPeriph_Driver/src/stm32f30x_adc.c ****   /* Get the old register value */
 701:../Libraries/STM32F30x_StdPeriph_Driver/src/stm32f30x_adc.c ****   tmpreg = ADCx->CFGR;
 1001              		.loc 1 701 0
 1002 04c4 019B     		ldr	r3, [sp, #4]
 1003 04c6 DB68     		ldr	r3, [r3, #12]
 1004 04c8 0393     		str	r3, [sp, #12]
 702:../Libraries/STM32F30x_StdPeriph_Driver/src/stm32f30x_adc.c ****   /* Clear AWDEN, AWDENJ and AWDSGL bits */
 703:../Libraries/STM32F30x_StdPeriph_Driver/src/stm32f30x_adc.c ****   tmpreg &= ~(uint32_t)(ADC_CFGR_AWD1SGL|ADC_CFGR_AWD1EN|ADC_CFGR_JAWD1EN);
 1005              		.loc 1 703 0
 1006 04ca 039B     		ldr	r3, [sp, #12]
 1007 04cc 23F0E073 		bic	r3, r3, #29360128
 1008 04d0 0393     		str	r3, [sp, #12]
 704:../Libraries/STM32F30x_StdPeriph_Driver/src/stm32f30x_adc.c ****   /* Set the analog watchdog enable mode */
 705:../Libraries/STM32F30x_StdPeriph_Driver/src/stm32f30x_adc.c ****   tmpreg |= ADC_AnalogWatchdog;
 1009              		.loc 1 705 0
 1010 04d2 039A     		ldr	r2, [sp, #12]
 1011 04d4 009B     		ldr	r3, [sp, #0]
 1012 04d6 1343     		orrs	r3, r3, r2
 1013 04d8 0393     		str	r3, [sp, #12]
 706:../Libraries/STM32F30x_StdPeriph_Driver/src/stm32f30x_adc.c ****   /* Store the new register value */
 707:../Libraries/STM32F30x_StdPeriph_Driver/src/stm32f30x_adc.c ****   ADCx->CFGR = tmpreg;
 1014              		.loc 1 707 0
 1015 04da 019B     		ldr	r3, [sp, #4]
 1016 04dc 039A     		ldr	r2, [sp, #12]
 1017 04de DA60     		str	r2, [r3, #12]
 708:../Libraries/STM32F30x_StdPeriph_Driver/src/stm32f30x_adc.c **** }
 1018              		.loc 1 708 0
 1019 04e0 04B0     		add	sp, sp, #16
 1020 04e2 7047     		bx	lr
 1021              		.cfi_endproc
 1022              	.LFE130:
 1024              		.align	2
 1025              		.global	ADC_AnalogWatchdog1ThresholdsConfig
 1026              		.thumb
 1027              		.thumb_func
 1029              	ADC_AnalogWatchdog1ThresholdsConfig:
 1030              	.LFB131:
 709:../Libraries/STM32F30x_StdPeriph_Driver/src/stm32f30x_adc.c **** 
 710:../Libraries/STM32F30x_StdPeriph_Driver/src/stm32f30x_adc.c **** /**
 711:../Libraries/STM32F30x_StdPeriph_Driver/src/stm32f30x_adc.c ****   * @brief  Configures the high and low thresholds of the analog watchdog1.
 712:../Libraries/STM32F30x_StdPeriph_Driver/src/stm32f30x_adc.c ****   * @param  ADCx: where x can be 1, 2, 3 or 4 to select the ADC peripheral.
 713:../Libraries/STM32F30x_StdPeriph_Driver/src/stm32f30x_adc.c ****   * @param  HighThreshold: the ADC analog watchdog High threshold value.
 714:../Libraries/STM32F30x_StdPeriph_Driver/src/stm32f30x_adc.c ****   *   This parameter must be a 12bit value.
 715:../Libraries/STM32F30x_StdPeriph_Driver/src/stm32f30x_adc.c ****   * @param  LowThreshold: the ADC analog watchdog Low threshold value.
 716:../Libraries/STM32F30x_StdPeriph_Driver/src/stm32f30x_adc.c ****   *   This parameter must be a 12bit value.
 717:../Libraries/STM32F30x_StdPeriph_Driver/src/stm32f30x_adc.c ****   * @retval None
 718:../Libraries/STM32F30x_StdPeriph_Driver/src/stm32f30x_adc.c ****   */
 719:../Libraries/STM32F30x_StdPeriph_Driver/src/stm32f30x_adc.c **** void ADC_AnalogWatchdog1ThresholdsConfig(ADC_TypeDef* ADCx, uint16_t HighThreshold,
 720:../Libraries/STM32F30x_StdPeriph_Driver/src/stm32f30x_adc.c ****                                          uint16_t LowThreshold)
 721:../Libraries/STM32F30x_StdPeriph_Driver/src/stm32f30x_adc.c **** {
 1031              		.loc 1 721 0
 1032              		.cfi_startproc
 1033              		@ args = 0, pretend = 0, frame = 8
 1034              		@ frame_needed = 0, uses_anonymous_args = 0
 1035              		@ link register save eliminated.
 1036 04e4 82B0     		sub	sp, sp, #8
 1037              	.LCFI21:
 1038              		.cfi_def_cfa_offset 8
 1039 04e6 0190     		str	r0, [sp, #4]
 1040 04e8 1346     		mov	r3, r2
 1041 04ea 0A46     		mov	r2, r1	@ movhi
 1042 04ec ADF80220 		strh	r2, [sp, #2]	@ movhi
 1043 04f0 ADF80030 		strh	r3, [sp, #0]	@ movhi
 722:../Libraries/STM32F30x_StdPeriph_Driver/src/stm32f30x_adc.c ****   /* Check the parameters */
 723:../Libraries/STM32F30x_StdPeriph_Driver/src/stm32f30x_adc.c ****   assert_param(IS_ADC_ALL_PERIPH(ADCx));
 724:../Libraries/STM32F30x_StdPeriph_Driver/src/stm32f30x_adc.c ****   assert_param(IS_ADC_THRESHOLD(HighThreshold));
 725:../Libraries/STM32F30x_StdPeriph_Driver/src/stm32f30x_adc.c ****   assert_param(IS_ADC_THRESHOLD(LowThreshold));
 726:../Libraries/STM32F30x_StdPeriph_Driver/src/stm32f30x_adc.c ****   /* Set the ADCx high threshold */
 727:../Libraries/STM32F30x_StdPeriph_Driver/src/stm32f30x_adc.c ****   ADCx->TR1 &= ~(uint32_t)ADC_TR1_HT1;
 1044              		.loc 1 727 0
 1045 04f4 019B     		ldr	r3, [sp, #4]
 1046 04f6 1B6A     		ldr	r3, [r3, #32]
 1047 04f8 23F07E63 		bic	r3, r3, #266338304
 1048 04fc 23F4F813 		bic	r3, r3, #2031616
 1049 0500 019A     		ldr	r2, [sp, #4]
 1050 0502 1362     		str	r3, [r2, #32]
 728:../Libraries/STM32F30x_StdPeriph_Driver/src/stm32f30x_adc.c ****   ADCx->TR1 |= (uint32_t)((uint32_t)HighThreshold << 16);
 1051              		.loc 1 728 0
 1052 0504 019B     		ldr	r3, [sp, #4]
 1053 0506 1A6A     		ldr	r2, [r3, #32]
 1054 0508 BDF80230 		ldrh	r3, [sp, #2]
 1055 050c 4FEA0343 		lsl	r3, r3, #16
 1056 0510 1A43     		orrs	r2, r2, r3
 1057 0512 019B     		ldr	r3, [sp, #4]
 1058 0514 1A62     		str	r2, [r3, #32]
 729:../Libraries/STM32F30x_StdPeriph_Driver/src/stm32f30x_adc.c **** 
 730:../Libraries/STM32F30x_StdPeriph_Driver/src/stm32f30x_adc.c ****   /* Set the ADCx low threshold */
 731:../Libraries/STM32F30x_StdPeriph_Driver/src/stm32f30x_adc.c ****   ADCx->TR1 &= ~(uint32_t)ADC_TR1_LT1;
 1059              		.loc 1 731 0
 1060 0516 019B     		ldr	r3, [sp, #4]
 1061 0518 1B6A     		ldr	r3, [r3, #32]
 1062 051a 23F47E63 		bic	r3, r3, #4064
 1063 051e 23F01F03 		bic	r3, r3, #31
 1064 0522 019A     		ldr	r2, [sp, #4]
 1065 0524 1362     		str	r3, [r2, #32]
 732:../Libraries/STM32F30x_StdPeriph_Driver/src/stm32f30x_adc.c ****   ADCx->TR1 |= LowThreshold;
 1066              		.loc 1 732 0
 1067 0526 019B     		ldr	r3, [sp, #4]
 1068 0528 1A6A     		ldr	r2, [r3, #32]
 1069 052a BDF80030 		ldrh	r3, [sp, #0]
 1070 052e 1A43     		orrs	r2, r2, r3
 1071 0530 019B     		ldr	r3, [sp, #4]
 1072 0532 1A62     		str	r2, [r3, #32]
 733:../Libraries/STM32F30x_StdPeriph_Driver/src/stm32f30x_adc.c **** }
 1073              		.loc 1 733 0
 1074 0534 02B0     		add	sp, sp, #8
 1075 0536 7047     		bx	lr
 1076              		.cfi_endproc
 1077              	.LFE131:
 1079              		.align	2
 1080              		.global	ADC_AnalogWatchdog2ThresholdsConfig
 1081              		.thumb
 1082              		.thumb_func
 1084              	ADC_AnalogWatchdog2ThresholdsConfig:
 1085              	.LFB132:
 734:../Libraries/STM32F30x_StdPeriph_Driver/src/stm32f30x_adc.c **** 
 735:../Libraries/STM32F30x_StdPeriph_Driver/src/stm32f30x_adc.c **** /**
 736:../Libraries/STM32F30x_StdPeriph_Driver/src/stm32f30x_adc.c ****   * @brief  Configures the high and low thresholds of the analog watchdog2.
 737:../Libraries/STM32F30x_StdPeriph_Driver/src/stm32f30x_adc.c ****   * @param  ADCx: where x can be 1, 2, 3 or 4 to select the ADC peripheral.
 738:../Libraries/STM32F30x_StdPeriph_Driver/src/stm32f30x_adc.c ****   * @param  HighThreshold: the ADC analog watchdog High threshold value.
 739:../Libraries/STM32F30x_StdPeriph_Driver/src/stm32f30x_adc.c ****   *   This parameter must be a 8bit value.
 740:../Libraries/STM32F30x_StdPeriph_Driver/src/stm32f30x_adc.c ****   * @param  LowThreshold: the ADC analog watchdog Low threshold value.
 741:../Libraries/STM32F30x_StdPeriph_Driver/src/stm32f30x_adc.c ****   *   This parameter must be a 8bit value.
 742:../Libraries/STM32F30x_StdPeriph_Driver/src/stm32f30x_adc.c ****   * @retval None
 743:../Libraries/STM32F30x_StdPeriph_Driver/src/stm32f30x_adc.c ****   */
 744:../Libraries/STM32F30x_StdPeriph_Driver/src/stm32f30x_adc.c **** void ADC_AnalogWatchdog2ThresholdsConfig(ADC_TypeDef* ADCx, uint8_t HighThreshold,
 745:../Libraries/STM32F30x_StdPeriph_Driver/src/stm32f30x_adc.c ****                                          uint8_t LowThreshold)
 746:../Libraries/STM32F30x_StdPeriph_Driver/src/stm32f30x_adc.c **** {
 1086              		.loc 1 746 0
 1087              		.cfi_startproc
 1088              		@ args = 0, pretend = 0, frame = 8
 1089              		@ frame_needed = 0, uses_anonymous_args = 0
 1090              		@ link register save eliminated.
 1091 0538 82B0     		sub	sp, sp, #8
 1092              	.LCFI22:
 1093              		.cfi_def_cfa_offset 8
 1094 053a 0190     		str	r0, [sp, #4]
 1095 053c 1346     		mov	r3, r2
 1096 053e 0A46     		mov	r2, r1
 1097 0540 8DF80320 		strb	r2, [sp, #3]
 1098 0544 8DF80230 		strb	r3, [sp, #2]
 747:../Libraries/STM32F30x_StdPeriph_Driver/src/stm32f30x_adc.c ****   /* Check the parameters */
 748:../Libraries/STM32F30x_StdPeriph_Driver/src/stm32f30x_adc.c ****   assert_param(IS_ADC_ALL_PERIPH(ADCx));
 749:../Libraries/STM32F30x_StdPeriph_Driver/src/stm32f30x_adc.c ****   
 750:../Libraries/STM32F30x_StdPeriph_Driver/src/stm32f30x_adc.c ****   /* Set the ADCx high threshold */
 751:../Libraries/STM32F30x_StdPeriph_Driver/src/stm32f30x_adc.c ****   ADCx->TR2 &= ~(uint32_t)ADC_TR2_HT2;
 1099              		.loc 1 751 0
 1100 0548 019B     		ldr	r3, [sp, #4]
 1101 054a 5B6A     		ldr	r3, [r3, #36]
 1102 054c 23F47F02 		bic	r2, r3, #16711680
 1103 0550 019B     		ldr	r3, [sp, #4]
 1104 0552 5A62     		str	r2, [r3, #36]
 752:../Libraries/STM32F30x_StdPeriph_Driver/src/stm32f30x_adc.c ****   ADCx->TR2 |= (uint32_t)((uint32_t)HighThreshold << 16);
 1105              		.loc 1 752 0
 1106 0554 019B     		ldr	r3, [sp, #4]
 1107 0556 5A6A     		ldr	r2, [r3, #36]
 1108 0558 9DF80330 		ldrb	r3, [sp, #3]	@ zero_extendqisi2
 1109 055c 4FEA0343 		lsl	r3, r3, #16
 1110 0560 1A43     		orrs	r2, r2, r3
 1111 0562 019B     		ldr	r3, [sp, #4]
 1112 0564 5A62     		str	r2, [r3, #36]
 753:../Libraries/STM32F30x_StdPeriph_Driver/src/stm32f30x_adc.c **** 
 754:../Libraries/STM32F30x_StdPeriph_Driver/src/stm32f30x_adc.c ****   /* Set the ADCx low threshold */
 755:../Libraries/STM32F30x_StdPeriph_Driver/src/stm32f30x_adc.c ****   ADCx->TR2 &= ~(uint32_t)ADC_TR2_LT2;
 1113              		.loc 1 755 0
 1114 0566 019B     		ldr	r3, [sp, #4]
 1115 0568 5B6A     		ldr	r3, [r3, #36]
 1116 056a 23F0FF02 		bic	r2, r3, #255
 1117 056e 019B     		ldr	r3, [sp, #4]
 1118 0570 5A62     		str	r2, [r3, #36]
 756:../Libraries/STM32F30x_StdPeriph_Driver/src/stm32f30x_adc.c ****   ADCx->TR2 |= LowThreshold;
 1119              		.loc 1 756 0
 1120 0572 019B     		ldr	r3, [sp, #4]
 1121 0574 5A6A     		ldr	r2, [r3, #36]
 1122 0576 9DF80230 		ldrb	r3, [sp, #2]	@ zero_extendqisi2
 1123 057a 1A43     		orrs	r2, r2, r3
 1124 057c 019B     		ldr	r3, [sp, #4]
 1125 057e 5A62     		str	r2, [r3, #36]
 757:../Libraries/STM32F30x_StdPeriph_Driver/src/stm32f30x_adc.c **** }
 1126              		.loc 1 757 0
 1127 0580 02B0     		add	sp, sp, #8
 1128 0582 7047     		bx	lr
 1129              		.cfi_endproc
 1130              	.LFE132:
 1132              		.align	2
 1133              		.global	ADC_AnalogWatchdog3ThresholdsConfig
 1134              		.thumb
 1135              		.thumb_func
 1137              	ADC_AnalogWatchdog3ThresholdsConfig:
 1138              	.LFB133:
 758:../Libraries/STM32F30x_StdPeriph_Driver/src/stm32f30x_adc.c **** 
 759:../Libraries/STM32F30x_StdPeriph_Driver/src/stm32f30x_adc.c **** /**
 760:../Libraries/STM32F30x_StdPeriph_Driver/src/stm32f30x_adc.c ****   * @brief  Configures the high and low thresholds of the analog watchdog3.
 761:../Libraries/STM32F30x_StdPeriph_Driver/src/stm32f30x_adc.c ****   * @param  ADCx: where x can be 1, 2, 3 or 4 to select the ADC peripheral.
 762:../Libraries/STM32F30x_StdPeriph_Driver/src/stm32f30x_adc.c ****   * @param  HighThreshold: the ADC analog watchdog High threshold value.
 763:../Libraries/STM32F30x_StdPeriph_Driver/src/stm32f30x_adc.c ****   *   This parameter must be a 8bit value.
 764:../Libraries/STM32F30x_StdPeriph_Driver/src/stm32f30x_adc.c ****   * @param  LowThreshold: the ADC analog watchdog Low threshold value.
 765:../Libraries/STM32F30x_StdPeriph_Driver/src/stm32f30x_adc.c ****   *   This parameter must be a 8bit value.
 766:../Libraries/STM32F30x_StdPeriph_Driver/src/stm32f30x_adc.c ****   * @retval None
 767:../Libraries/STM32F30x_StdPeriph_Driver/src/stm32f30x_adc.c ****   */
 768:../Libraries/STM32F30x_StdPeriph_Driver/src/stm32f30x_adc.c **** void ADC_AnalogWatchdog3ThresholdsConfig(ADC_TypeDef* ADCx, uint8_t HighThreshold,
 769:../Libraries/STM32F30x_StdPeriph_Driver/src/stm32f30x_adc.c ****                                          uint8_t LowThreshold)
 770:../Libraries/STM32F30x_StdPeriph_Driver/src/stm32f30x_adc.c **** {
 1139              		.loc 1 770 0
 1140              		.cfi_startproc
 1141              		@ args = 0, pretend = 0, frame = 8
 1142              		@ frame_needed = 0, uses_anonymous_args = 0
 1143              		@ link register save eliminated.
 1144 0584 82B0     		sub	sp, sp, #8
 1145              	.LCFI23:
 1146              		.cfi_def_cfa_offset 8
 1147 0586 0190     		str	r0, [sp, #4]
 1148 0588 1346     		mov	r3, r2
 1149 058a 0A46     		mov	r2, r1
 1150 058c 8DF80320 		strb	r2, [sp, #3]
 1151 0590 8DF80230 		strb	r3, [sp, #2]
 771:../Libraries/STM32F30x_StdPeriph_Driver/src/stm32f30x_adc.c ****   /* Check the parameters */
 772:../Libraries/STM32F30x_StdPeriph_Driver/src/stm32f30x_adc.c ****   assert_param(IS_ADC_ALL_PERIPH(ADCx));
 773:../Libraries/STM32F30x_StdPeriph_Driver/src/stm32f30x_adc.c **** 
 774:../Libraries/STM32F30x_StdPeriph_Driver/src/stm32f30x_adc.c ****   /* Set the ADCx high threshold */
 775:../Libraries/STM32F30x_StdPeriph_Driver/src/stm32f30x_adc.c ****   ADCx->TR3 &= ~(uint32_t)ADC_TR3_HT3;
 1152              		.loc 1 775 0
 1153 0594 019B     		ldr	r3, [sp, #4]
 1154 0596 9B6A     		ldr	r3, [r3, #40]
 1155 0598 23F47F02 		bic	r2, r3, #16711680
 1156 059c 019B     		ldr	r3, [sp, #4]
 1157 059e 9A62     		str	r2, [r3, #40]
 776:../Libraries/STM32F30x_StdPeriph_Driver/src/stm32f30x_adc.c ****   ADCx->TR3 |= (uint32_t)((uint32_t)HighThreshold << 16);
 1158              		.loc 1 776 0
 1159 05a0 019B     		ldr	r3, [sp, #4]
 1160 05a2 9A6A     		ldr	r2, [r3, #40]
 1161 05a4 9DF80330 		ldrb	r3, [sp, #3]	@ zero_extendqisi2
 1162 05a8 4FEA0343 		lsl	r3, r3, #16
 1163 05ac 1A43     		orrs	r2, r2, r3
 1164 05ae 019B     		ldr	r3, [sp, #4]
 1165 05b0 9A62     		str	r2, [r3, #40]
 777:../Libraries/STM32F30x_StdPeriph_Driver/src/stm32f30x_adc.c **** 
 778:../Libraries/STM32F30x_StdPeriph_Driver/src/stm32f30x_adc.c ****   /* Set the ADCx low threshold */
 779:../Libraries/STM32F30x_StdPeriph_Driver/src/stm32f30x_adc.c ****   ADCx->TR3 &= ~(uint32_t)ADC_TR3_LT3;
 1166              		.loc 1 779 0
 1167 05b2 019B     		ldr	r3, [sp, #4]
 1168 05b4 9B6A     		ldr	r3, [r3, #40]
 1169 05b6 23F0FF02 		bic	r2, r3, #255
 1170 05ba 019B     		ldr	r3, [sp, #4]
 1171 05bc 9A62     		str	r2, [r3, #40]
 780:../Libraries/STM32F30x_StdPeriph_Driver/src/stm32f30x_adc.c ****   ADCx->TR3 |= LowThreshold;
 1172              		.loc 1 780 0
 1173 05be 019B     		ldr	r3, [sp, #4]
 1174 05c0 9A6A     		ldr	r2, [r3, #40]
 1175 05c2 9DF80230 		ldrb	r3, [sp, #2]	@ zero_extendqisi2
 1176 05c6 1A43     		orrs	r2, r2, r3
 1177 05c8 019B     		ldr	r3, [sp, #4]
 1178 05ca 9A62     		str	r2, [r3, #40]
 781:../Libraries/STM32F30x_StdPeriph_Driver/src/stm32f30x_adc.c **** }
 1179              		.loc 1 781 0
 1180 05cc 02B0     		add	sp, sp, #8
 1181 05ce 7047     		bx	lr
 1182              		.cfi_endproc
 1183              	.LFE133:
 1185              		.align	2
 1186              		.global	ADC_AnalogWatchdog1SingleChannelConfig
 1187              		.thumb
 1188              		.thumb_func
 1190              	ADC_AnalogWatchdog1SingleChannelConfig:
 1191              	.LFB134:
 782:../Libraries/STM32F30x_StdPeriph_Driver/src/stm32f30x_adc.c **** 
 783:../Libraries/STM32F30x_StdPeriph_Driver/src/stm32f30x_adc.c **** /**
 784:../Libraries/STM32F30x_StdPeriph_Driver/src/stm32f30x_adc.c ****   * @brief  Configures the analog watchdog 2 guarded single channel
 785:../Libraries/STM32F30x_StdPeriph_Driver/src/stm32f30x_adc.c ****   * @param  ADCx: where x can be 1, 2, 3 or 4 to select the ADC peripheral.
 786:../Libraries/STM32F30x_StdPeriph_Driver/src/stm32f30x_adc.c ****   * @param  ADC_Channel: the ADC channel to configure for the analog watchdog. 
 787:../Libraries/STM32F30x_StdPeriph_Driver/src/stm32f30x_adc.c ****   *   This parameter can be one of the following values:
 788:../Libraries/STM32F30x_StdPeriph_Driver/src/stm32f30x_adc.c ****   *     @arg ADC_Channel_1: ADC Channel1 selected
 789:../Libraries/STM32F30x_StdPeriph_Driver/src/stm32f30x_adc.c ****   *     @arg ADC_Channel_2: ADC Channel2 selected
 790:../Libraries/STM32F30x_StdPeriph_Driver/src/stm32f30x_adc.c ****   *     @arg ADC_Channel_3: ADC Channel3 selected
 791:../Libraries/STM32F30x_StdPeriph_Driver/src/stm32f30x_adc.c ****   *     @arg ADC_Channel_4: ADC Channel4 selected
 792:../Libraries/STM32F30x_StdPeriph_Driver/src/stm32f30x_adc.c ****   *     @arg ADC_Channel_5: ADC Channel5 selected
 793:../Libraries/STM32F30x_StdPeriph_Driver/src/stm32f30x_adc.c ****   *     @arg ADC_Channel_6: ADC Channel6 selected
 794:../Libraries/STM32F30x_StdPeriph_Driver/src/stm32f30x_adc.c ****   *     @arg ADC_Channel_7: ADC Channel7 selected
 795:../Libraries/STM32F30x_StdPeriph_Driver/src/stm32f30x_adc.c ****   *     @arg ADC_Channel_8: ADC Channel8 selected
 796:../Libraries/STM32F30x_StdPeriph_Driver/src/stm32f30x_adc.c ****   *     @arg ADC_Channel_9: ADC Channel9 selected
 797:../Libraries/STM32F30x_StdPeriph_Driver/src/stm32f30x_adc.c ****   *     @arg ADC_Channel_10: ADC Channel10 selected
 798:../Libraries/STM32F30x_StdPeriph_Driver/src/stm32f30x_adc.c ****   *     @arg ADC_Channel_11: ADC Channel11 selected
 799:../Libraries/STM32F30x_StdPeriph_Driver/src/stm32f30x_adc.c ****   *     @arg ADC_Channel_12: ADC Channel12 selected
 800:../Libraries/STM32F30x_StdPeriph_Driver/src/stm32f30x_adc.c ****   *     @arg ADC_Channel_13: ADC Channel13 selected
 801:../Libraries/STM32F30x_StdPeriph_Driver/src/stm32f30x_adc.c ****   *     @arg ADC_Channel_14: ADC Channel14 selected
 802:../Libraries/STM32F30x_StdPeriph_Driver/src/stm32f30x_adc.c ****   *     @arg ADC_Channel_15: ADC Channel15 selected
 803:../Libraries/STM32F30x_StdPeriph_Driver/src/stm32f30x_adc.c ****   *     @arg ADC_Channel_16: ADC Channel16 selected
 804:../Libraries/STM32F30x_StdPeriph_Driver/src/stm32f30x_adc.c ****   *     @arg ADC_Channel_17: ADC Channel17 selected
 805:../Libraries/STM32F30x_StdPeriph_Driver/src/stm32f30x_adc.c ****   *     @arg ADC_Channel_18: ADC Channel18 selected
 806:../Libraries/STM32F30x_StdPeriph_Driver/src/stm32f30x_adc.c ****   * @retval None
 807:../Libraries/STM32F30x_StdPeriph_Driver/src/stm32f30x_adc.c ****   */
 808:../Libraries/STM32F30x_StdPeriph_Driver/src/stm32f30x_adc.c **** void ADC_AnalogWatchdog1SingleChannelConfig(ADC_TypeDef* ADCx, uint8_t ADC_Channel)
 809:../Libraries/STM32F30x_StdPeriph_Driver/src/stm32f30x_adc.c **** {
 1192              		.loc 1 809 0
 1193              		.cfi_startproc
 1194              		@ args = 0, pretend = 0, frame = 16
 1195              		@ frame_needed = 0, uses_anonymous_args = 0
 1196              		@ link register save eliminated.
 1197 05d0 84B0     		sub	sp, sp, #16
 1198              	.LCFI24:
 1199              		.cfi_def_cfa_offset 16
 1200 05d2 0190     		str	r0, [sp, #4]
 1201 05d4 0B46     		mov	r3, r1
 1202 05d6 8DF80330 		strb	r3, [sp, #3]
 810:../Libraries/STM32F30x_StdPeriph_Driver/src/stm32f30x_adc.c ****   uint32_t tmpreg = 0;
 1203              		.loc 1 810 0
 1204 05da 4FF00003 		mov	r3, #0
 1205 05de 0393     		str	r3, [sp, #12]
 811:../Libraries/STM32F30x_StdPeriph_Driver/src/stm32f30x_adc.c ****   /* Check the parameters */
 812:../Libraries/STM32F30x_StdPeriph_Driver/src/stm32f30x_adc.c ****   assert_param(IS_ADC_ALL_PERIPH(ADCx));
 813:../Libraries/STM32F30x_StdPeriph_Driver/src/stm32f30x_adc.c ****   assert_param(IS_ADC_CHANNEL(ADC_Channel));
 814:../Libraries/STM32F30x_StdPeriph_Driver/src/stm32f30x_adc.c ****   /* Get the old register value */
 815:../Libraries/STM32F30x_StdPeriph_Driver/src/stm32f30x_adc.c ****   tmpreg = ADCx->CFGR;
 1206              		.loc 1 815 0
 1207 05e0 019B     		ldr	r3, [sp, #4]
 1208 05e2 DB68     		ldr	r3, [r3, #12]
 1209 05e4 0393     		str	r3, [sp, #12]
 816:../Libraries/STM32F30x_StdPeriph_Driver/src/stm32f30x_adc.c ****   /* Clear the Analog watchdog channel select bits */
 817:../Libraries/STM32F30x_StdPeriph_Driver/src/stm32f30x_adc.c ****   tmpreg &= ~(uint32_t)ADC_CFGR_AWD1CH;
 1210              		.loc 1 817 0
 1211 05e6 039B     		ldr	r3, [sp, #12]
 1212 05e8 23F0F843 		bic	r3, r3, #2080374784
 1213 05ec 0393     		str	r3, [sp, #12]
 818:../Libraries/STM32F30x_StdPeriph_Driver/src/stm32f30x_adc.c ****   /* Set the Analog watchdog channel */
 819:../Libraries/STM32F30x_StdPeriph_Driver/src/stm32f30x_adc.c ****   tmpreg |= (uint32_t)((uint32_t)ADC_Channel << 26);
 1214              		.loc 1 819 0
 1215 05ee 9DF80330 		ldrb	r3, [sp, #3]	@ zero_extendqisi2
 1216 05f2 4FEA8363 		lsl	r3, r3, #26
 1217 05f6 039A     		ldr	r2, [sp, #12]
 1218 05f8 1343     		orrs	r3, r3, r2
 1219 05fa 0393     		str	r3, [sp, #12]
 820:../Libraries/STM32F30x_StdPeriph_Driver/src/stm32f30x_adc.c ****   /* Store the new register value */
 821:../Libraries/STM32F30x_StdPeriph_Driver/src/stm32f30x_adc.c ****   ADCx->CFGR = tmpreg;
 1220              		.loc 1 821 0
 1221 05fc 019B     		ldr	r3, [sp, #4]
 1222 05fe 039A     		ldr	r2, [sp, #12]
 1223 0600 DA60     		str	r2, [r3, #12]
 822:../Libraries/STM32F30x_StdPeriph_Driver/src/stm32f30x_adc.c **** }
 1224              		.loc 1 822 0
 1225 0602 04B0     		add	sp, sp, #16
 1226 0604 7047     		bx	lr
 1227              		.cfi_endproc
 1228              	.LFE134:
 1230 0606 00BF     		.align	2
 1231              		.global	ADC_AnalogWatchdog2SingleChannelConfig
 1232              		.thumb
 1233              		.thumb_func
 1235              	ADC_AnalogWatchdog2SingleChannelConfig:
 1236              	.LFB135:
 823:../Libraries/STM32F30x_StdPeriph_Driver/src/stm32f30x_adc.c **** 
 824:../Libraries/STM32F30x_StdPeriph_Driver/src/stm32f30x_adc.c **** /**
 825:../Libraries/STM32F30x_StdPeriph_Driver/src/stm32f30x_adc.c ****   * @brief  Configures the analog watchdog 2 guarded single channel
 826:../Libraries/STM32F30x_StdPeriph_Driver/src/stm32f30x_adc.c ****   * @param  ADCx: where x can be 1, 2, 3 or 4 to select the ADC peripheral.
 827:../Libraries/STM32F30x_StdPeriph_Driver/src/stm32f30x_adc.c ****   * @param  ADC_Channel: the ADC channel to configure for the analog watchdog. 
 828:../Libraries/STM32F30x_StdPeriph_Driver/src/stm32f30x_adc.c ****   *   This parameter can be one of the following values:
 829:../Libraries/STM32F30x_StdPeriph_Driver/src/stm32f30x_adc.c ****   *     @arg ADC_Channel_1: ADC Channel1 selected
 830:../Libraries/STM32F30x_StdPeriph_Driver/src/stm32f30x_adc.c ****   *     @arg ADC_Channel_2: ADC Channel2 selected
 831:../Libraries/STM32F30x_StdPeriph_Driver/src/stm32f30x_adc.c ****   *     @arg ADC_Channel_3: ADC Channel3 selected
 832:../Libraries/STM32F30x_StdPeriph_Driver/src/stm32f30x_adc.c ****   *     @arg ADC_Channel_4: ADC Channel4 selected
 833:../Libraries/STM32F30x_StdPeriph_Driver/src/stm32f30x_adc.c ****   *     @arg ADC_Channel_5: ADC Channel5 selected
 834:../Libraries/STM32F30x_StdPeriph_Driver/src/stm32f30x_adc.c ****   *     @arg ADC_Channel_6: ADC Channel6 selected
 835:../Libraries/STM32F30x_StdPeriph_Driver/src/stm32f30x_adc.c ****   *     @arg ADC_Channel_7: ADC Channel7 selected
 836:../Libraries/STM32F30x_StdPeriph_Driver/src/stm32f30x_adc.c ****   *     @arg ADC_Channel_8: ADC Channel8 selected
 837:../Libraries/STM32F30x_StdPeriph_Driver/src/stm32f30x_adc.c ****   *     @arg ADC_Channel_9: ADC Channel9 selected
 838:../Libraries/STM32F30x_StdPeriph_Driver/src/stm32f30x_adc.c ****   *     @arg ADC_Channel_10: ADC Channel10 selected
 839:../Libraries/STM32F30x_StdPeriph_Driver/src/stm32f30x_adc.c ****   *     @arg ADC_Channel_11: ADC Channel11 selected
 840:../Libraries/STM32F30x_StdPeriph_Driver/src/stm32f30x_adc.c ****   *     @arg ADC_Channel_12: ADC Channel12 selected
 841:../Libraries/STM32F30x_StdPeriph_Driver/src/stm32f30x_adc.c ****   *     @arg ADC_Channel_13: ADC Channel13 selected
 842:../Libraries/STM32F30x_StdPeriph_Driver/src/stm32f30x_adc.c ****   *     @arg ADC_Channel_14: ADC Channel14 selected
 843:../Libraries/STM32F30x_StdPeriph_Driver/src/stm32f30x_adc.c ****   *     @arg ADC_Channel_15: ADC Channel15 selected
 844:../Libraries/STM32F30x_StdPeriph_Driver/src/stm32f30x_adc.c ****   *     @arg ADC_Channel_16: ADC Channel16 selected
 845:../Libraries/STM32F30x_StdPeriph_Driver/src/stm32f30x_adc.c ****   *     @arg ADC_Channel_17: ADC Channel17 selected
 846:../Libraries/STM32F30x_StdPeriph_Driver/src/stm32f30x_adc.c ****   *     @arg ADC_Channel_18: ADC Channel18 selected
 847:../Libraries/STM32F30x_StdPeriph_Driver/src/stm32f30x_adc.c ****   * @retval None
 848:../Libraries/STM32F30x_StdPeriph_Driver/src/stm32f30x_adc.c ****   */
 849:../Libraries/STM32F30x_StdPeriph_Driver/src/stm32f30x_adc.c **** void ADC_AnalogWatchdog2SingleChannelConfig(ADC_TypeDef* ADCx, uint8_t ADC_Channel)
 850:../Libraries/STM32F30x_StdPeriph_Driver/src/stm32f30x_adc.c **** {
 1237              		.loc 1 850 0
 1238              		.cfi_startproc
 1239              		@ args = 0, pretend = 0, frame = 16
 1240              		@ frame_needed = 0, uses_anonymous_args = 0
 1241              		@ link register save eliminated.
 1242 0608 84B0     		sub	sp, sp, #16
 1243              	.LCFI25:
 1244              		.cfi_def_cfa_offset 16
 1245 060a 0190     		str	r0, [sp, #4]
 1246 060c 0B46     		mov	r3, r1
 1247 060e 8DF80330 		strb	r3, [sp, #3]
 851:../Libraries/STM32F30x_StdPeriph_Driver/src/stm32f30x_adc.c ****   uint32_t tmpreg = 0;
 1248              		.loc 1 851 0
 1249 0612 4FF00003 		mov	r3, #0
 1250 0616 0393     		str	r3, [sp, #12]
 852:../Libraries/STM32F30x_StdPeriph_Driver/src/stm32f30x_adc.c ****   /* Check the parameters */
 853:../Libraries/STM32F30x_StdPeriph_Driver/src/stm32f30x_adc.c ****   assert_param(IS_ADC_ALL_PERIPH(ADCx));
 854:../Libraries/STM32F30x_StdPeriph_Driver/src/stm32f30x_adc.c ****   assert_param(IS_ADC_CHANNEL(ADC_Channel));
 855:../Libraries/STM32F30x_StdPeriph_Driver/src/stm32f30x_adc.c ****   /* Get the old register value */
 856:../Libraries/STM32F30x_StdPeriph_Driver/src/stm32f30x_adc.c ****   tmpreg = ADCx->AWD2CR;
 1251              		.loc 1 856 0
 1252 0618 019B     		ldr	r3, [sp, #4]
 1253 061a D3F8A030 		ldr	r3, [r3, #160]
 1254 061e 0393     		str	r3, [sp, #12]
 857:../Libraries/STM32F30x_StdPeriph_Driver/src/stm32f30x_adc.c ****   /* Clear the Analog watchdog channel select bits */
 858:../Libraries/STM32F30x_StdPeriph_Driver/src/stm32f30x_adc.c ****   tmpreg &= ~(uint32_t)ADC_AWD2CR_AWD2CH;
 1255              		.loc 1 858 0
 1256 0620 039A     		ldr	r2, [sp, #12]
 1257 0622 4FF00103 		mov	r3, #1
 1258 0626 CFF6F873 		movt	r3, 65528
 1259 062a 1340     		ands	r3, r3, r2
 1260 062c 0393     		str	r3, [sp, #12]
 859:../Libraries/STM32F30x_StdPeriph_Driver/src/stm32f30x_adc.c ****   /* Set the Analog watchdog channel */
 860:../Libraries/STM32F30x_StdPeriph_Driver/src/stm32f30x_adc.c ****   tmpreg |= (uint32_t)1 << (ADC_Channel);
 1261              		.loc 1 860 0
 1262 062e 9DF80330 		ldrb	r3, [sp, #3]	@ zero_extendqisi2
 1263 0632 4FF00102 		mov	r2, #1
 1264 0636 02FA03F3 		lsl	r3, r2, r3
 1265 063a 039A     		ldr	r2, [sp, #12]
 1266 063c 1343     		orrs	r3, r3, r2
 1267 063e 0393     		str	r3, [sp, #12]
 861:../Libraries/STM32F30x_StdPeriph_Driver/src/stm32f30x_adc.c ****   /* Store the new register value */
 862:../Libraries/STM32F30x_StdPeriph_Driver/src/stm32f30x_adc.c ****   ADCx->AWD2CR |= tmpreg;
 1268              		.loc 1 862 0
 1269 0640 019B     		ldr	r3, [sp, #4]
 1270 0642 D3F8A020 		ldr	r2, [r3, #160]
 1271 0646 039B     		ldr	r3, [sp, #12]
 1272 0648 1A43     		orrs	r2, r2, r3
 1273 064a 019B     		ldr	r3, [sp, #4]
 1274 064c C3F8A020 		str	r2, [r3, #160]
 863:../Libraries/STM32F30x_StdPeriph_Driver/src/stm32f30x_adc.c **** }
 1275              		.loc 1 863 0
 1276 0650 04B0     		add	sp, sp, #16
 1277 0652 7047     		bx	lr
 1278              		.cfi_endproc
 1279              	.LFE135:
 1281              		.align	2
 1282              		.global	ADC_AnalogWatchdog3SingleChannelConfig
 1283              		.thumb
 1284              		.thumb_func
 1286              	ADC_AnalogWatchdog3SingleChannelConfig:
 1287              	.LFB136:
 864:../Libraries/STM32F30x_StdPeriph_Driver/src/stm32f30x_adc.c **** 
 865:../Libraries/STM32F30x_StdPeriph_Driver/src/stm32f30x_adc.c **** /**
 866:../Libraries/STM32F30x_StdPeriph_Driver/src/stm32f30x_adc.c ****   * @brief  Configures the analog watchdog 3 guarded single channel
 867:../Libraries/STM32F30x_StdPeriph_Driver/src/stm32f30x_adc.c ****   * @param  ADCx: where x can be 1, 2, 3 or 4 to select the ADC peripheral.
 868:../Libraries/STM32F30x_StdPeriph_Driver/src/stm32f30x_adc.c ****   * @param  ADC_Channel: the ADC channel to configure for the analog watchdog. 
 869:../Libraries/STM32F30x_StdPeriph_Driver/src/stm32f30x_adc.c ****   *   This parameter can be one of the following values:
 870:../Libraries/STM32F30x_StdPeriph_Driver/src/stm32f30x_adc.c ****   *     @arg ADC_Channel_1: ADC Channel1 selected
 871:../Libraries/STM32F30x_StdPeriph_Driver/src/stm32f30x_adc.c ****   *     @arg ADC_Channel_2: ADC Channel2 selected
 872:../Libraries/STM32F30x_StdPeriph_Driver/src/stm32f30x_adc.c ****   *     @arg ADC_Channel_3: ADC Channel3 selected
 873:../Libraries/STM32F30x_StdPeriph_Driver/src/stm32f30x_adc.c ****   *     @arg ADC_Channel_4: ADC Channel4 selected
 874:../Libraries/STM32F30x_StdPeriph_Driver/src/stm32f30x_adc.c ****   *     @arg ADC_Channel_5: ADC Channel5 selected
 875:../Libraries/STM32F30x_StdPeriph_Driver/src/stm32f30x_adc.c ****   *     @arg ADC_Channel_6: ADC Channel6 selected
 876:../Libraries/STM32F30x_StdPeriph_Driver/src/stm32f30x_adc.c ****   *     @arg ADC_Channel_7: ADC Channel7 selected
 877:../Libraries/STM32F30x_StdPeriph_Driver/src/stm32f30x_adc.c ****   *     @arg ADC_Channel_8: ADC Channel8 selected
 878:../Libraries/STM32F30x_StdPeriph_Driver/src/stm32f30x_adc.c ****   *     @arg ADC_Channel_9: ADC Channel9 selected
 879:../Libraries/STM32F30x_StdPeriph_Driver/src/stm32f30x_adc.c ****   *     @arg ADC_Channel_10: ADC Channel10 selected
 880:../Libraries/STM32F30x_StdPeriph_Driver/src/stm32f30x_adc.c ****   *     @arg ADC_Channel_11: ADC Channel11 selected
 881:../Libraries/STM32F30x_StdPeriph_Driver/src/stm32f30x_adc.c ****   *     @arg ADC_Channel_12: ADC Channel12 selected
 882:../Libraries/STM32F30x_StdPeriph_Driver/src/stm32f30x_adc.c ****   *     @arg ADC_Channel_13: ADC Channel13 selected
 883:../Libraries/STM32F30x_StdPeriph_Driver/src/stm32f30x_adc.c ****   *     @arg ADC_Channel_14: ADC Channel14 selected
 884:../Libraries/STM32F30x_StdPeriph_Driver/src/stm32f30x_adc.c ****   *     @arg ADC_Channel_15: ADC Channel15 selected
 885:../Libraries/STM32F30x_StdPeriph_Driver/src/stm32f30x_adc.c ****   *     @arg ADC_Channel_16: ADC Channel16 selected
 886:../Libraries/STM32F30x_StdPeriph_Driver/src/stm32f30x_adc.c ****   *     @arg ADC_Channel_17: ADC Channel17 selected
 887:../Libraries/STM32F30x_StdPeriph_Driver/src/stm32f30x_adc.c ****   *     @arg ADC_Channel_18: ADC Channel18 selected
 888:../Libraries/STM32F30x_StdPeriph_Driver/src/stm32f30x_adc.c ****   * @retval None
 889:../Libraries/STM32F30x_StdPeriph_Driver/src/stm32f30x_adc.c ****   */
 890:../Libraries/STM32F30x_StdPeriph_Driver/src/stm32f30x_adc.c **** void ADC_AnalogWatchdog3SingleChannelConfig(ADC_TypeDef* ADCx, uint8_t ADC_Channel)
 891:../Libraries/STM32F30x_StdPeriph_Driver/src/stm32f30x_adc.c **** {
 1288              		.loc 1 891 0
 1289              		.cfi_startproc
 1290              		@ args = 0, pretend = 0, frame = 16
 1291              		@ frame_needed = 0, uses_anonymous_args = 0
 1292              		@ link register save eliminated.
 1293 0654 84B0     		sub	sp, sp, #16
 1294              	.LCFI26:
 1295              		.cfi_def_cfa_offset 16
 1296 0656 0190     		str	r0, [sp, #4]
 1297 0658 0B46     		mov	r3, r1
 1298 065a 8DF80330 		strb	r3, [sp, #3]
 892:../Libraries/STM32F30x_StdPeriph_Driver/src/stm32f30x_adc.c ****   uint32_t tmpreg = 0;
 1299              		.loc 1 892 0
 1300 065e 4FF00003 		mov	r3, #0
 1301 0662 0393     		str	r3, [sp, #12]
 893:../Libraries/STM32F30x_StdPeriph_Driver/src/stm32f30x_adc.c ****   /* Check the parameters */
 894:../Libraries/STM32F30x_StdPeriph_Driver/src/stm32f30x_adc.c ****   assert_param(IS_ADC_ALL_PERIPH(ADCx));
 895:../Libraries/STM32F30x_StdPeriph_Driver/src/stm32f30x_adc.c ****   assert_param(IS_ADC_CHANNEL(ADC_Channel));
 896:../Libraries/STM32F30x_StdPeriph_Driver/src/stm32f30x_adc.c ****   /* Get the old register value */
 897:../Libraries/STM32F30x_StdPeriph_Driver/src/stm32f30x_adc.c ****   tmpreg = ADCx->AWD3CR;
 1302              		.loc 1 897 0
 1303 0664 019B     		ldr	r3, [sp, #4]
 1304 0666 D3F8A430 		ldr	r3, [r3, #164]
 1305 066a 0393     		str	r3, [sp, #12]
 898:../Libraries/STM32F30x_StdPeriph_Driver/src/stm32f30x_adc.c ****   /* Clear the Analog watchdog channel select bits */
 899:../Libraries/STM32F30x_StdPeriph_Driver/src/stm32f30x_adc.c ****   tmpreg &= ~(uint32_t)ADC_AWD3CR_AWD3CH;
 1306              		.loc 1 899 0
 1307 066c 039A     		ldr	r2, [sp, #12]
 1308 066e 4FF00103 		mov	r3, #1
 1309 0672 CFF6F873 		movt	r3, 65528
 1310 0676 1340     		ands	r3, r3, r2
 1311 0678 0393     		str	r3, [sp, #12]
 900:../Libraries/STM32F30x_StdPeriph_Driver/src/stm32f30x_adc.c ****   /* Set the Analog watchdog channel */
 901:../Libraries/STM32F30x_StdPeriph_Driver/src/stm32f30x_adc.c ****   tmpreg |= (uint32_t)1 << (ADC_Channel);
 1312              		.loc 1 901 0
 1313 067a 9DF80330 		ldrb	r3, [sp, #3]	@ zero_extendqisi2
 1314 067e 4FF00102 		mov	r2, #1
 1315 0682 02FA03F3 		lsl	r3, r2, r3
 1316 0686 039A     		ldr	r2, [sp, #12]
 1317 0688 1343     		orrs	r3, r3, r2
 1318 068a 0393     		str	r3, [sp, #12]
 902:../Libraries/STM32F30x_StdPeriph_Driver/src/stm32f30x_adc.c ****   /* Store the new register value */
 903:../Libraries/STM32F30x_StdPeriph_Driver/src/stm32f30x_adc.c ****   ADCx->AWD3CR |= tmpreg;
 1319              		.loc 1 903 0
 1320 068c 019B     		ldr	r3, [sp, #4]
 1321 068e D3F8A420 		ldr	r2, [r3, #164]
 1322 0692 039B     		ldr	r3, [sp, #12]
 1323 0694 1A43     		orrs	r2, r2, r3
 1324 0696 019B     		ldr	r3, [sp, #4]
 1325 0698 C3F8A420 		str	r2, [r3, #164]
 904:../Libraries/STM32F30x_StdPeriph_Driver/src/stm32f30x_adc.c **** }
 1326              		.loc 1 904 0
 1327 069c 04B0     		add	sp, sp, #16
 1328 069e 7047     		bx	lr
 1329              		.cfi_endproc
 1330              	.LFE136:
 1332              		.align	2
 1333              		.global	ADC_TempSensorCmd
 1334              		.thumb
 1335              		.thumb_func
 1337              	ADC_TempSensorCmd:
 1338              	.LFB137:
 905:../Libraries/STM32F30x_StdPeriph_Driver/src/stm32f30x_adc.c **** 
 906:../Libraries/STM32F30x_StdPeriph_Driver/src/stm32f30x_adc.c **** /**
 907:../Libraries/STM32F30x_StdPeriph_Driver/src/stm32f30x_adc.c ****   * @}
 908:../Libraries/STM32F30x_StdPeriph_Driver/src/stm32f30x_adc.c ****   */
 909:../Libraries/STM32F30x_StdPeriph_Driver/src/stm32f30x_adc.c **** 
 910:../Libraries/STM32F30x_StdPeriph_Driver/src/stm32f30x_adc.c **** /** @defgroup ADC_Group3 Temperature Sensor - Vrefint (Internal Reference Voltage) and VBAT managem
 911:../Libraries/STM32F30x_StdPeriph_Driver/src/stm32f30x_adc.c ****  *  @brief   Vbat, Temperature Sensor & Vrefint (Internal Reference Voltage) management function 
 912:../Libraries/STM32F30x_StdPeriph_Driver/src/stm32f30x_adc.c ****  *
 913:../Libraries/STM32F30x_StdPeriph_Driver/src/stm32f30x_adc.c **** @verbatim   
 914:../Libraries/STM32F30x_StdPeriph_Driver/src/stm32f30x_adc.c ****  ==================================================================================================
 915:../Libraries/STM32F30x_StdPeriph_Driver/src/stm32f30x_adc.c ****   ##### Temperature Sensor - Vrefint (Internal Reference Voltage) and VBAT management functions ###
 916:../Libraries/STM32F30x_StdPeriph_Driver/src/stm32f30x_adc.c ****  ==================================================================================================
 917:../Libraries/STM32F30x_StdPeriph_Driver/src/stm32f30x_adc.c **** 
 918:../Libraries/STM32F30x_StdPeriph_Driver/src/stm32f30x_adc.c ****   [..] This section provides a function allowing to enable/ disable the internal 
 919:../Libraries/STM32F30x_StdPeriph_Driver/src/stm32f30x_adc.c ****   connections between the ADC and the Vbat/2, Temperature Sensor and the Vrefint source.
 920:../Libraries/STM32F30x_StdPeriph_Driver/src/stm32f30x_adc.c **** 
 921:../Libraries/STM32F30x_StdPeriph_Driver/src/stm32f30x_adc.c ****   [..] A typical configuration to get the Temperature sensor and Vrefint channels 
 922:../Libraries/STM32F30x_StdPeriph_Driver/src/stm32f30x_adc.c ****   voltages is done following these steps :
 923:../Libraries/STM32F30x_StdPeriph_Driver/src/stm32f30x_adc.c ****    (#) Enable the internal connection of Vbat/2, Temperature sensor and Vrefint sources 
 924:../Libraries/STM32F30x_StdPeriph_Driver/src/stm32f30x_adc.c ****        with the ADC channels using:
 925:../Libraries/STM32F30x_StdPeriph_Driver/src/stm32f30x_adc.c ****       (++) ADC_TempSensorCmd()  
 926:../Libraries/STM32F30x_StdPeriph_Driver/src/stm32f30x_adc.c ****       (++) ADC_VrefintCmd() 
 927:../Libraries/STM32F30x_StdPeriph_Driver/src/stm32f30x_adc.c ****       (++) ADC_VbatCmd()  
 928:../Libraries/STM32F30x_StdPeriph_Driver/src/stm32f30x_adc.c **** 
 929:../Libraries/STM32F30x_StdPeriph_Driver/src/stm32f30x_adc.c ****    (#) select the ADC_Channel_TempSensor and/or ADC_Channel_Vrefint and/or ADC_Channel_Vbat using 
 930:../Libraries/STM32F30x_StdPeriph_Driver/src/stm32f30x_adc.c ****       (++) ADC_RegularChannelConfig() or  
 931:../Libraries/STM32F30x_StdPeriph_Driver/src/stm32f30x_adc.c ****       (++) ADC_InjectedInit() functions 
 932:../Libraries/STM32F30x_StdPeriph_Driver/src/stm32f30x_adc.c **** 
 933:../Libraries/STM32F30x_StdPeriph_Driver/src/stm32f30x_adc.c ****    (#) Get the voltage values, using:
 934:../Libraries/STM32F30x_StdPeriph_Driver/src/stm32f30x_adc.c ****       (++) ADC_GetConversionValue() or  
 935:../Libraries/STM32F30x_StdPeriph_Driver/src/stm32f30x_adc.c ****       (++) ADC_GetInjectedConversionValue().
 936:../Libraries/STM32F30x_StdPeriph_Driver/src/stm32f30x_adc.c ****  
 937:../Libraries/STM32F30x_StdPeriph_Driver/src/stm32f30x_adc.c **** @endverbatim
 938:../Libraries/STM32F30x_StdPeriph_Driver/src/stm32f30x_adc.c ****   * @{
 939:../Libraries/STM32F30x_StdPeriph_Driver/src/stm32f30x_adc.c ****   */
 940:../Libraries/STM32F30x_StdPeriph_Driver/src/stm32f30x_adc.c **** 
 941:../Libraries/STM32F30x_StdPeriph_Driver/src/stm32f30x_adc.c **** /**
 942:../Libraries/STM32F30x_StdPeriph_Driver/src/stm32f30x_adc.c ****   * @brief  Enables or disables the temperature sensor channel.
 943:../Libraries/STM32F30x_StdPeriph_Driver/src/stm32f30x_adc.c ****   * @param  ADCx: where x can be 1 or 4 to select the ADC peripheral.
 944:../Libraries/STM32F30x_StdPeriph_Driver/src/stm32f30x_adc.c ****   * @param  NewState: new state of the temperature sensor.
 945:../Libraries/STM32F30x_StdPeriph_Driver/src/stm32f30x_adc.c ****   *   This parameter can be: ENABLE or DISABLE.
 946:../Libraries/STM32F30x_StdPeriph_Driver/src/stm32f30x_adc.c ****   * @retval None
 947:../Libraries/STM32F30x_StdPeriph_Driver/src/stm32f30x_adc.c ****   */
 948:../Libraries/STM32F30x_StdPeriph_Driver/src/stm32f30x_adc.c **** void ADC_TempSensorCmd(ADC_TypeDef* ADCx, FunctionalState NewState)
 949:../Libraries/STM32F30x_StdPeriph_Driver/src/stm32f30x_adc.c **** {
 1339              		.loc 1 949 0
 1340              		.cfi_startproc
 1341              		@ args = 0, pretend = 0, frame = 8
 1342              		@ frame_needed = 0, uses_anonymous_args = 0
 1343              		@ link register save eliminated.
 1344 06a0 82B0     		sub	sp, sp, #8
 1345              	.LCFI27:
 1346              		.cfi_def_cfa_offset 8
 1347 06a2 0190     		str	r0, [sp, #4]
 1348 06a4 0B46     		mov	r3, r1
 1349 06a6 8DF80330 		strb	r3, [sp, #3]
 950:../Libraries/STM32F30x_StdPeriph_Driver/src/stm32f30x_adc.c ****   /* Check the parameters */
 951:../Libraries/STM32F30x_StdPeriph_Driver/src/stm32f30x_adc.c ****   assert_param(IS_ADC_ALL_PERIPH(ADCx));
 952:../Libraries/STM32F30x_StdPeriph_Driver/src/stm32f30x_adc.c ****   assert_param(IS_FUNCTIONAL_STATE(NewState));
 953:../Libraries/STM32F30x_StdPeriph_Driver/src/stm32f30x_adc.c **** 
 954:../Libraries/STM32F30x_StdPeriph_Driver/src/stm32f30x_adc.c ****   if((ADCx == ADC1) || (ADCx == ADC2))
 1350              		.loc 1 954 0
 1351 06aa 019B     		ldr	r3, [sp, #4]
 1352 06ac B3F1A04F 		cmp	r3, #1342177280
 1353 06b0 06D0     		beq	.L52
 1354              		.loc 1 954 0 is_stmt 0 discriminator 1
 1355 06b2 019A     		ldr	r2, [sp, #4]
 1356 06b4 4FF48073 		mov	r3, #256
 1357 06b8 C5F20003 		movt	r3, 20480
 1358 06bc 9A42     		cmp	r2, r3
 1359 06be 1DD1     		bne	.L53
 1360              	.L52:
 955:../Libraries/STM32F30x_StdPeriph_Driver/src/stm32f30x_adc.c ****   {
 956:../Libraries/STM32F30x_StdPeriph_Driver/src/stm32f30x_adc.c ****     if (NewState != DISABLE)
 1361              		.loc 1 956 0 is_stmt 1
 1362 06c0 9DF80330 		ldrb	r3, [sp, #3]	@ zero_extendqisi2
 1363 06c4 002B     		cmp	r3, #0
 1364 06c6 0CD0     		beq	.L54
 957:../Libraries/STM32F30x_StdPeriph_Driver/src/stm32f30x_adc.c ****     {
 958:../Libraries/STM32F30x_StdPeriph_Driver/src/stm32f30x_adc.c ****       /* Enable the temperature sensor channel*/
 959:../Libraries/STM32F30x_StdPeriph_Driver/src/stm32f30x_adc.c ****       ADC1_2->CCR |= ADC12_CCR_TSEN;
 1365              		.loc 1 959 0
 1366 06c8 4FF44073 		mov	r3, #768
 1367 06cc C5F20003 		movt	r3, 20480
 1368 06d0 4FF44072 		mov	r2, #768
 1369 06d4 C5F20002 		movt	r2, 20480
 1370 06d8 9268     		ldr	r2, [r2, #8]
 1371 06da 42F40002 		orr	r2, r2, #8388608
 1372 06de 9A60     		str	r2, [r3, #8]
 956:../Libraries/STM32F30x_StdPeriph_Driver/src/stm32f30x_adc.c ****     if (NewState != DISABLE)
 1373              		.loc 1 956 0
 1374 06e0 29E0     		b	.L51
 1375              	.L54:
 960:../Libraries/STM32F30x_StdPeriph_Driver/src/stm32f30x_adc.c ****     }
 961:../Libraries/STM32F30x_StdPeriph_Driver/src/stm32f30x_adc.c ****     else
 962:../Libraries/STM32F30x_StdPeriph_Driver/src/stm32f30x_adc.c ****     {
 963:../Libraries/STM32F30x_StdPeriph_Driver/src/stm32f30x_adc.c ****       /* Disable the temperature sensor channel*/
 964:../Libraries/STM32F30x_StdPeriph_Driver/src/stm32f30x_adc.c ****       ADC1_2->CCR &= ~(uint32_t)ADC12_CCR_TSEN;
 1376              		.loc 1 964 0
 1377 06e2 4FF44073 		mov	r3, #768
 1378 06e6 C5F20003 		movt	r3, 20480
 1379 06ea 4FF44072 		mov	r2, #768
 1380 06ee C5F20002 		movt	r2, 20480
 1381 06f2 9268     		ldr	r2, [r2, #8]
 1382 06f4 22F40002 		bic	r2, r2, #8388608
 1383 06f8 9A60     		str	r2, [r3, #8]
 956:../Libraries/STM32F30x_StdPeriph_Driver/src/stm32f30x_adc.c ****     if (NewState != DISABLE)
 1384              		.loc 1 956 0
 1385 06fa 1CE0     		b	.L51
 1386              	.L53:
 965:../Libraries/STM32F30x_StdPeriph_Driver/src/stm32f30x_adc.c ****     }
 966:../Libraries/STM32F30x_StdPeriph_Driver/src/stm32f30x_adc.c ****   }
 967:../Libraries/STM32F30x_StdPeriph_Driver/src/stm32f30x_adc.c ****   else
 968:../Libraries/STM32F30x_StdPeriph_Driver/src/stm32f30x_adc.c ****   {
 969:../Libraries/STM32F30x_StdPeriph_Driver/src/stm32f30x_adc.c ****     if (NewState != DISABLE)
 1387              		.loc 1 969 0
 1388 06fc 9DF80330 		ldrb	r3, [sp, #3]	@ zero_extendqisi2
 1389 0700 002B     		cmp	r3, #0
 1390 0702 0CD0     		beq	.L57
 970:../Libraries/STM32F30x_StdPeriph_Driver/src/stm32f30x_adc.c ****     {
 971:../Libraries/STM32F30x_StdPeriph_Driver/src/stm32f30x_adc.c ****       /* Enable the temperature sensor channel*/
 972:../Libraries/STM32F30x_StdPeriph_Driver/src/stm32f30x_adc.c ****       ADC3_4->CCR |= ADC34_CCR_TSEN;
 1391              		.loc 1 972 0
 1392 0704 4FF4E063 		mov	r3, #1792
 1393 0708 C5F20003 		movt	r3, 20480
 1394 070c 4FF4E062 		mov	r2, #1792
 1395 0710 C5F20002 		movt	r2, 20480
 1396 0714 9268     		ldr	r2, [r2, #8]
 1397 0716 42F40002 		orr	r2, r2, #8388608
 1398 071a 9A60     		str	r2, [r3, #8]
 1399 071c 0BE0     		b	.L51
 1400              	.L57:
 973:../Libraries/STM32F30x_StdPeriph_Driver/src/stm32f30x_adc.c ****     }
 974:../Libraries/STM32F30x_StdPeriph_Driver/src/stm32f30x_adc.c ****     else
 975:../Libraries/STM32F30x_StdPeriph_Driver/src/stm32f30x_adc.c ****     {
 976:../Libraries/STM32F30x_StdPeriph_Driver/src/stm32f30x_adc.c ****       /* Disable the temperature sensor channel*/
 977:../Libraries/STM32F30x_StdPeriph_Driver/src/stm32f30x_adc.c ****       ADC3_4->CCR &= ~(uint32_t)ADC34_CCR_TSEN;
 1401              		.loc 1 977 0
 1402 071e 4FF4E063 		mov	r3, #1792
 1403 0722 C5F20003 		movt	r3, 20480
 1404 0726 4FF4E062 		mov	r2, #1792
 1405 072a C5F20002 		movt	r2, 20480
 1406 072e 9268     		ldr	r2, [r2, #8]
 1407 0730 22F40002 		bic	r2, r2, #8388608
 1408 0734 9A60     		str	r2, [r3, #8]
 1409              	.L51:
 978:../Libraries/STM32F30x_StdPeriph_Driver/src/stm32f30x_adc.c ****     }
 979:../Libraries/STM32F30x_StdPeriph_Driver/src/stm32f30x_adc.c ****   }
 980:../Libraries/STM32F30x_StdPeriph_Driver/src/stm32f30x_adc.c **** }
 1410              		.loc 1 980 0
 1411 0736 02B0     		add	sp, sp, #8
 1412 0738 7047     		bx	lr
 1413              		.cfi_endproc
 1414              	.LFE137:
 1416 073a 00BF     		.align	2
 1417              		.global	ADC_VrefintCmd
 1418              		.thumb
 1419              		.thumb_func
 1421              	ADC_VrefintCmd:
 1422              	.LFB138:
 981:../Libraries/STM32F30x_StdPeriph_Driver/src/stm32f30x_adc.c **** 
 982:../Libraries/STM32F30x_StdPeriph_Driver/src/stm32f30x_adc.c **** /**
 983:../Libraries/STM32F30x_StdPeriph_Driver/src/stm32f30x_adc.c ****   * @brief  Enables or disables the Vrefint channel.
 984:../Libraries/STM32F30x_StdPeriph_Driver/src/stm32f30x_adc.c ****   * @param  ADCx: where x can be 1 or 4 to select the ADC peripheral.
 985:../Libraries/STM32F30x_StdPeriph_Driver/src/stm32f30x_adc.c ****   * @param  NewState: new state of the Vrefint.
 986:../Libraries/STM32F30x_StdPeriph_Driver/src/stm32f30x_adc.c ****   *   This parameter can be: ENABLE or DISABLE.
 987:../Libraries/STM32F30x_StdPeriph_Driver/src/stm32f30x_adc.c ****   * @retval None
 988:../Libraries/STM32F30x_StdPeriph_Driver/src/stm32f30x_adc.c ****   */
 989:../Libraries/STM32F30x_StdPeriph_Driver/src/stm32f30x_adc.c **** void ADC_VrefintCmd(ADC_TypeDef* ADCx, FunctionalState NewState)
 990:../Libraries/STM32F30x_StdPeriph_Driver/src/stm32f30x_adc.c **** {
 1423              		.loc 1 990 0
 1424              		.cfi_startproc
 1425              		@ args = 0, pretend = 0, frame = 8
 1426              		@ frame_needed = 0, uses_anonymous_args = 0
 1427              		@ link register save eliminated.
 1428 073c 82B0     		sub	sp, sp, #8
 1429              	.LCFI28:
 1430              		.cfi_def_cfa_offset 8
 1431 073e 0190     		str	r0, [sp, #4]
 1432 0740 0B46     		mov	r3, r1
 1433 0742 8DF80330 		strb	r3, [sp, #3]
 991:../Libraries/STM32F30x_StdPeriph_Driver/src/stm32f30x_adc.c ****   /* Check the parameters */
 992:../Libraries/STM32F30x_StdPeriph_Driver/src/stm32f30x_adc.c ****   assert_param(IS_ADC_ALL_PERIPH(ADCx));
 993:../Libraries/STM32F30x_StdPeriph_Driver/src/stm32f30x_adc.c ****   assert_param(IS_FUNCTIONAL_STATE(NewState));
 994:../Libraries/STM32F30x_StdPeriph_Driver/src/stm32f30x_adc.c **** 
 995:../Libraries/STM32F30x_StdPeriph_Driver/src/stm32f30x_adc.c ****   if((ADCx == ADC1) || (ADCx == ADC2))
 1434              		.loc 1 995 0
 1435 0746 019B     		ldr	r3, [sp, #4]
 1436 0748 B3F1A04F 		cmp	r3, #1342177280
 1437 074c 06D0     		beq	.L59
 1438              		.loc 1 995 0 is_stmt 0 discriminator 1
 1439 074e 019A     		ldr	r2, [sp, #4]
 1440 0750 4FF48073 		mov	r3, #256
 1441 0754 C5F20003 		movt	r3, 20480
 1442 0758 9A42     		cmp	r2, r3
 1443 075a 1DD1     		bne	.L60
 1444              	.L59:
 996:../Libraries/STM32F30x_StdPeriph_Driver/src/stm32f30x_adc.c ****   {
 997:../Libraries/STM32F30x_StdPeriph_Driver/src/stm32f30x_adc.c ****     if (NewState != DISABLE)
 1445              		.loc 1 997 0 is_stmt 1
 1446 075c 9DF80330 		ldrb	r3, [sp, #3]	@ zero_extendqisi2
 1447 0760 002B     		cmp	r3, #0
 1448 0762 0CD0     		beq	.L61
 998:../Libraries/STM32F30x_StdPeriph_Driver/src/stm32f30x_adc.c ****     {
 999:../Libraries/STM32F30x_StdPeriph_Driver/src/stm32f30x_adc.c ****       /* Enable the Vrefint channel*/
1000:../Libraries/STM32F30x_StdPeriph_Driver/src/stm32f30x_adc.c ****       ADC1_2->CCR |= ADC12_CCR_VREFEN;
 1449              		.loc 1 1000 0
 1450 0764 4FF44073 		mov	r3, #768
 1451 0768 C5F20003 		movt	r3, 20480
 1452 076c 4FF44072 		mov	r2, #768
 1453 0770 C5F20002 		movt	r2, 20480
 1454 0774 9268     		ldr	r2, [r2, #8]
 1455 0776 42F48002 		orr	r2, r2, #4194304
 1456 077a 9A60     		str	r2, [r3, #8]
 997:../Libraries/STM32F30x_StdPeriph_Driver/src/stm32f30x_adc.c ****     if (NewState != DISABLE)
 1457              		.loc 1 997 0
 1458 077c 29E0     		b	.L58
 1459              	.L61:
1001:../Libraries/STM32F30x_StdPeriph_Driver/src/stm32f30x_adc.c ****     }
1002:../Libraries/STM32F30x_StdPeriph_Driver/src/stm32f30x_adc.c ****     else
1003:../Libraries/STM32F30x_StdPeriph_Driver/src/stm32f30x_adc.c ****     {
1004:../Libraries/STM32F30x_StdPeriph_Driver/src/stm32f30x_adc.c ****       /* Disable the Vrefint channel*/
1005:../Libraries/STM32F30x_StdPeriph_Driver/src/stm32f30x_adc.c ****       ADC1_2->CCR &= ~(uint32_t)ADC12_CCR_VREFEN;
 1460              		.loc 1 1005 0
 1461 077e 4FF44073 		mov	r3, #768
 1462 0782 C5F20003 		movt	r3, 20480
 1463 0786 4FF44072 		mov	r2, #768
 1464 078a C5F20002 		movt	r2, 20480
 1465 078e 9268     		ldr	r2, [r2, #8]
 1466 0790 22F48002 		bic	r2, r2, #4194304
 1467 0794 9A60     		str	r2, [r3, #8]
 997:../Libraries/STM32F30x_StdPeriph_Driver/src/stm32f30x_adc.c ****     if (NewState != DISABLE)
 1468              		.loc 1 997 0
 1469 0796 1CE0     		b	.L58
 1470              	.L60:
1006:../Libraries/STM32F30x_StdPeriph_Driver/src/stm32f30x_adc.c ****     }
1007:../Libraries/STM32F30x_StdPeriph_Driver/src/stm32f30x_adc.c ****   }
1008:../Libraries/STM32F30x_StdPeriph_Driver/src/stm32f30x_adc.c ****   else
1009:../Libraries/STM32F30x_StdPeriph_Driver/src/stm32f30x_adc.c ****   {
1010:../Libraries/STM32F30x_StdPeriph_Driver/src/stm32f30x_adc.c ****     if (NewState != DISABLE)
 1471              		.loc 1 1010 0
 1472 0798 9DF80330 		ldrb	r3, [sp, #3]	@ zero_extendqisi2
 1473 079c 002B     		cmp	r3, #0
 1474 079e 0CD0     		beq	.L64
1011:../Libraries/STM32F30x_StdPeriph_Driver/src/stm32f30x_adc.c ****     {
1012:../Libraries/STM32F30x_StdPeriph_Driver/src/stm32f30x_adc.c ****       /* Enable the Vrefint channel*/
1013:../Libraries/STM32F30x_StdPeriph_Driver/src/stm32f30x_adc.c ****       ADC3_4->CCR |= ADC34_CCR_VREFEN;
 1475              		.loc 1 1013 0
 1476 07a0 4FF4E063 		mov	r3, #1792
 1477 07a4 C5F20003 		movt	r3, 20480
 1478 07a8 4FF4E062 		mov	r2, #1792
 1479 07ac C5F20002 		movt	r2, 20480
 1480 07b0 9268     		ldr	r2, [r2, #8]
 1481 07b2 42F48002 		orr	r2, r2, #4194304
 1482 07b6 9A60     		str	r2, [r3, #8]
 1483 07b8 0BE0     		b	.L58
 1484              	.L64:
1014:../Libraries/STM32F30x_StdPeriph_Driver/src/stm32f30x_adc.c ****     }
1015:../Libraries/STM32F30x_StdPeriph_Driver/src/stm32f30x_adc.c ****     else
1016:../Libraries/STM32F30x_StdPeriph_Driver/src/stm32f30x_adc.c ****     {
1017:../Libraries/STM32F30x_StdPeriph_Driver/src/stm32f30x_adc.c ****       /* Disable the Vrefint channel*/
1018:../Libraries/STM32F30x_StdPeriph_Driver/src/stm32f30x_adc.c ****       ADC3_4->CCR &= ~(uint32_t)ADC34_CCR_VREFEN;
 1485              		.loc 1 1018 0
 1486 07ba 4FF4E063 		mov	r3, #1792
 1487 07be C5F20003 		movt	r3, 20480
 1488 07c2 4FF4E062 		mov	r2, #1792
 1489 07c6 C5F20002 		movt	r2, 20480
 1490 07ca 9268     		ldr	r2, [r2, #8]
 1491 07cc 22F48002 		bic	r2, r2, #4194304
 1492 07d0 9A60     		str	r2, [r3, #8]
 1493              	.L58:
1019:../Libraries/STM32F30x_StdPeriph_Driver/src/stm32f30x_adc.c ****     }
1020:../Libraries/STM32F30x_StdPeriph_Driver/src/stm32f30x_adc.c ****   }
1021:../Libraries/STM32F30x_StdPeriph_Driver/src/stm32f30x_adc.c **** }
 1494              		.loc 1 1021 0
 1495 07d2 02B0     		add	sp, sp, #8
 1496 07d4 7047     		bx	lr
 1497              		.cfi_endproc
 1498              	.LFE138:
 1500 07d6 00BF     		.align	2
 1501              		.global	ADC_VbatCmd
 1502              		.thumb
 1503              		.thumb_func
 1505              	ADC_VbatCmd:
 1506              	.LFB139:
1022:../Libraries/STM32F30x_StdPeriph_Driver/src/stm32f30x_adc.c **** 
1023:../Libraries/STM32F30x_StdPeriph_Driver/src/stm32f30x_adc.c **** /**
1024:../Libraries/STM32F30x_StdPeriph_Driver/src/stm32f30x_adc.c ****   * @brief  Enables or disables the Vbat channel.
1025:../Libraries/STM32F30x_StdPeriph_Driver/src/stm32f30x_adc.c ****   * @param  ADCx: where x can be 1 or 4 to select the ADC peripheral.
1026:../Libraries/STM32F30x_StdPeriph_Driver/src/stm32f30x_adc.c ****   * @param  NewState: new state of the Vbat.
1027:../Libraries/STM32F30x_StdPeriph_Driver/src/stm32f30x_adc.c ****   *   This parameter can be: ENABLE or DISABLE.
1028:../Libraries/STM32F30x_StdPeriph_Driver/src/stm32f30x_adc.c ****   * @retval None
1029:../Libraries/STM32F30x_StdPeriph_Driver/src/stm32f30x_adc.c ****   */
1030:../Libraries/STM32F30x_StdPeriph_Driver/src/stm32f30x_adc.c **** void ADC_VbatCmd(ADC_TypeDef* ADCx, FunctionalState NewState)
1031:../Libraries/STM32F30x_StdPeriph_Driver/src/stm32f30x_adc.c **** {
 1507              		.loc 1 1031 0
 1508              		.cfi_startproc
 1509              		@ args = 0, pretend = 0, frame = 8
 1510              		@ frame_needed = 0, uses_anonymous_args = 0
 1511              		@ link register save eliminated.
 1512 07d8 82B0     		sub	sp, sp, #8
 1513              	.LCFI29:
 1514              		.cfi_def_cfa_offset 8
 1515 07da 0190     		str	r0, [sp, #4]
 1516 07dc 0B46     		mov	r3, r1
 1517 07de 8DF80330 		strb	r3, [sp, #3]
1032:../Libraries/STM32F30x_StdPeriph_Driver/src/stm32f30x_adc.c ****   /* Check the parameters */
1033:../Libraries/STM32F30x_StdPeriph_Driver/src/stm32f30x_adc.c ****   assert_param(IS_ADC_ALL_PERIPH(ADCx));
1034:../Libraries/STM32F30x_StdPeriph_Driver/src/stm32f30x_adc.c ****   assert_param(IS_FUNCTIONAL_STATE(NewState));
1035:../Libraries/STM32F30x_StdPeriph_Driver/src/stm32f30x_adc.c **** 
1036:../Libraries/STM32F30x_StdPeriph_Driver/src/stm32f30x_adc.c ****   if((ADCx == ADC1) || (ADCx == ADC2))
 1518              		.loc 1 1036 0
 1519 07e2 019B     		ldr	r3, [sp, #4]
 1520 07e4 B3F1A04F 		cmp	r3, #1342177280
 1521 07e8 06D0     		beq	.L66
 1522              		.loc 1 1036 0 is_stmt 0 discriminator 1
 1523 07ea 019A     		ldr	r2, [sp, #4]
 1524 07ec 4FF48073 		mov	r3, #256
 1525 07f0 C5F20003 		movt	r3, 20480
 1526 07f4 9A42     		cmp	r2, r3
 1527 07f6 1DD1     		bne	.L67
 1528              	.L66:
1037:../Libraries/STM32F30x_StdPeriph_Driver/src/stm32f30x_adc.c ****   {
1038:../Libraries/STM32F30x_StdPeriph_Driver/src/stm32f30x_adc.c ****     if (NewState != DISABLE)
 1529              		.loc 1 1038 0 is_stmt 1
 1530 07f8 9DF80330 		ldrb	r3, [sp, #3]	@ zero_extendqisi2
 1531 07fc 002B     		cmp	r3, #0
 1532 07fe 0CD0     		beq	.L68
1039:../Libraries/STM32F30x_StdPeriph_Driver/src/stm32f30x_adc.c ****     {
1040:../Libraries/STM32F30x_StdPeriph_Driver/src/stm32f30x_adc.c ****       /* Enable the Vbat channel*/
1041:../Libraries/STM32F30x_StdPeriph_Driver/src/stm32f30x_adc.c ****       ADC1_2->CCR |= ADC12_CCR_VBATEN;
 1533              		.loc 1 1041 0
 1534 0800 4FF44073 		mov	r3, #768
 1535 0804 C5F20003 		movt	r3, 20480
 1536 0808 4FF44072 		mov	r2, #768
 1537 080c C5F20002 		movt	r2, 20480
 1538 0810 9268     		ldr	r2, [r2, #8]
 1539 0812 42F08072 		orr	r2, r2, #16777216
 1540 0816 9A60     		str	r2, [r3, #8]
1038:../Libraries/STM32F30x_StdPeriph_Driver/src/stm32f30x_adc.c ****     if (NewState != DISABLE)
 1541              		.loc 1 1038 0
 1542 0818 29E0     		b	.L65
 1543              	.L68:
1042:../Libraries/STM32F30x_StdPeriph_Driver/src/stm32f30x_adc.c ****     }
1043:../Libraries/STM32F30x_StdPeriph_Driver/src/stm32f30x_adc.c ****     else
1044:../Libraries/STM32F30x_StdPeriph_Driver/src/stm32f30x_adc.c ****     {
1045:../Libraries/STM32F30x_StdPeriph_Driver/src/stm32f30x_adc.c ****       /* Disable the Vbat channel*/
1046:../Libraries/STM32F30x_StdPeriph_Driver/src/stm32f30x_adc.c ****       ADC1_2->CCR &= ~(uint32_t)ADC12_CCR_VBATEN;
 1544              		.loc 1 1046 0
 1545 081a 4FF44073 		mov	r3, #768
 1546 081e C5F20003 		movt	r3, 20480
 1547 0822 4FF44072 		mov	r2, #768
 1548 0826 C5F20002 		movt	r2, 20480
 1549 082a 9268     		ldr	r2, [r2, #8]
 1550 082c 22F08072 		bic	r2, r2, #16777216
 1551 0830 9A60     		str	r2, [r3, #8]
1038:../Libraries/STM32F30x_StdPeriph_Driver/src/stm32f30x_adc.c ****     if (NewState != DISABLE)
 1552              		.loc 1 1038 0
 1553 0832 1CE0     		b	.L65
 1554              	.L67:
1047:../Libraries/STM32F30x_StdPeriph_Driver/src/stm32f30x_adc.c ****     }
1048:../Libraries/STM32F30x_StdPeriph_Driver/src/stm32f30x_adc.c ****   }
1049:../Libraries/STM32F30x_StdPeriph_Driver/src/stm32f30x_adc.c ****   else
1050:../Libraries/STM32F30x_StdPeriph_Driver/src/stm32f30x_adc.c ****   {
1051:../Libraries/STM32F30x_StdPeriph_Driver/src/stm32f30x_adc.c ****     if (NewState != DISABLE)
 1555              		.loc 1 1051 0
 1556 0834 9DF80330 		ldrb	r3, [sp, #3]	@ zero_extendqisi2
 1557 0838 002B     		cmp	r3, #0
 1558 083a 0CD0     		beq	.L71
1052:../Libraries/STM32F30x_StdPeriph_Driver/src/stm32f30x_adc.c ****     {
1053:../Libraries/STM32F30x_StdPeriph_Driver/src/stm32f30x_adc.c ****       /* Enable the Vbat channel*/
1054:../Libraries/STM32F30x_StdPeriph_Driver/src/stm32f30x_adc.c ****       ADC3_4->CCR |= ADC34_CCR_VBATEN;
 1559              		.loc 1 1054 0
 1560 083c 4FF4E063 		mov	r3, #1792
 1561 0840 C5F20003 		movt	r3, 20480
 1562 0844 4FF4E062 		mov	r2, #1792
 1563 0848 C5F20002 		movt	r2, 20480
 1564 084c 9268     		ldr	r2, [r2, #8]
 1565 084e 42F08072 		orr	r2, r2, #16777216
 1566 0852 9A60     		str	r2, [r3, #8]
 1567 0854 0BE0     		b	.L65
 1568              	.L71:
1055:../Libraries/STM32F30x_StdPeriph_Driver/src/stm32f30x_adc.c ****     }
1056:../Libraries/STM32F30x_StdPeriph_Driver/src/stm32f30x_adc.c ****     else
1057:../Libraries/STM32F30x_StdPeriph_Driver/src/stm32f30x_adc.c ****     {
1058:../Libraries/STM32F30x_StdPeriph_Driver/src/stm32f30x_adc.c ****       /* Disable the Vbat channel*/
1059:../Libraries/STM32F30x_StdPeriph_Driver/src/stm32f30x_adc.c ****       ADC3_4->CCR &= ~(uint32_t)ADC34_CCR_VBATEN;
 1569              		.loc 1 1059 0
 1570 0856 4FF4E063 		mov	r3, #1792
 1571 085a C5F20003 		movt	r3, 20480
 1572 085e 4FF4E062 		mov	r2, #1792
 1573 0862 C5F20002 		movt	r2, 20480
 1574 0866 9268     		ldr	r2, [r2, #8]
 1575 0868 22F08072 		bic	r2, r2, #16777216
 1576 086c 9A60     		str	r2, [r3, #8]
 1577              	.L65:
1060:../Libraries/STM32F30x_StdPeriph_Driver/src/stm32f30x_adc.c ****     }
1061:../Libraries/STM32F30x_StdPeriph_Driver/src/stm32f30x_adc.c ****   }
1062:../Libraries/STM32F30x_StdPeriph_Driver/src/stm32f30x_adc.c **** }
 1578              		.loc 1 1062 0
 1579 086e 02B0     		add	sp, sp, #8
 1580 0870 7047     		bx	lr
 1581              		.cfi_endproc
 1582              	.LFE139:
 1584 0872 00BF     		.align	2
 1585              		.global	ADC_RegularChannelConfig
 1586              		.thumb
 1587              		.thumb_func
 1589              	ADC_RegularChannelConfig:
 1590              	.LFB140:
1063:../Libraries/STM32F30x_StdPeriph_Driver/src/stm32f30x_adc.c **** 
1064:../Libraries/STM32F30x_StdPeriph_Driver/src/stm32f30x_adc.c **** /**
1065:../Libraries/STM32F30x_StdPeriph_Driver/src/stm32f30x_adc.c ****   * @}
1066:../Libraries/STM32F30x_StdPeriph_Driver/src/stm32f30x_adc.c ****   */
1067:../Libraries/STM32F30x_StdPeriph_Driver/src/stm32f30x_adc.c **** 
1068:../Libraries/STM32F30x_StdPeriph_Driver/src/stm32f30x_adc.c **** /** @defgroup ADC_Group4 Regular Channels Configuration functions
1069:../Libraries/STM32F30x_StdPeriph_Driver/src/stm32f30x_adc.c ****  *  @brief   Regular Channels Configuration functions 
1070:../Libraries/STM32F30x_StdPeriph_Driver/src/stm32f30x_adc.c ****  *
1071:../Libraries/STM32F30x_StdPeriph_Driver/src/stm32f30x_adc.c **** @verbatim   
1072:../Libraries/STM32F30x_StdPeriph_Driver/src/stm32f30x_adc.c ****  ===============================================================================
1073:../Libraries/STM32F30x_StdPeriph_Driver/src/stm32f30x_adc.c ****                   ##### Channels Configuration functions #####
1074:../Libraries/STM32F30x_StdPeriph_Driver/src/stm32f30x_adc.c ****  ===============================================================================  
1075:../Libraries/STM32F30x_StdPeriph_Driver/src/stm32f30x_adc.c **** 
1076:../Libraries/STM32F30x_StdPeriph_Driver/src/stm32f30x_adc.c ****   [..] This section provides functions allowing to manage the ADC regular channels.
1077:../Libraries/STM32F30x_StdPeriph_Driver/src/stm32f30x_adc.c ****    
1078:../Libraries/STM32F30x_StdPeriph_Driver/src/stm32f30x_adc.c ****   [..] To configure a regular sequence of channels use:
1079:../Libraries/STM32F30x_StdPeriph_Driver/src/stm32f30x_adc.c ****    (#) ADC_RegularChannelConfig()
1080:../Libraries/STM32F30x_StdPeriph_Driver/src/stm32f30x_adc.c ****        this fuction allows:
1081:../Libraries/STM32F30x_StdPeriph_Driver/src/stm32f30x_adc.c ****        (++) Configure the rank in the regular group sequencer for each channel
1082:../Libraries/STM32F30x_StdPeriph_Driver/src/stm32f30x_adc.c ****        (++) Configure the sampling time for each channel
1083:../Libraries/STM32F30x_StdPeriph_Driver/src/stm32f30x_adc.c **** 
1084:../Libraries/STM32F30x_StdPeriph_Driver/src/stm32f30x_adc.c ****    (#) ADC_RegularChannelSequencerLengthConfig() to set the length of the regular sequencer
1085:../Libraries/STM32F30x_StdPeriph_Driver/src/stm32f30x_adc.c **** 
1086:../Libraries/STM32F30x_StdPeriph_Driver/src/stm32f30x_adc.c ****    [..] The regular trigger is configured using the following functions:
1087:../Libraries/STM32F30x_StdPeriph_Driver/src/stm32f30x_adc.c ****    (#) ADC_SelectExternalTrigger()
1088:../Libraries/STM32F30x_StdPeriph_Driver/src/stm32f30x_adc.c ****    (#) ADC_ExternalTriggerPolarityConfig()
1089:../Libraries/STM32F30x_StdPeriph_Driver/src/stm32f30x_adc.c **** 
1090:../Libraries/STM32F30x_StdPeriph_Driver/src/stm32f30x_adc.c ****    [..] The start and the stop conversion are controlled by:
1091:../Libraries/STM32F30x_StdPeriph_Driver/src/stm32f30x_adc.c ****    (#) ADC_StartConversion()
1092:../Libraries/STM32F30x_StdPeriph_Driver/src/stm32f30x_adc.c ****    (#) ADC_StopConversion()
1093:../Libraries/STM32F30x_StdPeriph_Driver/src/stm32f30x_adc.c ****     
1094:../Libraries/STM32F30x_StdPeriph_Driver/src/stm32f30x_adc.c ****    [..] 
1095:../Libraries/STM32F30x_StdPeriph_Driver/src/stm32f30x_adc.c ****    (@)Please Note that the following features for regular channels are configurated
1096:../Libraries/STM32F30x_StdPeriph_Driver/src/stm32f30x_adc.c ****      using the ADC_Init() function : 
1097:../Libraries/STM32F30x_StdPeriph_Driver/src/stm32f30x_adc.c ****           (++) continuous mode activation
1098:../Libraries/STM32F30x_StdPeriph_Driver/src/stm32f30x_adc.c ****           (++) Resolution  
1099:../Libraries/STM32F30x_StdPeriph_Driver/src/stm32f30x_adc.c ****           (++) Data Alignement 
1100:../Libraries/STM32F30x_StdPeriph_Driver/src/stm32f30x_adc.c ****           (++) Overrun Mode.
1101:../Libraries/STM32F30x_StdPeriph_Driver/src/stm32f30x_adc.c ****      
1102:../Libraries/STM32F30x_StdPeriph_Driver/src/stm32f30x_adc.c ****   [..] Get the conversion data: This subsection provides an important function in 
1103:../Libraries/STM32F30x_StdPeriph_Driver/src/stm32f30x_adc.c ****      the ADC peripheral since it returns the converted data of the current 
1104:../Libraries/STM32F30x_StdPeriph_Driver/src/stm32f30x_adc.c ****      regular channel. When the Conversion value is read, the EOC Flag is 
1105:../Libraries/STM32F30x_StdPeriph_Driver/src/stm32f30x_adc.c ****      automatically cleared.
1106:../Libraries/STM32F30x_StdPeriph_Driver/src/stm32f30x_adc.c **** 
1107:../Libraries/STM32F30x_StdPeriph_Driver/src/stm32f30x_adc.c ****   [..] To configure the  discontinous mode, the following functions should be used:
1108:../Libraries/STM32F30x_StdPeriph_Driver/src/stm32f30x_adc.c ****    (#) ADC_DiscModeChannelCountConfig() to configure the number of discontinuous channel to be conv
1109:../Libraries/STM32F30x_StdPeriph_Driver/src/stm32f30x_adc.c ****    (#) ADC_DiscModeCmd() to enable the discontinuous mode.
1110:../Libraries/STM32F30x_StdPeriph_Driver/src/stm32f30x_adc.c **** 
1111:../Libraries/STM32F30x_StdPeriph_Driver/src/stm32f30x_adc.c ****   [..] To configure and enable/disable the Channel offset use the functions:
1112:../Libraries/STM32F30x_StdPeriph_Driver/src/stm32f30x_adc.c ****      (++) ADC_SetChannelOffset1()
1113:../Libraries/STM32F30x_StdPeriph_Driver/src/stm32f30x_adc.c ****      (++) ADC_SetChannelOffset2()
1114:../Libraries/STM32F30x_StdPeriph_Driver/src/stm32f30x_adc.c ****      (++) ADC_SetChannelOffset3()
1115:../Libraries/STM32F30x_StdPeriph_Driver/src/stm32f30x_adc.c ****      (++) ADC_SetChannelOffset4()
1116:../Libraries/STM32F30x_StdPeriph_Driver/src/stm32f30x_adc.c ****      (++) ADC_ChannelOffset1Cmd()
1117:../Libraries/STM32F30x_StdPeriph_Driver/src/stm32f30x_adc.c ****      (++) ADC_ChannelOffset2Cmd()
1118:../Libraries/STM32F30x_StdPeriph_Driver/src/stm32f30x_adc.c ****      (++) ADC_ChannelOffset3Cmd()
1119:../Libraries/STM32F30x_StdPeriph_Driver/src/stm32f30x_adc.c ****      (++) ADC_ChannelOffset4Cmd()
1120:../Libraries/STM32F30x_StdPeriph_Driver/src/stm32f30x_adc.c ****   
1121:../Libraries/STM32F30x_StdPeriph_Driver/src/stm32f30x_adc.c **** @endverbatim
1122:../Libraries/STM32F30x_StdPeriph_Driver/src/stm32f30x_adc.c ****   * @{
1123:../Libraries/STM32F30x_StdPeriph_Driver/src/stm32f30x_adc.c ****   */
1124:../Libraries/STM32F30x_StdPeriph_Driver/src/stm32f30x_adc.c **** 
1125:../Libraries/STM32F30x_StdPeriph_Driver/src/stm32f30x_adc.c **** /**
1126:../Libraries/STM32F30x_StdPeriph_Driver/src/stm32f30x_adc.c ****   * @brief  Configures for the selected ADC regular channel its corresponding
1127:../Libraries/STM32F30x_StdPeriph_Driver/src/stm32f30x_adc.c ****   *         rank in the sequencer and its sample time.
1128:../Libraries/STM32F30x_StdPeriph_Driver/src/stm32f30x_adc.c ****   * @param  ADCx: where x can be 1, 2, 3 or 4 to select the ADC peripheral.
1129:../Libraries/STM32F30x_StdPeriph_Driver/src/stm32f30x_adc.c ****   * @param  ADC_Channel: the ADC channel to configure. 
1130:../Libraries/STM32F30x_StdPeriph_Driver/src/stm32f30x_adc.c ****   *   This parameter can be one of the following values:
1131:../Libraries/STM32F30x_StdPeriph_Driver/src/stm32f30x_adc.c ****   *     @arg ADC_Channel_1: ADC Channel1 selected
1132:../Libraries/STM32F30x_StdPeriph_Driver/src/stm32f30x_adc.c ****   *     @arg ADC_Channel_2: ADC Channel2 selected
1133:../Libraries/STM32F30x_StdPeriph_Driver/src/stm32f30x_adc.c ****   *     @arg ADC_Channel_3: ADC Channel3 selected
1134:../Libraries/STM32F30x_StdPeriph_Driver/src/stm32f30x_adc.c ****   *     @arg ADC_Channel_4: ADC Channel4 selected
1135:../Libraries/STM32F30x_StdPeriph_Driver/src/stm32f30x_adc.c ****   *     @arg ADC_Channel_5: ADC Channel5 selected
1136:../Libraries/STM32F30x_StdPeriph_Driver/src/stm32f30x_adc.c ****   *     @arg ADC_Channel_6: ADC Channel6 selected
1137:../Libraries/STM32F30x_StdPeriph_Driver/src/stm32f30x_adc.c ****   *     @arg ADC_Channel_7: ADC Channel7 selected
1138:../Libraries/STM32F30x_StdPeriph_Driver/src/stm32f30x_adc.c ****   *     @arg ADC_Channel_8: ADC Channel8 selected
1139:../Libraries/STM32F30x_StdPeriph_Driver/src/stm32f30x_adc.c ****   *     @arg ADC_Channel_9: ADC Channel9 selected
1140:../Libraries/STM32F30x_StdPeriph_Driver/src/stm32f30x_adc.c ****   *     @arg ADC_Channel_10: ADC Channel10 selected
1141:../Libraries/STM32F30x_StdPeriph_Driver/src/stm32f30x_adc.c ****   *     @arg ADC_Channel_11: ADC Channel11 selected
1142:../Libraries/STM32F30x_StdPeriph_Driver/src/stm32f30x_adc.c ****   *     @arg ADC_Channel_12: ADC Channel12 selected
1143:../Libraries/STM32F30x_StdPeriph_Driver/src/stm32f30x_adc.c ****   *     @arg ADC_Channel_13: ADC Channel13 selected
1144:../Libraries/STM32F30x_StdPeriph_Driver/src/stm32f30x_adc.c ****   *     @arg ADC_Channel_14: ADC Channel14 selected
1145:../Libraries/STM32F30x_StdPeriph_Driver/src/stm32f30x_adc.c ****   *     @arg ADC_Channel_15: ADC Channel15 selected
1146:../Libraries/STM32F30x_StdPeriph_Driver/src/stm32f30x_adc.c ****   *     @arg ADC_Channel_16: ADC Channel16 selected
1147:../Libraries/STM32F30x_StdPeriph_Driver/src/stm32f30x_adc.c ****   *     @arg ADC_Channel_17: ADC Channel17 selected
1148:../Libraries/STM32F30x_StdPeriph_Driver/src/stm32f30x_adc.c ****   *     @arg ADC_Channel_18: ADC Channel18 selected
1149:../Libraries/STM32F30x_StdPeriph_Driver/src/stm32f30x_adc.c ****   * @param  Rank: The rank in the regular group sequencer. This parameter must be between 1 to 16.
1150:../Libraries/STM32F30x_StdPeriph_Driver/src/stm32f30x_adc.c ****   * @param  ADC_SampleTime: The sample time value to be set for the selected channel. 
1151:../Libraries/STM32F30x_StdPeriph_Driver/src/stm32f30x_adc.c ****   *   This parameter can be one of the following values:
1152:../Libraries/STM32F30x_StdPeriph_Driver/src/stm32f30x_adc.c ****   *     @arg ADC_SampleTime_1Cycles5: Sample time equal to 1.5 cycles
1153:../Libraries/STM32F30x_StdPeriph_Driver/src/stm32f30x_adc.c ****   *     @arg ADC_SampleTime_2Cycles5: Sample time equal to 2.5 cycles
1154:../Libraries/STM32F30x_StdPeriph_Driver/src/stm32f30x_adc.c ****   *     @arg ADC_SampleTime_4Cycles5: Sample time equal to 4.5 cycles
1155:../Libraries/STM32F30x_StdPeriph_Driver/src/stm32f30x_adc.c ****   *     @arg ADC_SampleTime_7Cycles5: Sample time equal to 7.5 cycles	
1156:../Libraries/STM32F30x_StdPeriph_Driver/src/stm32f30x_adc.c ****   *     @arg ADC_SampleTime_19Cycles5: Sample time equal to 19.5 cycles	
1157:../Libraries/STM32F30x_StdPeriph_Driver/src/stm32f30x_adc.c ****   *     @arg ADC_SampleTime_61Cycles5: Sample time equal to 61.5 cycles	
1158:../Libraries/STM32F30x_StdPeriph_Driver/src/stm32f30x_adc.c ****   *     @arg ADC_SampleTime_181Cycles5: Sample time equal to 181.5 cycles	
1159:../Libraries/STM32F30x_StdPeriph_Driver/src/stm32f30x_adc.c ****   *     @arg ADC_SampleTime_601Cycles5: Sample time equal to 601.5 cycles	
1160:../Libraries/STM32F30x_StdPeriph_Driver/src/stm32f30x_adc.c ****   * @retval None
1161:../Libraries/STM32F30x_StdPeriph_Driver/src/stm32f30x_adc.c ****   */
1162:../Libraries/STM32F30x_StdPeriph_Driver/src/stm32f30x_adc.c **** void ADC_RegularChannelConfig(ADC_TypeDef* ADCx, uint8_t ADC_Channel, uint8_t Rank, uint8_t ADC_Sam
1163:../Libraries/STM32F30x_StdPeriph_Driver/src/stm32f30x_adc.c **** {
 1591              		.loc 1 1163 0
 1592              		.cfi_startproc
 1593              		@ args = 0, pretend = 0, frame = 16
 1594              		@ frame_needed = 0, uses_anonymous_args = 0
 1595              		@ link register save eliminated.
 1596 0874 84B0     		sub	sp, sp, #16
 1597              	.LCFI30:
 1598              		.cfi_def_cfa_offset 16
 1599 0876 0190     		str	r0, [sp, #4]
 1600 0878 8DF80310 		strb	r1, [sp, #3]
 1601 087c 8DF80220 		strb	r2, [sp, #2]
 1602 0880 8DF80130 		strb	r3, [sp, #1]
1164:../Libraries/STM32F30x_StdPeriph_Driver/src/stm32f30x_adc.c ****   uint32_t tmpreg1 = 0, tmpreg2 = 0;
 1603              		.loc 1 1164 0
 1604 0884 4FF00003 		mov	r3, #0
 1605 0888 0393     		str	r3, [sp, #12]
 1606 088a 4FF00003 		mov	r3, #0
 1607 088e 0293     		str	r3, [sp, #8]
1165:../Libraries/STM32F30x_StdPeriph_Driver/src/stm32f30x_adc.c ****   /* Check the parameters */
1166:../Libraries/STM32F30x_StdPeriph_Driver/src/stm32f30x_adc.c ****   assert_param(IS_ADC_ALL_PERIPH(ADCx));
1167:../Libraries/STM32F30x_StdPeriph_Driver/src/stm32f30x_adc.c ****   assert_param(IS_ADC_CHANNEL(ADC_Channel));
1168:../Libraries/STM32F30x_StdPeriph_Driver/src/stm32f30x_adc.c ****   assert_param(IS_ADC_SAMPLE_TIME(ADC_SampleTime));
1169:../Libraries/STM32F30x_StdPeriph_Driver/src/stm32f30x_adc.c **** 
1170:../Libraries/STM32F30x_StdPeriph_Driver/src/stm32f30x_adc.c ****   /* Regular sequence configuration */
1171:../Libraries/STM32F30x_StdPeriph_Driver/src/stm32f30x_adc.c ****   /* For Rank 1 to 4 */
1172:../Libraries/STM32F30x_StdPeriph_Driver/src/stm32f30x_adc.c ****   if (Rank < 5)
 1608              		.loc 1 1172 0
 1609 0890 9DF80230 		ldrb	r3, [sp, #2]	@ zero_extendqisi2
 1610 0894 042B     		cmp	r3, #4
 1611 0896 2AD8     		bhi	.L73
1173:../Libraries/STM32F30x_StdPeriph_Driver/src/stm32f30x_adc.c ****   {
1174:../Libraries/STM32F30x_StdPeriph_Driver/src/stm32f30x_adc.c ****     /* Get the old register value */
1175:../Libraries/STM32F30x_StdPeriph_Driver/src/stm32f30x_adc.c ****     tmpreg1 = ADCx->SQR1;
 1612              		.loc 1 1175 0
 1613 0898 019B     		ldr	r3, [sp, #4]
 1614 089a 1B6B     		ldr	r3, [r3, #48]
 1615 089c 0393     		str	r3, [sp, #12]
1176:../Libraries/STM32F30x_StdPeriph_Driver/src/stm32f30x_adc.c ****     /* Calculate the mask to clear */
1177:../Libraries/STM32F30x_StdPeriph_Driver/src/stm32f30x_adc.c ****     tmpreg2 = 0x1F << (6 * (Rank ));
 1616              		.loc 1 1177 0
 1617 089e 9DF80220 		ldrb	r2, [sp, #2]	@ zero_extendqisi2
 1618 08a2 1346     		mov	r3, r2
 1619 08a4 4FEA4303 		lsl	r3, r3, #1
 1620 08a8 9B18     		adds	r3, r3, r2
 1621 08aa 4FEA4303 		lsl	r3, r3, #1
 1622 08ae 4FF01F02 		mov	r2, #31
 1623 08b2 02FA03F3 		lsl	r3, r2, r3
 1624 08b6 0293     		str	r3, [sp, #8]
1178:../Libraries/STM32F30x_StdPeriph_Driver/src/stm32f30x_adc.c ****     /* Clear the old SQx bits for the selected rank */
1179:../Libraries/STM32F30x_StdPeriph_Driver/src/stm32f30x_adc.c ****     tmpreg1 &= ~tmpreg2;
 1625              		.loc 1 1179 0
 1626 08b8 029B     		ldr	r3, [sp, #8]
 1627 08ba 6FEA0303 		mvn	r3, r3
 1628 08be 039A     		ldr	r2, [sp, #12]
 1629 08c0 1340     		ands	r3, r3, r2
 1630 08c2 0393     		str	r3, [sp, #12]
1180:../Libraries/STM32F30x_StdPeriph_Driver/src/stm32f30x_adc.c ****     /* Calculate the mask to set */
1181:../Libraries/STM32F30x_StdPeriph_Driver/src/stm32f30x_adc.c ****     tmpreg2 = (uint32_t)(ADC_Channel) << (6 * (Rank));
 1631              		.loc 1 1181 0
 1632 08c4 9DF80310 		ldrb	r1, [sp, #3]	@ zero_extendqisi2
 1633 08c8 9DF80220 		ldrb	r2, [sp, #2]	@ zero_extendqisi2
 1634 08cc 1346     		mov	r3, r2
 1635 08ce 4FEA4303 		lsl	r3, r3, #1
 1636 08d2 9B18     		adds	r3, r3, r2
 1637 08d4 4FEA4303 		lsl	r3, r3, #1
 1638 08d8 01FA03F3 		lsl	r3, r1, r3
 1639 08dc 0293     		str	r3, [sp, #8]
1182:../Libraries/STM32F30x_StdPeriph_Driver/src/stm32f30x_adc.c ****     /* Set the SQx bits for the selected rank */
1183:../Libraries/STM32F30x_StdPeriph_Driver/src/stm32f30x_adc.c ****     tmpreg1 |= tmpreg2;
 1640              		.loc 1 1183 0
 1641 08de 039A     		ldr	r2, [sp, #12]
 1642 08e0 029B     		ldr	r3, [sp, #8]
 1643 08e2 1343     		orrs	r3, r3, r2
 1644 08e4 0393     		str	r3, [sp, #12]
1184:../Libraries/STM32F30x_StdPeriph_Driver/src/stm32f30x_adc.c ****     /* Store the new register value */
1185:../Libraries/STM32F30x_StdPeriph_Driver/src/stm32f30x_adc.c ****     ADCx->SQR1 = tmpreg1;
 1645              		.loc 1 1185 0
 1646 08e6 019B     		ldr	r3, [sp, #4]
 1647 08e8 039A     		ldr	r2, [sp, #12]
 1648 08ea 1A63     		str	r2, [r3, #48]
 1649 08ec 93E0     		b	.L74
 1650              	.L73:
1186:../Libraries/STM32F30x_StdPeriph_Driver/src/stm32f30x_adc.c ****   }
1187:../Libraries/STM32F30x_StdPeriph_Driver/src/stm32f30x_adc.c ****   /* For Rank 5 to 9 */
1188:../Libraries/STM32F30x_StdPeriph_Driver/src/stm32f30x_adc.c ****   else if (Rank < 10)
 1651              		.loc 1 1188 0
 1652 08ee 9DF80230 		ldrb	r3, [sp, #2]	@ zero_extendqisi2
 1653 08f2 092B     		cmp	r3, #9
 1654 08f4 2ED8     		bhi	.L75
1189:../Libraries/STM32F30x_StdPeriph_Driver/src/stm32f30x_adc.c ****   {
1190:../Libraries/STM32F30x_StdPeriph_Driver/src/stm32f30x_adc.c ****     /* Get the old register value */
1191:../Libraries/STM32F30x_StdPeriph_Driver/src/stm32f30x_adc.c ****     tmpreg1 = ADCx->SQR2;
 1655              		.loc 1 1191 0
 1656 08f6 019B     		ldr	r3, [sp, #4]
 1657 08f8 5B6B     		ldr	r3, [r3, #52]
 1658 08fa 0393     		str	r3, [sp, #12]
1192:../Libraries/STM32F30x_StdPeriph_Driver/src/stm32f30x_adc.c ****     /* Calculate the mask to clear */
1193:../Libraries/STM32F30x_StdPeriph_Driver/src/stm32f30x_adc.c ****     tmpreg2 = ADC_SQR2_SQ5 << (6 * (Rank - 5));
 1659              		.loc 1 1193 0
 1660 08fc 9DF80220 		ldrb	r2, [sp, #2]	@ zero_extendqisi2
 1661 0900 1346     		mov	r3, r2
 1662 0902 4FEA4303 		lsl	r3, r3, #1
 1663 0906 9B18     		adds	r3, r3, r2
 1664 0908 4FEA4303 		lsl	r3, r3, #1
 1665 090c A3F11E03 		sub	r3, r3, #30
 1666 0910 4FF01F02 		mov	r2, #31
 1667 0914 02FA03F3 		lsl	r3, r2, r3
 1668 0918 0293     		str	r3, [sp, #8]
1194:../Libraries/STM32F30x_StdPeriph_Driver/src/stm32f30x_adc.c ****     /* Clear the old SQx bits for the selected rank */
1195:../Libraries/STM32F30x_StdPeriph_Driver/src/stm32f30x_adc.c ****     tmpreg1 &= ~tmpreg2;
 1669              		.loc 1 1195 0
 1670 091a 029B     		ldr	r3, [sp, #8]
 1671 091c 6FEA0303 		mvn	r3, r3
 1672 0920 039A     		ldr	r2, [sp, #12]
 1673 0922 1340     		ands	r3, r3, r2
 1674 0924 0393     		str	r3, [sp, #12]
1196:../Libraries/STM32F30x_StdPeriph_Driver/src/stm32f30x_adc.c ****     /* Calculate the mask to set */
1197:../Libraries/STM32F30x_StdPeriph_Driver/src/stm32f30x_adc.c ****     tmpreg2 = (uint32_t)(ADC_Channel) << (6 * (Rank - 5));
 1675              		.loc 1 1197 0
 1676 0926 9DF80310 		ldrb	r1, [sp, #3]	@ zero_extendqisi2
 1677 092a 9DF80220 		ldrb	r2, [sp, #2]	@ zero_extendqisi2
 1678 092e 1346     		mov	r3, r2
 1679 0930 4FEA4303 		lsl	r3, r3, #1
 1680 0934 9B18     		adds	r3, r3, r2
 1681 0936 4FEA4303 		lsl	r3, r3, #1
 1682 093a A3F11E03 		sub	r3, r3, #30
 1683 093e 01FA03F3 		lsl	r3, r1, r3
 1684 0942 0293     		str	r3, [sp, #8]
1198:../Libraries/STM32F30x_StdPeriph_Driver/src/stm32f30x_adc.c ****     /* Set the SQx bits for the selected rank */
1199:../Libraries/STM32F30x_StdPeriph_Driver/src/stm32f30x_adc.c ****     tmpreg1 |= tmpreg2;
 1685              		.loc 1 1199 0
 1686 0944 039A     		ldr	r2, [sp, #12]
 1687 0946 029B     		ldr	r3, [sp, #8]
 1688 0948 1343     		orrs	r3, r3, r2
 1689 094a 0393     		str	r3, [sp, #12]
1200:../Libraries/STM32F30x_StdPeriph_Driver/src/stm32f30x_adc.c ****     /* Store the new register value */
1201:../Libraries/STM32F30x_StdPeriph_Driver/src/stm32f30x_adc.c ****     ADCx->SQR2 = tmpreg1;
 1690              		.loc 1 1201 0
 1691 094c 019B     		ldr	r3, [sp, #4]
 1692 094e 039A     		ldr	r2, [sp, #12]
 1693 0950 5A63     		str	r2, [r3, #52]
 1694 0952 60E0     		b	.L74
 1695              	.L75:
1202:../Libraries/STM32F30x_StdPeriph_Driver/src/stm32f30x_adc.c ****   }
1203:../Libraries/STM32F30x_StdPeriph_Driver/src/stm32f30x_adc.c ****   /* For Rank 10 to 14 */
1204:../Libraries/STM32F30x_StdPeriph_Driver/src/stm32f30x_adc.c ****   else if (Rank < 15)
 1696              		.loc 1 1204 0
 1697 0954 9DF80230 		ldrb	r3, [sp, #2]	@ zero_extendqisi2
 1698 0958 0E2B     		cmp	r3, #14
 1699 095a 2ED8     		bhi	.L76
1205:../Libraries/STM32F30x_StdPeriph_Driver/src/stm32f30x_adc.c ****   {
1206:../Libraries/STM32F30x_StdPeriph_Driver/src/stm32f30x_adc.c ****     /* Get the old register value */
1207:../Libraries/STM32F30x_StdPeriph_Driver/src/stm32f30x_adc.c ****     tmpreg1 = ADCx->SQR3;
 1700              		.loc 1 1207 0
 1701 095c 019B     		ldr	r3, [sp, #4]
 1702 095e 9B6B     		ldr	r3, [r3, #56]
 1703 0960 0393     		str	r3, [sp, #12]
1208:../Libraries/STM32F30x_StdPeriph_Driver/src/stm32f30x_adc.c ****     /* Calculate the mask to clear */
1209:../Libraries/STM32F30x_StdPeriph_Driver/src/stm32f30x_adc.c ****     tmpreg2 = ADC_SQR3_SQ10 << (6 * (Rank - 10));
 1704              		.loc 1 1209 0
 1705 0962 9DF80220 		ldrb	r2, [sp, #2]	@ zero_extendqisi2
 1706 0966 1346     		mov	r3, r2
 1707 0968 4FEA4303 		lsl	r3, r3, #1
 1708 096c 9B18     		adds	r3, r3, r2
 1709 096e 4FEA4303 		lsl	r3, r3, #1
 1710 0972 A3F13C03 		sub	r3, r3, #60
 1711 0976 4FF01F02 		mov	r2, #31
 1712 097a 02FA03F3 		lsl	r3, r2, r3
 1713 097e 0293     		str	r3, [sp, #8]
1210:../Libraries/STM32F30x_StdPeriph_Driver/src/stm32f30x_adc.c ****     /* Clear the old SQx bits for the selected rank */
1211:../Libraries/STM32F30x_StdPeriph_Driver/src/stm32f30x_adc.c ****     tmpreg1 &= ~tmpreg2;
 1714              		.loc 1 1211 0
 1715 0980 029B     		ldr	r3, [sp, #8]
 1716 0982 6FEA0303 		mvn	r3, r3
 1717 0986 039A     		ldr	r2, [sp, #12]
 1718 0988 1340     		ands	r3, r3, r2
 1719 098a 0393     		str	r3, [sp, #12]
1212:../Libraries/STM32F30x_StdPeriph_Driver/src/stm32f30x_adc.c ****     /* Calculate the mask to set */
1213:../Libraries/STM32F30x_StdPeriph_Driver/src/stm32f30x_adc.c ****     tmpreg2 = (uint32_t)(ADC_Channel) << (6 * (Rank - 10));
 1720              		.loc 1 1213 0
 1721 098c 9DF80310 		ldrb	r1, [sp, #3]	@ zero_extendqisi2
 1722 0990 9DF80220 		ldrb	r2, [sp, #2]	@ zero_extendqisi2
 1723 0994 1346     		mov	r3, r2
 1724 0996 4FEA4303 		lsl	r3, r3, #1
 1725 099a 9B18     		adds	r3, r3, r2
 1726 099c 4FEA4303 		lsl	r3, r3, #1
 1727 09a0 A3F13C03 		sub	r3, r3, #60
 1728 09a4 01FA03F3 		lsl	r3, r1, r3
 1729 09a8 0293     		str	r3, [sp, #8]
1214:../Libraries/STM32F30x_StdPeriph_Driver/src/stm32f30x_adc.c ****     /* Set the SQx bits for the selected rank */
1215:../Libraries/STM32F30x_StdPeriph_Driver/src/stm32f30x_adc.c ****     tmpreg1 |= tmpreg2;
 1730              		.loc 1 1215 0
 1731 09aa 039A     		ldr	r2, [sp, #12]
 1732 09ac 029B     		ldr	r3, [sp, #8]
 1733 09ae 1343     		orrs	r3, r3, r2
 1734 09b0 0393     		str	r3, [sp, #12]
1216:../Libraries/STM32F30x_StdPeriph_Driver/src/stm32f30x_adc.c ****     /* Store the new register value */
1217:../Libraries/STM32F30x_StdPeriph_Driver/src/stm32f30x_adc.c ****     ADCx->SQR3 = tmpreg1;
 1735              		.loc 1 1217 0
 1736 09b2 019B     		ldr	r3, [sp, #4]
 1737 09b4 039A     		ldr	r2, [sp, #12]
 1738 09b6 9A63     		str	r2, [r3, #56]
 1739 09b8 2DE0     		b	.L74
 1740              	.L76:
1218:../Libraries/STM32F30x_StdPeriph_Driver/src/stm32f30x_adc.c ****   }
1219:../Libraries/STM32F30x_StdPeriph_Driver/src/stm32f30x_adc.c ****   else 
1220:../Libraries/STM32F30x_StdPeriph_Driver/src/stm32f30x_adc.c ****   {
1221:../Libraries/STM32F30x_StdPeriph_Driver/src/stm32f30x_adc.c ****     /* Get the old register value */
1222:../Libraries/STM32F30x_StdPeriph_Driver/src/stm32f30x_adc.c ****     tmpreg1 = ADCx->SQR4;
 1741              		.loc 1 1222 0
 1742 09ba 019B     		ldr	r3, [sp, #4]
 1743 09bc DB6B     		ldr	r3, [r3, #60]
 1744 09be 0393     		str	r3, [sp, #12]
1223:../Libraries/STM32F30x_StdPeriph_Driver/src/stm32f30x_adc.c ****     /* Calculate the mask to clear */
1224:../Libraries/STM32F30x_StdPeriph_Driver/src/stm32f30x_adc.c ****     tmpreg2 = ADC_SQR3_SQ15 << (6 * (Rank - 15));
 1745              		.loc 1 1224 0
 1746 09c0 9DF80220 		ldrb	r2, [sp, #2]	@ zero_extendqisi2
 1747 09c4 1346     		mov	r3, r2
 1748 09c6 4FEA4303 		lsl	r3, r3, #1
 1749 09ca 9B18     		adds	r3, r3, r2
 1750 09cc 4FEA4303 		lsl	r3, r3, #1
 1751 09d0 A3F15A03 		sub	r3, r3, #90
 1752 09d4 4FF01F02 		mov	r2, #31
 1753 09d8 02FA03F3 		lsl	r3, r2, r3
 1754 09dc 0293     		str	r3, [sp, #8]
1225:../Libraries/STM32F30x_StdPeriph_Driver/src/stm32f30x_adc.c ****     /* Clear the old SQx bits for the selected rank */
1226:../Libraries/STM32F30x_StdPeriph_Driver/src/stm32f30x_adc.c ****     tmpreg1 &= ~tmpreg2;
 1755              		.loc 1 1226 0
 1756 09de 029B     		ldr	r3, [sp, #8]
 1757 09e0 6FEA0303 		mvn	r3, r3
 1758 09e4 039A     		ldr	r2, [sp, #12]
 1759 09e6 1340     		ands	r3, r3, r2
 1760 09e8 0393     		str	r3, [sp, #12]
1227:../Libraries/STM32F30x_StdPeriph_Driver/src/stm32f30x_adc.c ****     /* Calculate the mask to set */
1228:../Libraries/STM32F30x_StdPeriph_Driver/src/stm32f30x_adc.c ****     tmpreg2 = (uint32_t)(ADC_Channel) << (6 * (Rank - 15));
 1761              		.loc 1 1228 0
 1762 09ea 9DF80310 		ldrb	r1, [sp, #3]	@ zero_extendqisi2
 1763 09ee 9DF80220 		ldrb	r2, [sp, #2]	@ zero_extendqisi2
 1764 09f2 1346     		mov	r3, r2
 1765 09f4 4FEA4303 		lsl	r3, r3, #1
 1766 09f8 9B18     		adds	r3, r3, r2
 1767 09fa 4FEA4303 		lsl	r3, r3, #1
 1768 09fe A3F15A03 		sub	r3, r3, #90
 1769 0a02 01FA03F3 		lsl	r3, r1, r3
 1770 0a06 0293     		str	r3, [sp, #8]
1229:../Libraries/STM32F30x_StdPeriph_Driver/src/stm32f30x_adc.c ****     /* Set the SQx bits for the selected rank */
1230:../Libraries/STM32F30x_StdPeriph_Driver/src/stm32f30x_adc.c ****     tmpreg1 |= tmpreg2;
 1771              		.loc 1 1230 0
 1772 0a08 039A     		ldr	r2, [sp, #12]
 1773 0a0a 029B     		ldr	r3, [sp, #8]
 1774 0a0c 1343     		orrs	r3, r3, r2
 1775 0a0e 0393     		str	r3, [sp, #12]
1231:../Libraries/STM32F30x_StdPeriph_Driver/src/stm32f30x_adc.c ****     /* Store the new register value */
1232:../Libraries/STM32F30x_StdPeriph_Driver/src/stm32f30x_adc.c ****     ADCx->SQR4 = tmpreg1;
 1776              		.loc 1 1232 0
 1777 0a10 019B     		ldr	r3, [sp, #4]
 1778 0a12 039A     		ldr	r2, [sp, #12]
 1779 0a14 DA63     		str	r2, [r3, #60]
 1780              	.L74:
1233:../Libraries/STM32F30x_StdPeriph_Driver/src/stm32f30x_adc.c ****   }
1234:../Libraries/STM32F30x_StdPeriph_Driver/src/stm32f30x_adc.c **** 
1235:../Libraries/STM32F30x_StdPeriph_Driver/src/stm32f30x_adc.c ****   /* Channel sampling configuration */
1236:../Libraries/STM32F30x_StdPeriph_Driver/src/stm32f30x_adc.c ****   /* if ADC_Channel_10 ... ADC_Channel_18 is selected */
1237:../Libraries/STM32F30x_StdPeriph_Driver/src/stm32f30x_adc.c ****   if (ADC_Channel > ADC_Channel_9)
 1781              		.loc 1 1237 0
 1782 0a16 9DF80330 		ldrb	r3, [sp, #3]	@ zero_extendqisi2
 1783 0a1a 092B     		cmp	r3, #9
 1784 0a1c 2AD9     		bls	.L77
1238:../Libraries/STM32F30x_StdPeriph_Driver/src/stm32f30x_adc.c ****   {
1239:../Libraries/STM32F30x_StdPeriph_Driver/src/stm32f30x_adc.c ****     /* Get the old register value */
1240:../Libraries/STM32F30x_StdPeriph_Driver/src/stm32f30x_adc.c ****     tmpreg1 = ADCx->SMPR2;
 1785              		.loc 1 1240 0
 1786 0a1e 019B     		ldr	r3, [sp, #4]
 1787 0a20 9B69     		ldr	r3, [r3, #24]
 1788 0a22 0393     		str	r3, [sp, #12]
1241:../Libraries/STM32F30x_StdPeriph_Driver/src/stm32f30x_adc.c ****     /* Calculate the mask to clear */
1242:../Libraries/STM32F30x_StdPeriph_Driver/src/stm32f30x_adc.c ****     tmpreg2 = ADC_SMPR2_SMP10 << (3 * (ADC_Channel - 10));
 1789              		.loc 1 1242 0
 1790 0a24 9DF80320 		ldrb	r2, [sp, #3]	@ zero_extendqisi2
 1791 0a28 1346     		mov	r3, r2
 1792 0a2a 4FEA4303 		lsl	r3, r3, #1
 1793 0a2e 9B18     		adds	r3, r3, r2
 1794 0a30 A3F11E03 		sub	r3, r3, #30
 1795 0a34 4FF00702 		mov	r2, #7
 1796 0a38 02FA03F3 		lsl	r3, r2, r3
 1797 0a3c 0293     		str	r3, [sp, #8]
1243:../Libraries/STM32F30x_StdPeriph_Driver/src/stm32f30x_adc.c ****     /* Clear the old channel sample time */
1244:../Libraries/STM32F30x_StdPeriph_Driver/src/stm32f30x_adc.c **** 	ADCx->SMPR2 &= ~tmpreg2;
 1798              		.loc 1 1244 0
 1799 0a3e 019B     		ldr	r3, [sp, #4]
 1800 0a40 9A69     		ldr	r2, [r3, #24]
 1801 0a42 029B     		ldr	r3, [sp, #8]
 1802 0a44 6FEA0303 		mvn	r3, r3
 1803 0a48 1A40     		ands	r2, r2, r3
 1804 0a4a 019B     		ldr	r3, [sp, #4]
 1805 0a4c 9A61     		str	r2, [r3, #24]
1245:../Libraries/STM32F30x_StdPeriph_Driver/src/stm32f30x_adc.c ****     /* Calculate the mask to set */
1246:../Libraries/STM32F30x_StdPeriph_Driver/src/stm32f30x_adc.c **** 	ADCx->SMPR2 |= (uint32_t)ADC_SampleTime << (3 * (ADC_Channel - 10));
 1806              		.loc 1 1246 0
 1807 0a4e 019B     		ldr	r3, [sp, #4]
 1808 0a50 9969     		ldr	r1, [r3, #24]
 1809 0a52 9DF80100 		ldrb	r0, [sp, #1]	@ zero_extendqisi2
 1810 0a56 9DF80320 		ldrb	r2, [sp, #3]	@ zero_extendqisi2
 1811 0a5a 1346     		mov	r3, r2
 1812 0a5c 4FEA4303 		lsl	r3, r3, #1
 1813 0a60 9B18     		adds	r3, r3, r2
 1814 0a62 A3F11E03 		sub	r3, r3, #30
 1815 0a66 00FA03F3 		lsl	r3, r0, r3
 1816 0a6a 41EA0302 		orr	r2, r1, r3
 1817 0a6e 019B     		ldr	r3, [sp, #4]
 1818 0a70 9A61     		str	r2, [r3, #24]
 1819 0a72 27E0     		b	.L72
 1820              	.L77:
1247:../Libraries/STM32F30x_StdPeriph_Driver/src/stm32f30x_adc.c **** 
1248:../Libraries/STM32F30x_StdPeriph_Driver/src/stm32f30x_adc.c ****   }
1249:../Libraries/STM32F30x_StdPeriph_Driver/src/stm32f30x_adc.c ****   else /* ADC_Channel include in ADC_Channel_[0..9] */
1250:../Libraries/STM32F30x_StdPeriph_Driver/src/stm32f30x_adc.c ****   {
1251:../Libraries/STM32F30x_StdPeriph_Driver/src/stm32f30x_adc.c ****     /* Get the old register value */
1252:../Libraries/STM32F30x_StdPeriph_Driver/src/stm32f30x_adc.c ****     tmpreg1 = ADCx->SMPR1;
 1821              		.loc 1 1252 0
 1822 0a74 019B     		ldr	r3, [sp, #4]
 1823 0a76 5B69     		ldr	r3, [r3, #20]
 1824 0a78 0393     		str	r3, [sp, #12]
1253:../Libraries/STM32F30x_StdPeriph_Driver/src/stm32f30x_adc.c ****     /* Calculate the mask to clear */
1254:../Libraries/STM32F30x_StdPeriph_Driver/src/stm32f30x_adc.c ****     tmpreg2 = ADC_SMPR1_SMP1 << (3 * (ADC_Channel - 1));
 1825              		.loc 1 1254 0
 1826 0a7a 9DF80330 		ldrb	r3, [sp, #3]	@ zero_extendqisi2
 1827 0a7e 03F1FF32 		add	r2, r3, #-1
 1828 0a82 1346     		mov	r3, r2
 1829 0a84 4FEA4303 		lsl	r3, r3, #1
 1830 0a88 9B18     		adds	r3, r3, r2
 1831 0a8a 4FF03802 		mov	r2, #56
 1832 0a8e 02FA03F3 		lsl	r3, r2, r3
 1833 0a92 0293     		str	r3, [sp, #8]
1255:../Libraries/STM32F30x_StdPeriph_Driver/src/stm32f30x_adc.c ****     /* Clear the old channel sample time */
1256:../Libraries/STM32F30x_StdPeriph_Driver/src/stm32f30x_adc.c **** 	ADCx->SMPR1 &= ~tmpreg2;
 1834              		.loc 1 1256 0
 1835 0a94 019B     		ldr	r3, [sp, #4]
 1836 0a96 5A69     		ldr	r2, [r3, #20]
 1837 0a98 029B     		ldr	r3, [sp, #8]
 1838 0a9a 6FEA0303 		mvn	r3, r3
 1839 0a9e 1A40     		ands	r2, r2, r3
 1840 0aa0 019B     		ldr	r3, [sp, #4]
 1841 0aa2 5A61     		str	r2, [r3, #20]
1257:../Libraries/STM32F30x_StdPeriph_Driver/src/stm32f30x_adc.c ****     /* Calculate the mask to set */
1258:../Libraries/STM32F30x_StdPeriph_Driver/src/stm32f30x_adc.c **** 	ADCx->SMPR1 |= (uint32_t)ADC_SampleTime << (3 * (ADC_Channel));
 1842              		.loc 1 1258 0
 1843 0aa4 019B     		ldr	r3, [sp, #4]
 1844 0aa6 5969     		ldr	r1, [r3, #20]
 1845 0aa8 9DF80100 		ldrb	r0, [sp, #1]	@ zero_extendqisi2
 1846 0aac 9DF80320 		ldrb	r2, [sp, #3]	@ zero_extendqisi2
 1847 0ab0 1346     		mov	r3, r2
 1848 0ab2 4FEA4303 		lsl	r3, r3, #1
 1849 0ab6 9B18     		adds	r3, r3, r2
 1850 0ab8 00FA03F3 		lsl	r3, r0, r3
 1851 0abc 41EA0302 		orr	r2, r1, r3
 1852 0ac0 019B     		ldr	r3, [sp, #4]
 1853 0ac2 5A61     		str	r2, [r3, #20]
 1854              	.L72:
1259:../Libraries/STM32F30x_StdPeriph_Driver/src/stm32f30x_adc.c ****   }
1260:../Libraries/STM32F30x_StdPeriph_Driver/src/stm32f30x_adc.c **** }
 1855              		.loc 1 1260 0
 1856 0ac4 04B0     		add	sp, sp, #16
 1857 0ac6 7047     		bx	lr
 1858              		.cfi_endproc
 1859              	.LFE140:
 1861              		.align	2
 1862              		.global	ADC_RegularChannelSequencerLengthConfig
 1863              		.thumb
 1864              		.thumb_func
 1866              	ADC_RegularChannelSequencerLengthConfig:
 1867              	.LFB141:
1261:../Libraries/STM32F30x_StdPeriph_Driver/src/stm32f30x_adc.c **** 
1262:../Libraries/STM32F30x_StdPeriph_Driver/src/stm32f30x_adc.c **** /**
1263:../Libraries/STM32F30x_StdPeriph_Driver/src/stm32f30x_adc.c ****   * @brief  Sets the ADC regular channel sequence lenght.
1264:../Libraries/STM32F30x_StdPeriph_Driver/src/stm32f30x_adc.c ****   * @param  ADCx: where x can be 1, 2 or 3 to select the ADC peripheral.
1265:../Libraries/STM32F30x_StdPeriph_Driver/src/stm32f30x_adc.c ****   * @param  SequenceLength: The Regular sequence length. This parameter must be between 1 to 16.
1266:../Libraries/STM32F30x_StdPeriph_Driver/src/stm32f30x_adc.c ****   *   This parameter can be: ENABLE or DISABLE.
1267:../Libraries/STM32F30x_StdPeriph_Driver/src/stm32f30x_adc.c ****   * @retval None
1268:../Libraries/STM32F30x_StdPeriph_Driver/src/stm32f30x_adc.c ****   */
1269:../Libraries/STM32F30x_StdPeriph_Driver/src/stm32f30x_adc.c **** void ADC_RegularChannelSequencerLengthConfig(ADC_TypeDef* ADCx, uint8_t SequencerLength)
1270:../Libraries/STM32F30x_StdPeriph_Driver/src/stm32f30x_adc.c **** {
 1868              		.loc 1 1270 0
 1869              		.cfi_startproc
 1870              		@ args = 0, pretend = 0, frame = 8
 1871              		@ frame_needed = 0, uses_anonymous_args = 0
 1872              		@ link register save eliminated.
 1873 0ac8 82B0     		sub	sp, sp, #8
 1874              	.LCFI31:
 1875              		.cfi_def_cfa_offset 8
 1876 0aca 0190     		str	r0, [sp, #4]
 1877 0acc 0B46     		mov	r3, r1
 1878 0ace 8DF80330 		strb	r3, [sp, #3]
1271:../Libraries/STM32F30x_StdPeriph_Driver/src/stm32f30x_adc.c ****   /* Check the parameters */
1272:../Libraries/STM32F30x_StdPeriph_Driver/src/stm32f30x_adc.c ****   assert_param(IS_ADC_ALL_PERIPH(ADCx));
1273:../Libraries/STM32F30x_StdPeriph_Driver/src/stm32f30x_adc.c **** 
1274:../Libraries/STM32F30x_StdPeriph_Driver/src/stm32f30x_adc.c ****   /* Configure the ADC sequence lenght */  
1275:../Libraries/STM32F30x_StdPeriph_Driver/src/stm32f30x_adc.c ****   ADCx->SQR1 &= ~(uint32_t)ADC_SQR1_L;
 1879              		.loc 1 1275 0
 1880 0ad2 019B     		ldr	r3, [sp, #4]
 1881 0ad4 1B6B     		ldr	r3, [r3, #48]
 1882 0ad6 23F00F02 		bic	r2, r3, #15
 1883 0ada 019B     		ldr	r3, [sp, #4]
 1884 0adc 1A63     		str	r2, [r3, #48]
1276:../Libraries/STM32F30x_StdPeriph_Driver/src/stm32f30x_adc.c ****   ADCx->SQR1 |= (uint32_t)(SequencerLength - 1);   
 1885              		.loc 1 1276 0
 1886 0ade 019B     		ldr	r3, [sp, #4]
 1887 0ae0 1A6B     		ldr	r2, [r3, #48]
 1888 0ae2 9DF80330 		ldrb	r3, [sp, #3]	@ zero_extendqisi2
 1889 0ae6 03F1FF33 		add	r3, r3, #-1
 1890 0aea 1A43     		orrs	r2, r2, r3
 1891 0aec 019B     		ldr	r3, [sp, #4]
 1892 0aee 1A63     		str	r2, [r3, #48]
1277:../Libraries/STM32F30x_StdPeriph_Driver/src/stm32f30x_adc.c **** }
 1893              		.loc 1 1277 0
 1894 0af0 02B0     		add	sp, sp, #8
 1895 0af2 7047     		bx	lr
 1896              		.cfi_endproc
 1897              	.LFE141:
 1899              		.align	2
 1900              		.global	ADC_ExternalTriggerConfig
 1901              		.thumb
 1902              		.thumb_func
 1904              	ADC_ExternalTriggerConfig:
 1905              	.LFB142:
1278:../Libraries/STM32F30x_StdPeriph_Driver/src/stm32f30x_adc.c **** 
1279:../Libraries/STM32F30x_StdPeriph_Driver/src/stm32f30x_adc.c **** /**
1280:../Libraries/STM32F30x_StdPeriph_Driver/src/stm32f30x_adc.c ****   * @brief  External Trigger Enable and Polarity Selection for regular channels.
1281:../Libraries/STM32F30x_StdPeriph_Driver/src/stm32f30x_adc.c ****   * @param  ADCx: where x can be 1, 2, 3 or 4 to select the ADC peripheral.
1282:../Libraries/STM32F30x_StdPeriph_Driver/src/stm32f30x_adc.c ****   * @param  ADC_ExternalTrigConvEvent: ADC external Trigger source.
1283:../Libraries/STM32F30x_StdPeriph_Driver/src/stm32f30x_adc.c ****   *   This parameter can be one of the following values:
1284:../Libraries/STM32F30x_StdPeriph_Driver/src/stm32f30x_adc.c ****   *     @arg ADC_ExternalTrigger_Event0: External trigger event 0 
1285:../Libraries/STM32F30x_StdPeriph_Driver/src/stm32f30x_adc.c ****   *     @arg ADC_ExternalTrigger_Event1: External trigger event 1
1286:../Libraries/STM32F30x_StdPeriph_Driver/src/stm32f30x_adc.c ****   *     @arg ADC_ExternalTrigger_Event2: External trigger event 2
1287:../Libraries/STM32F30x_StdPeriph_Driver/src/stm32f30x_adc.c ****   *     @arg ADC_ExternalTrigger_Event3: External trigger event 3
1288:../Libraries/STM32F30x_StdPeriph_Driver/src/stm32f30x_adc.c ****   *     @arg ADC_ExternalTrigger_Event4: External trigger event 4 
1289:../Libraries/STM32F30x_StdPeriph_Driver/src/stm32f30x_adc.c ****   *     @arg ADC_ExternalTrigger_Event5: External trigger event 5
1290:../Libraries/STM32F30x_StdPeriph_Driver/src/stm32f30x_adc.c ****   *     @arg ADC_ExternalTrigger_Event6: External trigger event 6
1291:../Libraries/STM32F30x_StdPeriph_Driver/src/stm32f30x_adc.c ****   *     @arg ADC_ExternalTrigger_Event7: External trigger event 7
1292:../Libraries/STM32F30x_StdPeriph_Driver/src/stm32f30x_adc.c ****   *     @arg ADC_ExternalTrigger_Event8: External trigger event 8 
1293:../Libraries/STM32F30x_StdPeriph_Driver/src/stm32f30x_adc.c ****   *     @arg ADC_ExternalTrigger_Event9: External trigger event 9
1294:../Libraries/STM32F30x_StdPeriph_Driver/src/stm32f30x_adc.c ****   *     @arg ADC_ExternalTrigger_Event10: External trigger event 10
1295:../Libraries/STM32F30x_StdPeriph_Driver/src/stm32f30x_adc.c ****   *     @arg ADC_ExternalTrigger_Event11: External trigger event 11
1296:../Libraries/STM32F30x_StdPeriph_Driver/src/stm32f30x_adc.c ****   *     @arg ADC_ExternalTrigger_Event12: External trigger event 12 
1297:../Libraries/STM32F30x_StdPeriph_Driver/src/stm32f30x_adc.c ****   *     @arg ADC_ExternalTrigger_Event13: External trigger event 13
1298:../Libraries/STM32F30x_StdPeriph_Driver/src/stm32f30x_adc.c ****   *     @arg ADC_ExternalTrigger_Event14: External trigger event 14
1299:../Libraries/STM32F30x_StdPeriph_Driver/src/stm32f30x_adc.c ****   *     @arg ADC_ExternalTrigger_Event15: External trigger event 15	  
1300:../Libraries/STM32F30x_StdPeriph_Driver/src/stm32f30x_adc.c ****   * @param  ADC_ExternalTrigEventEdge: ADC external Trigger Polarity.
1301:../Libraries/STM32F30x_StdPeriph_Driver/src/stm32f30x_adc.c ****   *   This parameter can be one of the following values:
1302:../Libraries/STM32F30x_StdPeriph_Driver/src/stm32f30x_adc.c ****   *     @arg ADC_ExternalTrigEventEdge_OFF: Hardware trigger detection disabled 
1303:../Libraries/STM32F30x_StdPeriph_Driver/src/stm32f30x_adc.c ****   *                                          (conversions can be launched by software)
1304:../Libraries/STM32F30x_StdPeriph_Driver/src/stm32f30x_adc.c ****   *     @arg ADC_ExternalTrigEventEdge_RisingEdge: Hardware trigger detection on the rising edge
1305:../Libraries/STM32F30x_StdPeriph_Driver/src/stm32f30x_adc.c ****   *     @arg ADC_ExternalTrigEventEdge_FallingEdge: Hardware trigger detection on the falling edge
1306:../Libraries/STM32F30x_StdPeriph_Driver/src/stm32f30x_adc.c ****   *     @arg ADC_ExternalTrigEventEdge_BothEdge: Hardware trigger detection on both the rising and 
1307:../Libraries/STM32F30x_StdPeriph_Driver/src/stm32f30x_adc.c ****   * @retval None
1308:../Libraries/STM32F30x_StdPeriph_Driver/src/stm32f30x_adc.c ****   */
1309:../Libraries/STM32F30x_StdPeriph_Driver/src/stm32f30x_adc.c **** void ADC_ExternalTriggerConfig(ADC_TypeDef* ADCx, uint16_t ADC_ExternalTrigConvEvent, uint16_t ADC_
1310:../Libraries/STM32F30x_StdPeriph_Driver/src/stm32f30x_adc.c **** {
 1906              		.loc 1 1310 0
 1907              		.cfi_startproc
 1908              		@ args = 0, pretend = 0, frame = 8
 1909              		@ frame_needed = 0, uses_anonymous_args = 0
 1910              		@ link register save eliminated.
 1911 0af4 82B0     		sub	sp, sp, #8
 1912              	.LCFI32:
 1913              		.cfi_def_cfa_offset 8
 1914 0af6 0190     		str	r0, [sp, #4]
 1915 0af8 1346     		mov	r3, r2
 1916 0afa 0A46     		mov	r2, r1	@ movhi
 1917 0afc ADF80220 		strh	r2, [sp, #2]	@ movhi
 1918 0b00 ADF80030 		strh	r3, [sp, #0]	@ movhi
1311:../Libraries/STM32F30x_StdPeriph_Driver/src/stm32f30x_adc.c ****   /* Check the parameters */
1312:../Libraries/STM32F30x_StdPeriph_Driver/src/stm32f30x_adc.c ****   assert_param(IS_ADC_ALL_PERIPH(ADCx));
1313:../Libraries/STM32F30x_StdPeriph_Driver/src/stm32f30x_adc.c ****   assert_param(IS_ADC_EXT_TRIG(ADC_ExternalTrigConvEvent));
1314:../Libraries/STM32F30x_StdPeriph_Driver/src/stm32f30x_adc.c ****   assert_param(IS_EXTERNALTRIG_EDGE(ADC_ExternalTrigEventEdge));
1315:../Libraries/STM32F30x_StdPeriph_Driver/src/stm32f30x_adc.c **** 
1316:../Libraries/STM32F30x_StdPeriph_Driver/src/stm32f30x_adc.c ****   /* Disable the selected ADC conversion on external event */
1317:../Libraries/STM32F30x_StdPeriph_Driver/src/stm32f30x_adc.c ****   ADCx->CFGR &= ~(ADC_CFGR_EXTEN | ADC_CFGR_EXTSEL);
 1919              		.loc 1 1317 0
 1920 0b04 019B     		ldr	r3, [sp, #4]
 1921 0b06 DB68     		ldr	r3, [r3, #12]
 1922 0b08 23F47C62 		bic	r2, r3, #4032
 1923 0b0c 019B     		ldr	r3, [sp, #4]
 1924 0b0e DA60     		str	r2, [r3, #12]
1318:../Libraries/STM32F30x_StdPeriph_Driver/src/stm32f30x_adc.c ****   ADCx->CFGR |= (uint32_t)(ADC_ExternalTrigEventEdge | ADC_ExternalTrigConvEvent);
 1925              		.loc 1 1318 0
 1926 0b10 019B     		ldr	r3, [sp, #4]
 1927 0b12 DA68     		ldr	r2, [r3, #12]
 1928 0b14 BDF80010 		ldrh	r1, [sp, #0]	@ movhi
 1929 0b18 BDF80230 		ldrh	r3, [sp, #2]	@ movhi
 1930 0b1c 0B43     		orrs	r3, r3, r1
 1931 0b1e 9BB2     		uxth	r3, r3
 1932 0b20 1A43     		orrs	r2, r2, r3
 1933 0b22 019B     		ldr	r3, [sp, #4]
 1934 0b24 DA60     		str	r2, [r3, #12]
1319:../Libraries/STM32F30x_StdPeriph_Driver/src/stm32f30x_adc.c **** }
 1935              		.loc 1 1319 0
 1936 0b26 02B0     		add	sp, sp, #8
 1937 0b28 7047     		bx	lr
 1938              		.cfi_endproc
 1939              	.LFE142:
 1941 0b2a 00BF     		.align	2
 1942              		.global	ADC_StartConversion
 1943              		.thumb
 1944              		.thumb_func
 1946              	ADC_StartConversion:
 1947              	.LFB143:
1320:../Libraries/STM32F30x_StdPeriph_Driver/src/stm32f30x_adc.c **** 
1321:../Libraries/STM32F30x_StdPeriph_Driver/src/stm32f30x_adc.c **** /**
1322:../Libraries/STM32F30x_StdPeriph_Driver/src/stm32f30x_adc.c ****   * @brief  Enables or disables the selected ADC start conversion .
1323:../Libraries/STM32F30x_StdPeriph_Driver/src/stm32f30x_adc.c ****   * @param  ADCx: where x can be 1, 2, 3 or 4 to select the ADC peripheral.
1324:../Libraries/STM32F30x_StdPeriph_Driver/src/stm32f30x_adc.c ****   * @retval None
1325:../Libraries/STM32F30x_StdPeriph_Driver/src/stm32f30x_adc.c ****   */
1326:../Libraries/STM32F30x_StdPeriph_Driver/src/stm32f30x_adc.c **** void ADC_StartConversion(ADC_TypeDef* ADCx)
1327:../Libraries/STM32F30x_StdPeriph_Driver/src/stm32f30x_adc.c **** {
 1948              		.loc 1 1327 0
 1949              		.cfi_startproc
 1950              		@ args = 0, pretend = 0, frame = 8
 1951              		@ frame_needed = 0, uses_anonymous_args = 0
 1952              		@ link register save eliminated.
 1953 0b2c 82B0     		sub	sp, sp, #8
 1954              	.LCFI33:
 1955              		.cfi_def_cfa_offset 8
 1956 0b2e 0190     		str	r0, [sp, #4]
1328:../Libraries/STM32F30x_StdPeriph_Driver/src/stm32f30x_adc.c ****   /* Check the parameters */
1329:../Libraries/STM32F30x_StdPeriph_Driver/src/stm32f30x_adc.c ****   assert_param(IS_ADC_ALL_PERIPH(ADCx));
1330:../Libraries/STM32F30x_StdPeriph_Driver/src/stm32f30x_adc.c **** 
1331:../Libraries/STM32F30x_StdPeriph_Driver/src/stm32f30x_adc.c ****   /* Set the ADSTART bit */
1332:../Libraries/STM32F30x_StdPeriph_Driver/src/stm32f30x_adc.c ****   ADCx->CR |= ADC_CR_ADSTART;
 1957              		.loc 1 1332 0
 1958 0b30 019B     		ldr	r3, [sp, #4]
 1959 0b32 9B68     		ldr	r3, [r3, #8]
 1960 0b34 43F00402 		orr	r2, r3, #4
 1961 0b38 019B     		ldr	r3, [sp, #4]
 1962 0b3a 9A60     		str	r2, [r3, #8]
1333:../Libraries/STM32F30x_StdPeriph_Driver/src/stm32f30x_adc.c **** }
 1963              		.loc 1 1333 0
 1964 0b3c 02B0     		add	sp, sp, #8
 1965 0b3e 7047     		bx	lr
 1966              		.cfi_endproc
 1967              	.LFE143:
 1969              		.align	2
 1970              		.global	ADC_GetStartConversionStatus
 1971              		.thumb
 1972              		.thumb_func
 1974              	ADC_GetStartConversionStatus:
 1975              	.LFB144:
1334:../Libraries/STM32F30x_StdPeriph_Driver/src/stm32f30x_adc.c **** 
1335:../Libraries/STM32F30x_StdPeriph_Driver/src/stm32f30x_adc.c **** /**
1336:../Libraries/STM32F30x_StdPeriph_Driver/src/stm32f30x_adc.c ****   * @brief  Gets the selected ADC start conversion Status.
1337:../Libraries/STM32F30x_StdPeriph_Driver/src/stm32f30x_adc.c ****   * @param  ADCx: where x can be 1, 2, 3 or 4 to select the ADC peripheral.
1338:../Libraries/STM32F30x_StdPeriph_Driver/src/stm32f30x_adc.c ****   * @retval The new state of ADC start conversion (SET or RESET).
1339:../Libraries/STM32F30x_StdPeriph_Driver/src/stm32f30x_adc.c ****   */
1340:../Libraries/STM32F30x_StdPeriph_Driver/src/stm32f30x_adc.c **** FlagStatus ADC_GetStartConversionStatus(ADC_TypeDef* ADCx)
1341:../Libraries/STM32F30x_StdPeriph_Driver/src/stm32f30x_adc.c **** {
 1976              		.loc 1 1341 0
 1977              		.cfi_startproc
 1978              		@ args = 0, pretend = 0, frame = 16
 1979              		@ frame_needed = 0, uses_anonymous_args = 0
 1980              		@ link register save eliminated.
 1981 0b40 84B0     		sub	sp, sp, #16
 1982              	.LCFI34:
 1983              		.cfi_def_cfa_offset 16
 1984 0b42 0190     		str	r0, [sp, #4]
1342:../Libraries/STM32F30x_StdPeriph_Driver/src/stm32f30x_adc.c ****   FlagStatus bitstatus = RESET;
 1985              		.loc 1 1342 0
 1986 0b44 4FF00003 		mov	r3, #0
 1987 0b48 8DF80F30 		strb	r3, [sp, #15]
1343:../Libraries/STM32F30x_StdPeriph_Driver/src/stm32f30x_adc.c ****   /* Check the parameters */
1344:../Libraries/STM32F30x_StdPeriph_Driver/src/stm32f30x_adc.c ****   assert_param(IS_ADC_ALL_PERIPH(ADCx));
1345:../Libraries/STM32F30x_StdPeriph_Driver/src/stm32f30x_adc.c ****   /* Check the status of ADSTART bit */
1346:../Libraries/STM32F30x_StdPeriph_Driver/src/stm32f30x_adc.c ****   if ((ADCx->CR & ADC_CR_ADSTART) != (uint32_t)RESET)
 1988              		.loc 1 1346 0
 1989 0b4c 019B     		ldr	r3, [sp, #4]
 1990 0b4e 9B68     		ldr	r3, [r3, #8]
 1991 0b50 03F00403 		and	r3, r3, #4
 1992 0b54 002B     		cmp	r3, #0
 1993 0b56 04D0     		beq	.L83
1347:../Libraries/STM32F30x_StdPeriph_Driver/src/stm32f30x_adc.c ****   {
1348:../Libraries/STM32F30x_StdPeriph_Driver/src/stm32f30x_adc.c ****     /* ADSTART bit is set */
1349:../Libraries/STM32F30x_StdPeriph_Driver/src/stm32f30x_adc.c ****     bitstatus = SET;
 1994              		.loc 1 1349 0
 1995 0b58 4FF00103 		mov	r3, #1
 1996 0b5c 8DF80F30 		strb	r3, [sp, #15]
 1997 0b60 03E0     		b	.L84
 1998              	.L83:
1350:../Libraries/STM32F30x_StdPeriph_Driver/src/stm32f30x_adc.c ****   }
1351:../Libraries/STM32F30x_StdPeriph_Driver/src/stm32f30x_adc.c ****   else
1352:../Libraries/STM32F30x_StdPeriph_Driver/src/stm32f30x_adc.c ****   {
1353:../Libraries/STM32F30x_StdPeriph_Driver/src/stm32f30x_adc.c ****     /* ADSTART bit is reset */
1354:../Libraries/STM32F30x_StdPeriph_Driver/src/stm32f30x_adc.c ****     bitstatus = RESET;
 1999              		.loc 1 1354 0
 2000 0b62 4FF00003 		mov	r3, #0
 2001 0b66 8DF80F30 		strb	r3, [sp, #15]
 2002              	.L84:
1355:../Libraries/STM32F30x_StdPeriph_Driver/src/stm32f30x_adc.c ****   }
1356:../Libraries/STM32F30x_StdPeriph_Driver/src/stm32f30x_adc.c ****   /* Return the ADSTART bit status */
1357:../Libraries/STM32F30x_StdPeriph_Driver/src/stm32f30x_adc.c ****   return  bitstatus;
 2003              		.loc 1 1357 0
 2004 0b6a 9DF80F30 		ldrb	r3, [sp, #15]	@ zero_extendqisi2
1358:../Libraries/STM32F30x_StdPeriph_Driver/src/stm32f30x_adc.c **** }
 2005              		.loc 1 1358 0
 2006 0b6e 1846     		mov	r0, r3
 2007 0b70 04B0     		add	sp, sp, #16
 2008 0b72 7047     		bx	lr
 2009              		.cfi_endproc
 2010              	.LFE144:
 2012              		.align	2
 2013              		.global	ADC_StopConversion
 2014              		.thumb
 2015              		.thumb_func
 2017              	ADC_StopConversion:
 2018              	.LFB145:
1359:../Libraries/STM32F30x_StdPeriph_Driver/src/stm32f30x_adc.c **** 
1360:../Libraries/STM32F30x_StdPeriph_Driver/src/stm32f30x_adc.c **** /**
1361:../Libraries/STM32F30x_StdPeriph_Driver/src/stm32f30x_adc.c ****   * @brief  Stops the selected ADC ongoing conversion.
1362:../Libraries/STM32F30x_StdPeriph_Driver/src/stm32f30x_adc.c ****   * @param  ADCx: where x can be 1, 2, 3 or 4 to select the ADC peripheral.
1363:../Libraries/STM32F30x_StdPeriph_Driver/src/stm32f30x_adc.c ****   * @retval None
1364:../Libraries/STM32F30x_StdPeriph_Driver/src/stm32f30x_adc.c ****   */
1365:../Libraries/STM32F30x_StdPeriph_Driver/src/stm32f30x_adc.c **** void ADC_StopConversion(ADC_TypeDef* ADCx)
1366:../Libraries/STM32F30x_StdPeriph_Driver/src/stm32f30x_adc.c **** {
 2019              		.loc 1 1366 0
 2020              		.cfi_startproc
 2021              		@ args = 0, pretend = 0, frame = 8
 2022              		@ frame_needed = 0, uses_anonymous_args = 0
 2023              		@ link register save eliminated.
 2024 0b74 82B0     		sub	sp, sp, #8
 2025              	.LCFI35:
 2026              		.cfi_def_cfa_offset 8
 2027 0b76 0190     		str	r0, [sp, #4]
1367:../Libraries/STM32F30x_StdPeriph_Driver/src/stm32f30x_adc.c ****   /* Check the parameters */
1368:../Libraries/STM32F30x_StdPeriph_Driver/src/stm32f30x_adc.c ****   assert_param(IS_ADC_ALL_PERIPH(ADCx));
1369:../Libraries/STM32F30x_StdPeriph_Driver/src/stm32f30x_adc.c **** 
1370:../Libraries/STM32F30x_StdPeriph_Driver/src/stm32f30x_adc.c ****   /* Set the ADSTP bit */
1371:../Libraries/STM32F30x_StdPeriph_Driver/src/stm32f30x_adc.c ****    ADCx->CR |= ADC_CR_ADSTP;
 2028              		.loc 1 1371 0
 2029 0b78 019B     		ldr	r3, [sp, #4]
 2030 0b7a 9B68     		ldr	r3, [r3, #8]
 2031 0b7c 43F01002 		orr	r2, r3, #16
 2032 0b80 019B     		ldr	r3, [sp, #4]
 2033 0b82 9A60     		str	r2, [r3, #8]
1372:../Libraries/STM32F30x_StdPeriph_Driver/src/stm32f30x_adc.c **** }
 2034              		.loc 1 1372 0
 2035 0b84 02B0     		add	sp, sp, #8
 2036 0b86 7047     		bx	lr
 2037              		.cfi_endproc
 2038              	.LFE145:
 2040              		.align	2
 2041              		.global	ADC_DiscModeChannelCountConfig
 2042              		.thumb
 2043              		.thumb_func
 2045              	ADC_DiscModeChannelCountConfig:
 2046              	.LFB146:
1373:../Libraries/STM32F30x_StdPeriph_Driver/src/stm32f30x_adc.c **** 
1374:../Libraries/STM32F30x_StdPeriph_Driver/src/stm32f30x_adc.c **** 
1375:../Libraries/STM32F30x_StdPeriph_Driver/src/stm32f30x_adc.c **** /**
1376:../Libraries/STM32F30x_StdPeriph_Driver/src/stm32f30x_adc.c ****   * @brief  Configures the discontinuous mode for the selected ADC regular
1377:../Libraries/STM32F30x_StdPeriph_Driver/src/stm32f30x_adc.c ****   *         group channel.
1378:../Libraries/STM32F30x_StdPeriph_Driver/src/stm32f30x_adc.c ****   * @param  ADCx: where x can be 1, 2, 3 or 4 to select the ADC peripheral.
1379:../Libraries/STM32F30x_StdPeriph_Driver/src/stm32f30x_adc.c ****   * @param  Number: specifies the discontinuous mode regular channel
1380:../Libraries/STM32F30x_StdPeriph_Driver/src/stm32f30x_adc.c ****   *         count value. This number must be between 1 and 8.
1381:../Libraries/STM32F30x_StdPeriph_Driver/src/stm32f30x_adc.c ****   * @retval None
1382:../Libraries/STM32F30x_StdPeriph_Driver/src/stm32f30x_adc.c ****   */
1383:../Libraries/STM32F30x_StdPeriph_Driver/src/stm32f30x_adc.c **** void ADC_DiscModeChannelCountConfig(ADC_TypeDef* ADCx, uint8_t Number)
1384:../Libraries/STM32F30x_StdPeriph_Driver/src/stm32f30x_adc.c **** {
 2047              		.loc 1 1384 0
 2048              		.cfi_startproc
 2049              		@ args = 0, pretend = 0, frame = 16
 2050              		@ frame_needed = 0, uses_anonymous_args = 0
 2051              		@ link register save eliminated.
 2052 0b88 84B0     		sub	sp, sp, #16
 2053              	.LCFI36:
 2054              		.cfi_def_cfa_offset 16
 2055 0b8a 0190     		str	r0, [sp, #4]
 2056 0b8c 0B46     		mov	r3, r1
 2057 0b8e 8DF80330 		strb	r3, [sp, #3]
1385:../Libraries/STM32F30x_StdPeriph_Driver/src/stm32f30x_adc.c ****   uint32_t tmpreg1 = 0;
 2058              		.loc 1 1385 0
 2059 0b92 4FF00003 		mov	r3, #0
 2060 0b96 0393     		str	r3, [sp, #12]
1386:../Libraries/STM32F30x_StdPeriph_Driver/src/stm32f30x_adc.c ****   uint32_t tmpreg2 = 0;
 2061              		.loc 1 1386 0
 2062 0b98 4FF00003 		mov	r3, #0
 2063 0b9c 0293     		str	r3, [sp, #8]
1387:../Libraries/STM32F30x_StdPeriph_Driver/src/stm32f30x_adc.c ****   /* Check the parameters */
1388:../Libraries/STM32F30x_StdPeriph_Driver/src/stm32f30x_adc.c ****   assert_param(IS_ADC_ALL_PERIPH(ADCx));
1389:../Libraries/STM32F30x_StdPeriph_Driver/src/stm32f30x_adc.c ****   assert_param(IS_ADC_REGULAR_DISC_NUMBER(Number));
1390:../Libraries/STM32F30x_StdPeriph_Driver/src/stm32f30x_adc.c ****   /* Get the old register value */
1391:../Libraries/STM32F30x_StdPeriph_Driver/src/stm32f30x_adc.c ****   tmpreg1 = ADCx->CFGR;
 2064              		.loc 1 1391 0
 2065 0b9e 019B     		ldr	r3, [sp, #4]
 2066 0ba0 DB68     		ldr	r3, [r3, #12]
 2067 0ba2 0393     		str	r3, [sp, #12]
1392:../Libraries/STM32F30x_StdPeriph_Driver/src/stm32f30x_adc.c ****   /* Clear the old discontinuous mode channel count */
1393:../Libraries/STM32F30x_StdPeriph_Driver/src/stm32f30x_adc.c ****   tmpreg1 &= ~(uint32_t)(ADC_CFGR_DISCNUM);
 2068              		.loc 1 1393 0
 2069 0ba4 039B     		ldr	r3, [sp, #12]
 2070 0ba6 23F46023 		bic	r3, r3, #917504
 2071 0baa 0393     		str	r3, [sp, #12]
1394:../Libraries/STM32F30x_StdPeriph_Driver/src/stm32f30x_adc.c ****   /* Set the discontinuous mode channel count */
1395:../Libraries/STM32F30x_StdPeriph_Driver/src/stm32f30x_adc.c ****   tmpreg2 = Number - 1;
 2072              		.loc 1 1395 0
 2073 0bac 9DF80330 		ldrb	r3, [sp, #3]	@ zero_extendqisi2
 2074 0bb0 03F1FF33 		add	r3, r3, #-1
 2075 0bb4 0293     		str	r3, [sp, #8]
1396:../Libraries/STM32F30x_StdPeriph_Driver/src/stm32f30x_adc.c ****   tmpreg1 |= tmpreg2 << 17;
 2076              		.loc 1 1396 0
 2077 0bb6 029B     		ldr	r3, [sp, #8]
 2078 0bb8 4FEA4343 		lsl	r3, r3, #17
 2079 0bbc 039A     		ldr	r2, [sp, #12]
 2080 0bbe 1343     		orrs	r3, r3, r2
 2081 0bc0 0393     		str	r3, [sp, #12]
1397:../Libraries/STM32F30x_StdPeriph_Driver/src/stm32f30x_adc.c ****   /* Store the new register value */
1398:../Libraries/STM32F30x_StdPeriph_Driver/src/stm32f30x_adc.c ****   ADCx->CFGR = tmpreg1;
 2082              		.loc 1 1398 0
 2083 0bc2 019B     		ldr	r3, [sp, #4]
 2084 0bc4 039A     		ldr	r2, [sp, #12]
 2085 0bc6 DA60     		str	r2, [r3, #12]
1399:../Libraries/STM32F30x_StdPeriph_Driver/src/stm32f30x_adc.c **** }
 2086              		.loc 1 1399 0
 2087 0bc8 04B0     		add	sp, sp, #16
 2088 0bca 7047     		bx	lr
 2089              		.cfi_endproc
 2090              	.LFE146:
 2092              		.align	2
 2093              		.global	ADC_DiscModeCmd
 2094              		.thumb
 2095              		.thumb_func
 2097              	ADC_DiscModeCmd:
 2098              	.LFB147:
1400:../Libraries/STM32F30x_StdPeriph_Driver/src/stm32f30x_adc.c **** 
1401:../Libraries/STM32F30x_StdPeriph_Driver/src/stm32f30x_adc.c **** /**
1402:../Libraries/STM32F30x_StdPeriph_Driver/src/stm32f30x_adc.c ****   * @brief  Enables or disables the discontinuous mode on regular group
1403:../Libraries/STM32F30x_StdPeriph_Driver/src/stm32f30x_adc.c ****   *         channel for the specified ADC
1404:../Libraries/STM32F30x_StdPeriph_Driver/src/stm32f30x_adc.c ****   * @param  ADCx: where x can be 1, 2, 3 or 4 to select the ADC peripheral.
1405:../Libraries/STM32F30x_StdPeriph_Driver/src/stm32f30x_adc.c ****   * @param  NewState: new state of the selected ADC discontinuous mode
1406:../Libraries/STM32F30x_StdPeriph_Driver/src/stm32f30x_adc.c ****   *         on regular group channel.
1407:../Libraries/STM32F30x_StdPeriph_Driver/src/stm32f30x_adc.c ****   *         This parameter can be: ENABLE or DISABLE.
1408:../Libraries/STM32F30x_StdPeriph_Driver/src/stm32f30x_adc.c ****   * @retval None
1409:../Libraries/STM32F30x_StdPeriph_Driver/src/stm32f30x_adc.c ****   */
1410:../Libraries/STM32F30x_StdPeriph_Driver/src/stm32f30x_adc.c **** void ADC_DiscModeCmd(ADC_TypeDef* ADCx, FunctionalState NewState)
1411:../Libraries/STM32F30x_StdPeriph_Driver/src/stm32f30x_adc.c **** {
 2099              		.loc 1 1411 0
 2100              		.cfi_startproc
 2101              		@ args = 0, pretend = 0, frame = 8
 2102              		@ frame_needed = 0, uses_anonymous_args = 0
 2103              		@ link register save eliminated.
 2104 0bcc 82B0     		sub	sp, sp, #8
 2105              	.LCFI37:
 2106              		.cfi_def_cfa_offset 8
 2107 0bce 0190     		str	r0, [sp, #4]
 2108 0bd0 0B46     		mov	r3, r1
 2109 0bd2 8DF80330 		strb	r3, [sp, #3]
1412:../Libraries/STM32F30x_StdPeriph_Driver/src/stm32f30x_adc.c ****   /* Check the parameters */
1413:../Libraries/STM32F30x_StdPeriph_Driver/src/stm32f30x_adc.c ****   assert_param(IS_ADC_ALL_PERIPH(ADCx));
1414:../Libraries/STM32F30x_StdPeriph_Driver/src/stm32f30x_adc.c ****   assert_param(IS_FUNCTIONAL_STATE(NewState));
1415:../Libraries/STM32F30x_StdPeriph_Driver/src/stm32f30x_adc.c ****   if (NewState != DISABLE)
 2110              		.loc 1 1415 0
 2111 0bd6 9DF80330 		ldrb	r3, [sp, #3]	@ zero_extendqisi2
 2112 0bda 002B     		cmp	r3, #0
 2113 0bdc 06D0     		beq	.L88
1416:../Libraries/STM32F30x_StdPeriph_Driver/src/stm32f30x_adc.c ****   {
1417:../Libraries/STM32F30x_StdPeriph_Driver/src/stm32f30x_adc.c ****     /* Enable the selected ADC regular discontinuous mode */
1418:../Libraries/STM32F30x_StdPeriph_Driver/src/stm32f30x_adc.c ****     ADCx->CFGR |= ADC_CFGR_DISCEN;
 2114              		.loc 1 1418 0
 2115 0bde 019B     		ldr	r3, [sp, #4]
 2116 0be0 DB68     		ldr	r3, [r3, #12]
 2117 0be2 43F48032 		orr	r2, r3, #65536
 2118 0be6 019B     		ldr	r3, [sp, #4]
 2119 0be8 DA60     		str	r2, [r3, #12]
 2120 0bea 05E0     		b	.L87
 2121              	.L88:
1419:../Libraries/STM32F30x_StdPeriph_Driver/src/stm32f30x_adc.c ****   }
1420:../Libraries/STM32F30x_StdPeriph_Driver/src/stm32f30x_adc.c ****   else
1421:../Libraries/STM32F30x_StdPeriph_Driver/src/stm32f30x_adc.c ****   {
1422:../Libraries/STM32F30x_StdPeriph_Driver/src/stm32f30x_adc.c ****     /* Disable the selected ADC regular discontinuous mode */
1423:../Libraries/STM32F30x_StdPeriph_Driver/src/stm32f30x_adc.c ****     ADCx->CFGR &= ~(uint32_t)(ADC_CFGR_DISCEN);
 2122              		.loc 1 1423 0
 2123 0bec 019B     		ldr	r3, [sp, #4]
 2124 0bee DB68     		ldr	r3, [r3, #12]
 2125 0bf0 23F48032 		bic	r2, r3, #65536
 2126 0bf4 019B     		ldr	r3, [sp, #4]
 2127 0bf6 DA60     		str	r2, [r3, #12]
 2128              	.L87:
1424:../Libraries/STM32F30x_StdPeriph_Driver/src/stm32f30x_adc.c ****   }
1425:../Libraries/STM32F30x_StdPeriph_Driver/src/stm32f30x_adc.c **** }
 2129              		.loc 1 1425 0
 2130 0bf8 02B0     		add	sp, sp, #8
 2131 0bfa 7047     		bx	lr
 2132              		.cfi_endproc
 2133              	.LFE147:
 2135              		.align	2
 2136              		.global	ADC_GetConversionValue
 2137              		.thumb
 2138              		.thumb_func
 2140              	ADC_GetConversionValue:
 2141              	.LFB148:
1426:../Libraries/STM32F30x_StdPeriph_Driver/src/stm32f30x_adc.c **** 
1427:../Libraries/STM32F30x_StdPeriph_Driver/src/stm32f30x_adc.c **** /**
1428:../Libraries/STM32F30x_StdPeriph_Driver/src/stm32f30x_adc.c ****   * @brief  Returns the last ADCx conversion result data for regular channel.
1429:../Libraries/STM32F30x_StdPeriph_Driver/src/stm32f30x_adc.c ****   * @param  ADCx: where x can be 1, 2, 3 or 4 to select the ADC peripheral.
1430:../Libraries/STM32F30x_StdPeriph_Driver/src/stm32f30x_adc.c ****   * @retval The Data conversion value.
1431:../Libraries/STM32F30x_StdPeriph_Driver/src/stm32f30x_adc.c ****   */
1432:../Libraries/STM32F30x_StdPeriph_Driver/src/stm32f30x_adc.c **** uint16_t ADC_GetConversionValue(ADC_TypeDef* ADCx)
1433:../Libraries/STM32F30x_StdPeriph_Driver/src/stm32f30x_adc.c **** {
 2142              		.loc 1 1433 0
 2143              		.cfi_startproc
 2144              		@ args = 0, pretend = 0, frame = 8
 2145              		@ frame_needed = 0, uses_anonymous_args = 0
 2146              		@ link register save eliminated.
 2147 0bfc 82B0     		sub	sp, sp, #8
 2148              	.LCFI38:
 2149              		.cfi_def_cfa_offset 8
 2150 0bfe 0190     		str	r0, [sp, #4]
1434:../Libraries/STM32F30x_StdPeriph_Driver/src/stm32f30x_adc.c ****   /* Check the parameters */
1435:../Libraries/STM32F30x_StdPeriph_Driver/src/stm32f30x_adc.c ****   assert_param(IS_ADC_ALL_PERIPH(ADCx));
1436:../Libraries/STM32F30x_StdPeriph_Driver/src/stm32f30x_adc.c ****   /* Return the selected ADC conversion value */
1437:../Libraries/STM32F30x_StdPeriph_Driver/src/stm32f30x_adc.c ****   return (uint16_t) ADCx->DR;
 2151              		.loc 1 1437 0
 2152 0c00 019B     		ldr	r3, [sp, #4]
 2153 0c02 1B6C     		ldr	r3, [r3, #64]
 2154 0c04 9BB2     		uxth	r3, r3
1438:../Libraries/STM32F30x_StdPeriph_Driver/src/stm32f30x_adc.c **** }
 2155              		.loc 1 1438 0
 2156 0c06 1846     		mov	r0, r3
 2157 0c08 02B0     		add	sp, sp, #8
 2158 0c0a 7047     		bx	lr
 2159              		.cfi_endproc
 2160              	.LFE148:
 2162              		.align	2
 2163              		.global	ADC_GetDualModeConversionValue
 2164              		.thumb
 2165              		.thumb_func
 2167              	ADC_GetDualModeConversionValue:
 2168              	.LFB149:
1439:../Libraries/STM32F30x_StdPeriph_Driver/src/stm32f30x_adc.c **** 
1440:../Libraries/STM32F30x_StdPeriph_Driver/src/stm32f30x_adc.c **** /**
1441:../Libraries/STM32F30x_StdPeriph_Driver/src/stm32f30x_adc.c ****   * @brief  Returns the last ADC1, ADC2, ADC3 and ADC4 regular conversions results 
1442:../Libraries/STM32F30x_StdPeriph_Driver/src/stm32f30x_adc.c ****   *         data in the selected dual mode.
1443:../Libraries/STM32F30x_StdPeriph_Driver/src/stm32f30x_adc.c ****   * @param  ADCx: where x can be 1, 2, 3 or 4 to select the ADC peripheral.  
1444:../Libraries/STM32F30x_StdPeriph_Driver/src/stm32f30x_adc.c ****   * @retval The Data conversion value.
1445:../Libraries/STM32F30x_StdPeriph_Driver/src/stm32f30x_adc.c ****   * @note   In dual mode, the value returned by this function is as following
1446:../Libraries/STM32F30x_StdPeriph_Driver/src/stm32f30x_adc.c ****   *           Data[15:0] : these bits contain the regular data of the Master ADC.
1447:../Libraries/STM32F30x_StdPeriph_Driver/src/stm32f30x_adc.c ****   *           Data[31:16]: these bits contain the regular data of the Slave ADC.           
1448:../Libraries/STM32F30x_StdPeriph_Driver/src/stm32f30x_adc.c ****   */
1449:../Libraries/STM32F30x_StdPeriph_Driver/src/stm32f30x_adc.c **** uint32_t ADC_GetDualModeConversionValue(ADC_TypeDef* ADCx)
1450:../Libraries/STM32F30x_StdPeriph_Driver/src/stm32f30x_adc.c **** {
 2169              		.loc 1 1450 0
 2170              		.cfi_startproc
 2171              		@ args = 0, pretend = 0, frame = 16
 2172              		@ frame_needed = 0, uses_anonymous_args = 0
 2173              		@ link register save eliminated.
 2174 0c0c 84B0     		sub	sp, sp, #16
 2175              	.LCFI39:
 2176              		.cfi_def_cfa_offset 16
 2177 0c0e 0190     		str	r0, [sp, #4]
1451:../Libraries/STM32F30x_StdPeriph_Driver/src/stm32f30x_adc.c ****   uint32_t tmpreg1 = 0;
 2178              		.loc 1 1451 0
 2179 0c10 4FF00003 		mov	r3, #0
 2180 0c14 0393     		str	r3, [sp, #12]
1452:../Libraries/STM32F30x_StdPeriph_Driver/src/stm32f30x_adc.c **** 
1453:../Libraries/STM32F30x_StdPeriph_Driver/src/stm32f30x_adc.c ****   /* Check the parameters */
1454:../Libraries/STM32F30x_StdPeriph_Driver/src/stm32f30x_adc.c ****   assert_param(IS_ADC_ALL_PERIPH(ADCx));
1455:../Libraries/STM32F30x_StdPeriph_Driver/src/stm32f30x_adc.c **** 
1456:../Libraries/STM32F30x_StdPeriph_Driver/src/stm32f30x_adc.c ****   if((ADCx == ADC1) || (ADCx== ADC2))
 2181              		.loc 1 1456 0
 2182 0c16 019B     		ldr	r3, [sp, #4]
 2183 0c18 B3F1A04F 		cmp	r3, #1342177280
 2184 0c1c 06D0     		beq	.L92
 2185              		.loc 1 1456 0 is_stmt 0 discriminator 1
 2186 0c1e 019A     		ldr	r2, [sp, #4]
 2187 0c20 4FF48073 		mov	r3, #256
 2188 0c24 C5F20003 		movt	r3, 20480
 2189 0c28 9A42     		cmp	r2, r3
 2190 0c2a 06D1     		bne	.L93
 2191              	.L92:
1457:../Libraries/STM32F30x_StdPeriph_Driver/src/stm32f30x_adc.c ****   {
1458:../Libraries/STM32F30x_StdPeriph_Driver/src/stm32f30x_adc.c ****     /* Get the dual mode conversion value */
1459:../Libraries/STM32F30x_StdPeriph_Driver/src/stm32f30x_adc.c ****     tmpreg1 = ADC1_2->CDR;
 2192              		.loc 1 1459 0 is_stmt 1
 2193 0c2c 4FF44073 		mov	r3, #768
 2194 0c30 C5F20003 		movt	r3, 20480
 2195 0c34 DB68     		ldr	r3, [r3, #12]
 2196 0c36 0393     		str	r3, [sp, #12]
 2197 0c38 05E0     		b	.L94
 2198              	.L93:
1460:../Libraries/STM32F30x_StdPeriph_Driver/src/stm32f30x_adc.c ****   }
1461:../Libraries/STM32F30x_StdPeriph_Driver/src/stm32f30x_adc.c ****   else
1462:../Libraries/STM32F30x_StdPeriph_Driver/src/stm32f30x_adc.c ****   {	
1463:../Libraries/STM32F30x_StdPeriph_Driver/src/stm32f30x_adc.c ****     /* Get the dual mode conversion value */
1464:../Libraries/STM32F30x_StdPeriph_Driver/src/stm32f30x_adc.c ****     tmpreg1 = ADC3_4->CDR;
 2199              		.loc 1 1464 0
 2200 0c3a 4FF4E063 		mov	r3, #1792
 2201 0c3e C5F20003 		movt	r3, 20480
 2202 0c42 DB68     		ldr	r3, [r3, #12]
 2203 0c44 0393     		str	r3, [sp, #12]
 2204              	.L94:
1465:../Libraries/STM32F30x_StdPeriph_Driver/src/stm32f30x_adc.c ****   }
1466:../Libraries/STM32F30x_StdPeriph_Driver/src/stm32f30x_adc.c ****   /* Return the dual mode conversion value */
1467:../Libraries/STM32F30x_StdPeriph_Driver/src/stm32f30x_adc.c ****   return (uint32_t) tmpreg1;
 2205              		.loc 1 1467 0
 2206 0c46 039B     		ldr	r3, [sp, #12]
1468:../Libraries/STM32F30x_StdPeriph_Driver/src/stm32f30x_adc.c **** }
 2207              		.loc 1 1468 0
 2208 0c48 1846     		mov	r0, r3
 2209 0c4a 04B0     		add	sp, sp, #16
 2210 0c4c 7047     		bx	lr
 2211              		.cfi_endproc
 2212              	.LFE149:
 2214 0c4e 00BF     		.align	2
 2215              		.global	ADC_SetChannelOffset1
 2216              		.thumb
 2217              		.thumb_func
 2219              	ADC_SetChannelOffset1:
 2220              	.LFB150:
1469:../Libraries/STM32F30x_StdPeriph_Driver/src/stm32f30x_adc.c **** 
1470:../Libraries/STM32F30x_StdPeriph_Driver/src/stm32f30x_adc.c **** /**
1471:../Libraries/STM32F30x_StdPeriph_Driver/src/stm32f30x_adc.c ****   * @brief  Set the ADC channels conversion value offset1
1472:../Libraries/STM32F30x_StdPeriph_Driver/src/stm32f30x_adc.c ****   * @param  ADCx: where x can be 1, 2, 3 or 4 to select the ADC peripheral.
1473:../Libraries/STM32F30x_StdPeriph_Driver/src/stm32f30x_adc.c ****   * @param  ADC_Channel: the ADC channel to configure. 
1474:../Libraries/STM32F30x_StdPeriph_Driver/src/stm32f30x_adc.c ****   *   This parameter can be one of the following values:
1475:../Libraries/STM32F30x_StdPeriph_Driver/src/stm32f30x_adc.c ****   *     @arg ADC_Channel_1: ADC Channel1 selected
1476:../Libraries/STM32F30x_StdPeriph_Driver/src/stm32f30x_adc.c ****   *     @arg ADC_Channel_2: ADC Channel2 selected
1477:../Libraries/STM32F30x_StdPeriph_Driver/src/stm32f30x_adc.c ****   *     @arg ADC_Channel_3: ADC Channel3 selected
1478:../Libraries/STM32F30x_StdPeriph_Driver/src/stm32f30x_adc.c ****   *     @arg ADC_Channel_4: ADC Channel4 selected
1479:../Libraries/STM32F30x_StdPeriph_Driver/src/stm32f30x_adc.c ****   *     @arg ADC_Channel_5: ADC Channel5 selected
1480:../Libraries/STM32F30x_StdPeriph_Driver/src/stm32f30x_adc.c ****   *     @arg ADC_Channel_6: ADC Channel6 selected
1481:../Libraries/STM32F30x_StdPeriph_Driver/src/stm32f30x_adc.c ****   *     @arg ADC_Channel_7: ADC Channel7 selected
1482:../Libraries/STM32F30x_StdPeriph_Driver/src/stm32f30x_adc.c ****   *     @arg ADC_Channel_8: ADC Channel8 selected
1483:../Libraries/STM32F30x_StdPeriph_Driver/src/stm32f30x_adc.c ****   *     @arg ADC_Channel_9: ADC Channel9 selected
1484:../Libraries/STM32F30x_StdPeriph_Driver/src/stm32f30x_adc.c ****   *     @arg ADC_Channel_10: ADC Channel10 selected
1485:../Libraries/STM32F30x_StdPeriph_Driver/src/stm32f30x_adc.c ****   *     @arg ADC_Channel_11: ADC Channel11 selected
1486:../Libraries/STM32F30x_StdPeriph_Driver/src/stm32f30x_adc.c ****   *     @arg ADC_Channel_12: ADC Channel12 selected
1487:../Libraries/STM32F30x_StdPeriph_Driver/src/stm32f30x_adc.c ****   *     @arg ADC_Channel_13: ADC Channel13 selected
1488:../Libraries/STM32F30x_StdPeriph_Driver/src/stm32f30x_adc.c ****   *     @arg ADC_Channel_14: ADC Channel14 selected
1489:../Libraries/STM32F30x_StdPeriph_Driver/src/stm32f30x_adc.c ****   *     @arg ADC_Channel_15: ADC Channel15 selected
1490:../Libraries/STM32F30x_StdPeriph_Driver/src/stm32f30x_adc.c ****   *     @arg ADC_Channel_16: ADC Channel16 selected
1491:../Libraries/STM32F30x_StdPeriph_Driver/src/stm32f30x_adc.c ****   *     @arg ADC_Channel_17: ADC Channel17 selected
1492:../Libraries/STM32F30x_StdPeriph_Driver/src/stm32f30x_adc.c ****   *     @arg ADC_Channel_18: ADC Channel18 selected
1493:../Libraries/STM32F30x_StdPeriph_Driver/src/stm32f30x_adc.c ****   * @param  Offset: the offset value for the selected ADC Channel
1494:../Libraries/STM32F30x_StdPeriph_Driver/src/stm32f30x_adc.c ****   *   This parameter must be a 12bit value.
1495:../Libraries/STM32F30x_StdPeriph_Driver/src/stm32f30x_adc.c ****   * @retval None
1496:../Libraries/STM32F30x_StdPeriph_Driver/src/stm32f30x_adc.c ****   */
1497:../Libraries/STM32F30x_StdPeriph_Driver/src/stm32f30x_adc.c **** void ADC_SetChannelOffset1(ADC_TypeDef* ADCx, uint8_t ADC_Channel, uint16_t Offset)
1498:../Libraries/STM32F30x_StdPeriph_Driver/src/stm32f30x_adc.c **** {
 2221              		.loc 1 1498 0
 2222              		.cfi_startproc
 2223              		@ args = 0, pretend = 0, frame = 8
 2224              		@ frame_needed = 0, uses_anonymous_args = 0
 2225              		@ link register save eliminated.
 2226 0c50 82B0     		sub	sp, sp, #8
 2227              	.LCFI40:
 2228              		.cfi_def_cfa_offset 8
 2229 0c52 0190     		str	r0, [sp, #4]
 2230 0c54 1346     		mov	r3, r2
 2231 0c56 0A46     		mov	r2, r1
 2232 0c58 8DF80320 		strb	r2, [sp, #3]
 2233 0c5c ADF80030 		strh	r3, [sp, #0]	@ movhi
1499:../Libraries/STM32F30x_StdPeriph_Driver/src/stm32f30x_adc.c ****   /* Check the parameters */
1500:../Libraries/STM32F30x_StdPeriph_Driver/src/stm32f30x_adc.c ****   assert_param(IS_ADC_ALL_PERIPH(ADCx));
1501:../Libraries/STM32F30x_StdPeriph_Driver/src/stm32f30x_adc.c ****   assert_param(IS_ADC_CHANNEL(ADC_Channel));
1502:../Libraries/STM32F30x_StdPeriph_Driver/src/stm32f30x_adc.c ****   assert_param(IS_ADC_OFFSET(Offset));
1503:../Libraries/STM32F30x_StdPeriph_Driver/src/stm32f30x_adc.c ****     
1504:../Libraries/STM32F30x_StdPeriph_Driver/src/stm32f30x_adc.c ****   /* Select the Channel */
1505:../Libraries/STM32F30x_StdPeriph_Driver/src/stm32f30x_adc.c ****   ADCx->OFR1 &= ~ (uint32_t) ADC_OFR1_OFFSET1_CH;
 2234              		.loc 1 1505 0
 2235 0c60 019B     		ldr	r3, [sp, #4]
 2236 0c62 1B6E     		ldr	r3, [r3, #96]
 2237 0c64 23F0F842 		bic	r2, r3, #2080374784
 2238 0c68 019B     		ldr	r3, [sp, #4]
 2239 0c6a 1A66     		str	r2, [r3, #96]
1506:../Libraries/STM32F30x_StdPeriph_Driver/src/stm32f30x_adc.c ****   ADCx->OFR1 |=	(uint32_t)((uint32_t)ADC_Channel << 26);
 2240              		.loc 1 1506 0
 2241 0c6c 019B     		ldr	r3, [sp, #4]
 2242 0c6e 1A6E     		ldr	r2, [r3, #96]
 2243 0c70 9DF80330 		ldrb	r3, [sp, #3]	@ zero_extendqisi2
 2244 0c74 4FEA8363 		lsl	r3, r3, #26
 2245 0c78 1A43     		orrs	r2, r2, r3
 2246 0c7a 019B     		ldr	r3, [sp, #4]
 2247 0c7c 1A66     		str	r2, [r3, #96]
1507:../Libraries/STM32F30x_StdPeriph_Driver/src/stm32f30x_adc.c **** 
1508:../Libraries/STM32F30x_StdPeriph_Driver/src/stm32f30x_adc.c ****   /* Set the data offset */
1509:../Libraries/STM32F30x_StdPeriph_Driver/src/stm32f30x_adc.c ****   ADCx->OFR1 &= ~ (uint32_t) ADC_OFR1_OFFSET1;
 2248              		.loc 1 1509 0
 2249 0c7e 019B     		ldr	r3, [sp, #4]
 2250 0c80 1B6E     		ldr	r3, [r3, #96]
 2251 0c82 23F47E63 		bic	r3, r3, #4064
 2252 0c86 23F01F03 		bic	r3, r3, #31
 2253 0c8a 019A     		ldr	r2, [sp, #4]
 2254 0c8c 1366     		str	r3, [r2, #96]
1510:../Libraries/STM32F30x_StdPeriph_Driver/src/stm32f30x_adc.c ****   ADCx->OFR1 |= (uint32_t)Offset;
 2255              		.loc 1 1510 0
 2256 0c8e 019B     		ldr	r3, [sp, #4]
 2257 0c90 1A6E     		ldr	r2, [r3, #96]
 2258 0c92 BDF80030 		ldrh	r3, [sp, #0]
 2259 0c96 1A43     		orrs	r2, r2, r3
 2260 0c98 019B     		ldr	r3, [sp, #4]
 2261 0c9a 1A66     		str	r2, [r3, #96]
1511:../Libraries/STM32F30x_StdPeriph_Driver/src/stm32f30x_adc.c **** }
 2262              		.loc 1 1511 0
 2263 0c9c 02B0     		add	sp, sp, #8
 2264 0c9e 7047     		bx	lr
 2265              		.cfi_endproc
 2266              	.LFE150:
 2268              		.align	2
 2269              		.global	ADC_SetChannelOffset2
 2270              		.thumb
 2271              		.thumb_func
 2273              	ADC_SetChannelOffset2:
 2274              	.LFB151:
1512:../Libraries/STM32F30x_StdPeriph_Driver/src/stm32f30x_adc.c **** 
1513:../Libraries/STM32F30x_StdPeriph_Driver/src/stm32f30x_adc.c **** /**
1514:../Libraries/STM32F30x_StdPeriph_Driver/src/stm32f30x_adc.c ****   * @brief  Set the ADC channels conversion value offset2
1515:../Libraries/STM32F30x_StdPeriph_Driver/src/stm32f30x_adc.c ****   * @param  ADCx: where x can be 1, 2, 3 or 4 to select the ADC peripheral.
1516:../Libraries/STM32F30x_StdPeriph_Driver/src/stm32f30x_adc.c ****   * @param  ADC_Channel: the ADC channel to configure. 
1517:../Libraries/STM32F30x_StdPeriph_Driver/src/stm32f30x_adc.c ****   *   This parameter can be one of the following values:
1518:../Libraries/STM32F30x_StdPeriph_Driver/src/stm32f30x_adc.c ****   *     @arg ADC_Channel_1: ADC Channel1 selected
1519:../Libraries/STM32F30x_StdPeriph_Driver/src/stm32f30x_adc.c ****   *     @arg ADC_Channel_2: ADC Channel2 selected
1520:../Libraries/STM32F30x_StdPeriph_Driver/src/stm32f30x_adc.c ****   *     @arg ADC_Channel_3: ADC Channel3 selected
1521:../Libraries/STM32F30x_StdPeriph_Driver/src/stm32f30x_adc.c ****   *     @arg ADC_Channel_4: ADC Channel4 selected
1522:../Libraries/STM32F30x_StdPeriph_Driver/src/stm32f30x_adc.c ****   *     @arg ADC_Channel_5: ADC Channel5 selected
1523:../Libraries/STM32F30x_StdPeriph_Driver/src/stm32f30x_adc.c ****   *     @arg ADC_Channel_6: ADC Channel6 selected
1524:../Libraries/STM32F30x_StdPeriph_Driver/src/stm32f30x_adc.c ****   *     @arg ADC_Channel_7: ADC Channel7 selected
1525:../Libraries/STM32F30x_StdPeriph_Driver/src/stm32f30x_adc.c ****   *     @arg ADC_Channel_8: ADC Channel8 selected
1526:../Libraries/STM32F30x_StdPeriph_Driver/src/stm32f30x_adc.c ****   *     @arg ADC_Channel_9: ADC Channel9 selected
1527:../Libraries/STM32F30x_StdPeriph_Driver/src/stm32f30x_adc.c ****   *     @arg ADC_Channel_10: ADC Channel10 selected
1528:../Libraries/STM32F30x_StdPeriph_Driver/src/stm32f30x_adc.c ****   *     @arg ADC_Channel_11: ADC Channel11 selected
1529:../Libraries/STM32F30x_StdPeriph_Driver/src/stm32f30x_adc.c ****   *     @arg ADC_Channel_12: ADC Channel12 selected
1530:../Libraries/STM32F30x_StdPeriph_Driver/src/stm32f30x_adc.c ****   *     @arg ADC_Channel_13: ADC Channel13 selected
1531:../Libraries/STM32F30x_StdPeriph_Driver/src/stm32f30x_adc.c ****   *     @arg ADC_Channel_14: ADC Channel14 selected
1532:../Libraries/STM32F30x_StdPeriph_Driver/src/stm32f30x_adc.c ****   *     @arg ADC_Channel_15: ADC Channel15 selected
1533:../Libraries/STM32F30x_StdPeriph_Driver/src/stm32f30x_adc.c ****   *     @arg ADC_Channel_16: ADC Channel16 selected
1534:../Libraries/STM32F30x_StdPeriph_Driver/src/stm32f30x_adc.c ****   *     @arg ADC_Channel_17: ADC Channel17 selected
1535:../Libraries/STM32F30x_StdPeriph_Driver/src/stm32f30x_adc.c ****   *     @arg ADC_Channel_18: ADC Channel18 selected
1536:../Libraries/STM32F30x_StdPeriph_Driver/src/stm32f30x_adc.c ****   * @param  Offset: the offset value for the selected ADC Channel
1537:../Libraries/STM32F30x_StdPeriph_Driver/src/stm32f30x_adc.c ****   *   This parameter must be a 12bit value.
1538:../Libraries/STM32F30x_StdPeriph_Driver/src/stm32f30x_adc.c ****   * @retval None
1539:../Libraries/STM32F30x_StdPeriph_Driver/src/stm32f30x_adc.c ****   */
