   1              		.syntax unified
   2              		.cpu cortex-m4
   3              		.eabi_attribute 27, 3
   4              		.fpu fpv4-sp-d16
   5              		.eabi_attribute 20, 1
   6              		.eabi_attribute 21, 1
   7              		.eabi_attribute 23, 3
   8              		.eabi_attribute 24, 1
   9              		.eabi_attribute 25, 1
  10              		.eabi_attribute 26, 1
  11              		.eabi_attribute 30, 6
  12              		.eabi_attribute 34, 1
  13              		.eabi_attribute 18, 4
  14              		.thumb
  15              		.file	"stm32f30x_comp.c"
  16              		.text
  17              	.Ltext0:
  18              		.cfi_sections	.debug_frame
  19              		.align	2
  20              		.global	COMP_DeInit
  21              		.thumb
  22              		.thumb_func
  24              	COMP_DeInit:
  25              	.LFB111:
  26              		.file 1 "../Libraries/STM32F30x_StdPeriph_Driver/src/stm32f30x_comp.c"
   1:../Libraries/STM32F30x_StdPeriph_Driver/src/stm32f30x_comp.c **** /**
   2:../Libraries/STM32F30x_StdPeriph_Driver/src/stm32f30x_comp.c ****   ******************************************************************************
   3:../Libraries/STM32F30x_StdPeriph_Driver/src/stm32f30x_comp.c ****   * @file    stm32f30x_comp.c
   4:../Libraries/STM32F30x_StdPeriph_Driver/src/stm32f30x_comp.c ****   * @author  MCD Application Team
   5:../Libraries/STM32F30x_StdPeriph_Driver/src/stm32f30x_comp.c ****   * @version V1.0.1
   6:../Libraries/STM32F30x_StdPeriph_Driver/src/stm32f30x_comp.c ****   * @date    23-October-2012
   7:../Libraries/STM32F30x_StdPeriph_Driver/src/stm32f30x_comp.c ****   * @brief   This file provides firmware functions to manage the following 
   8:../Libraries/STM32F30x_StdPeriph_Driver/src/stm32f30x_comp.c ****   *          functionalities of the 7 analog comparators (COMP1, COMP2...COMP7) peripheral: 
   9:../Libraries/STM32F30x_StdPeriph_Driver/src/stm32f30x_comp.c ****   *           + Comparators configuration
  10:../Libraries/STM32F30x_StdPeriph_Driver/src/stm32f30x_comp.c ****   *           + Window mode control
  11:../Libraries/STM32F30x_StdPeriph_Driver/src/stm32f30x_comp.c ****   *
  12:../Libraries/STM32F30x_StdPeriph_Driver/src/stm32f30x_comp.c ****   @verbatim
  13:../Libraries/STM32F30x_StdPeriph_Driver/src/stm32f30x_comp.c ****    
  14:../Libraries/STM32F30x_StdPeriph_Driver/src/stm32f30x_comp.c ****   ==============================================================================
  15:../Libraries/STM32F30x_StdPeriph_Driver/src/stm32f30x_comp.c ****                         ##### COMP Peripheral features #####
  16:../Libraries/STM32F30x_StdPeriph_Driver/src/stm32f30x_comp.c ****   ==============================================================================
  17:../Libraries/STM32F30x_StdPeriph_Driver/src/stm32f30x_comp.c ****   [..]       
  18:../Libraries/STM32F30x_StdPeriph_Driver/src/stm32f30x_comp.c ****       The device integrates 7 analog comparators COMP1, COMP2...COMP7:
  19:../Libraries/STM32F30x_StdPeriph_Driver/src/stm32f30x_comp.c ****       (#) The non inverting input and inverting input can be set to GPIO pins
  20:../Libraries/STM32F30x_StdPeriph_Driver/src/stm32f30x_comp.c ****           as shown in table1. COMP Inputs below.
  21:../Libraries/STM32F30x_StdPeriph_Driver/src/stm32f30x_comp.c ****   
  22:../Libraries/STM32F30x_StdPeriph_Driver/src/stm32f30x_comp.c ****       (#) The COMP output is internally is available using COMP_GetOutputLevel()
  23:../Libraries/STM32F30x_StdPeriph_Driver/src/stm32f30x_comp.c ****           and can be set on GPIO pins. Refer to table 2. COMP Outputs below.
  24:../Libraries/STM32F30x_StdPeriph_Driver/src/stm32f30x_comp.c ****   
  25:../Libraries/STM32F30x_StdPeriph_Driver/src/stm32f30x_comp.c ****       (#) The COMP output can be redirected to embedded timers (TIM1, TIM2, TIM3...)
  26:../Libraries/STM32F30x_StdPeriph_Driver/src/stm32f30x_comp.c ****           Refer to table 3. COMP Outputs redirection to embedded timers below.
  27:../Libraries/STM32F30x_StdPeriph_Driver/src/stm32f30x_comp.c ****   
  28:../Libraries/STM32F30x_StdPeriph_Driver/src/stm32f30x_comp.c ****       (#) The comparators COMP1 and COMP2, COMP3 and COMP4, COMP5 and COMP6 can be combined in wind
  29:../Libraries/STM32F30x_StdPeriph_Driver/src/stm32f30x_comp.c ****           mode and only COMP1, COMP3 and COMP5 non inverting input can be used as non-inverting inp
  30:../Libraries/STM32F30x_StdPeriph_Driver/src/stm32f30x_comp.c ****   
  31:../Libraries/STM32F30x_StdPeriph_Driver/src/stm32f30x_comp.c ****       (#) The seven comparators have interrupt capability with wake-up
  32:../Libraries/STM32F30x_StdPeriph_Driver/src/stm32f30x_comp.c ****           from Sleep and Stop modes (through the EXTI controller):
  33:../Libraries/STM32F30x_StdPeriph_Driver/src/stm32f30x_comp.c ****           (++) COMP1 is internally connected to EXTI Line 21
  34:../Libraries/STM32F30x_StdPeriph_Driver/src/stm32f30x_comp.c ****           (++) COMP2 is internally connected to EXTI Line 22
  35:../Libraries/STM32F30x_StdPeriph_Driver/src/stm32f30x_comp.c ****           (++) COMP3 is internally connected to EXTI Line 29
  36:../Libraries/STM32F30x_StdPeriph_Driver/src/stm32f30x_comp.c ****           (++) COMP4 is internally connected to EXTI Line 30
  37:../Libraries/STM32F30x_StdPeriph_Driver/src/stm32f30x_comp.c ****           (++) COMP5 is internally connected to EXTI Line 31
  38:../Libraries/STM32F30x_StdPeriph_Driver/src/stm32f30x_comp.c ****           (++) COMP6 is internally connected to EXTI Line 32
  39:../Libraries/STM32F30x_StdPeriph_Driver/src/stm32f30x_comp.c ****           (++) COMP7 is internally connected to EXTI Line 33
  40:../Libraries/STM32F30x_StdPeriph_Driver/src/stm32f30x_comp.c **** 
  41:../Libraries/STM32F30x_StdPeriph_Driver/src/stm32f30x_comp.c ****  [..] Table 1. COMP Inputs
  42:../Libraries/STM32F30x_StdPeriph_Driver/src/stm32f30x_comp.c ****  +------------------------------------------------------------------------------------------+     
  43:../Libraries/STM32F30x_StdPeriph_Driver/src/stm32f30x_comp.c ****  |                 |                | COMP1 | COMP2 | COMP3 | COMP4 | COMP5 | COMP6 | COMP7 |
  44:../Libraries/STM32F30x_StdPeriph_Driver/src/stm32f30x_comp.c ****  |-----------------|----------------|---------------|---------------------------------------|
  45:../Libraries/STM32F30x_StdPeriph_Driver/src/stm32f30x_comp.c ****  |                 | 1/4 VREFINT    |  OK   |  OK   |  OK   |  OK   |  OK   |  OK   |  OK   |
  46:../Libraries/STM32F30x_StdPeriph_Driver/src/stm32f30x_comp.c ****  |                 | 1/2 VREFINT    |  OK   |  OK   |  OK   |  OK   |  OK   |  OK   |  OK   |
  47:../Libraries/STM32F30x_StdPeriph_Driver/src/stm32f30x_comp.c ****  |                 | 3/4 VREFINT    |  OK   |  OK   |  OK   |  OK   |  OK   |  OK   |  OK   |
  48:../Libraries/STM32F30x_StdPeriph_Driver/src/stm32f30x_comp.c ****  | Inverting Input | VREFINT        |  OK   |  OK   |  OK   |  OK   |  OK   |  OK   |  OK   |
  49:../Libraries/STM32F30x_StdPeriph_Driver/src/stm32f30x_comp.c ****  |                 | DAC1 OUT (PA4) |  OK   |  OK   |  OK   |  OK   |  OK   |  OK   |  OK   |
  50:../Libraries/STM32F30x_StdPeriph_Driver/src/stm32f30x_comp.c ****  |                 | DAC2 OUT (PA5) |  OK   |  OK   |  OK   |  OK   |  OK   |  OK   |  OK   |
  51:../Libraries/STM32F30x_StdPeriph_Driver/src/stm32f30x_comp.c ****  |                 | IO1            |  PA0  |  PA2  |  PD15 |  PE8  |  PD13 |  PD10 |  PC0  |
  52:../Libraries/STM32F30x_StdPeriph_Driver/src/stm32f30x_comp.c ****  |                 | IO2            |  ---  |  ---  |  PB12 |  PB2  |  PB10 |  PB15 |  ---  |
  53:../Libraries/STM32F30x_StdPeriph_Driver/src/stm32f30x_comp.c ****  |-----------------|----------------|-------|-------|-------|-------|-------|-------|-------|
  54:../Libraries/STM32F30x_StdPeriph_Driver/src/stm32f30x_comp.c ****  |  Non Inverting  | IO1            |  PA1  |  PA7  |  PB14 |  PB0  |  PD12 |  PD11 |  PA0  |
  55:../Libraries/STM32F30x_StdPeriph_Driver/src/stm32f30x_comp.c ****  |    Input        | IO2            |  ---  |  PA3  |  PD14 |  PE7  |  PB13 |  PB11 |  PC1  |
  56:../Libraries/STM32F30x_StdPeriph_Driver/src/stm32f30x_comp.c ****  +------------------------------------------------------------------------------------------+  
  57:../Libraries/STM32F30x_StdPeriph_Driver/src/stm32f30x_comp.c **** 
  58:../Libraries/STM32F30x_StdPeriph_Driver/src/stm32f30x_comp.c ****  [..] Table 2. COMP Outputs
  59:../Libraries/STM32F30x_StdPeriph_Driver/src/stm32f30x_comp.c ****  +-------------------------------------------------------+     
  60:../Libraries/STM32F30x_StdPeriph_Driver/src/stm32f30x_comp.c ****  | COMP1 | COMP2 | COMP3 | COMP4 | COMP5 | COMP6 | COMP7 |
  61:../Libraries/STM32F30x_StdPeriph_Driver/src/stm32f30x_comp.c ****  |-------|-------|-------|-------|-------|-------|-------|
  62:../Libraries/STM32F30x_StdPeriph_Driver/src/stm32f30x_comp.c ****  |  PA0  |  PA2  |  PB1  |  PC8  |  PC7  |  PA10 |  PC2  |
  63:../Libraries/STM32F30x_StdPeriph_Driver/src/stm32f30x_comp.c ****  |  PF4  |  PA7  |  ---  |  PA8  |  PA9  |  PC6  |  ---  |
  64:../Libraries/STM32F30x_StdPeriph_Driver/src/stm32f30x_comp.c ****  |  PA6  |  PA12 |  ---  |  ---  |  ---  |  ---  |  ---  |
  65:../Libraries/STM32F30x_StdPeriph_Driver/src/stm32f30x_comp.c ****  |  PA11 |  PB9  |  ---  |  ---  |  ---  |  ---  |  ---  |
  66:../Libraries/STM32F30x_StdPeriph_Driver/src/stm32f30x_comp.c ****  |  PB8  |  ---  |  ---  |  ---  |  ---  |  ---  |  ---  |
  67:../Libraries/STM32F30x_StdPeriph_Driver/src/stm32f30x_comp.c ****  +-------------------------------------------------------+
  68:../Libraries/STM32F30x_StdPeriph_Driver/src/stm32f30x_comp.c **** 
  69:../Libraries/STM32F30x_StdPeriph_Driver/src/stm32f30x_comp.c ****  [..] Table 3. COMP Outputs redirection to embedded timers
  70:../Libraries/STM32F30x_StdPeriph_Driver/src/stm32f30x_comp.c ****  +-------------------------------------------------------------------------------------------------
  71:../Libraries/STM32F30x_StdPeriph_Driver/src/stm32f30x_comp.c ****  |     COMP1      |     COMP2      |     COMP3      |     COMP4      |     COMP5      |     COMP6  
  72:../Libraries/STM32F30x_StdPeriph_Driver/src/stm32f30x_comp.c ****  |----------------|----------------|----------------|----------------|----------------|------------
  73:../Libraries/STM32F30x_StdPeriph_Driver/src/stm32f30x_comp.c ****  |  TIM1 BKIN     |  TIM1 BKIN     |  TIM1 BKIN     |  TIM1 BKIN     |  TIM1 BKIN     |  TIM1 BKIN 
  74:../Libraries/STM32F30x_StdPeriph_Driver/src/stm32f30x_comp.c ****  |                |                |                |                |                |            
  75:../Libraries/STM32F30x_StdPeriph_Driver/src/stm32f30x_comp.c ****  |  TIM1 BKIN2    |  TIM1 BKIN2    |  TIM1 BKIN2    |  TIM1 BKIN2    |  TIM1 BKIN2    |  TIM1 BKIN2
  76:../Libraries/STM32F30x_StdPeriph_Driver/src/stm32f30x_comp.c ****  |                |                |                |                |                |            
  77:../Libraries/STM32F30x_StdPeriph_Driver/src/stm32f30x_comp.c ****  |  TIM8 BKIN     |  TIM8 BKIN     |  TIM8 BKIN     |  TIM8 BKIN     |  TIM8 BKIN     |  TIM8 BKIN 
  78:../Libraries/STM32F30x_StdPeriph_Driver/src/stm32f30x_comp.c ****  |                |                |                |                |                |            
  79:../Libraries/STM32F30x_StdPeriph_Driver/src/stm32f30x_comp.c ****  |  TIM8 BKIN2    |  TIM8 BKIN2    |  TIM8 BKIN2    |  TIM8 BKIN2    |  TIM8 BKIN2    |  TIM8 BKIN2
  80:../Libraries/STM32F30x_StdPeriph_Driver/src/stm32f30x_comp.c ****  |                |                |                |                |                |            
  81:../Libraries/STM32F30x_StdPeriph_Driver/src/stm32f30x_comp.c ****  |  TIM1 BKIN2    |  TIM1 BKIN2    |  TIM1 BKIN2    |  TIM1 BKIN2    |  TIM1 BKIN2    |  TIM1 BKIN2
  82:../Libraries/STM32F30x_StdPeriph_Driver/src/stm32f30x_comp.c ****  |     +          |     +          |     +          |     +          |     +          |     +      
  83:../Libraries/STM32F30x_StdPeriph_Driver/src/stm32f30x_comp.c ****  |  TIM8BKIN2     |  TIM8BKIN2     |  TIM8BKIN2     |  TIM8BKIN2     |  TIM8BKIN2     |  TIM8BKIN2 
  84:../Libraries/STM32F30x_StdPeriph_Driver/src/stm32f30x_comp.c ****  |                |                |                |                |                |            
  85:../Libraries/STM32F30x_StdPeriph_Driver/src/stm32f30x_comp.c ****  |  TIM1 OCREFCLR |  TIM1 OCREFCLR |  TIM1 OCREFCLR |  TIM8 OCREFCLR |  TIM8 OCREFCLR |  TIM8 OCREF
  86:../Libraries/STM32F30x_StdPeriph_Driver/src/stm32f30x_comp.c ****  |                |                |                |                |                |            
  87:../Libraries/STM32F30x_StdPeriph_Driver/src/stm32f30x_comp.c ****  |  TIM1 IC1      |  TIM1 IC1      |  TIM2 OCREFCLR |  TIM3 IC3      |  TIM2 IC1      |  TIM2 IC2  
  88:../Libraries/STM32F30x_StdPeriph_Driver/src/stm32f30x_comp.c ****  |                |                |                |                |                |            
  89:../Libraries/STM32F30x_StdPeriph_Driver/src/stm32f30x_comp.c ****  |  TIM2 IC4      |  TIM2 IC4      |  TIM3 IC2      |  TIM3 OCREFCLR |  TIM3 OCREFCLR |  TIM2 OCREF
  90:../Libraries/STM32F30x_StdPeriph_Driver/src/stm32f30x_comp.c ****  |                |                |                |                |                |            
  91:../Libraries/STM32F30x_StdPeriph_Driver/src/stm32f30x_comp.c ****  |  TIM2 OCREFCLR |  TIM2 OCREFCLR |  TIM4 IC1      |  TIM4 IC2      |  TIM4 IC3      |  TIM16 OCRE
  92:../Libraries/STM32F30x_StdPeriph_Driver/src/stm32f30x_comp.c ****  |                |                |                |                |                |            
  93:../Libraries/STM32F30x_StdPeriph_Driver/src/stm32f30x_comp.c ****  |  TIM3 IC1      |  TIM3 IC1      |  TIM15 IC1     |  TIM15 OCREFCLR|  TIM16 BKIN    |  TIM16 IC1 
  94:../Libraries/STM32F30x_StdPeriph_Driver/src/stm32f30x_comp.c ****  |                |                |                |                |                |            
  95:../Libraries/STM32F30x_StdPeriph_Driver/src/stm32f30x_comp.c ****  |  TIM3 OCREFCLR |  TIM3 OCREFCLR |  TIM15 BKIN    |  TIM15 IC2     |  TIM17 IC1     |  TIM4 IC4  
  96:../Libraries/STM32F30x_StdPeriph_Driver/src/stm32f30x_comp.c ****  +-------------------------------------------------------------------------------------------------
  97:../Libraries/STM32F30x_StdPeriph_Driver/src/stm32f30x_comp.c **** 
  98:../Libraries/STM32F30x_StdPeriph_Driver/src/stm32f30x_comp.c ****  [..] Table 4. COMP Outputs blanking sources
  99:../Libraries/STM32F30x_StdPeriph_Driver/src/stm32f30x_comp.c ****  +-------------------------------------------------------------------------------------------------
 100:../Libraries/STM32F30x_StdPeriph_Driver/src/stm32f30x_comp.c ****  |     COMP1      |     COMP2      |     COMP3      |     COMP4      |     COMP5      |     COMP6  
 101:../Libraries/STM32F30x_StdPeriph_Driver/src/stm32f30x_comp.c ****  |----------------|----------------|----------------|----------------|----------------|------------
 102:../Libraries/STM32F30x_StdPeriph_Driver/src/stm32f30x_comp.c ****  |  TIM1 OC5      |  TIM1 OC5      |  TIM1 OC5      |  TIM3 OC4      |  TIM3 OC3      |  TIM2 OC4  
 103:../Libraries/STM32F30x_StdPeriph_Driver/src/stm32f30x_comp.c ****  |                |                |                |                |                |            
 104:../Libraries/STM32F30x_StdPeriph_Driver/src/stm32f30x_comp.c ****  |  TIM2 OC3      |  TIM2 OC3      |  --------      |  TIM8 OC5      |  TIM8 OC5      |  TIM8 OC5  
 105:../Libraries/STM32F30x_StdPeriph_Driver/src/stm32f30x_comp.c ****  |                |                |                |                |                |            
 106:../Libraries/STM32F30x_StdPeriph_Driver/src/stm32f30x_comp.c ****  |  TIM3 OC3      |  TIM3 OC3      |  TIM2 OC4      |  TIM15 OC1     |  TIM8 BKIN     |  TIM15 OC2 
 107:../Libraries/STM32F30x_StdPeriph_Driver/src/stm32f30x_comp.c ****  |                |                |                |                |                |            
 108:../Libraries/STM32F30x_StdPeriph_Driver/src/stm32f30x_comp.c ****  +-------------------------------------------------------------------------------------------------
 109:../Libraries/STM32F30x_StdPeriph_Driver/src/stm32f30x_comp.c **** 
 110:../Libraries/STM32F30x_StdPeriph_Driver/src/stm32f30x_comp.c ****   
 111:../Libraries/STM32F30x_StdPeriph_Driver/src/stm32f30x_comp.c ****                          ##### How to use this driver #####
 112:../Libraries/STM32F30x_StdPeriph_Driver/src/stm32f30x_comp.c ****   ==============================================================================
 113:../Libraries/STM32F30x_StdPeriph_Driver/src/stm32f30x_comp.c ****   [..]
 114:../Libraries/STM32F30x_StdPeriph_Driver/src/stm32f30x_comp.c ****   This driver provides functions to configure and program the Comparators 
 115:../Libraries/STM32F30x_StdPeriph_Driver/src/stm32f30x_comp.c ****   of all STM32F30x devices.
 116:../Libraries/STM32F30x_StdPeriph_Driver/src/stm32f30x_comp.c ****   
 117:../Libraries/STM32F30x_StdPeriph_Driver/src/stm32f30x_comp.c ****   To use the comparator, perform the following steps:
 118:../Libraries/STM32F30x_StdPeriph_Driver/src/stm32f30x_comp.c ****   
 119:../Libraries/STM32F30x_StdPeriph_Driver/src/stm32f30x_comp.c ****   (#) Enable the SYSCFG APB clock to get write access to comparator
 120:../Libraries/STM32F30x_StdPeriph_Driver/src/stm32f30x_comp.c ****       register using RCC_APB2PeriphClockCmd(RCC_APB2Periph_SYSCFG, ENABLE);
 121:../Libraries/STM32F30x_StdPeriph_Driver/src/stm32f30x_comp.c ****   
 122:../Libraries/STM32F30x_StdPeriph_Driver/src/stm32f30x_comp.c ****   (#) Configure the comparator input in analog mode using GPIO_Init()
 123:../Libraries/STM32F30x_StdPeriph_Driver/src/stm32f30x_comp.c ****   
 124:../Libraries/STM32F30x_StdPeriph_Driver/src/stm32f30x_comp.c ****   (#) Configure the comparator output in alternate function mode
 125:../Libraries/STM32F30x_StdPeriph_Driver/src/stm32f30x_comp.c ****       using GPIO_Init() and use GPIO_PinAFConfig() function to map the
 126:../Libraries/STM32F30x_StdPeriph_Driver/src/stm32f30x_comp.c ****       comparator output to the GPIO pin
 127:../Libraries/STM32F30x_StdPeriph_Driver/src/stm32f30x_comp.c ****   
 128:../Libraries/STM32F30x_StdPeriph_Driver/src/stm32f30x_comp.c ****   (#) Configure the comparator using COMP_Init() function:
 129:../Libraries/STM32F30x_StdPeriph_Driver/src/stm32f30x_comp.c ****       (++) Select the inverting input
 130:../Libraries/STM32F30x_StdPeriph_Driver/src/stm32f30x_comp.c ****       (++) Select the non-inverting input
 131:../Libraries/STM32F30x_StdPeriph_Driver/src/stm32f30x_comp.c ****       (++) Select the output polarity  
 132:../Libraries/STM32F30x_StdPeriph_Driver/src/stm32f30x_comp.c ****       (++) Select the output redirection
 133:../Libraries/STM32F30x_StdPeriph_Driver/src/stm32f30x_comp.c ****       (++) Select the hysteresis level
 134:../Libraries/STM32F30x_StdPeriph_Driver/src/stm32f30x_comp.c ****       (++) Select the power mode
 135:../Libraries/STM32F30x_StdPeriph_Driver/src/stm32f30x_comp.c ****   
 136:../Libraries/STM32F30x_StdPeriph_Driver/src/stm32f30x_comp.c ****   (#) Enable the comparator using COMP_Cmd() function
 137:../Libraries/STM32F30x_StdPeriph_Driver/src/stm32f30x_comp.c ****   
 138:../Libraries/STM32F30x_StdPeriph_Driver/src/stm32f30x_comp.c ****   (#) If required enable the COMP interrupt by configuring and enabling
 139:../Libraries/STM32F30x_StdPeriph_Driver/src/stm32f30x_comp.c ****       EXTI line in Interrupt mode and selecting the desired sensitivity
 140:../Libraries/STM32F30x_StdPeriph_Driver/src/stm32f30x_comp.c ****       level using EXTI_Init() function. After that enable the comparator
 141:../Libraries/STM32F30x_StdPeriph_Driver/src/stm32f30x_comp.c ****       interrupt vector using NVIC_Init() function.
 142:../Libraries/STM32F30x_StdPeriph_Driver/src/stm32f30x_comp.c **** 
 143:../Libraries/STM32F30x_StdPeriph_Driver/src/stm32f30x_comp.c ****   @endverbatim
 144:../Libraries/STM32F30x_StdPeriph_Driver/src/stm32f30x_comp.c ****   *    
 145:../Libraries/STM32F30x_StdPeriph_Driver/src/stm32f30x_comp.c ****   ******************************************************************************
 146:../Libraries/STM32F30x_StdPeriph_Driver/src/stm32f30x_comp.c ****   * @attention
 147:../Libraries/STM32F30x_StdPeriph_Driver/src/stm32f30x_comp.c ****   *
 148:../Libraries/STM32F30x_StdPeriph_Driver/src/stm32f30x_comp.c ****   * <h2><center>&copy; COPYRIGHT 2012 STMicroelectronics</center></h2>
 149:../Libraries/STM32F30x_StdPeriph_Driver/src/stm32f30x_comp.c ****   *
 150:../Libraries/STM32F30x_StdPeriph_Driver/src/stm32f30x_comp.c ****   * Licensed under MCD-ST Liberty SW License Agreement V2, (the "License");
 151:../Libraries/STM32F30x_StdPeriph_Driver/src/stm32f30x_comp.c ****   * You may not use this file except in compliance with the License.
 152:../Libraries/STM32F30x_StdPeriph_Driver/src/stm32f30x_comp.c ****   * You may obtain a copy of the License at:
 153:../Libraries/STM32F30x_StdPeriph_Driver/src/stm32f30x_comp.c ****   *
 154:../Libraries/STM32F30x_StdPeriph_Driver/src/stm32f30x_comp.c ****   *        http://www.st.com/software_license_agreement_liberty_v2
 155:../Libraries/STM32F30x_StdPeriph_Driver/src/stm32f30x_comp.c ****   *
 156:../Libraries/STM32F30x_StdPeriph_Driver/src/stm32f30x_comp.c ****   * Unless required by applicable law or agreed to in writing, software 
 157:../Libraries/STM32F30x_StdPeriph_Driver/src/stm32f30x_comp.c ****   * distributed under the License is distributed on an "AS IS" BASIS, 
 158:../Libraries/STM32F30x_StdPeriph_Driver/src/stm32f30x_comp.c ****   * WITHOUT WARRANTIES OR CONDITIONS OF ANY KIND, either express or implied.
 159:../Libraries/STM32F30x_StdPeriph_Driver/src/stm32f30x_comp.c ****   * See the License for the specific language governing permissions and
 160:../Libraries/STM32F30x_StdPeriph_Driver/src/stm32f30x_comp.c ****   * limitations under the License.
 161:../Libraries/STM32F30x_StdPeriph_Driver/src/stm32f30x_comp.c ****   *
 162:../Libraries/STM32F30x_StdPeriph_Driver/src/stm32f30x_comp.c ****   ******************************************************************************
 163:../Libraries/STM32F30x_StdPeriph_Driver/src/stm32f30x_comp.c ****   */ 
 164:../Libraries/STM32F30x_StdPeriph_Driver/src/stm32f30x_comp.c **** 
 165:../Libraries/STM32F30x_StdPeriph_Driver/src/stm32f30x_comp.c **** /* Includes ------------------------------------------------------------------*/
 166:../Libraries/STM32F30x_StdPeriph_Driver/src/stm32f30x_comp.c **** #include "stm32f30x_comp.h"
 167:../Libraries/STM32F30x_StdPeriph_Driver/src/stm32f30x_comp.c **** 
 168:../Libraries/STM32F30x_StdPeriph_Driver/src/stm32f30x_comp.c **** /** @addtogroup STM32F30x_StdPeriph_Driver
 169:../Libraries/STM32F30x_StdPeriph_Driver/src/stm32f30x_comp.c ****   * @{
 170:../Libraries/STM32F30x_StdPeriph_Driver/src/stm32f30x_comp.c ****   */
 171:../Libraries/STM32F30x_StdPeriph_Driver/src/stm32f30x_comp.c **** 
 172:../Libraries/STM32F30x_StdPeriph_Driver/src/stm32f30x_comp.c **** /** @defgroup COMP 
 173:../Libraries/STM32F30x_StdPeriph_Driver/src/stm32f30x_comp.c ****   * @brief COMP driver modules
 174:../Libraries/STM32F30x_StdPeriph_Driver/src/stm32f30x_comp.c ****   * @{
 175:../Libraries/STM32F30x_StdPeriph_Driver/src/stm32f30x_comp.c ****   */ 
 176:../Libraries/STM32F30x_StdPeriph_Driver/src/stm32f30x_comp.c **** 
 177:../Libraries/STM32F30x_StdPeriph_Driver/src/stm32f30x_comp.c **** /* Private typedef -----------------------------------------------------------*/
 178:../Libraries/STM32F30x_StdPeriph_Driver/src/stm32f30x_comp.c **** /* Private define ------------------------------------------------------------*/
 179:../Libraries/STM32F30x_StdPeriph_Driver/src/stm32f30x_comp.c **** /* CSR register Mask */
 180:../Libraries/STM32F30x_StdPeriph_Driver/src/stm32f30x_comp.c **** #define COMP_CSR_CLEAR_MASK              ((uint32_t)0x00000003)
 181:../Libraries/STM32F30x_StdPeriph_Driver/src/stm32f30x_comp.c **** 
 182:../Libraries/STM32F30x_StdPeriph_Driver/src/stm32f30x_comp.c **** /* Private macro -------------------------------------------------------------*/
 183:../Libraries/STM32F30x_StdPeriph_Driver/src/stm32f30x_comp.c **** /* Private variables ---------------------------------------------------------*/
 184:../Libraries/STM32F30x_StdPeriph_Driver/src/stm32f30x_comp.c **** /* Private function prototypes -----------------------------------------------*/
 185:../Libraries/STM32F30x_StdPeriph_Driver/src/stm32f30x_comp.c **** /* Private functions ---------------------------------------------------------*/
 186:../Libraries/STM32F30x_StdPeriph_Driver/src/stm32f30x_comp.c **** 
 187:../Libraries/STM32F30x_StdPeriph_Driver/src/stm32f30x_comp.c **** /** @defgroup COMP_Private_Functions
 188:../Libraries/STM32F30x_StdPeriph_Driver/src/stm32f30x_comp.c ****   * @{
 189:../Libraries/STM32F30x_StdPeriph_Driver/src/stm32f30x_comp.c ****   */
 190:../Libraries/STM32F30x_StdPeriph_Driver/src/stm32f30x_comp.c **** 
 191:../Libraries/STM32F30x_StdPeriph_Driver/src/stm32f30x_comp.c **** /** @defgroup COMP_Group1 Initialization and Configuration functions
 192:../Libraries/STM32F30x_StdPeriph_Driver/src/stm32f30x_comp.c ****  *  @brief   Initialization and Configuration functions 
 193:../Libraries/STM32F30x_StdPeriph_Driver/src/stm32f30x_comp.c ****  *
 194:../Libraries/STM32F30x_StdPeriph_Driver/src/stm32f30x_comp.c **** @verbatim   
 195:../Libraries/STM32F30x_StdPeriph_Driver/src/stm32f30x_comp.c ****  ===============================================================================
 196:../Libraries/STM32F30x_StdPeriph_Driver/src/stm32f30x_comp.c ****             ##### Initialization and Configuration functions #####
 197:../Libraries/STM32F30x_StdPeriph_Driver/src/stm32f30x_comp.c ****  ===============================================================================  
 198:../Libraries/STM32F30x_StdPeriph_Driver/src/stm32f30x_comp.c **** 
 199:../Libraries/STM32F30x_StdPeriph_Driver/src/stm32f30x_comp.c **** @endverbatim
 200:../Libraries/STM32F30x_StdPeriph_Driver/src/stm32f30x_comp.c ****   * @{
 201:../Libraries/STM32F30x_StdPeriph_Driver/src/stm32f30x_comp.c ****   */
 202:../Libraries/STM32F30x_StdPeriph_Driver/src/stm32f30x_comp.c ****    
 203:../Libraries/STM32F30x_StdPeriph_Driver/src/stm32f30x_comp.c **** /**
 204:../Libraries/STM32F30x_StdPeriph_Driver/src/stm32f30x_comp.c ****   * @brief  Deinitializes COMP peripheral registers to their default reset values.
 205:../Libraries/STM32F30x_StdPeriph_Driver/src/stm32f30x_comp.c ****   * @note   Deinitialization can't be performed if the COMP configuration is locked.
 206:../Libraries/STM32F30x_StdPeriph_Driver/src/stm32f30x_comp.c ****   *         To unlock the configuration, perform a system reset.
 207:../Libraries/STM32F30x_StdPeriph_Driver/src/stm32f30x_comp.c ****   * @param  COMP_Selection: the selected comparator. 
 208:../Libraries/STM32F30x_StdPeriph_Driver/src/stm32f30x_comp.c ****   *          This parameter can be COMP_Selection_COMPx where x can be 1 to 7
 209:../Libraries/STM32F30x_StdPeriph_Driver/src/stm32f30x_comp.c ****   *          to select the COMP peripheral.
 210:../Libraries/STM32F30x_StdPeriph_Driver/src/stm32f30x_comp.c ****   * @param  None
 211:../Libraries/STM32F30x_StdPeriph_Driver/src/stm32f30x_comp.c ****   * @retval None
 212:../Libraries/STM32F30x_StdPeriph_Driver/src/stm32f30x_comp.c ****   */
 213:../Libraries/STM32F30x_StdPeriph_Driver/src/stm32f30x_comp.c **** void COMP_DeInit(uint32_t COMP_Selection)
 214:../Libraries/STM32F30x_StdPeriph_Driver/src/stm32f30x_comp.c **** {
  27              		.loc 1 214 0
  28              		.cfi_startproc
  29              		@ args = 0, pretend = 0, frame = 8
  30              		@ frame_needed = 0, uses_anonymous_args = 0
  31              		@ link register save eliminated.
  32 0000 82B0     		sub	sp, sp, #8
  33              	.LCFI0:
  34              		.cfi_def_cfa_offset 8
  35 0002 0190     		str	r0, [sp, #4]
 215:../Libraries/STM32F30x_StdPeriph_Driver/src/stm32f30x_comp.c ****   /*!< Set COMP_CSR register to reset value */
 216:../Libraries/STM32F30x_StdPeriph_Driver/src/stm32f30x_comp.c ****   *(__IO uint32_t *) (COMP_BASE + COMP_Selection) = ((uint32_t)0x00000000);
  36              		.loc 1 216 0
  37 0004 019A     		ldr	r2, [sp, #4]
  38 0006 4FF01C03 		mov	r3, #28
  39 000a C4F20103 		movt	r3, 16385
  40 000e D318     		adds	r3, r2, r3
  41 0010 4FF00002 		mov	r2, #0
  42 0014 1A60     		str	r2, [r3, #0]
 217:../Libraries/STM32F30x_StdPeriph_Driver/src/stm32f30x_comp.c **** }
  43              		.loc 1 217 0
  44 0016 02B0     		add	sp, sp, #8
  45 0018 7047     		bx	lr
  46              		.cfi_endproc
  47              	.LFE111:
  49 001a 00BF     		.align	2
  50              		.global	COMP_Init
  51              		.thumb
  52              		.thumb_func
  54              	COMP_Init:
  55              	.LFB112:
 218:../Libraries/STM32F30x_StdPeriph_Driver/src/stm32f30x_comp.c **** 
 219:../Libraries/STM32F30x_StdPeriph_Driver/src/stm32f30x_comp.c **** /**
 220:../Libraries/STM32F30x_StdPeriph_Driver/src/stm32f30x_comp.c ****   * @brief  Initializes the COMP peripheral according to the specified parameters
 221:../Libraries/STM32F30x_StdPeriph_Driver/src/stm32f30x_comp.c ****   *         in COMP_InitStruct
 222:../Libraries/STM32F30x_StdPeriph_Driver/src/stm32f30x_comp.c ****   * @note   If the selected comparator is locked, initialization can't be performed.
 223:../Libraries/STM32F30x_StdPeriph_Driver/src/stm32f30x_comp.c ****   *         To unlock the configuration, perform a system reset.
 224:../Libraries/STM32F30x_StdPeriph_Driver/src/stm32f30x_comp.c ****   * @note   By default, PA1 is selected as COMP1 non inverting input.
 225:../Libraries/STM32F30x_StdPeriph_Driver/src/stm32f30x_comp.c ****   *         To use PA4 as COMP1 non inverting input call COMP_SwitchCmd() after COMP_Init()
 226:../Libraries/STM32F30x_StdPeriph_Driver/src/stm32f30x_comp.c ****   * @param  COMP_Selection: the selected comparator. 
 227:../Libraries/STM32F30x_StdPeriph_Driver/src/stm32f30x_comp.c ****   *          This parameter can be COMP_Selection_COMPx where x can be 1 to 7
 228:../Libraries/STM32F30x_StdPeriph_Driver/src/stm32f30x_comp.c ****   *          to select the COMP peripheral.
 229:../Libraries/STM32F30x_StdPeriph_Driver/src/stm32f30x_comp.c ****   * @param  COMP_InitStruct: pointer to an COMP_InitTypeDef structure that contains 
 230:../Libraries/STM32F30x_StdPeriph_Driver/src/stm32f30x_comp.c ****   *         the configuration information for the specified COMP peripheral.
 231:../Libraries/STM32F30x_StdPeriph_Driver/src/stm32f30x_comp.c ****   *           - COMP_InvertingInput specifies the inverting input of COMP
 232:../Libraries/STM32F30x_StdPeriph_Driver/src/stm32f30x_comp.c ****   *           - COMP_NonInvertingInput specifies the non inverting input of COMP
 233:../Libraries/STM32F30x_StdPeriph_Driver/src/stm32f30x_comp.c ****   *           - COMP_Output connect COMP output to selected timer
 234:../Libraries/STM32F30x_StdPeriph_Driver/src/stm32f30x_comp.c ****   *             input (Input capture / Output Compare Reference Clear / Break Input)
 235:../Libraries/STM32F30x_StdPeriph_Driver/src/stm32f30x_comp.c ****   *           - COMP_BlankingSrce specifies the blanking source of COMP
 236:../Libraries/STM32F30x_StdPeriph_Driver/src/stm32f30x_comp.c ****   *           - COMP_OutputPol select output polarity
 237:../Libraries/STM32F30x_StdPeriph_Driver/src/stm32f30x_comp.c ****   *           - COMP_Hysteresis configures COMP hysteresis value
 238:../Libraries/STM32F30x_StdPeriph_Driver/src/stm32f30x_comp.c ****   *           - COMP_Mode configures COMP power mode
 239:../Libraries/STM32F30x_StdPeriph_Driver/src/stm32f30x_comp.c ****   * @retval None
 240:../Libraries/STM32F30x_StdPeriph_Driver/src/stm32f30x_comp.c ****   */
 241:../Libraries/STM32F30x_StdPeriph_Driver/src/stm32f30x_comp.c **** void COMP_Init(uint32_t COMP_Selection, COMP_InitTypeDef* COMP_InitStruct)
 242:../Libraries/STM32F30x_StdPeriph_Driver/src/stm32f30x_comp.c **** {
  56              		.loc 1 242 0
  57              		.cfi_startproc
  58              		@ args = 0, pretend = 0, frame = 16
  59              		@ frame_needed = 0, uses_anonymous_args = 0
  60              		@ link register save eliminated.
  61 001c 84B0     		sub	sp, sp, #16
  62              	.LCFI1:
  63              		.cfi_def_cfa_offset 16
  64 001e 0190     		str	r0, [sp, #4]
  65 0020 0091     		str	r1, [sp, #0]
 243:../Libraries/STM32F30x_StdPeriph_Driver/src/stm32f30x_comp.c ****   uint32_t tmpreg = 0;
  66              		.loc 1 243 0
  67 0022 4FF00003 		mov	r3, #0
  68 0026 0393     		str	r3, [sp, #12]
 244:../Libraries/STM32F30x_StdPeriph_Driver/src/stm32f30x_comp.c **** 
 245:../Libraries/STM32F30x_StdPeriph_Driver/src/stm32f30x_comp.c ****   /* Check the parameters */
 246:../Libraries/STM32F30x_StdPeriph_Driver/src/stm32f30x_comp.c ****   assert_param(IS_COMP_ALL_PERIPH(COMP_Selection));
 247:../Libraries/STM32F30x_StdPeriph_Driver/src/stm32f30x_comp.c ****   assert_param(IS_COMP_INVERTING_INPUT(COMP_InitStruct->COMP_InvertingInput));
 248:../Libraries/STM32F30x_StdPeriph_Driver/src/stm32f30x_comp.c ****   assert_param(IS_COMP_NONINVERTING_INPUT(COMP_InitStruct->COMP_NonInvertingInput));
 249:../Libraries/STM32F30x_StdPeriph_Driver/src/stm32f30x_comp.c ****   assert_param(IS_COMP_OUTPUT(COMP_InitStruct->COMP_Output));
 250:../Libraries/STM32F30x_StdPeriph_Driver/src/stm32f30x_comp.c ****   assert_param(IS_COMP_BLANKING_SOURCE(COMP_InitStruct->COMP_BlankingSrce));
 251:../Libraries/STM32F30x_StdPeriph_Driver/src/stm32f30x_comp.c ****   assert_param(IS_COMP_OUTPUT_POL(COMP_InitStruct->COMP_OutputPol));
 252:../Libraries/STM32F30x_StdPeriph_Driver/src/stm32f30x_comp.c ****   assert_param(IS_COMP_HYSTERESIS(COMP_InitStruct->COMP_Hysteresis));
 253:../Libraries/STM32F30x_StdPeriph_Driver/src/stm32f30x_comp.c ****   assert_param(IS_COMP_MODE(COMP_InitStruct->COMP_Mode));
 254:../Libraries/STM32F30x_StdPeriph_Driver/src/stm32f30x_comp.c **** 
 255:../Libraries/STM32F30x_StdPeriph_Driver/src/stm32f30x_comp.c ****   /*!< Get the COMPx_CSR register value */
 256:../Libraries/STM32F30x_StdPeriph_Driver/src/stm32f30x_comp.c ****   tmpreg = *(__IO uint32_t *) (COMP_BASE + COMP_Selection);
  69              		.loc 1 256 0
  70 0028 019A     		ldr	r2, [sp, #4]
  71 002a 4FF01C03 		mov	r3, #28
  72 002e C4F20103 		movt	r3, 16385
  73 0032 D318     		adds	r3, r2, r3
  74 0034 1B68     		ldr	r3, [r3, #0]
  75 0036 0393     		str	r3, [sp, #12]
 257:../Libraries/STM32F30x_StdPeriph_Driver/src/stm32f30x_comp.c **** 
 258:../Libraries/STM32F30x_StdPeriph_Driver/src/stm32f30x_comp.c ****   /*!< Clear the COMP1SW1, COMPxINSEL, COMPxOUTSEL, COMPxPOL, COMPxHYST and COMPxMODE bits */
 259:../Libraries/STM32F30x_StdPeriph_Driver/src/stm32f30x_comp.c ****   tmpreg &= (uint32_t) (COMP_CSR_CLEAR_MASK);
  76              		.loc 1 259 0
  77 0038 039B     		ldr	r3, [sp, #12]
  78 003a 03F00303 		and	r3, r3, #3
  79 003e 0393     		str	r3, [sp, #12]
 260:../Libraries/STM32F30x_StdPeriph_Driver/src/stm32f30x_comp.c **** 
 261:../Libraries/STM32F30x_StdPeriph_Driver/src/stm32f30x_comp.c ****   /*!< Configure COMP: inverting input, output redirection, hysteresis value and power mode */
 262:../Libraries/STM32F30x_StdPeriph_Driver/src/stm32f30x_comp.c ****   /*!< Set COMPxINSEL bits according to COMP_InitStruct->COMP_InvertingInput value */
 263:../Libraries/STM32F30x_StdPeriph_Driver/src/stm32f30x_comp.c ****   /*!< Set COMPxNONINSEL bits according to COMP_InitStruct->COMP_NonInvertingInput value */
 264:../Libraries/STM32F30x_StdPeriph_Driver/src/stm32f30x_comp.c ****   /*!< Set COMPxBLANKING bits according to COMP_InitStruct->COMP_BlankingSrce value */
 265:../Libraries/STM32F30x_StdPeriph_Driver/src/stm32f30x_comp.c ****   /*!< Set COMPxOUTSEL bits according to COMP_InitStruct->COMP_Output value */
 266:../Libraries/STM32F30x_StdPeriph_Driver/src/stm32f30x_comp.c ****   /*!< Set COMPxPOL bit according to COMP_InitStruct->COMP_OutputPol value */
 267:../Libraries/STM32F30x_StdPeriph_Driver/src/stm32f30x_comp.c ****   /*!< Set COMPxHYST bits according to COMP_InitStruct->COMP_Hysteresis value */
 268:../Libraries/STM32F30x_StdPeriph_Driver/src/stm32f30x_comp.c ****   /*!< Set COMPxMODE bits according to COMP_InitStruct->COMP_Mode value */
 269:../Libraries/STM32F30x_StdPeriph_Driver/src/stm32f30x_comp.c ****   tmpreg |= (uint32_t)(COMP_InitStruct->COMP_InvertingInput | COMP_InitStruct->COMP_NonInvertingInp
  80              		.loc 1 269 0
  81 0040 009B     		ldr	r3, [sp, #0]
  82 0042 1A68     		ldr	r2, [r3, #0]
  83 0044 009B     		ldr	r3, [sp, #0]
  84 0046 5B68     		ldr	r3, [r3, #4]
  85 0048 1A43     		orrs	r2, r2, r3
 270:../Libraries/STM32F30x_StdPeriph_Driver/src/stm32f30x_comp.c ****                         COMP_InitStruct->COMP_Output | COMP_InitStruct->COMP_OutputPol | COMP_InitS
  86              		.loc 1 270 0
  87 004a 009B     		ldr	r3, [sp, #0]
  88 004c 9B68     		ldr	r3, [r3, #8]
 269:../Libraries/STM32F30x_StdPeriph_Driver/src/stm32f30x_comp.c ****   tmpreg |= (uint32_t)(COMP_InitStruct->COMP_InvertingInput | COMP_InitStruct->COMP_NonInvertingInp
  89              		.loc 1 269 0
  90 004e 1A43     		orrs	r2, r2, r3
  91              		.loc 1 270 0
  92 0050 009B     		ldr	r3, [sp, #0]
  93 0052 1B69     		ldr	r3, [r3, #16]
  94 0054 1A43     		orrs	r2, r2, r3
  95 0056 009B     		ldr	r3, [sp, #0]
  96 0058 DB68     		ldr	r3, [r3, #12]
  97 005a 1A43     		orrs	r2, r2, r3
 271:../Libraries/STM32F30x_StdPeriph_Driver/src/stm32f30x_comp.c ****                         COMP_InitStruct->COMP_Hysteresis | COMP_InitStruct->COMP_Mode);
  98              		.loc 1 271 0
  99 005c 009B     		ldr	r3, [sp, #0]
 100 005e 5B69     		ldr	r3, [r3, #20]
 270:../Libraries/STM32F30x_StdPeriph_Driver/src/stm32f30x_comp.c ****                         COMP_InitStruct->COMP_Output | COMP_InitStruct->COMP_OutputPol | COMP_InitS
 101              		.loc 1 270 0
 102 0060 1A43     		orrs	r2, r2, r3
 103              		.loc 1 271 0
 104 0062 009B     		ldr	r3, [sp, #0]
 105 0064 9B69     		ldr	r3, [r3, #24]
 269:../Libraries/STM32F30x_StdPeriph_Driver/src/stm32f30x_comp.c ****   tmpreg |= (uint32_t)(COMP_InitStruct->COMP_InvertingInput | COMP_InitStruct->COMP_NonInvertingInp
 106              		.loc 1 269 0
 107 0066 1343     		orrs	r3, r3, r2
 108 0068 039A     		ldr	r2, [sp, #12]
 109 006a 1343     		orrs	r3, r3, r2
 110 006c 0393     		str	r3, [sp, #12]
 272:../Libraries/STM32F30x_StdPeriph_Driver/src/stm32f30x_comp.c **** 
 273:../Libraries/STM32F30x_StdPeriph_Driver/src/stm32f30x_comp.c ****   /*!< Write to COMPx_CSR register */
 274:../Libraries/STM32F30x_StdPeriph_Driver/src/stm32f30x_comp.c ****   *(__IO uint32_t *) (COMP_BASE + COMP_Selection) = tmpreg;
 111              		.loc 1 274 0
 112 006e 019A     		ldr	r2, [sp, #4]
 113 0070 4FF01C03 		mov	r3, #28
 114 0074 C4F20103 		movt	r3, 16385
 115 0078 D318     		adds	r3, r2, r3
 116 007a 039A     		ldr	r2, [sp, #12]
 117 007c 1A60     		str	r2, [r3, #0]
 275:../Libraries/STM32F30x_StdPeriph_Driver/src/stm32f30x_comp.c **** }
 118              		.loc 1 275 0
 119 007e 04B0     		add	sp, sp, #16
 120 0080 7047     		bx	lr
 121              		.cfi_endproc
 122              	.LFE112:
 124 0082 00BF     		.align	2
 125              		.global	COMP_StructInit
 126              		.thumb
 127              		.thumb_func
 129              	COMP_StructInit:
 130              	.LFB113:
 276:../Libraries/STM32F30x_StdPeriph_Driver/src/stm32f30x_comp.c **** 
 277:../Libraries/STM32F30x_StdPeriph_Driver/src/stm32f30x_comp.c **** /**
 278:../Libraries/STM32F30x_StdPeriph_Driver/src/stm32f30x_comp.c ****   * @brief  Fills each COMP_InitStruct member with its default value.
 279:../Libraries/STM32F30x_StdPeriph_Driver/src/stm32f30x_comp.c ****   * @param  COMP_InitStruct: pointer to an COMP_InitTypeDef structure which will 
 280:../Libraries/STM32F30x_StdPeriph_Driver/src/stm32f30x_comp.c ****   *         be initialized.
 281:../Libraries/STM32F30x_StdPeriph_Driver/src/stm32f30x_comp.c ****   * @retval None
 282:../Libraries/STM32F30x_StdPeriph_Driver/src/stm32f30x_comp.c ****   */
 283:../Libraries/STM32F30x_StdPeriph_Driver/src/stm32f30x_comp.c **** void COMP_StructInit(COMP_InitTypeDef* COMP_InitStruct)
 284:../Libraries/STM32F30x_StdPeriph_Driver/src/stm32f30x_comp.c **** {
 131              		.loc 1 284 0
 132              		.cfi_startproc
 133              		@ args = 0, pretend = 0, frame = 8
 134              		@ frame_needed = 0, uses_anonymous_args = 0
 135              		@ link register save eliminated.
 136 0084 82B0     		sub	sp, sp, #8
 137              	.LCFI2:
 138              		.cfi_def_cfa_offset 8
 139 0086 0190     		str	r0, [sp, #4]
 285:../Libraries/STM32F30x_StdPeriph_Driver/src/stm32f30x_comp.c ****   COMP_InitStruct->COMP_InvertingInput = COMP_InvertingInput_1_4VREFINT;
 140              		.loc 1 285 0
 141 0088 019B     		ldr	r3, [sp, #4]
 142 008a 4FF00002 		mov	r2, #0
 143 008e 1A60     		str	r2, [r3, #0]
 286:../Libraries/STM32F30x_StdPeriph_Driver/src/stm32f30x_comp.c ****   COMP_InitStruct->COMP_NonInvertingInput = COMP_NonInvertingInput_IO1;
 144              		.loc 1 286 0
 145 0090 019B     		ldr	r3, [sp, #4]
 146 0092 4FF00002 		mov	r2, #0
 147 0096 5A60     		str	r2, [r3, #4]
 287:../Libraries/STM32F30x_StdPeriph_Driver/src/stm32f30x_comp.c ****   COMP_InitStruct->COMP_Output = COMP_Output_None;
 148              		.loc 1 287 0
 149 0098 019B     		ldr	r3, [sp, #4]
 150 009a 4FF00002 		mov	r2, #0
 151 009e 9A60     		str	r2, [r3, #8]
 288:../Libraries/STM32F30x_StdPeriph_Driver/src/stm32f30x_comp.c ****   COMP_InitStruct->COMP_BlankingSrce = COMP_BlankingSrce_None;
 152              		.loc 1 288 0
 153 00a0 019B     		ldr	r3, [sp, #4]
 154 00a2 4FF00002 		mov	r2, #0
 155 00a6 DA60     		str	r2, [r3, #12]
 289:../Libraries/STM32F30x_StdPeriph_Driver/src/stm32f30x_comp.c ****   COMP_InitStruct->COMP_OutputPol = COMP_OutputPol_NonInverted;
 156              		.loc 1 289 0
 157 00a8 019B     		ldr	r3, [sp, #4]
 158 00aa 4FF00002 		mov	r2, #0
 159 00ae 1A61     		str	r2, [r3, #16]
 290:../Libraries/STM32F30x_StdPeriph_Driver/src/stm32f30x_comp.c ****   COMP_InitStruct->COMP_Hysteresis = COMP_Hysteresis_No;
 160              		.loc 1 290 0
 161 00b0 019B     		ldr	r3, [sp, #4]
 162 00b2 4FF00002 		mov	r2, #0
 163 00b6 5A61     		str	r2, [r3, #20]
 291:../Libraries/STM32F30x_StdPeriph_Driver/src/stm32f30x_comp.c ****   COMP_InitStruct->COMP_Mode = COMP_Mode_UltraLowPower;
 164              		.loc 1 291 0
 165 00b8 019B     		ldr	r3, [sp, #4]
 166 00ba 4FF00C02 		mov	r2, #12
 167 00be 9A61     		str	r2, [r3, #24]
 292:../Libraries/STM32F30x_StdPeriph_Driver/src/stm32f30x_comp.c **** }
 168              		.loc 1 292 0
 169 00c0 02B0     		add	sp, sp, #8
 170 00c2 7047     		bx	lr
 171              		.cfi_endproc
 172              	.LFE113:
 174              		.align	2
 175              		.global	COMP_Cmd
 176              		.thumb
 177              		.thumb_func
 179              	COMP_Cmd:
 180              	.LFB114:
 293:../Libraries/STM32F30x_StdPeriph_Driver/src/stm32f30x_comp.c **** 
 294:../Libraries/STM32F30x_StdPeriph_Driver/src/stm32f30x_comp.c **** /**
 295:../Libraries/STM32F30x_StdPeriph_Driver/src/stm32f30x_comp.c ****   * @brief  Enable or disable the COMP peripheral.
 296:../Libraries/STM32F30x_StdPeriph_Driver/src/stm32f30x_comp.c ****   * @note   If the selected comparator is locked, enable/disable can't be performed.
 297:../Libraries/STM32F30x_StdPeriph_Driver/src/stm32f30x_comp.c ****   *         To unlock the configuration, perform a system reset.
 298:../Libraries/STM32F30x_StdPeriph_Driver/src/stm32f30x_comp.c ****   * @param  COMP_Selection: the selected comparator. 
 299:../Libraries/STM32F30x_StdPeriph_Driver/src/stm32f30x_comp.c ****   *          This parameter can be COMP_Selection_COMPx where x can be 1 to 7
 300:../Libraries/STM32F30x_StdPeriph_Driver/src/stm32f30x_comp.c ****   *          to select the COMP peripheral.
 301:../Libraries/STM32F30x_StdPeriph_Driver/src/stm32f30x_comp.c ****   * @param  NewState: new state of the COMP peripheral.
 302:../Libraries/STM32F30x_StdPeriph_Driver/src/stm32f30x_comp.c ****   *         This parameter can be: ENABLE or DISABLE.
 303:../Libraries/STM32F30x_StdPeriph_Driver/src/stm32f30x_comp.c ****   *         When enabled, the comparator compares the non inverting input with 
 304:../Libraries/STM32F30x_StdPeriph_Driver/src/stm32f30x_comp.c ****   *                       the inverting input and the comparison result is available
 305:../Libraries/STM32F30x_StdPeriph_Driver/src/stm32f30x_comp.c ****   *                       on comparator output.
 306:../Libraries/STM32F30x_StdPeriph_Driver/src/stm32f30x_comp.c ****   *         When disabled, the comparator doesn't perform comparison and the 
 307:../Libraries/STM32F30x_StdPeriph_Driver/src/stm32f30x_comp.c ****   *                        output level is low.
 308:../Libraries/STM32F30x_StdPeriph_Driver/src/stm32f30x_comp.c ****   * @retval None
 309:../Libraries/STM32F30x_StdPeriph_Driver/src/stm32f30x_comp.c ****   */
 310:../Libraries/STM32F30x_StdPeriph_Driver/src/stm32f30x_comp.c **** void COMP_Cmd(uint32_t COMP_Selection, FunctionalState NewState)
 311:../Libraries/STM32F30x_StdPeriph_Driver/src/stm32f30x_comp.c **** {
 181              		.loc 1 311 0
 182              		.cfi_startproc
 183              		@ args = 0, pretend = 0, frame = 8
 184              		@ frame_needed = 0, uses_anonymous_args = 0
 185              		@ link register save eliminated.
 186 00c4 82B0     		sub	sp, sp, #8
 187              	.LCFI3:
 188              		.cfi_def_cfa_offset 8
 189 00c6 0190     		str	r0, [sp, #4]
 190 00c8 0B46     		mov	r3, r1
 191 00ca 8DF80330 		strb	r3, [sp, #3]
 312:../Libraries/STM32F30x_StdPeriph_Driver/src/stm32f30x_comp.c ****   /* Check the parameters */
 313:../Libraries/STM32F30x_StdPeriph_Driver/src/stm32f30x_comp.c ****   assert_param(IS_COMP_ALL_PERIPH(COMP_Selection));
 314:../Libraries/STM32F30x_StdPeriph_Driver/src/stm32f30x_comp.c ****   assert_param(IS_FUNCTIONAL_STATE(NewState));
 315:../Libraries/STM32F30x_StdPeriph_Driver/src/stm32f30x_comp.c **** 
 316:../Libraries/STM32F30x_StdPeriph_Driver/src/stm32f30x_comp.c ****   if (NewState != DISABLE)
 192              		.loc 1 316 0
 193 00ce 9DF80330 		ldrb	r3, [sp, #3]	@ zero_extendqisi2
 194 00d2 002B     		cmp	r3, #0
 195 00d4 11D0     		beq	.L5
 317:../Libraries/STM32F30x_StdPeriph_Driver/src/stm32f30x_comp.c ****   {
 318:../Libraries/STM32F30x_StdPeriph_Driver/src/stm32f30x_comp.c ****     /* Enable the selected COMPx peripheral */
 319:../Libraries/STM32F30x_StdPeriph_Driver/src/stm32f30x_comp.c ****     *(__IO uint32_t *) (COMP_BASE + COMP_Selection) |= (uint32_t) (COMP_CSR_COMPxEN);
 196              		.loc 1 319 0
 197 00d6 019A     		ldr	r2, [sp, #4]
 198 00d8 4FF01C03 		mov	r3, #28
 199 00dc C4F20103 		movt	r3, 16385
 200 00e0 D318     		adds	r3, r2, r3
 201 00e2 1A46     		mov	r2, r3
 202 00e4 0199     		ldr	r1, [sp, #4]
 203 00e6 4FF01C03 		mov	r3, #28
 204 00ea C4F20103 		movt	r3, 16385
 205 00ee CB18     		adds	r3, r1, r3
 206 00f0 1B68     		ldr	r3, [r3, #0]
 207 00f2 43F00103 		orr	r3, r3, #1
 208 00f6 1360     		str	r3, [r2, #0]
 209 00f8 10E0     		b	.L4
 210              	.L5:
 320:../Libraries/STM32F30x_StdPeriph_Driver/src/stm32f30x_comp.c ****   }
 321:../Libraries/STM32F30x_StdPeriph_Driver/src/stm32f30x_comp.c ****   else
 322:../Libraries/STM32F30x_StdPeriph_Driver/src/stm32f30x_comp.c ****   {
 323:../Libraries/STM32F30x_StdPeriph_Driver/src/stm32f30x_comp.c ****     /* Disable the selected COMP peripheral  */
 324:../Libraries/STM32F30x_StdPeriph_Driver/src/stm32f30x_comp.c ****     *(__IO uint32_t *) (COMP_BASE + COMP_Selection) &= (uint32_t)(~COMP_CSR_COMPxEN);
 211              		.loc 1 324 0
 212 00fa 019A     		ldr	r2, [sp, #4]
 213 00fc 4FF01C03 		mov	r3, #28
 214 0100 C4F20103 		movt	r3, 16385
 215 0104 D318     		adds	r3, r2, r3
 216 0106 1A46     		mov	r2, r3
 217 0108 0199     		ldr	r1, [sp, #4]
 218 010a 4FF01C03 		mov	r3, #28
 219 010e C4F20103 		movt	r3, 16385
 220 0112 CB18     		adds	r3, r1, r3
 221 0114 1B68     		ldr	r3, [r3, #0]
 222 0116 23F00103 		bic	r3, r3, #1
 223 011a 1360     		str	r3, [r2, #0]
 224              	.L4:
 325:../Libraries/STM32F30x_StdPeriph_Driver/src/stm32f30x_comp.c ****   }
 326:../Libraries/STM32F30x_StdPeriph_Driver/src/stm32f30x_comp.c **** }
 225              		.loc 1 326 0
 226 011c 02B0     		add	sp, sp, #8
 227 011e 7047     		bx	lr
 228              		.cfi_endproc
 229              	.LFE114:
 231              		.align	2
 232              		.global	COMP_SwitchCmd
 233              		.thumb
 234              		.thumb_func
 236              	COMP_SwitchCmd:
 237              	.LFB115:
 327:../Libraries/STM32F30x_StdPeriph_Driver/src/stm32f30x_comp.c **** 
 328:../Libraries/STM32F30x_StdPeriph_Driver/src/stm32f30x_comp.c **** /**
 329:../Libraries/STM32F30x_StdPeriph_Driver/src/stm32f30x_comp.c ****   * @brief  Close or Open the SW1 switch.
 330:../Libraries/STM32F30x_StdPeriph_Driver/src/stm32f30x_comp.c ****   * @note   If the COMP1 is locked, Close/Open the SW1 switch can't be performed.
 331:../Libraries/STM32F30x_StdPeriph_Driver/src/stm32f30x_comp.c ****   *         To unlock the configuration, perform a system reset.  
 332:../Libraries/STM32F30x_StdPeriph_Driver/src/stm32f30x_comp.c ****   * @note   This switch is solely intended to redirect signals onto high
 333:../Libraries/STM32F30x_StdPeriph_Driver/src/stm32f30x_comp.c ****   *         impedance input, such as COMP1 non-inverting input (highly resistive switch)
 334:../Libraries/STM32F30x_StdPeriph_Driver/src/stm32f30x_comp.c ****   * @param  NewState: New state of the analog switch.
 335:../Libraries/STM32F30x_StdPeriph_Driver/src/stm32f30x_comp.c ****   *   This parameter can be 
 336:../Libraries/STM32F30x_StdPeriph_Driver/src/stm32f30x_comp.c ****   *     ENABLE so the SW1 is closed; PA1 is connected to PA4
 337:../Libraries/STM32F30x_StdPeriph_Driver/src/stm32f30x_comp.c ****   *     or DISABLE so the SW1 switch is open; PA1 is disconnected from PA4
 338:../Libraries/STM32F30x_StdPeriph_Driver/src/stm32f30x_comp.c ****   * @retval None
 339:../Libraries/STM32F30x_StdPeriph_Driver/src/stm32f30x_comp.c ****   */
 340:../Libraries/STM32F30x_StdPeriph_Driver/src/stm32f30x_comp.c **** void COMP_SwitchCmd(uint32_t COMP_Selection, FunctionalState NewState)
 341:../Libraries/STM32F30x_StdPeriph_Driver/src/stm32f30x_comp.c **** {
 238              		.loc 1 341 0
 239              		.cfi_startproc
 240              		@ args = 0, pretend = 0, frame = 8
 241              		@ frame_needed = 0, uses_anonymous_args = 0
 242              		@ link register save eliminated.
 243 0120 82B0     		sub	sp, sp, #8
 244              	.LCFI4:
 245              		.cfi_def_cfa_offset 8
 246 0122 0190     		str	r0, [sp, #4]
 247 0124 0B46     		mov	r3, r1
 248 0126 8DF80330 		strb	r3, [sp, #3]
 342:../Libraries/STM32F30x_StdPeriph_Driver/src/stm32f30x_comp.c ****   /* Check the parameter */
 343:../Libraries/STM32F30x_StdPeriph_Driver/src/stm32f30x_comp.c ****   assert_param(IS_FUNCTIONAL_STATE(NewState));
 344:../Libraries/STM32F30x_StdPeriph_Driver/src/stm32f30x_comp.c **** 
 345:../Libraries/STM32F30x_StdPeriph_Driver/src/stm32f30x_comp.c ****   if (NewState != DISABLE)
 249              		.loc 1 345 0
 250 012a 9DF80330 		ldrb	r3, [sp, #3]	@ zero_extendqisi2
 251 012e 002B     		cmp	r3, #0
 252 0130 11D0     		beq	.L8
 346:../Libraries/STM32F30x_StdPeriph_Driver/src/stm32f30x_comp.c ****   {
 347:../Libraries/STM32F30x_StdPeriph_Driver/src/stm32f30x_comp.c ****     /* Close SW1 switch */
 348:../Libraries/STM32F30x_StdPeriph_Driver/src/stm32f30x_comp.c ****     *(__IO uint32_t *) (COMP_BASE + COMP_Selection) |= (uint32_t) (COMP_CSR_COMP1SW1);
 253              		.loc 1 348 0
 254 0132 019A     		ldr	r2, [sp, #4]
 255 0134 4FF01C03 		mov	r3, #28
 256 0138 C4F20103 		movt	r3, 16385
 257 013c D318     		adds	r3, r2, r3
 258 013e 1A46     		mov	r2, r3
 259 0140 0199     		ldr	r1, [sp, #4]
 260 0142 4FF01C03 		mov	r3, #28
 261 0146 C4F20103 		movt	r3, 16385
 262 014a CB18     		adds	r3, r1, r3
 263 014c 1B68     		ldr	r3, [r3, #0]
 264 014e 43F00203 		orr	r3, r3, #2
 265 0152 1360     		str	r3, [r2, #0]
 266 0154 10E0     		b	.L7
 267              	.L8:
 349:../Libraries/STM32F30x_StdPeriph_Driver/src/stm32f30x_comp.c ****   }
 350:../Libraries/STM32F30x_StdPeriph_Driver/src/stm32f30x_comp.c ****   else
 351:../Libraries/STM32F30x_StdPeriph_Driver/src/stm32f30x_comp.c ****   {
 352:../Libraries/STM32F30x_StdPeriph_Driver/src/stm32f30x_comp.c ****     /* Open SW1 switch */
 353:../Libraries/STM32F30x_StdPeriph_Driver/src/stm32f30x_comp.c ****     *(__IO uint32_t *) (COMP_BASE + COMP_Selection) &= (uint32_t)(~COMP_CSR_COMP1SW1);
 268              		.loc 1 353 0
 269 0156 019A     		ldr	r2, [sp, #4]
 270 0158 4FF01C03 		mov	r3, #28
 271 015c C4F20103 		movt	r3, 16385
 272 0160 D318     		adds	r3, r2, r3
 273 0162 1A46     		mov	r2, r3
 274 0164 0199     		ldr	r1, [sp, #4]
 275 0166 4FF01C03 		mov	r3, #28
 276 016a C4F20103 		movt	r3, 16385
 277 016e CB18     		adds	r3, r1, r3
 278 0170 1B68     		ldr	r3, [r3, #0]
 279 0172 23F00203 		bic	r3, r3, #2
 280 0176 1360     		str	r3, [r2, #0]
 281              	.L7:
 354:../Libraries/STM32F30x_StdPeriph_Driver/src/stm32f30x_comp.c ****   }
 355:../Libraries/STM32F30x_StdPeriph_Driver/src/stm32f30x_comp.c **** }
 282              		.loc 1 355 0
 283 0178 02B0     		add	sp, sp, #8
 284 017a 7047     		bx	lr
 285              		.cfi_endproc
 286              	.LFE115:
 288              		.align	2
 289              		.global	COMP_GetOutputLevel
 290              		.thumb
 291              		.thumb_func
 293              	COMP_GetOutputLevel:
 294              	.LFB116:
 356:../Libraries/STM32F30x_StdPeriph_Driver/src/stm32f30x_comp.c **** 
 357:../Libraries/STM32F30x_StdPeriph_Driver/src/stm32f30x_comp.c **** /**
 358:../Libraries/STM32F30x_StdPeriph_Driver/src/stm32f30x_comp.c ****   * @brief  Return the output level (high or low) of the selected comparator. 
 359:../Libraries/STM32F30x_StdPeriph_Driver/src/stm32f30x_comp.c ****   *         The output level depends on the selected polarity.
 360:../Libraries/STM32F30x_StdPeriph_Driver/src/stm32f30x_comp.c ****   *         If the polarity is not inverted:
 361:../Libraries/STM32F30x_StdPeriph_Driver/src/stm32f30x_comp.c ****   *           - Comparator output is low when the non-inverting input is at a lower
 362:../Libraries/STM32F30x_StdPeriph_Driver/src/stm32f30x_comp.c ****   *             voltage than the inverting input
 363:../Libraries/STM32F30x_StdPeriph_Driver/src/stm32f30x_comp.c ****   *           - Comparator output is high when the non-inverting input is at a higher
 364:../Libraries/STM32F30x_StdPeriph_Driver/src/stm32f30x_comp.c ****   *             voltage than the inverting input
 365:../Libraries/STM32F30x_StdPeriph_Driver/src/stm32f30x_comp.c ****   *         If the polarity is inverted:
 366:../Libraries/STM32F30x_StdPeriph_Driver/src/stm32f30x_comp.c ****   *           - Comparator output is high when the non-inverting input is at a lower
 367:../Libraries/STM32F30x_StdPeriph_Driver/src/stm32f30x_comp.c ****   *             voltage than the inverting input
 368:../Libraries/STM32F30x_StdPeriph_Driver/src/stm32f30x_comp.c ****   *           - Comparator output is low when the non-inverting input is at a higher
 369:../Libraries/STM32F30x_StdPeriph_Driver/src/stm32f30x_comp.c ****   *             voltage than the inverting input
 370:../Libraries/STM32F30x_StdPeriph_Driver/src/stm32f30x_comp.c ****   * @param  COMP_Selection: the selected comparator. 
 371:../Libraries/STM32F30x_StdPeriph_Driver/src/stm32f30x_comp.c ****   *          This parameter can be COMP_Selection_COMPx where x can be 1 to 7
 372:../Libraries/STM32F30x_StdPeriph_Driver/src/stm32f30x_comp.c ****   *          to select the COMP peripheral.
 373:../Libraries/STM32F30x_StdPeriph_Driver/src/stm32f30x_comp.c ****   * @retval Returns the selected comparator output level: low or high.
 374:../Libraries/STM32F30x_StdPeriph_Driver/src/stm32f30x_comp.c ****   *       
 375:../Libraries/STM32F30x_StdPeriph_Driver/src/stm32f30x_comp.c ****   */
 376:../Libraries/STM32F30x_StdPeriph_Driver/src/stm32f30x_comp.c **** uint32_t COMP_GetOutputLevel(uint32_t COMP_Selection)
 377:../Libraries/STM32F30x_StdPeriph_Driver/src/stm32f30x_comp.c **** {
 295              		.loc 1 377 0
 296              		.cfi_startproc
 297              		@ args = 0, pretend = 0, frame = 16
 298              		@ frame_needed = 0, uses_anonymous_args = 0
 299              		@ link register save eliminated.
 300 017c 84B0     		sub	sp, sp, #16
 301              	.LCFI5:
 302              		.cfi_def_cfa_offset 16
 303 017e 0190     		str	r0, [sp, #4]
 378:../Libraries/STM32F30x_StdPeriph_Driver/src/stm32f30x_comp.c ****   uint32_t compout = 0x0;
 304              		.loc 1 378 0
 305 0180 4FF00003 		mov	r3, #0
 306 0184 0393     		str	r3, [sp, #12]
 379:../Libraries/STM32F30x_StdPeriph_Driver/src/stm32f30x_comp.c **** 
 380:../Libraries/STM32F30x_StdPeriph_Driver/src/stm32f30x_comp.c ****   /* Check the parameters */
 381:../Libraries/STM32F30x_StdPeriph_Driver/src/stm32f30x_comp.c ****   assert_param(IS_COMP_ALL_PERIPH(COMP_Selection));
 382:../Libraries/STM32F30x_StdPeriph_Driver/src/stm32f30x_comp.c **** 
 383:../Libraries/STM32F30x_StdPeriph_Driver/src/stm32f30x_comp.c ****   /* Check if selected comparator output is high */
 384:../Libraries/STM32F30x_StdPeriph_Driver/src/stm32f30x_comp.c ****   if ((*(__IO uint32_t *) (COMP_BASE + COMP_Selection) & (COMP_CSR_COMPxOUT)) != 0)
 307              		.loc 1 384 0
 308 0186 019A     		ldr	r2, [sp, #4]
 309 0188 4FF01C03 		mov	r3, #28
 310 018c C4F20103 		movt	r3, 16385
 311 0190 D318     		adds	r3, r2, r3
 312 0192 1B68     		ldr	r3, [r3, #0]
 313 0194 03F08043 		and	r3, r3, #1073741824
 314 0198 002B     		cmp	r3, #0
 315 019a 03D0     		beq	.L11
 385:../Libraries/STM32F30x_StdPeriph_Driver/src/stm32f30x_comp.c ****   {
 386:../Libraries/STM32F30x_StdPeriph_Driver/src/stm32f30x_comp.c ****     compout = COMP_OutputLevel_High;
 316              		.loc 1 386 0
 317 019c 4FF08043 		mov	r3, #1073741824
 318 01a0 0393     		str	r3, [sp, #12]
 319 01a2 02E0     		b	.L12
 320              	.L11:
 387:../Libraries/STM32F30x_StdPeriph_Driver/src/stm32f30x_comp.c ****   }
 388:../Libraries/STM32F30x_StdPeriph_Driver/src/stm32f30x_comp.c ****   else
 389:../Libraries/STM32F30x_StdPeriph_Driver/src/stm32f30x_comp.c ****   {
 390:../Libraries/STM32F30x_StdPeriph_Driver/src/stm32f30x_comp.c ****     compout = COMP_OutputLevel_Low;
 321              		.loc 1 390 0
 322 01a4 4FF00003 		mov	r3, #0
 323 01a8 0393     		str	r3, [sp, #12]
 324              	.L12:
 391:../Libraries/STM32F30x_StdPeriph_Driver/src/stm32f30x_comp.c ****   }
 392:../Libraries/STM32F30x_StdPeriph_Driver/src/stm32f30x_comp.c **** 
 393:../Libraries/STM32F30x_StdPeriph_Driver/src/stm32f30x_comp.c ****   /* Return the comparator output level */
 394:../Libraries/STM32F30x_StdPeriph_Driver/src/stm32f30x_comp.c ****   return (uint32_t)(compout);
 325              		.loc 1 394 0
 326 01aa 039B     		ldr	r3, [sp, #12]
 395:../Libraries/STM32F30x_StdPeriph_Driver/src/stm32f30x_comp.c **** }
 327              		.loc 1 395 0
 328 01ac 1846     		mov	r0, r3
 329 01ae 04B0     		add	sp, sp, #16
 330 01b0 7047     		bx	lr
 331              		.cfi_endproc
 332              	.LFE116:
 334 01b2 00BF     		.align	2
 335              		.global	COMP_WindowCmd
 336              		.thumb
 337              		.thumb_func
 339              	COMP_WindowCmd:
 340              	.LFB117:
 396:../Libraries/STM32F30x_StdPeriph_Driver/src/stm32f30x_comp.c **** 
 397:../Libraries/STM32F30x_StdPeriph_Driver/src/stm32f30x_comp.c **** /**
 398:../Libraries/STM32F30x_StdPeriph_Driver/src/stm32f30x_comp.c ****   * @}
 399:../Libraries/STM32F30x_StdPeriph_Driver/src/stm32f30x_comp.c ****   */
 400:../Libraries/STM32F30x_StdPeriph_Driver/src/stm32f30x_comp.c **** 
 401:../Libraries/STM32F30x_StdPeriph_Driver/src/stm32f30x_comp.c **** /** @defgroup COMP_Group2 Window mode control function
 402:../Libraries/STM32F30x_StdPeriph_Driver/src/stm32f30x_comp.c ****  *  @brief   Window mode control function 
 403:../Libraries/STM32F30x_StdPeriph_Driver/src/stm32f30x_comp.c ****  *
 404:../Libraries/STM32F30x_StdPeriph_Driver/src/stm32f30x_comp.c **** @verbatim   
 405:../Libraries/STM32F30x_StdPeriph_Driver/src/stm32f30x_comp.c ****  ===============================================================================
 406:../Libraries/STM32F30x_StdPeriph_Driver/src/stm32f30x_comp.c ****                     ##### Window mode control function #####
 407:../Libraries/STM32F30x_StdPeriph_Driver/src/stm32f30x_comp.c ****  ===============================================================================  
 408:../Libraries/STM32F30x_StdPeriph_Driver/src/stm32f30x_comp.c **** 
 409:../Libraries/STM32F30x_StdPeriph_Driver/src/stm32f30x_comp.c **** @endverbatim
 410:../Libraries/STM32F30x_StdPeriph_Driver/src/stm32f30x_comp.c ****   * @{
 411:../Libraries/STM32F30x_StdPeriph_Driver/src/stm32f30x_comp.c ****   */
 412:../Libraries/STM32F30x_StdPeriph_Driver/src/stm32f30x_comp.c **** 
 413:../Libraries/STM32F30x_StdPeriph_Driver/src/stm32f30x_comp.c **** /**
 414:../Libraries/STM32F30x_StdPeriph_Driver/src/stm32f30x_comp.c ****   * @brief  Enables or disables the window mode.
 415:../Libraries/STM32F30x_StdPeriph_Driver/src/stm32f30x_comp.c ****   *         Window mode for comparators makes use of two comparators:
 416:../Libraries/STM32F30x_StdPeriph_Driver/src/stm32f30x_comp.c ****   *         COMP1 and COM2, COMP3 and COMP4, COMP5 and COMP6.
 417:../Libraries/STM32F30x_StdPeriph_Driver/src/stm32f30x_comp.c ****   *         In window mode, COMPx and COMPx-1 (where x can be 2, 4 or 6)
 418:../Libraries/STM32F30x_StdPeriph_Driver/src/stm32f30x_comp.c ****   *         non inverting inputs are connected together and only COMPx-1 non
 419:../Libraries/STM32F30x_StdPeriph_Driver/src/stm32f30x_comp.c ****   *         inverting input can be used.
 420:../Libraries/STM32F30x_StdPeriph_Driver/src/stm32f30x_comp.c ****   *         e.g When window mode enabled for COMP4, COMP3 non inverting input (PB14 or PD14)
 421:../Libraries/STM32F30x_StdPeriph_Driver/src/stm32f30x_comp.c ****   *             is to be used.
 422:../Libraries/STM32F30x_StdPeriph_Driver/src/stm32f30x_comp.c ****   * @note   If the COMPx is locked, ENABLE/DISABLE the window mode can't be performed.
 423:../Libraries/STM32F30x_StdPeriph_Driver/src/stm32f30x_comp.c ****   *         To unlock the configuration, perform a system reset.
 424:../Libraries/STM32F30x_StdPeriph_Driver/src/stm32f30x_comp.c ****   * @param  COMP_Selection: the selected comparator.
 425:../Libraries/STM32F30x_StdPeriph_Driver/src/stm32f30x_comp.c ****   *          This parameter can be COMP_Selection_COMPx where x can be 2, 4 or 6
 426:../Libraries/STM32F30x_StdPeriph_Driver/src/stm32f30x_comp.c ****   *          to select the COMP peripheral.
 427:../Libraries/STM32F30x_StdPeriph_Driver/src/stm32f30x_comp.c ****   * param   NewState: new state of the window mode.
 428:../Libraries/STM32F30x_StdPeriph_Driver/src/stm32f30x_comp.c ****   *   This parameter can be ENABLE or DISABLE.
 429:../Libraries/STM32F30x_StdPeriph_Driver/src/stm32f30x_comp.c ****   *        When enbaled, COMPx and COMPx-1 non inverting inputs are connected together.
 430:../Libraries/STM32F30x_StdPeriph_Driver/src/stm32f30x_comp.c ****   *        When disabled, COMPx and COMPx-1 non inverting inputs are disconnected.
 431:../Libraries/STM32F30x_StdPeriph_Driver/src/stm32f30x_comp.c ****   * @retval None
 432:../Libraries/STM32F30x_StdPeriph_Driver/src/stm32f30x_comp.c ****   */
 433:../Libraries/STM32F30x_StdPeriph_Driver/src/stm32f30x_comp.c **** void COMP_WindowCmd(uint32_t COMP_Selection, FunctionalState NewState)
 434:../Libraries/STM32F30x_StdPeriph_Driver/src/stm32f30x_comp.c **** {
 341              		.loc 1 434 0
 342              		.cfi_startproc
 343              		@ args = 0, pretend = 0, frame = 8
 344              		@ frame_needed = 0, uses_anonymous_args = 0
 345              		@ link register save eliminated.
 346 01b4 82B0     		sub	sp, sp, #8
 347              	.LCFI6:
 348              		.cfi_def_cfa_offset 8
 349 01b6 0190     		str	r0, [sp, #4]
 350 01b8 0B46     		mov	r3, r1
 351 01ba 8DF80330 		strb	r3, [sp, #3]
 435:../Libraries/STM32F30x_StdPeriph_Driver/src/stm32f30x_comp.c ****   /* Check the parameters */
 436:../Libraries/STM32F30x_StdPeriph_Driver/src/stm32f30x_comp.c ****   assert_param(IS_FUNCTIONAL_STATE(NewState));
 437:../Libraries/STM32F30x_StdPeriph_Driver/src/stm32f30x_comp.c ****   assert_param(IS_COMP_WINDOW(COMP_Selection));
 438:../Libraries/STM32F30x_StdPeriph_Driver/src/stm32f30x_comp.c ****   
 439:../Libraries/STM32F30x_StdPeriph_Driver/src/stm32f30x_comp.c ****   if (NewState != DISABLE)
 352              		.loc 1 439 0
 353 01be 9DF80330 		ldrb	r3, [sp, #3]	@ zero_extendqisi2
 354 01c2 002B     		cmp	r3, #0
 355 01c4 11D0     		beq	.L14
 440:../Libraries/STM32F30x_StdPeriph_Driver/src/stm32f30x_comp.c ****   {
 441:../Libraries/STM32F30x_StdPeriph_Driver/src/stm32f30x_comp.c ****     /* Enable the window mode */
 442:../Libraries/STM32F30x_StdPeriph_Driver/src/stm32f30x_comp.c ****     *(__IO uint32_t *) (COMP_BASE + COMP_Selection) |= (uint32_t) COMP_CSR_COMPxWNDWEN;
 356              		.loc 1 442 0
 357 01c6 019A     		ldr	r2, [sp, #4]
 358 01c8 4FF01C03 		mov	r3, #28
 359 01cc C4F20103 		movt	r3, 16385
 360 01d0 D318     		adds	r3, r2, r3
 361 01d2 1A46     		mov	r2, r3
 362 01d4 0199     		ldr	r1, [sp, #4]
 363 01d6 4FF01C03 		mov	r3, #28
 364 01da C4F20103 		movt	r3, 16385
 365 01de CB18     		adds	r3, r1, r3
 366 01e0 1B68     		ldr	r3, [r3, #0]
 367 01e2 43F40073 		orr	r3, r3, #512
 368 01e6 1360     		str	r3, [r2, #0]
 369 01e8 10E0     		b	.L13
 370              	.L14:
 443:../Libraries/STM32F30x_StdPeriph_Driver/src/stm32f30x_comp.c ****   }
 444:../Libraries/STM32F30x_StdPeriph_Driver/src/stm32f30x_comp.c ****   else
 445:../Libraries/STM32F30x_StdPeriph_Driver/src/stm32f30x_comp.c ****   {
 446:../Libraries/STM32F30x_StdPeriph_Driver/src/stm32f30x_comp.c ****     /* Disable the window mode */
 447:../Libraries/STM32F30x_StdPeriph_Driver/src/stm32f30x_comp.c ****     *(__IO uint32_t *) (COMP_BASE + COMP_Selection) &= (uint32_t)(~COMP_CSR_COMPxWNDWEN);
 371              		.loc 1 447 0
 372 01ea 019A     		ldr	r2, [sp, #4]
 373 01ec 4FF01C03 		mov	r3, #28
 374 01f0 C4F20103 		movt	r3, 16385
 375 01f4 D318     		adds	r3, r2, r3
 376 01f6 1A46     		mov	r2, r3
 377 01f8 0199     		ldr	r1, [sp, #4]
 378 01fa 4FF01C03 		mov	r3, #28
 379 01fe C4F20103 		movt	r3, 16385
 380 0202 CB18     		adds	r3, r1, r3
 381 0204 1B68     		ldr	r3, [r3, #0]
 382 0206 23F40073 		bic	r3, r3, #512
 383 020a 1360     		str	r3, [r2, #0]
 384              	.L13:
 448:../Libraries/STM32F30x_StdPeriph_Driver/src/stm32f30x_comp.c ****   }
 449:../Libraries/STM32F30x_StdPeriph_Driver/src/stm32f30x_comp.c **** }
 385              		.loc 1 449 0
 386 020c 02B0     		add	sp, sp, #8
 387 020e 7047     		bx	lr
 388              		.cfi_endproc
 389              	.LFE117:
 391              		.align	2
 392              		.global	COMP_LockConfig
 393              		.thumb
 394              		.thumb_func
 396              	COMP_LockConfig:
 397              	.LFB118:
 450:../Libraries/STM32F30x_StdPeriph_Driver/src/stm32f30x_comp.c **** 
 451:../Libraries/STM32F30x_StdPeriph_Driver/src/stm32f30x_comp.c **** /**
 452:../Libraries/STM32F30x_StdPeriph_Driver/src/stm32f30x_comp.c ****   * @}
 453:../Libraries/STM32F30x_StdPeriph_Driver/src/stm32f30x_comp.c ****   */
 454:../Libraries/STM32F30x_StdPeriph_Driver/src/stm32f30x_comp.c **** 
 455:../Libraries/STM32F30x_StdPeriph_Driver/src/stm32f30x_comp.c **** /** @defgroup COMP_Group3 COMP configuration locking function
 456:../Libraries/STM32F30x_StdPeriph_Driver/src/stm32f30x_comp.c ****  *  @brief   COMP1, COMP2,...COMP7 configuration locking function
 457:../Libraries/STM32F30x_StdPeriph_Driver/src/stm32f30x_comp.c ****  *           COMP1, COMP2,...COMP7 configuration can be locked each separately.
 458:../Libraries/STM32F30x_StdPeriph_Driver/src/stm32f30x_comp.c ****  *           Unlocking is performed by system reset.
 459:../Libraries/STM32F30x_StdPeriph_Driver/src/stm32f30x_comp.c ****  *
 460:../Libraries/STM32F30x_StdPeriph_Driver/src/stm32f30x_comp.c **** @verbatim   
 461:../Libraries/STM32F30x_StdPeriph_Driver/src/stm32f30x_comp.c ****  ===============================================================================
 462:../Libraries/STM32F30x_StdPeriph_Driver/src/stm32f30x_comp.c ****                    ##### Configuration Lock function #####
 463:../Libraries/STM32F30x_StdPeriph_Driver/src/stm32f30x_comp.c ****  ===============================================================================  
 464:../Libraries/STM32F30x_StdPeriph_Driver/src/stm32f30x_comp.c **** 
 465:../Libraries/STM32F30x_StdPeriph_Driver/src/stm32f30x_comp.c **** @endverbatim
 466:../Libraries/STM32F30x_StdPeriph_Driver/src/stm32f30x_comp.c ****   * @{
 467:../Libraries/STM32F30x_StdPeriph_Driver/src/stm32f30x_comp.c ****   */
 468:../Libraries/STM32F30x_StdPeriph_Driver/src/stm32f30x_comp.c **** 
 469:../Libraries/STM32F30x_StdPeriph_Driver/src/stm32f30x_comp.c **** /**
 470:../Libraries/STM32F30x_StdPeriph_Driver/src/stm32f30x_comp.c ****   * @brief  Lock the selected comparator (COMP1/COMP2) configuration.
 471:../Libraries/STM32F30x_StdPeriph_Driver/src/stm32f30x_comp.c ****   * @note   Locking the configuration means that all control bits are read-only.
 472:../Libraries/STM32F30x_StdPeriph_Driver/src/stm32f30x_comp.c ****   *         To unlock the comparator configuration, perform a system reset.
 473:../Libraries/STM32F30x_StdPeriph_Driver/src/stm32f30x_comp.c ****   * @param  COMP_Selection: the selected comparator. 
 474:../Libraries/STM32F30x_StdPeriph_Driver/src/stm32f30x_comp.c ****   *          This parameter can be COMP_Selection_COMPx where x can be 1 to 7
 475:../Libraries/STM32F30x_StdPeriph_Driver/src/stm32f30x_comp.c ****   *          to select the COMP peripheral.
 476:../Libraries/STM32F30x_StdPeriph_Driver/src/stm32f30x_comp.c ****   * @retval None
 477:../Libraries/STM32F30x_StdPeriph_Driver/src/stm32f30x_comp.c ****   */
 478:../Libraries/STM32F30x_StdPeriph_Driver/src/stm32f30x_comp.c **** void COMP_LockConfig(uint32_t COMP_Selection)
 479:../Libraries/STM32F30x_StdPeriph_Driver/src/stm32f30x_comp.c **** {
 398              		.loc 1 479 0
 399              		.cfi_startproc
 400              		@ args = 0, pretend = 0, frame = 8
 401              		@ frame_needed = 0, uses_anonymous_args = 0
 402              		@ link register save eliminated.
 403 0210 82B0     		sub	sp, sp, #8
 404              	.LCFI7:
 405              		.cfi_def_cfa_offset 8
 406 0212 0190     		str	r0, [sp, #4]
 480:../Libraries/STM32F30x_StdPeriph_Driver/src/stm32f30x_comp.c ****   /* Check the parameter */
 481:../Libraries/STM32F30x_StdPeriph_Driver/src/stm32f30x_comp.c ****   assert_param(IS_COMP_ALL_PERIPH(COMP_Selection));
 482:../Libraries/STM32F30x_StdPeriph_Driver/src/stm32f30x_comp.c **** 
 483:../Libraries/STM32F30x_StdPeriph_Driver/src/stm32f30x_comp.c ****   /* Set the lock bit corresponding to selected comparator */
 484:../Libraries/STM32F30x_StdPeriph_Driver/src/stm32f30x_comp.c ****   *(__IO uint32_t *) (COMP_BASE + COMP_Selection) |= (uint32_t) (COMP_CSR_COMPxLOCK);
 407              		.loc 1 484 0
 408 0214 019A     		ldr	r2, [sp, #4]
 409 0216 4FF01C03 		mov	r3, #28
 410 021a C4F20103 		movt	r3, 16385
 411 021e D318     		adds	r3, r2, r3
 412 0220 1A46     		mov	r2, r3
 413 0222 0199     		ldr	r1, [sp, #4]
 414 0224 4FF01C03 		mov	r3, #28
 415 0228 C4F20103 		movt	r3, 16385
 416 022c CB18     		adds	r3, r1, r3
 417 022e 1B68     		ldr	r3, [r3, #0]
 418 0230 43F00043 		orr	r3, r3, #-2147483648
 419 0234 1360     		str	r3, [r2, #0]
 485:../Libraries/STM32F30x_StdPeriph_Driver/src/stm32f30x_comp.c **** }
 420              		.loc 1 485 0
 421 0236 02B0     		add	sp, sp, #8
 422 0238 7047     		bx	lr
 423              		.cfi_endproc
 424              	.LFE118:
 426              	.Letext0:
 427              		.file 2 "c:\\program files\\codesourcery\\sourcery_codebench_lite_for_arm_eabi\\bin\\../lib/gcc/ar
 428              		.file 3 "D:\\Documents and Settings\\e722209\\Desktop\\workspace\\aq32Plus_F3\\Libraries\\Device\\
 429              		.file 4 "D:\\Documents and Settings\\e722209\\Desktop\\workspace\\aq32Plus_F3\\Libraries\\STM32F30
 430              		.file 5 "D:\\Documents and Settings\\e722209\\Desktop\\workspace\\aq32Plus_F3\\Libraries\\CMSIS\\I