   1              		.syntax unified
   2              		.cpu cortex-m4
   3              		.eabi_attribute 27, 3
   4              		.fpu fpv4-sp-d16
   5              		.eabi_attribute 20, 1
   6              		.eabi_attribute 21, 1
   7              		.eabi_attribute 23, 3
   8              		.eabi_attribute 24, 1
   9              		.eabi_attribute 25, 1
  10              		.eabi_attribute 26, 1
  11              		.eabi_attribute 30, 6
  12              		.eabi_attribute 34, 1
  13              		.eabi_attribute 18, 4
  14              		.thumb
  15              		.file	"stm32f30x_gpio.c"
  16              		.text
  17              	.Ltext0:
  18              		.cfi_sections	.debug_frame
  19              		.align	2
  20              		.global	GPIO_DeInit
  21              		.thumb
  22              		.thumb_func
  24              	GPIO_DeInit:
  25              	.LFB111:
  26              		.file 1 "../Libraries/STM32F30x_StdPeriph_Driver/src/stm32f30x_gpio.c"
   1:../Libraries/STM32F30x_StdPeriph_Driver/src/stm32f30x_gpio.c **** /**
   2:../Libraries/STM32F30x_StdPeriph_Driver/src/stm32f30x_gpio.c ****   ******************************************************************************
   3:../Libraries/STM32F30x_StdPeriph_Driver/src/stm32f30x_gpio.c ****   * @file    stm32f30x_gpio.c
   4:../Libraries/STM32F30x_StdPeriph_Driver/src/stm32f30x_gpio.c ****   * @author  MCD Application Team
   5:../Libraries/STM32F30x_StdPeriph_Driver/src/stm32f30x_gpio.c ****   * @version V1.0.1
   6:../Libraries/STM32F30x_StdPeriph_Driver/src/stm32f30x_gpio.c ****   * @date    23-October-2012
   7:../Libraries/STM32F30x_StdPeriph_Driver/src/stm32f30x_gpio.c ****   * @brief   This file provides firmware functions to manage the following 
   8:../Libraries/STM32F30x_StdPeriph_Driver/src/stm32f30x_gpio.c ****   *          functionalities of the GPIO peripheral:
   9:../Libraries/STM32F30x_StdPeriph_Driver/src/stm32f30x_gpio.c ****   *           + Initialization and Configuration functions
  10:../Libraries/STM32F30x_StdPeriph_Driver/src/stm32f30x_gpio.c ****   *           + GPIO Read and Write functions
  11:../Libraries/STM32F30x_StdPeriph_Driver/src/stm32f30x_gpio.c ****   *           + GPIO Alternate functions configuration functions
  12:../Libraries/STM32F30x_StdPeriph_Driver/src/stm32f30x_gpio.c ****   *
  13:../Libraries/STM32F30x_StdPeriph_Driver/src/stm32f30x_gpio.c ****   *  @verbatim
  14:../Libraries/STM32F30x_StdPeriph_Driver/src/stm32f30x_gpio.c **** 
  15:../Libraries/STM32F30x_StdPeriph_Driver/src/stm32f30x_gpio.c **** 
  16:../Libraries/STM32F30x_StdPeriph_Driver/src/stm32f30x_gpio.c ****  ===============================================================================
  17:../Libraries/STM32F30x_StdPeriph_Driver/src/stm32f30x_gpio.c ****                       ##### How to use this driver #####
  18:../Libraries/STM32F30x_StdPeriph_Driver/src/stm32f30x_gpio.c ****  ===============================================================================
  19:../Libraries/STM32F30x_StdPeriph_Driver/src/stm32f30x_gpio.c ****     [..]
  20:../Libraries/STM32F30x_StdPeriph_Driver/src/stm32f30x_gpio.c ****     (#) Enable the GPIO AHB clock using RCC_AHBPeriphClockCmd()
  21:../Libraries/STM32F30x_StdPeriph_Driver/src/stm32f30x_gpio.c ****     (#) Configure the GPIO pin(s) using GPIO_Init()
  22:../Libraries/STM32F30x_StdPeriph_Driver/src/stm32f30x_gpio.c ****         Four possible configuration are available for each pin:
  23:../Libraries/STM32F30x_StdPeriph_Driver/src/stm32f30x_gpio.c ****         (++) Input: Floating, Pull-up, Pull-down.
  24:../Libraries/STM32F30x_StdPeriph_Driver/src/stm32f30x_gpio.c ****         (++) Output: Push-Pull (Pull-up, Pull-down or no Pull),
  25:../Libraries/STM32F30x_StdPeriph_Driver/src/stm32f30x_gpio.c ****                      Open Drain (Pull-up, Pull-down or no Pull).
  26:../Libraries/STM32F30x_StdPeriph_Driver/src/stm32f30x_gpio.c ****              In output mode, the speed is configurable: Low, Medium, Fast or High.
  27:../Libraries/STM32F30x_StdPeriph_Driver/src/stm32f30x_gpio.c ****         (++) Alternate Function: Push-Pull (Pull-up, Pull-down or no Pull), 
  28:../Libraries/STM32F30x_StdPeriph_Driver/src/stm32f30x_gpio.c ****                                  Open Drain (Pull-up, Pull-down or no Pull).
  29:../Libraries/STM32F30x_StdPeriph_Driver/src/stm32f30x_gpio.c ****         (++) Analog: required mode when a pin is to be used as ADC channel,
  30:../Libraries/STM32F30x_StdPeriph_Driver/src/stm32f30x_gpio.c ****              DAC output or comparator input.
  31:../Libraries/STM32F30x_StdPeriph_Driver/src/stm32f30x_gpio.c ****     (#) Peripherals alternate function:
  32:../Libraries/STM32F30x_StdPeriph_Driver/src/stm32f30x_gpio.c ****         (++) For ADC, DAC and comparators, configure the desired pin in 
  33:../Libraries/STM32F30x_StdPeriph_Driver/src/stm32f30x_gpio.c ****              analog mode using GPIO_InitStruct->GPIO_Mode = GPIO_Mode_AN
  34:../Libraries/STM32F30x_StdPeriph_Driver/src/stm32f30x_gpio.c ****         (++) For other peripherals (TIM, USART...):
  35:../Libraries/STM32F30x_StdPeriph_Driver/src/stm32f30x_gpio.c ****              (+++) Connect the pin to the desired peripherals' Alternate 
  36:../Libraries/STM32F30x_StdPeriph_Driver/src/stm32f30x_gpio.c ****                    Function (AF) using GPIO_PinAFConfig() function.
  37:../Libraries/STM32F30x_StdPeriph_Driver/src/stm32f30x_gpio.c ****              (+++) Configure the desired pin in alternate function mode using
  38:../Libraries/STM32F30x_StdPeriph_Driver/src/stm32f30x_gpio.c ****                    GPIO_InitStruct->GPIO_Mode = GPIO_Mode_AF
  39:../Libraries/STM32F30x_StdPeriph_Driver/src/stm32f30x_gpio.c ****              (+++) Select the type, pull-up/pull-down and output speed via 
  40:../Libraries/STM32F30x_StdPeriph_Driver/src/stm32f30x_gpio.c ****                    GPIO_PuPd, GPIO_OType and GPIO_Speed members.
  41:../Libraries/STM32F30x_StdPeriph_Driver/src/stm32f30x_gpio.c ****              (+++) Call GPIO_Init() function.
  42:../Libraries/STM32F30x_StdPeriph_Driver/src/stm32f30x_gpio.c ****     (#) To get the level of a pin configured in input mode use GPIO_ReadInputDataBit()
  43:../Libraries/STM32F30x_StdPeriph_Driver/src/stm32f30x_gpio.c ****     (#) To set/reset the level of a pin configured in output mode use
  44:../Libraries/STM32F30x_StdPeriph_Driver/src/stm32f30x_gpio.c ****         GPIO_SetBits()/GPIO_ResetBits()
  45:../Libraries/STM32F30x_StdPeriph_Driver/src/stm32f30x_gpio.c ****     (#) During and just after reset, the alternate functions are not active 
  46:../Libraries/STM32F30x_StdPeriph_Driver/src/stm32f30x_gpio.c ****         and the GPIO pins are configured in input floating mode (except JTAG pins).
  47:../Libraries/STM32F30x_StdPeriph_Driver/src/stm32f30x_gpio.c ****     (#) The LSE oscillator pins OSC32_IN and OSC32_OUT can be used as 
  48:../Libraries/STM32F30x_StdPeriph_Driver/src/stm32f30x_gpio.c ****         general-purpose (PC14 and PC15, respectively) when the LSE
  49:../Libraries/STM32F30x_StdPeriph_Driver/src/stm32f30x_gpio.c ****         oscillator is off. The LSE has priority over the GPIO function.
  50:../Libraries/STM32F30x_StdPeriph_Driver/src/stm32f30x_gpio.c ****     (#) The HSE oscillator pins OSC_IN/OSC_OUT can be used as general-purpose 
  51:../Libraries/STM32F30x_StdPeriph_Driver/src/stm32f30x_gpio.c ****         (PF0 and PF1 respectively) when the HSE oscillator is off. The HSE has 
  52:../Libraries/STM32F30x_StdPeriph_Driver/src/stm32f30x_gpio.c ****         the priority over the GPIO function.  
  53:../Libraries/STM32F30x_StdPeriph_Driver/src/stm32f30x_gpio.c **** 
  54:../Libraries/STM32F30x_StdPeriph_Driver/src/stm32f30x_gpio.c ****   @endverbatim
  55:../Libraries/STM32F30x_StdPeriph_Driver/src/stm32f30x_gpio.c **** 
  56:../Libraries/STM32F30x_StdPeriph_Driver/src/stm32f30x_gpio.c ****   ******************************************************************************
  57:../Libraries/STM32F30x_StdPeriph_Driver/src/stm32f30x_gpio.c ****   * @attention
  58:../Libraries/STM32F30x_StdPeriph_Driver/src/stm32f30x_gpio.c ****   *
  59:../Libraries/STM32F30x_StdPeriph_Driver/src/stm32f30x_gpio.c ****   * <h2><center>&copy; COPYRIGHT 2012 STMicroelectronics</center></h2>
  60:../Libraries/STM32F30x_StdPeriph_Driver/src/stm32f30x_gpio.c ****   *
  61:../Libraries/STM32F30x_StdPeriph_Driver/src/stm32f30x_gpio.c ****   * Licensed under MCD-ST Liberty SW License Agreement V2, (the "License");
  62:../Libraries/STM32F30x_StdPeriph_Driver/src/stm32f30x_gpio.c ****   * You may not use this file except in compliance with the License.
  63:../Libraries/STM32F30x_StdPeriph_Driver/src/stm32f30x_gpio.c ****   * You may obtain a copy of the License at:
  64:../Libraries/STM32F30x_StdPeriph_Driver/src/stm32f30x_gpio.c ****   *
  65:../Libraries/STM32F30x_StdPeriph_Driver/src/stm32f30x_gpio.c ****   *        http://www.st.com/software_license_agreement_liberty_v2
  66:../Libraries/STM32F30x_StdPeriph_Driver/src/stm32f30x_gpio.c ****   *
  67:../Libraries/STM32F30x_StdPeriph_Driver/src/stm32f30x_gpio.c ****   * Unless required by applicable law or agreed to in writing, software 
  68:../Libraries/STM32F30x_StdPeriph_Driver/src/stm32f30x_gpio.c ****   * distributed under the License is distributed on an "AS IS" BASIS, 
  69:../Libraries/STM32F30x_StdPeriph_Driver/src/stm32f30x_gpio.c ****   * WITHOUT WARRANTIES OR CONDITIONS OF ANY KIND, either express or implied.
  70:../Libraries/STM32F30x_StdPeriph_Driver/src/stm32f30x_gpio.c ****   * See the License for the specific language governing permissions and
  71:../Libraries/STM32F30x_StdPeriph_Driver/src/stm32f30x_gpio.c ****   * limitations under the License.
  72:../Libraries/STM32F30x_StdPeriph_Driver/src/stm32f30x_gpio.c ****   *
  73:../Libraries/STM32F30x_StdPeriph_Driver/src/stm32f30x_gpio.c ****   ******************************************************************************
  74:../Libraries/STM32F30x_StdPeriph_Driver/src/stm32f30x_gpio.c ****   */
  75:../Libraries/STM32F30x_StdPeriph_Driver/src/stm32f30x_gpio.c **** 
  76:../Libraries/STM32F30x_StdPeriph_Driver/src/stm32f30x_gpio.c **** /* Includes ------------------------------------------------------------------*/
  77:../Libraries/STM32F30x_StdPeriph_Driver/src/stm32f30x_gpio.c **** #include "stm32f30x_gpio.h"
  78:../Libraries/STM32F30x_StdPeriph_Driver/src/stm32f30x_gpio.c **** #include "stm32f30x_rcc.h"
  79:../Libraries/STM32F30x_StdPeriph_Driver/src/stm32f30x_gpio.c **** 
  80:../Libraries/STM32F30x_StdPeriph_Driver/src/stm32f30x_gpio.c **** /** @addtogroup STM32F30x_StdPeriph_Driver
  81:../Libraries/STM32F30x_StdPeriph_Driver/src/stm32f30x_gpio.c ****   * @{
  82:../Libraries/STM32F30x_StdPeriph_Driver/src/stm32f30x_gpio.c ****   */
  83:../Libraries/STM32F30x_StdPeriph_Driver/src/stm32f30x_gpio.c **** 
  84:../Libraries/STM32F30x_StdPeriph_Driver/src/stm32f30x_gpio.c **** /** @defgroup GPIO 
  85:../Libraries/STM32F30x_StdPeriph_Driver/src/stm32f30x_gpio.c ****   * @brief GPIO driver modules
  86:../Libraries/STM32F30x_StdPeriph_Driver/src/stm32f30x_gpio.c ****   * @{
  87:../Libraries/STM32F30x_StdPeriph_Driver/src/stm32f30x_gpio.c ****   */
  88:../Libraries/STM32F30x_StdPeriph_Driver/src/stm32f30x_gpio.c **** 
  89:../Libraries/STM32F30x_StdPeriph_Driver/src/stm32f30x_gpio.c **** 
  90:../Libraries/STM32F30x_StdPeriph_Driver/src/stm32f30x_gpio.c **** /* Private typedef -----------------------------------------------------------*/
  91:../Libraries/STM32F30x_StdPeriph_Driver/src/stm32f30x_gpio.c **** /* Private define ------------------------------------------------------------*/
  92:../Libraries/STM32F30x_StdPeriph_Driver/src/stm32f30x_gpio.c **** 
  93:../Libraries/STM32F30x_StdPeriph_Driver/src/stm32f30x_gpio.c **** 
  94:../Libraries/STM32F30x_StdPeriph_Driver/src/stm32f30x_gpio.c **** /* Private macro -------------------------------------------------------------*/
  95:../Libraries/STM32F30x_StdPeriph_Driver/src/stm32f30x_gpio.c **** /* Private variables ---------------------------------------------------------*/
  96:../Libraries/STM32F30x_StdPeriph_Driver/src/stm32f30x_gpio.c **** /* Private function prototypes -----------------------------------------------*/
  97:../Libraries/STM32F30x_StdPeriph_Driver/src/stm32f30x_gpio.c **** /* Private functions ---------------------------------------------------------*/
  98:../Libraries/STM32F30x_StdPeriph_Driver/src/stm32f30x_gpio.c **** 
  99:../Libraries/STM32F30x_StdPeriph_Driver/src/stm32f30x_gpio.c **** /** @defgroup GPIO_Private_Functions 
 100:../Libraries/STM32F30x_StdPeriph_Driver/src/stm32f30x_gpio.c ****   * @{
 101:../Libraries/STM32F30x_StdPeriph_Driver/src/stm32f30x_gpio.c ****   */
 102:../Libraries/STM32F30x_StdPeriph_Driver/src/stm32f30x_gpio.c **** 
 103:../Libraries/STM32F30x_StdPeriph_Driver/src/stm32f30x_gpio.c **** /** @defgroup GPIO_Group1 Initialization and Configuration
 104:../Libraries/STM32F30x_StdPeriph_Driver/src/stm32f30x_gpio.c ****  *  @brief   Initialization and Configuration
 105:../Libraries/STM32F30x_StdPeriph_Driver/src/stm32f30x_gpio.c ****  *
 106:../Libraries/STM32F30x_StdPeriph_Driver/src/stm32f30x_gpio.c **** @verbatim
 107:../Libraries/STM32F30x_StdPeriph_Driver/src/stm32f30x_gpio.c ****  ===============================================================================
 108:../Libraries/STM32F30x_StdPeriph_Driver/src/stm32f30x_gpio.c ****             ##### Initialization and Configuration #####
 109:../Libraries/STM32F30x_StdPeriph_Driver/src/stm32f30x_gpio.c ****  ===============================================================================
 110:../Libraries/STM32F30x_StdPeriph_Driver/src/stm32f30x_gpio.c **** 
 111:../Libraries/STM32F30x_StdPeriph_Driver/src/stm32f30x_gpio.c **** @endverbatim
 112:../Libraries/STM32F30x_StdPeriph_Driver/src/stm32f30x_gpio.c ****   * @{
 113:../Libraries/STM32F30x_StdPeriph_Driver/src/stm32f30x_gpio.c ****   */
 114:../Libraries/STM32F30x_StdPeriph_Driver/src/stm32f30x_gpio.c ****   
 115:../Libraries/STM32F30x_StdPeriph_Driver/src/stm32f30x_gpio.c **** /**
 116:../Libraries/STM32F30x_StdPeriph_Driver/src/stm32f30x_gpio.c ****   * @brief  Deinitializes the GPIOx peripheral registers to their default reset 
 117:../Libraries/STM32F30x_StdPeriph_Driver/src/stm32f30x_gpio.c ****   *         values.
 118:../Libraries/STM32F30x_StdPeriph_Driver/src/stm32f30x_gpio.c ****   * @param  GPIOx: where x can be (A, B, C, D, E or F) to select the GPIO peripheral.
 119:../Libraries/STM32F30x_StdPeriph_Driver/src/stm32f30x_gpio.c ****   * @retval None
 120:../Libraries/STM32F30x_StdPeriph_Driver/src/stm32f30x_gpio.c ****   */
 121:../Libraries/STM32F30x_StdPeriph_Driver/src/stm32f30x_gpio.c **** void GPIO_DeInit(GPIO_TypeDef* GPIOx)
 122:../Libraries/STM32F30x_StdPeriph_Driver/src/stm32f30x_gpio.c **** {
  27              		.loc 1 122 0
  28              		.cfi_startproc
  29              		@ args = 0, pretend = 0, frame = 8
  30              		@ frame_needed = 0, uses_anonymous_args = 0
  31 0000 00B5     		push	{lr}
  32              	.LCFI0:
  33              		.cfi_def_cfa_offset 4
  34              		.cfi_offset 14, -4
  35 0002 83B0     		sub	sp, sp, #12
  36              	.LCFI1:
  37              		.cfi_def_cfa_offset 16
  38 0004 0190     		str	r0, [sp, #4]
 123:../Libraries/STM32F30x_StdPeriph_Driver/src/stm32f30x_gpio.c ****   /* Check the parameters */
 124:../Libraries/STM32F30x_StdPeriph_Driver/src/stm32f30x_gpio.c ****   assert_param(IS_GPIO_ALL_PERIPH(GPIOx));
 125:../Libraries/STM32F30x_StdPeriph_Driver/src/stm32f30x_gpio.c **** 
 126:../Libraries/STM32F30x_StdPeriph_Driver/src/stm32f30x_gpio.c ****   if(GPIOx == GPIOA)
  39              		.loc 1 126 0
  40 0006 019B     		ldr	r3, [sp, #4]
  41 0008 B3F1904F 		cmp	r3, #1207959552
  42 000c 0CD1     		bne	.L2
 127:../Libraries/STM32F30x_StdPeriph_Driver/src/stm32f30x_gpio.c ****   {
 128:../Libraries/STM32F30x_StdPeriph_Driver/src/stm32f30x_gpio.c ****     RCC_AHBPeriphResetCmd(RCC_AHBPeriph_GPIOA, ENABLE);
  43              		.loc 1 128 0
  44 000e 4FF40030 		mov	r0, #131072
  45 0012 4FF00101 		mov	r1, #1
  46 0016 FFF7FEFF 		bl	RCC_AHBPeriphResetCmd
 129:../Libraries/STM32F30x_StdPeriph_Driver/src/stm32f30x_gpio.c ****     RCC_AHBPeriphResetCmd(RCC_AHBPeriph_GPIOA, DISABLE);
  47              		.loc 1 129 0
  48 001a 4FF40030 		mov	r0, #131072
  49 001e 4FF00001 		mov	r1, #0
  50 0022 FFF7FEFF 		bl	RCC_AHBPeriphResetCmd
  51 0026 62E0     		b	.L1
  52              	.L2:
 130:../Libraries/STM32F30x_StdPeriph_Driver/src/stm32f30x_gpio.c ****   }
 131:../Libraries/STM32F30x_StdPeriph_Driver/src/stm32f30x_gpio.c ****   else if(GPIOx == GPIOB)
  53              		.loc 1 131 0
  54 0028 019A     		ldr	r2, [sp, #4]
  55 002a 4FF48063 		mov	r3, #1024
  56 002e C4F60003 		movt	r3, 18432
  57 0032 9A42     		cmp	r2, r3
  58 0034 0CD1     		bne	.L4
 132:../Libraries/STM32F30x_StdPeriph_Driver/src/stm32f30x_gpio.c ****   {
 133:../Libraries/STM32F30x_StdPeriph_Driver/src/stm32f30x_gpio.c ****     RCC_AHBPeriphResetCmd(RCC_AHBPeriph_GPIOB, ENABLE);
  59              		.loc 1 133 0
  60 0036 4FF48020 		mov	r0, #262144
  61 003a 4FF00101 		mov	r1, #1
  62 003e FFF7FEFF 		bl	RCC_AHBPeriphResetCmd
 134:../Libraries/STM32F30x_StdPeriph_Driver/src/stm32f30x_gpio.c ****     RCC_AHBPeriphResetCmd(RCC_AHBPeriph_GPIOB, DISABLE);
  63              		.loc 1 134 0
  64 0042 4FF48020 		mov	r0, #262144
  65 0046 4FF00001 		mov	r1, #0
  66 004a FFF7FEFF 		bl	RCC_AHBPeriphResetCmd
  67 004e 4EE0     		b	.L1
  68              	.L4:
 135:../Libraries/STM32F30x_StdPeriph_Driver/src/stm32f30x_gpio.c ****   }
 136:../Libraries/STM32F30x_StdPeriph_Driver/src/stm32f30x_gpio.c ****   else if(GPIOx == GPIOC)
  69              		.loc 1 136 0
  70 0050 019A     		ldr	r2, [sp, #4]
  71 0052 4FF40063 		mov	r3, #2048
  72 0056 C4F60003 		movt	r3, 18432
  73 005a 9A42     		cmp	r2, r3
  74 005c 0CD1     		bne	.L5
 137:../Libraries/STM32F30x_StdPeriph_Driver/src/stm32f30x_gpio.c ****   {
 138:../Libraries/STM32F30x_StdPeriph_Driver/src/stm32f30x_gpio.c ****     RCC_AHBPeriphResetCmd(RCC_AHBPeriph_GPIOC, ENABLE);
  75              		.loc 1 138 0
  76 005e 4FF40020 		mov	r0, #524288
  77 0062 4FF00101 		mov	r1, #1
  78 0066 FFF7FEFF 		bl	RCC_AHBPeriphResetCmd
 139:../Libraries/STM32F30x_StdPeriph_Driver/src/stm32f30x_gpio.c ****     RCC_AHBPeriphResetCmd(RCC_AHBPeriph_GPIOC, DISABLE);
  79              		.loc 1 139 0
  80 006a 4FF40020 		mov	r0, #524288
  81 006e 4FF00001 		mov	r1, #0
  82 0072 FFF7FEFF 		bl	RCC_AHBPeriphResetCmd
  83 0076 3AE0     		b	.L1
  84              	.L5:
 140:../Libraries/STM32F30x_StdPeriph_Driver/src/stm32f30x_gpio.c ****   }
 141:../Libraries/STM32F30x_StdPeriph_Driver/src/stm32f30x_gpio.c ****   else if(GPIOx == GPIOD)
  85              		.loc 1 141 0
  86 0078 019A     		ldr	r2, [sp, #4]
  87 007a 4FF44063 		mov	r3, #3072
  88 007e C4F60003 		movt	r3, 18432
  89 0082 9A42     		cmp	r2, r3
  90 0084 0CD1     		bne	.L6
 142:../Libraries/STM32F30x_StdPeriph_Driver/src/stm32f30x_gpio.c ****   {
 143:../Libraries/STM32F30x_StdPeriph_Driver/src/stm32f30x_gpio.c ****     RCC_AHBPeriphResetCmd(RCC_AHBPeriph_GPIOD, ENABLE);
  91              		.loc 1 143 0
  92 0086 4FF48010 		mov	r0, #1048576
  93 008a 4FF00101 		mov	r1, #1
  94 008e FFF7FEFF 		bl	RCC_AHBPeriphResetCmd
 144:../Libraries/STM32F30x_StdPeriph_Driver/src/stm32f30x_gpio.c ****     RCC_AHBPeriphResetCmd(RCC_AHBPeriph_GPIOD, DISABLE);
  95              		.loc 1 144 0
  96 0092 4FF48010 		mov	r0, #1048576
  97 0096 4FF00001 		mov	r1, #0
  98 009a FFF7FEFF 		bl	RCC_AHBPeriphResetCmd
  99 009e 26E0     		b	.L1
 100              	.L6:
 145:../Libraries/STM32F30x_StdPeriph_Driver/src/stm32f30x_gpio.c ****   }
 146:../Libraries/STM32F30x_StdPeriph_Driver/src/stm32f30x_gpio.c ****   else if(GPIOx == GPIOE)
 101              		.loc 1 146 0
 102 00a0 019A     		ldr	r2, [sp, #4]
 103 00a2 4FF48053 		mov	r3, #4096
 104 00a6 C4F60003 		movt	r3, 18432
 105 00aa 9A42     		cmp	r2, r3
 106 00ac 0CD1     		bne	.L7
 147:../Libraries/STM32F30x_StdPeriph_Driver/src/stm32f30x_gpio.c ****   {
 148:../Libraries/STM32F30x_StdPeriph_Driver/src/stm32f30x_gpio.c ****     RCC_AHBPeriphResetCmd(RCC_AHBPeriph_GPIOE, ENABLE);
 107              		.loc 1 148 0
 108 00ae 4FF40010 		mov	r0, #2097152
 109 00b2 4FF00101 		mov	r1, #1
 110 00b6 FFF7FEFF 		bl	RCC_AHBPeriphResetCmd
 149:../Libraries/STM32F30x_StdPeriph_Driver/src/stm32f30x_gpio.c ****     RCC_AHBPeriphResetCmd(RCC_AHBPeriph_GPIOE, DISABLE);
 111              		.loc 1 149 0
 112 00ba 4FF40010 		mov	r0, #2097152
 113 00be 4FF00001 		mov	r1, #0
 114 00c2 FFF7FEFF 		bl	RCC_AHBPeriphResetCmd
 115 00c6 12E0     		b	.L1
 116              	.L7:
 150:../Libraries/STM32F30x_StdPeriph_Driver/src/stm32f30x_gpio.c ****   }
 151:../Libraries/STM32F30x_StdPeriph_Driver/src/stm32f30x_gpio.c ****   else
 152:../Libraries/STM32F30x_StdPeriph_Driver/src/stm32f30x_gpio.c ****   {
 153:../Libraries/STM32F30x_StdPeriph_Driver/src/stm32f30x_gpio.c ****     if(GPIOx == GPIOF)
 117              		.loc 1 153 0
 118 00c8 019A     		ldr	r2, [sp, #4]
 119 00ca 4FF4A053 		mov	r3, #5120
 120 00ce C4F60003 		movt	r3, 18432
 121 00d2 9A42     		cmp	r2, r3
 122 00d4 0BD1     		bne	.L1
 154:../Libraries/STM32F30x_StdPeriph_Driver/src/stm32f30x_gpio.c ****     {
 155:../Libraries/STM32F30x_StdPeriph_Driver/src/stm32f30x_gpio.c ****       RCC_AHBPeriphResetCmd(RCC_AHBPeriph_GPIOF, ENABLE);
 123              		.loc 1 155 0
 124 00d6 4FF48000 		mov	r0, #4194304
 125 00da 4FF00101 		mov	r1, #1
 126 00de FFF7FEFF 		bl	RCC_AHBPeriphResetCmd
 156:../Libraries/STM32F30x_StdPeriph_Driver/src/stm32f30x_gpio.c ****       RCC_AHBPeriphResetCmd(RCC_AHBPeriph_GPIOF, DISABLE);
 127              		.loc 1 156 0
 128 00e2 4FF48000 		mov	r0, #4194304
 129 00e6 4FF00001 		mov	r1, #0
 130 00ea FFF7FEFF 		bl	RCC_AHBPeriphResetCmd
 131              	.L1:
 157:../Libraries/STM32F30x_StdPeriph_Driver/src/stm32f30x_gpio.c ****     }
 158:../Libraries/STM32F30x_StdPeriph_Driver/src/stm32f30x_gpio.c ****   }
 159:../Libraries/STM32F30x_StdPeriph_Driver/src/stm32f30x_gpio.c **** }
 132              		.loc 1 159 0
 133 00ee 03B0     		add	sp, sp, #12
 134 00f0 00BD     		pop	{pc}
 135              		.cfi_endproc
 136              	.LFE111:
 138 00f2 00BF     		.align	2
 139              		.global	GPIO_Init
 140              		.thumb
 141              		.thumb_func
 143              	GPIO_Init:
 144              	.LFB112:
 160:../Libraries/STM32F30x_StdPeriph_Driver/src/stm32f30x_gpio.c **** 
 161:../Libraries/STM32F30x_StdPeriph_Driver/src/stm32f30x_gpio.c **** /**
 162:../Libraries/STM32F30x_StdPeriph_Driver/src/stm32f30x_gpio.c ****   * @brief  Initializes the GPIOx peripheral according to the specified 
 163:../Libraries/STM32F30x_StdPeriph_Driver/src/stm32f30x_gpio.c ****   *         parameters in the GPIO_InitStruct.
 164:../Libraries/STM32F30x_StdPeriph_Driver/src/stm32f30x_gpio.c ****   * @param  GPIOx: where x can be (A, B, C, D, E or F) to select the GPIO peripheral.
 165:../Libraries/STM32F30x_StdPeriph_Driver/src/stm32f30x_gpio.c ****   * @param  GPIO_InitStruct: pointer to a GPIO_InitTypeDef structure that 
 166:../Libraries/STM32F30x_StdPeriph_Driver/src/stm32f30x_gpio.c ****   *         contains the configuration information for the specified GPIO
 167:../Libraries/STM32F30x_StdPeriph_Driver/src/stm32f30x_gpio.c ****   *         peripheral.
 168:../Libraries/STM32F30x_StdPeriph_Driver/src/stm32f30x_gpio.c ****   * @note   GPIO_Pin: selects the pin to be configured:
 169:../Libraries/STM32F30x_StdPeriph_Driver/src/stm32f30x_gpio.c ****   *         GPIO_Pin_0->GPIO_Pin_15 for GPIOA, GPIOB, GPIOC, GPIOD and GPIOE;
 170:../Libraries/STM32F30x_StdPeriph_Driver/src/stm32f30x_gpio.c ****   *         GPIO_Pin_0->GPIO_Pin_2, GPIO_Pin_4, GPIO_Pin_6, GPIO_Pin_9 
 171:../Libraries/STM32F30x_StdPeriph_Driver/src/stm32f30x_gpio.c ****   *                       and GPIO_Pin_10 for GPIOF.
 172:../Libraries/STM32F30x_StdPeriph_Driver/src/stm32f30x_gpio.c ****   * @retval None
 173:../Libraries/STM32F30x_StdPeriph_Driver/src/stm32f30x_gpio.c ****   */
 174:../Libraries/STM32F30x_StdPeriph_Driver/src/stm32f30x_gpio.c **** void GPIO_Init(GPIO_TypeDef* GPIOx, GPIO_InitTypeDef* GPIO_InitStruct)
 175:../Libraries/STM32F30x_StdPeriph_Driver/src/stm32f30x_gpio.c **** { 
 145              		.loc 1 175 0
 146              		.cfi_startproc
 147              		@ args = 0, pretend = 0, frame = 24
 148              		@ frame_needed = 0, uses_anonymous_args = 0
 149              		@ link register save eliminated.
 150 00f4 86B0     		sub	sp, sp, #24
 151              	.LCFI2:
 152              		.cfi_def_cfa_offset 24
 153 00f6 0190     		str	r0, [sp, #4]
 154 00f8 0091     		str	r1, [sp, #0]
 176:../Libraries/STM32F30x_StdPeriph_Driver/src/stm32f30x_gpio.c ****   uint32_t pinpos = 0x00, pos = 0x00 , currentpin = 0x00;
 155              		.loc 1 176 0
 156 00fa 4FF00003 		mov	r3, #0
 157 00fe 0593     		str	r3, [sp, #20]
 158 0100 4FF00003 		mov	r3, #0
 159 0104 0493     		str	r3, [sp, #16]
 160 0106 4FF00003 		mov	r3, #0
 161 010a 0393     		str	r3, [sp, #12]
 177:../Libraries/STM32F30x_StdPeriph_Driver/src/stm32f30x_gpio.c **** 
 178:../Libraries/STM32F30x_StdPeriph_Driver/src/stm32f30x_gpio.c ****   /* Check the parameters */
 179:../Libraries/STM32F30x_StdPeriph_Driver/src/stm32f30x_gpio.c ****   assert_param(IS_GPIO_ALL_PERIPH(GPIOx));
 180:../Libraries/STM32F30x_StdPeriph_Driver/src/stm32f30x_gpio.c ****   assert_param(IS_GPIO_PIN(GPIO_InitStruct->GPIO_Pin));
 181:../Libraries/STM32F30x_StdPeriph_Driver/src/stm32f30x_gpio.c ****   assert_param(IS_GPIO_MODE(GPIO_InitStruct->GPIO_Mode));
 182:../Libraries/STM32F30x_StdPeriph_Driver/src/stm32f30x_gpio.c ****   assert_param(IS_GPIO_PUPD(GPIO_InitStruct->GPIO_PuPd));
 183:../Libraries/STM32F30x_StdPeriph_Driver/src/stm32f30x_gpio.c **** 
 184:../Libraries/STM32F30x_StdPeriph_Driver/src/stm32f30x_gpio.c ****   /*-------------------------- Configure the port pins -----------------------*/
 185:../Libraries/STM32F30x_StdPeriph_Driver/src/stm32f30x_gpio.c ****   /*-- GPIO Mode Configuration --*/
 186:../Libraries/STM32F30x_StdPeriph_Driver/src/stm32f30x_gpio.c ****   for (pinpos = 0x00; pinpos < 0x10; pinpos++)
 162              		.loc 1 186 0
 163 010c 4FF00003 		mov	r3, #0
 164 0110 0593     		str	r3, [sp, #20]
 165 0112 8CE0     		b	.L9
 166              	.L13:
 187:../Libraries/STM32F30x_StdPeriph_Driver/src/stm32f30x_gpio.c ****   {
 188:../Libraries/STM32F30x_StdPeriph_Driver/src/stm32f30x_gpio.c ****     pos = ((uint32_t)0x01) << pinpos;
 167              		.loc 1 188 0
 168 0114 059B     		ldr	r3, [sp, #20]
 169 0116 4FF00102 		mov	r2, #1
 170 011a 02FA03F3 		lsl	r3, r2, r3
 171 011e 0493     		str	r3, [sp, #16]
 189:../Libraries/STM32F30x_StdPeriph_Driver/src/stm32f30x_gpio.c **** 
 190:../Libraries/STM32F30x_StdPeriph_Driver/src/stm32f30x_gpio.c ****     /* Get the port pins position */
 191:../Libraries/STM32F30x_StdPeriph_Driver/src/stm32f30x_gpio.c ****     currentpin = (GPIO_InitStruct->GPIO_Pin) & pos;
 172              		.loc 1 191 0
 173 0120 009B     		ldr	r3, [sp, #0]
 174 0122 1A68     		ldr	r2, [r3, #0]
 175 0124 049B     		ldr	r3, [sp, #16]
 176 0126 1340     		ands	r3, r3, r2
 177 0128 0393     		str	r3, [sp, #12]
 192:../Libraries/STM32F30x_StdPeriph_Driver/src/stm32f30x_gpio.c **** 
 193:../Libraries/STM32F30x_StdPeriph_Driver/src/stm32f30x_gpio.c ****     if (currentpin == pos)
 178              		.loc 1 193 0
 179 012a 039A     		ldr	r2, [sp, #12]
 180 012c 049B     		ldr	r3, [sp, #16]
 181 012e 9A42     		cmp	r2, r3
 182 0130 79D1     		bne	.L10
 194:../Libraries/STM32F30x_StdPeriph_Driver/src/stm32f30x_gpio.c ****     {
 195:../Libraries/STM32F30x_StdPeriph_Driver/src/stm32f30x_gpio.c ****       if ((GPIO_InitStruct->GPIO_Mode == GPIO_Mode_OUT) || (GPIO_InitStruct->GPIO_Mode == GPIO_Mode
 183              		.loc 1 195 0
 184 0132 009B     		ldr	r3, [sp, #0]
 185 0134 1B79     		ldrb	r3, [r3, #4]	@ zero_extendqisi2
 186 0136 012B     		cmp	r3, #1
 187 0138 03D0     		beq	.L11
 188              		.loc 1 195 0 is_stmt 0 discriminator 1
 189 013a 009B     		ldr	r3, [sp, #0]
 190 013c 1B79     		ldrb	r3, [r3, #4]	@ zero_extendqisi2
 191 013e 022B     		cmp	r3, #2
 192 0140 3AD1     		bne	.L12
 193              	.L11:
 196:../Libraries/STM32F30x_StdPeriph_Driver/src/stm32f30x_gpio.c ****       {
 197:../Libraries/STM32F30x_StdPeriph_Driver/src/stm32f30x_gpio.c ****         /* Check Speed mode parameters */
 198:../Libraries/STM32F30x_StdPeriph_Driver/src/stm32f30x_gpio.c ****         assert_param(IS_GPIO_SPEED(GPIO_InitStruct->GPIO_Speed));
 199:../Libraries/STM32F30x_StdPeriph_Driver/src/stm32f30x_gpio.c **** 
 200:../Libraries/STM32F30x_StdPeriph_Driver/src/stm32f30x_gpio.c ****         /* Speed mode configuration */
 201:../Libraries/STM32F30x_StdPeriph_Driver/src/stm32f30x_gpio.c ****         GPIOx->OSPEEDR &= ~(GPIO_OSPEEDER_OSPEEDR0 << (pinpos * 2));
 194              		.loc 1 201 0 is_stmt 1
 195 0142 019B     		ldr	r3, [sp, #4]
 196 0144 9A68     		ldr	r2, [r3, #8]
 197 0146 059B     		ldr	r3, [sp, #20]
 198 0148 4FEA4303 		lsl	r3, r3, #1
 199 014c 4FF00301 		mov	r1, #3
 200 0150 01FA03F3 		lsl	r3, r1, r3
 201 0154 6FEA0303 		mvn	r3, r3
 202 0158 1A40     		ands	r2, r2, r3
 203 015a 019B     		ldr	r3, [sp, #4]
 204 015c 9A60     		str	r2, [r3, #8]
 202:../Libraries/STM32F30x_StdPeriph_Driver/src/stm32f30x_gpio.c ****         GPIOx->OSPEEDR |= ((uint32_t)(GPIO_InitStruct->GPIO_Speed) << (pinpos * 2));
 205              		.loc 1 202 0
 206 015e 019B     		ldr	r3, [sp, #4]
 207 0160 9A68     		ldr	r2, [r3, #8]
 208 0162 009B     		ldr	r3, [sp, #0]
 209 0164 5B79     		ldrb	r3, [r3, #5]	@ zero_extendqisi2
 210 0166 1946     		mov	r1, r3
 211 0168 059B     		ldr	r3, [sp, #20]
 212 016a 4FEA4303 		lsl	r3, r3, #1
 213 016e 01FA03F3 		lsl	r3, r1, r3
 214 0172 1A43     		orrs	r2, r2, r3
 215 0174 019B     		ldr	r3, [sp, #4]
 216 0176 9A60     		str	r2, [r3, #8]
 203:../Libraries/STM32F30x_StdPeriph_Driver/src/stm32f30x_gpio.c **** 
 204:../Libraries/STM32F30x_StdPeriph_Driver/src/stm32f30x_gpio.c ****         /* Check Output mode parameters */
 205:../Libraries/STM32F30x_StdPeriph_Driver/src/stm32f30x_gpio.c ****         assert_param(IS_GPIO_OTYPE(GPIO_InitStruct->GPIO_OType));
 206:../Libraries/STM32F30x_StdPeriph_Driver/src/stm32f30x_gpio.c **** 
 207:../Libraries/STM32F30x_StdPeriph_Driver/src/stm32f30x_gpio.c ****         /* Output mode configuration */
 208:../Libraries/STM32F30x_StdPeriph_Driver/src/stm32f30x_gpio.c ****         GPIOx->OTYPER &= ~((GPIO_OTYPER_OT_0) << ((uint16_t)pinpos));
 217              		.loc 1 208 0
 218 0178 019B     		ldr	r3, [sp, #4]
 219 017a 9B88     		ldrh	r3, [r3, #4]	@ movhi
 220 017c 9AB2     		uxth	r2, r3
 221 017e 059B     		ldr	r3, [sp, #20]
 222 0180 9BB2     		uxth	r3, r3
 223 0182 4FF00101 		mov	r1, #1
 224 0186 01FA03F3 		lsl	r3, r1, r3
 225 018a 9BB2     		uxth	r3, r3
 226 018c 6FEA0303 		mvn	r3, r3
 227 0190 9BB2     		uxth	r3, r3
 228 0192 1340     		ands	r3, r3, r2
 229 0194 9AB2     		uxth	r2, r3
 230 0196 019B     		ldr	r3, [sp, #4]
 231 0198 9A80     		strh	r2, [r3, #4]	@ movhi
 209:../Libraries/STM32F30x_StdPeriph_Driver/src/stm32f30x_gpio.c ****         GPIOx->OTYPER |= (uint16_t)(((uint16_t)GPIO_InitStruct->GPIO_OType) << ((uint16_t)pinpos));
 232              		.loc 1 209 0
 233 019a 019B     		ldr	r3, [sp, #4]
 234 019c 9B88     		ldrh	r3, [r3, #4]	@ movhi
 235 019e 9AB2     		uxth	r2, r3
 236 01a0 009B     		ldr	r3, [sp, #0]
 237 01a2 9B79     		ldrb	r3, [r3, #6]	@ zero_extendqisi2
 238 01a4 1946     		mov	r1, r3
 239 01a6 059B     		ldr	r3, [sp, #20]
 240 01a8 9BB2     		uxth	r3, r3
 241 01aa 01FA03F3 		lsl	r3, r1, r3
 242 01ae 9BB2     		uxth	r3, r3
 243 01b0 1343     		orrs	r3, r3, r2
 244 01b2 9AB2     		uxth	r2, r3
 245 01b4 019B     		ldr	r3, [sp, #4]
 246 01b6 9A80     		strh	r2, [r3, #4]	@ movhi
 247              	.L12:
 210:../Libraries/STM32F30x_StdPeriph_Driver/src/stm32f30x_gpio.c ****       }
 211:../Libraries/STM32F30x_StdPeriph_Driver/src/stm32f30x_gpio.c ****       
 212:../Libraries/STM32F30x_StdPeriph_Driver/src/stm32f30x_gpio.c ****       GPIOx->MODER  &= ~(GPIO_MODER_MODER0 << (pinpos * 2));
 248              		.loc 1 212 0
 249 01b8 019B     		ldr	r3, [sp, #4]
 250 01ba 1A68     		ldr	r2, [r3, #0]
 251 01bc 059B     		ldr	r3, [sp, #20]
 252 01be 4FEA4303 		lsl	r3, r3, #1
 253 01c2 4FF00301 		mov	r1, #3
 254 01c6 01FA03F3 		lsl	r3, r1, r3
 255 01ca 6FEA0303 		mvn	r3, r3
 256 01ce 1A40     		ands	r2, r2, r3
 257 01d0 019B     		ldr	r3, [sp, #4]
 258 01d2 1A60     		str	r2, [r3, #0]
 213:../Libraries/STM32F30x_StdPeriph_Driver/src/stm32f30x_gpio.c **** 
 214:../Libraries/STM32F30x_StdPeriph_Driver/src/stm32f30x_gpio.c ****       GPIOx->MODER |= (((uint32_t)GPIO_InitStruct->GPIO_Mode) << (pinpos * 2));
 259              		.loc 1 214 0
 260 01d4 019B     		ldr	r3, [sp, #4]
 261 01d6 1A68     		ldr	r2, [r3, #0]
 262 01d8 009B     		ldr	r3, [sp, #0]
 263 01da 1B79     		ldrb	r3, [r3, #4]	@ zero_extendqisi2
 264 01dc 1946     		mov	r1, r3
 265 01de 059B     		ldr	r3, [sp, #20]
 266 01e0 4FEA4303 		lsl	r3, r3, #1
 267 01e4 01FA03F3 		lsl	r3, r1, r3
 268 01e8 1A43     		orrs	r2, r2, r3
 269 01ea 019B     		ldr	r3, [sp, #4]
 270 01ec 1A60     		str	r2, [r3, #0]
 215:../Libraries/STM32F30x_StdPeriph_Driver/src/stm32f30x_gpio.c **** 
 216:../Libraries/STM32F30x_StdPeriph_Driver/src/stm32f30x_gpio.c ****       /* Pull-up Pull down resistor configuration */
 217:../Libraries/STM32F30x_StdPeriph_Driver/src/stm32f30x_gpio.c ****       GPIOx->PUPDR &= ~(GPIO_PUPDR_PUPDR0 << ((uint16_t)pinpos * 2));
 271              		.loc 1 217 0
 272 01ee 019B     		ldr	r3, [sp, #4]
 273 01f0 DA68     		ldr	r2, [r3, #12]
 274 01f2 059B     		ldr	r3, [sp, #20]
 275 01f4 9BB2     		uxth	r3, r3
 276 01f6 4FEA4303 		lsl	r3, r3, #1
 277 01fa 4FF00301 		mov	r1, #3
 278 01fe 01FA03F3 		lsl	r3, r1, r3
 279 0202 6FEA0303 		mvn	r3, r3
 280 0206 1A40     		ands	r2, r2, r3
 281 0208 019B     		ldr	r3, [sp, #4]
 282 020a DA60     		str	r2, [r3, #12]
 218:../Libraries/STM32F30x_StdPeriph_Driver/src/stm32f30x_gpio.c ****       GPIOx->PUPDR |= (((uint32_t)GPIO_InitStruct->GPIO_PuPd) << (pinpos * 2));
 283              		.loc 1 218 0
 284 020c 019B     		ldr	r3, [sp, #4]
 285 020e DA68     		ldr	r2, [r3, #12]
 286 0210 009B     		ldr	r3, [sp, #0]
 287 0212 DB79     		ldrb	r3, [r3, #7]	@ zero_extendqisi2
 288 0214 1946     		mov	r1, r3
 289 0216 059B     		ldr	r3, [sp, #20]
 290 0218 4FEA4303 		lsl	r3, r3, #1
 291 021c 01FA03F3 		lsl	r3, r1, r3
 292 0220 1A43     		orrs	r2, r2, r3
 293 0222 019B     		ldr	r3, [sp, #4]
 294 0224 DA60     		str	r2, [r3, #12]
 295              	.L10:
 186:../Libraries/STM32F30x_StdPeriph_Driver/src/stm32f30x_gpio.c ****   for (pinpos = 0x00; pinpos < 0x10; pinpos++)
 296              		.loc 1 186 0
 297 0226 059B     		ldr	r3, [sp, #20]
 298 0228 03F10103 		add	r3, r3, #1
 299 022c 0593     		str	r3, [sp, #20]
 300              	.L9:
 186:../Libraries/STM32F30x_StdPeriph_Driver/src/stm32f30x_gpio.c ****   for (pinpos = 0x00; pinpos < 0x10; pinpos++)
 301              		.loc 1 186 0 is_stmt 0 discriminator 1
 302 022e 059B     		ldr	r3, [sp, #20]
 303 0230 0F2B     		cmp	r3, #15
 304 0232 7FF66FAF 		bls	.L13
 219:../Libraries/STM32F30x_StdPeriph_Driver/src/stm32f30x_gpio.c ****     }
 220:../Libraries/STM32F30x_StdPeriph_Driver/src/stm32f30x_gpio.c ****   }
 221:../Libraries/STM32F30x_StdPeriph_Driver/src/stm32f30x_gpio.c **** }
 305              		.loc 1 221 0 is_stmt 1
 306 0236 06B0     		add	sp, sp, #24
 307 0238 7047     		bx	lr
 308              		.cfi_endproc
 309              	.LFE112:
 311 023a 00BF     		.align	2
 312              		.global	GPIO_StructInit
 313              		.thumb
 314              		.thumb_func
 316              	GPIO_StructInit:
 317              	.LFB113:
 222:../Libraries/STM32F30x_StdPeriph_Driver/src/stm32f30x_gpio.c **** 
 223:../Libraries/STM32F30x_StdPeriph_Driver/src/stm32f30x_gpio.c **** /**
 224:../Libraries/STM32F30x_StdPeriph_Driver/src/stm32f30x_gpio.c ****   * @brief  Fills each GPIO_InitStruct member with its default value.
 225:../Libraries/STM32F30x_StdPeriph_Driver/src/stm32f30x_gpio.c ****   * @param  GPIO_InitStruct: pointer to a GPIO_InitTypeDef structure which will 
 226:../Libraries/STM32F30x_StdPeriph_Driver/src/stm32f30x_gpio.c ****   *         be initialized.
 227:../Libraries/STM32F30x_StdPeriph_Driver/src/stm32f30x_gpio.c ****   * @retval None
 228:../Libraries/STM32F30x_StdPeriph_Driver/src/stm32f30x_gpio.c ****   */
 229:../Libraries/STM32F30x_StdPeriph_Driver/src/stm32f30x_gpio.c **** void GPIO_StructInit(GPIO_InitTypeDef* GPIO_InitStruct)
 230:../Libraries/STM32F30x_StdPeriph_Driver/src/stm32f30x_gpio.c **** {
 318              		.loc 1 230 0
 319              		.cfi_startproc
 320              		@ args = 0, pretend = 0, frame = 8
 321              		@ frame_needed = 0, uses_anonymous_args = 0
 322              		@ link register save eliminated.
 323 023c 82B0     		sub	sp, sp, #8
 324              	.LCFI3:
 325              		.cfi_def_cfa_offset 8
 326 023e 0190     		str	r0, [sp, #4]
 231:../Libraries/STM32F30x_StdPeriph_Driver/src/stm32f30x_gpio.c ****   /* Reset GPIO init structure parameters values */
 232:../Libraries/STM32F30x_StdPeriph_Driver/src/stm32f30x_gpio.c ****   GPIO_InitStruct->GPIO_Pin  = GPIO_Pin_All;
 327              		.loc 1 232 0
 328 0240 019B     		ldr	r3, [sp, #4]
 329 0242 4FF6FF72 		movw	r2, #65535
 330 0246 1A60     		str	r2, [r3, #0]
 233:../Libraries/STM32F30x_StdPeriph_Driver/src/stm32f30x_gpio.c ****   GPIO_InitStruct->GPIO_Mode = GPIO_Mode_IN;
 331              		.loc 1 233 0
 332 0248 019B     		ldr	r3, [sp, #4]
 333 024a 4FF00002 		mov	r2, #0
 334 024e 1A71     		strb	r2, [r3, #4]
 234:../Libraries/STM32F30x_StdPeriph_Driver/src/stm32f30x_gpio.c ****   GPIO_InitStruct->GPIO_Speed = GPIO_Speed_2MHz;
 335              		.loc 1 234 0
 336 0250 019B     		ldr	r3, [sp, #4]
 337 0252 4FF00202 		mov	r2, #2
 338 0256 5A71     		strb	r2, [r3, #5]
 235:../Libraries/STM32F30x_StdPeriph_Driver/src/stm32f30x_gpio.c ****   GPIO_InitStruct->GPIO_OType = GPIO_OType_PP;
 339              		.loc 1 235 0
 340 0258 019B     		ldr	r3, [sp, #4]
 341 025a 4FF00002 		mov	r2, #0
 342 025e 9A71     		strb	r2, [r3, #6]
 236:../Libraries/STM32F30x_StdPeriph_Driver/src/stm32f30x_gpio.c ****   GPIO_InitStruct->GPIO_PuPd = GPIO_PuPd_NOPULL;
 343              		.loc 1 236 0
 344 0260 019B     		ldr	r3, [sp, #4]
 345 0262 4FF00002 		mov	r2, #0
 346 0266 DA71     		strb	r2, [r3, #7]
 237:../Libraries/STM32F30x_StdPeriph_Driver/src/stm32f30x_gpio.c **** }
 347              		.loc 1 237 0
 348 0268 02B0     		add	sp, sp, #8
 349 026a 7047     		bx	lr
 350              		.cfi_endproc
 351              	.LFE113:
 353              		.align	2
 354              		.global	GPIO_PinLockConfig
 355              		.thumb
 356              		.thumb_func
 358              	GPIO_PinLockConfig:
 359              	.LFB114:
 238:../Libraries/STM32F30x_StdPeriph_Driver/src/stm32f30x_gpio.c **** 
 239:../Libraries/STM32F30x_StdPeriph_Driver/src/stm32f30x_gpio.c **** /**
 240:../Libraries/STM32F30x_StdPeriph_Driver/src/stm32f30x_gpio.c ****   * @brief  Locks GPIO Pins configuration registers.
 241:../Libraries/STM32F30x_StdPeriph_Driver/src/stm32f30x_gpio.c ****   *         The locked registers are GPIOx_MODER, GPIOx_OTYPER, GPIOx_OSPEEDR,
 242:../Libraries/STM32F30x_StdPeriph_Driver/src/stm32f30x_gpio.c ****   *         GPIOx_PUPDR, GPIOx_AFRL and GPIOx_AFRH.
 243:../Libraries/STM32F30x_StdPeriph_Driver/src/stm32f30x_gpio.c ****   * @note   The configuration of the locked GPIO pins can no longer be modified
 244:../Libraries/STM32F30x_StdPeriph_Driver/src/stm32f30x_gpio.c ****   *         until the next reset.
 245:../Libraries/STM32F30x_StdPeriph_Driver/src/stm32f30x_gpio.c ****   * @param  GPIOx: where x can be (A or B or D) to select the GPIO peripheral.
 246:../Libraries/STM32F30x_StdPeriph_Driver/src/stm32f30x_gpio.c ****   * @param  GPIO_Pin: specifies the port bit to be written.
 247:../Libraries/STM32F30x_StdPeriph_Driver/src/stm32f30x_gpio.c ****   *   This parameter can be any combination of GPIO_Pin_x where x can be (0..15).
 248:../Libraries/STM32F30x_StdPeriph_Driver/src/stm32f30x_gpio.c ****   * @retval None
 249:../Libraries/STM32F30x_StdPeriph_Driver/src/stm32f30x_gpio.c ****   */
 250:../Libraries/STM32F30x_StdPeriph_Driver/src/stm32f30x_gpio.c **** void GPIO_PinLockConfig(GPIO_TypeDef* GPIOx, uint16_t GPIO_Pin)
 251:../Libraries/STM32F30x_StdPeriph_Driver/src/stm32f30x_gpio.c **** {
 360              		.loc 1 251 0
 361              		.cfi_startproc
 362              		@ args = 0, pretend = 0, frame = 16
 363              		@ frame_needed = 0, uses_anonymous_args = 0
 364              		@ link register save eliminated.
 365 026c 84B0     		sub	sp, sp, #16
 366              	.LCFI4:
 367              		.cfi_def_cfa_offset 16
 368 026e 0190     		str	r0, [sp, #4]
 369 0270 0B46     		mov	r3, r1
 370 0272 ADF80230 		strh	r3, [sp, #2]	@ movhi
 252:../Libraries/STM32F30x_StdPeriph_Driver/src/stm32f30x_gpio.c ****   uint32_t tmp = 0x00010000;
 371              		.loc 1 252 0
 372 0276 4FF48033 		mov	r3, #65536
 373 027a 0393     		str	r3, [sp, #12]
 253:../Libraries/STM32F30x_StdPeriph_Driver/src/stm32f30x_gpio.c ****   
 254:../Libraries/STM32F30x_StdPeriph_Driver/src/stm32f30x_gpio.c ****   /* Check the parameters */
 255:../Libraries/STM32F30x_StdPeriph_Driver/src/stm32f30x_gpio.c ****   assert_param(IS_GPIO_LIST_PERIPH(GPIOx));
 256:../Libraries/STM32F30x_StdPeriph_Driver/src/stm32f30x_gpio.c ****   assert_param(IS_GPIO_PIN(GPIO_Pin));
 257:../Libraries/STM32F30x_StdPeriph_Driver/src/stm32f30x_gpio.c ****   
 258:../Libraries/STM32F30x_StdPeriph_Driver/src/stm32f30x_gpio.c ****   tmp |= GPIO_Pin;
 374              		.loc 1 258 0
 375 027c BDF80230 		ldrh	r3, [sp, #2]
 376 0280 039A     		ldr	r2, [sp, #12]
 377 0282 1343     		orrs	r3, r3, r2
 378 0284 0393     		str	r3, [sp, #12]
 259:../Libraries/STM32F30x_StdPeriph_Driver/src/stm32f30x_gpio.c ****   /* Set LCKK bit */
 260:../Libraries/STM32F30x_StdPeriph_Driver/src/stm32f30x_gpio.c ****   GPIOx->LCKR = tmp;
 379              		.loc 1 260 0
 380 0286 019B     		ldr	r3, [sp, #4]
 381 0288 039A     		ldr	r2, [sp, #12]
 382 028a DA61     		str	r2, [r3, #28]
 261:../Libraries/STM32F30x_StdPeriph_Driver/src/stm32f30x_gpio.c ****   /* Reset LCKK bit */
 262:../Libraries/STM32F30x_StdPeriph_Driver/src/stm32f30x_gpio.c ****   GPIOx->LCKR =  GPIO_Pin;
 383              		.loc 1 262 0
 384 028c BDF80220 		ldrh	r2, [sp, #2]
 385 0290 019B     		ldr	r3, [sp, #4]
 386 0292 DA61     		str	r2, [r3, #28]
 263:../Libraries/STM32F30x_StdPeriph_Driver/src/stm32f30x_gpio.c ****   /* Set LCKK bit */
 264:../Libraries/STM32F30x_StdPeriph_Driver/src/stm32f30x_gpio.c ****   GPIOx->LCKR = tmp;
 387              		.loc 1 264 0
 388 0294 019B     		ldr	r3, [sp, #4]
 389 0296 039A     		ldr	r2, [sp, #12]
 390 0298 DA61     		str	r2, [r3, #28]
 265:../Libraries/STM32F30x_StdPeriph_Driver/src/stm32f30x_gpio.c ****   /* Read LCKK bit */
 266:../Libraries/STM32F30x_StdPeriph_Driver/src/stm32f30x_gpio.c ****   tmp = GPIOx->LCKR;
 391              		.loc 1 266 0
 392 029a 019B     		ldr	r3, [sp, #4]
 393 029c DB69     		ldr	r3, [r3, #28]
 394 029e 0393     		str	r3, [sp, #12]
 267:../Libraries/STM32F30x_StdPeriph_Driver/src/stm32f30x_gpio.c ****   /* Read LCKK bit */
 268:../Libraries/STM32F30x_StdPeriph_Driver/src/stm32f30x_gpio.c ****   tmp = GPIOx->LCKR;
 395              		.loc 1 268 0
 396 02a0 019B     		ldr	r3, [sp, #4]
 397 02a2 DB69     		ldr	r3, [r3, #28]
 398 02a4 0393     		str	r3, [sp, #12]
 269:../Libraries/STM32F30x_StdPeriph_Driver/src/stm32f30x_gpio.c **** }
 399              		.loc 1 269 0
 400 02a6 04B0     		add	sp, sp, #16
 401 02a8 7047     		bx	lr
 402              		.cfi_endproc
 403              	.LFE114:
 405 02aa 00BF     		.align	2
 406              		.global	GPIO_ReadInputDataBit
 407              		.thumb
 408              		.thumb_func
 410              	GPIO_ReadInputDataBit:
 411              	.LFB115:
 270:../Libraries/STM32F30x_StdPeriph_Driver/src/stm32f30x_gpio.c **** 
 271:../Libraries/STM32F30x_StdPeriph_Driver/src/stm32f30x_gpio.c **** /**
 272:../Libraries/STM32F30x_StdPeriph_Driver/src/stm32f30x_gpio.c ****   * @}
 273:../Libraries/STM32F30x_StdPeriph_Driver/src/stm32f30x_gpio.c ****   */
 274:../Libraries/STM32F30x_StdPeriph_Driver/src/stm32f30x_gpio.c ****   
 275:../Libraries/STM32F30x_StdPeriph_Driver/src/stm32f30x_gpio.c **** /** @defgroup GPIO_Group2 GPIO Read and Write
 276:../Libraries/STM32F30x_StdPeriph_Driver/src/stm32f30x_gpio.c ****  *  @brief    GPIO Read and Write
 277:../Libraries/STM32F30x_StdPeriph_Driver/src/stm32f30x_gpio.c ****  *
 278:../Libraries/STM32F30x_StdPeriph_Driver/src/stm32f30x_gpio.c **** @verbatim
 279:../Libraries/STM32F30x_StdPeriph_Driver/src/stm32f30x_gpio.c ****  ===============================================================================
 280:../Libraries/STM32F30x_StdPeriph_Driver/src/stm32f30x_gpio.c ****                   ##### GPIO Read and Write #####
 281:../Libraries/STM32F30x_StdPeriph_Driver/src/stm32f30x_gpio.c ****  ===============================================================================  
 282:../Libraries/STM32F30x_StdPeriph_Driver/src/stm32f30x_gpio.c **** 
 283:../Libraries/STM32F30x_StdPeriph_Driver/src/stm32f30x_gpio.c **** @endverbatim
 284:../Libraries/STM32F30x_StdPeriph_Driver/src/stm32f30x_gpio.c ****   * @{
 285:../Libraries/STM32F30x_StdPeriph_Driver/src/stm32f30x_gpio.c ****   */   
 286:../Libraries/STM32F30x_StdPeriph_Driver/src/stm32f30x_gpio.c **** 
 287:../Libraries/STM32F30x_StdPeriph_Driver/src/stm32f30x_gpio.c **** /**
 288:../Libraries/STM32F30x_StdPeriph_Driver/src/stm32f30x_gpio.c ****   * @brief  Reads the specified input port pin.
 289:../Libraries/STM32F30x_StdPeriph_Driver/src/stm32f30x_gpio.c ****   * @param  GPIOx: where x can be (A, B, C, D, E or F) to select the GPIO peripheral.
 290:../Libraries/STM32F30x_StdPeriph_Driver/src/stm32f30x_gpio.c ****   * @param  GPIO_Pin: specifies the port bit to read.
 291:../Libraries/STM32F30x_StdPeriph_Driver/src/stm32f30x_gpio.c ****   * @note   This parameter can be GPIO_Pin_x where x can be :
 292:../Libraries/STM32F30x_StdPeriph_Driver/src/stm32f30x_gpio.c ****   *         (0..15) for GPIOA, GPIOB, GPIOC, GPIOD or GPIOE;
 293:../Libraries/STM32F30x_StdPeriph_Driver/src/stm32f30x_gpio.c ****   *         (0..2, 4, 6, 9..10) for GPIOF.
 294:../Libraries/STM32F30x_StdPeriph_Driver/src/stm32f30x_gpio.c ****   * @retval The input port pin value.
 295:../Libraries/STM32F30x_StdPeriph_Driver/src/stm32f30x_gpio.c ****   */
 296:../Libraries/STM32F30x_StdPeriph_Driver/src/stm32f30x_gpio.c **** uint8_t GPIO_ReadInputDataBit(GPIO_TypeDef* GPIOx, uint16_t GPIO_Pin)
 297:../Libraries/STM32F30x_StdPeriph_Driver/src/stm32f30x_gpio.c **** {
 412              		.loc 1 297 0
 413              		.cfi_startproc
 414              		@ args = 0, pretend = 0, frame = 16
 415              		@ frame_needed = 0, uses_anonymous_args = 0
 416              		@ link register save eliminated.
 417 02ac 84B0     		sub	sp, sp, #16
 418              	.LCFI5:
 419              		.cfi_def_cfa_offset 16
 420 02ae 0190     		str	r0, [sp, #4]
 421 02b0 0B46     		mov	r3, r1
 422 02b2 ADF80230 		strh	r3, [sp, #2]	@ movhi
 298:../Libraries/STM32F30x_StdPeriph_Driver/src/stm32f30x_gpio.c ****   uint8_t bitstatus = 0x00;
 423              		.loc 1 298 0
 424 02b6 4FF00003 		mov	r3, #0
 425 02ba 8DF80F30 		strb	r3, [sp, #15]
 299:../Libraries/STM32F30x_StdPeriph_Driver/src/stm32f30x_gpio.c ****   
 300:../Libraries/STM32F30x_StdPeriph_Driver/src/stm32f30x_gpio.c ****   /* Check the parameters */
 301:../Libraries/STM32F30x_StdPeriph_Driver/src/stm32f30x_gpio.c ****   assert_param(IS_GPIO_ALL_PERIPH(GPIOx));
 302:../Libraries/STM32F30x_StdPeriph_Driver/src/stm32f30x_gpio.c ****   assert_param(IS_GET_GPIO_PIN(GPIO_Pin));
 303:../Libraries/STM32F30x_StdPeriph_Driver/src/stm32f30x_gpio.c **** 
 304:../Libraries/STM32F30x_StdPeriph_Driver/src/stm32f30x_gpio.c ****   if ((GPIOx->IDR & GPIO_Pin) != (uint32_t)Bit_RESET)
 426              		.loc 1 304 0
 427 02be 019B     		ldr	r3, [sp, #4]
 428 02c0 1B8A     		ldrh	r3, [r3, #16]	@ movhi
 429 02c2 9AB2     		uxth	r2, r3
 430 02c4 BDF80230 		ldrh	r3, [sp, #2]	@ movhi
 431 02c8 1340     		ands	r3, r3, r2
 432 02ca 9BB2     		uxth	r3, r3
 433 02cc 002B     		cmp	r3, #0
 434 02ce 04D0     		beq	.L17
 305:../Libraries/STM32F30x_StdPeriph_Driver/src/stm32f30x_gpio.c ****   {
 306:../Libraries/STM32F30x_StdPeriph_Driver/src/stm32f30x_gpio.c ****     bitstatus = (uint8_t)Bit_SET;
 435              		.loc 1 306 0
 436 02d0 4FF00103 		mov	r3, #1
 437 02d4 8DF80F30 		strb	r3, [sp, #15]
 438 02d8 03E0     		b	.L18
 439              	.L17:
 307:../Libraries/STM32F30x_StdPeriph_Driver/src/stm32f30x_gpio.c ****   }
 308:../Libraries/STM32F30x_StdPeriph_Driver/src/stm32f30x_gpio.c ****   else
 309:../Libraries/STM32F30x_StdPeriph_Driver/src/stm32f30x_gpio.c ****   {
 310:../Libraries/STM32F30x_StdPeriph_Driver/src/stm32f30x_gpio.c ****     bitstatus = (uint8_t)Bit_RESET;
 440              		.loc 1 310 0
 441 02da 4FF00003 		mov	r3, #0
 442 02de 8DF80F30 		strb	r3, [sp, #15]
 443              	.L18:
 311:../Libraries/STM32F30x_StdPeriph_Driver/src/stm32f30x_gpio.c ****   }
 312:../Libraries/STM32F30x_StdPeriph_Driver/src/stm32f30x_gpio.c ****   return bitstatus;
 444              		.loc 1 312 0
 445 02e2 9DF80F30 		ldrb	r3, [sp, #15]	@ zero_extendqisi2
 313:../Libraries/STM32F30x_StdPeriph_Driver/src/stm32f30x_gpio.c **** }
 446              		.loc 1 313 0
 447 02e6 1846     		mov	r0, r3
 448 02e8 04B0     		add	sp, sp, #16
 449 02ea 7047     		bx	lr
 450              		.cfi_endproc
 451              	.LFE115:
 453              		.align	2
 454              		.global	GPIO_ReadInputData
 455              		.thumb
 456              		.thumb_func
 458              	GPIO_ReadInputData:
 459              	.LFB116:
 314:../Libraries/STM32F30x_StdPeriph_Driver/src/stm32f30x_gpio.c **** 
 315:../Libraries/STM32F30x_StdPeriph_Driver/src/stm32f30x_gpio.c **** /**
 316:../Libraries/STM32F30x_StdPeriph_Driver/src/stm32f30x_gpio.c ****   * @brief  Reads the specified input port pin.
 317:../Libraries/STM32F30x_StdPeriph_Driver/src/stm32f30x_gpio.c ****   * @param  GPIOx: where x can be (A, B, C, D, E or F) to select the GPIO peripheral.
 318:../Libraries/STM32F30x_StdPeriph_Driver/src/stm32f30x_gpio.c ****   * @retval The input port pin value.
 319:../Libraries/STM32F30x_StdPeriph_Driver/src/stm32f30x_gpio.c ****   */
 320:../Libraries/STM32F30x_StdPeriph_Driver/src/stm32f30x_gpio.c **** uint16_t GPIO_ReadInputData(GPIO_TypeDef* GPIOx)
 321:../Libraries/STM32F30x_StdPeriph_Driver/src/stm32f30x_gpio.c **** {
 460              		.loc 1 321 0
 461              		.cfi_startproc
 462              		@ args = 0, pretend = 0, frame = 8
 463              		@ frame_needed = 0, uses_anonymous_args = 0
 464              		@ link register save eliminated.
 465 02ec 82B0     		sub	sp, sp, #8
 466              	.LCFI6:
 467              		.cfi_def_cfa_offset 8
 468 02ee 0190     		str	r0, [sp, #4]
 322:../Libraries/STM32F30x_StdPeriph_Driver/src/stm32f30x_gpio.c ****   /* Check the parameters */
 323:../Libraries/STM32F30x_StdPeriph_Driver/src/stm32f30x_gpio.c ****   assert_param(IS_GPIO_ALL_PERIPH(GPIOx));
 324:../Libraries/STM32F30x_StdPeriph_Driver/src/stm32f30x_gpio.c **** 
 325:../Libraries/STM32F30x_StdPeriph_Driver/src/stm32f30x_gpio.c ****   return ((uint16_t)GPIOx->IDR);
 469              		.loc 1 325 0
 470 02f0 019B     		ldr	r3, [sp, #4]
 471 02f2 1B8A     		ldrh	r3, [r3, #16]	@ movhi
 472 02f4 9BB2     		uxth	r3, r3
 326:../Libraries/STM32F30x_StdPeriph_Driver/src/stm32f30x_gpio.c **** }
 473              		.loc 1 326 0
 474 02f6 1846     		mov	r0, r3
 475 02f8 02B0     		add	sp, sp, #8
 476 02fa 7047     		bx	lr
 477              		.cfi_endproc
 478              	.LFE116:
 480              		.align	2
 481              		.global	GPIO_ReadOutputDataBit
 482              		.thumb
 483              		.thumb_func
 485              	GPIO_ReadOutputDataBit:
 486              	.LFB117:
 327:../Libraries/STM32F30x_StdPeriph_Driver/src/stm32f30x_gpio.c **** 
 328:../Libraries/STM32F30x_StdPeriph_Driver/src/stm32f30x_gpio.c **** /**
 329:../Libraries/STM32F30x_StdPeriph_Driver/src/stm32f30x_gpio.c ****   * @brief  Reads the specified output data port bit.
 330:../Libraries/STM32F30x_StdPeriph_Driver/src/stm32f30x_gpio.c ****   * @param  GPIOx: where x can be (A, B, C, D, E or F) to select the GPIO peripheral.
 331:../Libraries/STM32F30x_StdPeriph_Driver/src/stm32f30x_gpio.c ****   * @param  GPIO_Pin: Specifies the port bit to read.
 332:../Libraries/STM32F30x_StdPeriph_Driver/src/stm32f30x_gpio.c ****   * @note   This parameter can be GPIO_Pin_x where x can be :
 333:../Libraries/STM32F30x_StdPeriph_Driver/src/stm32f30x_gpio.c ****   *         (0..15) for GPIOA, GPIOB, GPIOC, GPIOD or GPIOE;
 334:../Libraries/STM32F30x_StdPeriph_Driver/src/stm32f30x_gpio.c ****   *         (0..2, 4, 6, 9..10) for GPIOF.
 335:../Libraries/STM32F30x_StdPeriph_Driver/src/stm32f30x_gpio.c ****   * @retval The output port pin value.
 336:../Libraries/STM32F30x_StdPeriph_Driver/src/stm32f30x_gpio.c ****   */
 337:../Libraries/STM32F30x_StdPeriph_Driver/src/stm32f30x_gpio.c **** uint8_t GPIO_ReadOutputDataBit(GPIO_TypeDef* GPIOx, uint16_t GPIO_Pin)
 338:../Libraries/STM32F30x_StdPeriph_Driver/src/stm32f30x_gpio.c **** {
 487              		.loc 1 338 0
 488              		.cfi_startproc
 489              		@ args = 0, pretend = 0, frame = 16
 490              		@ frame_needed = 0, uses_anonymous_args = 0
 491              		@ link register save eliminated.
 492 02fc 84B0     		sub	sp, sp, #16
 493              	.LCFI7:
 494              		.cfi_def_cfa_offset 16
 495 02fe 0190     		str	r0, [sp, #4]
 496 0300 0B46     		mov	r3, r1
 497 0302 ADF80230 		strh	r3, [sp, #2]	@ movhi
 339:../Libraries/STM32F30x_StdPeriph_Driver/src/stm32f30x_gpio.c ****   uint8_t bitstatus = 0x00;
 498              		.loc 1 339 0
 499 0306 4FF00003 		mov	r3, #0
 500 030a 8DF80F30 		strb	r3, [sp, #15]
 340:../Libraries/STM32F30x_StdPeriph_Driver/src/stm32f30x_gpio.c **** 
 341:../Libraries/STM32F30x_StdPeriph_Driver/src/stm32f30x_gpio.c ****   /* Check the parameters */
 342:../Libraries/STM32F30x_StdPeriph_Driver/src/stm32f30x_gpio.c ****   assert_param(IS_GPIO_ALL_PERIPH(GPIOx));
 343:../Libraries/STM32F30x_StdPeriph_Driver/src/stm32f30x_gpio.c ****   assert_param(IS_GET_GPIO_PIN(GPIO_Pin));
 344:../Libraries/STM32F30x_StdPeriph_Driver/src/stm32f30x_gpio.c ****   
 345:../Libraries/STM32F30x_StdPeriph_Driver/src/stm32f30x_gpio.c ****   if ((GPIOx->ODR & GPIO_Pin) != (uint32_t)Bit_RESET)
 501              		.loc 1 345 0
 502 030e 019B     		ldr	r3, [sp, #4]
 503 0310 9B8A     		ldrh	r3, [r3, #20]	@ movhi
 504 0312 9AB2     		uxth	r2, r3
 505 0314 BDF80230 		ldrh	r3, [sp, #2]	@ movhi
 506 0318 1340     		ands	r3, r3, r2
 507 031a 9BB2     		uxth	r3, r3
 508 031c 002B     		cmp	r3, #0
 509 031e 04D0     		beq	.L21
 346:../Libraries/STM32F30x_StdPeriph_Driver/src/stm32f30x_gpio.c ****   {
 347:../Libraries/STM32F30x_StdPeriph_Driver/src/stm32f30x_gpio.c ****     bitstatus = (uint8_t)Bit_SET;
 510              		.loc 1 347 0
 511 0320 4FF00103 		mov	r3, #1
 512 0324 8DF80F30 		strb	r3, [sp, #15]
 513 0328 03E0     		b	.L22
 514              	.L21:
 348:../Libraries/STM32F30x_StdPeriph_Driver/src/stm32f30x_gpio.c ****   }
 349:../Libraries/STM32F30x_StdPeriph_Driver/src/stm32f30x_gpio.c ****   else
 350:../Libraries/STM32F30x_StdPeriph_Driver/src/stm32f30x_gpio.c ****   {
 351:../Libraries/STM32F30x_StdPeriph_Driver/src/stm32f30x_gpio.c ****     bitstatus = (uint8_t)Bit_RESET;
 515              		.loc 1 351 0
 516 032a 4FF00003 		mov	r3, #0
 517 032e 8DF80F30 		strb	r3, [sp, #15]
 518              	.L22:
 352:../Libraries/STM32F30x_StdPeriph_Driver/src/stm32f30x_gpio.c ****   }
 353:../Libraries/STM32F30x_StdPeriph_Driver/src/stm32f30x_gpio.c ****   return bitstatus;
 519              		.loc 1 353 0
 520 0332 9DF80F30 		ldrb	r3, [sp, #15]	@ zero_extendqisi2
 354:../Libraries/STM32F30x_StdPeriph_Driver/src/stm32f30x_gpio.c **** }
 521              		.loc 1 354 0
 522 0336 1846     		mov	r0, r3
 523 0338 04B0     		add	sp, sp, #16
 524 033a 7047     		bx	lr
 525              		.cfi_endproc
 526              	.LFE117:
 528              		.align	2
 529              		.global	GPIO_ReadOutputData
 530              		.thumb
 531              		.thumb_func
 533              	GPIO_ReadOutputData:
 534              	.LFB118:
 355:../Libraries/STM32F30x_StdPeriph_Driver/src/stm32f30x_gpio.c **** 
 356:../Libraries/STM32F30x_StdPeriph_Driver/src/stm32f30x_gpio.c **** /**
 357:../Libraries/STM32F30x_StdPeriph_Driver/src/stm32f30x_gpio.c ****   * @brief  Reads the specified GPIO output data port.
 358:../Libraries/STM32F30x_StdPeriph_Driver/src/stm32f30x_gpio.c ****   * @param  GPIOx: where x can be (A, B, C, D, E or F) to select the GPIO peripheral.
 359:../Libraries/STM32F30x_StdPeriph_Driver/src/stm32f30x_gpio.c ****   * @retval GPIO output data port value.
 360:../Libraries/STM32F30x_StdPeriph_Driver/src/stm32f30x_gpio.c ****   */
 361:../Libraries/STM32F30x_StdPeriph_Driver/src/stm32f30x_gpio.c **** uint16_t GPIO_ReadOutputData(GPIO_TypeDef* GPIOx)
 362:../Libraries/STM32F30x_StdPeriph_Driver/src/stm32f30x_gpio.c **** {
 535              		.loc 1 362 0
 536              		.cfi_startproc
 537              		@ args = 0, pretend = 0, frame = 8
 538              		@ frame_needed = 0, uses_anonymous_args = 0
 539              		@ link register save eliminated.
 540 033c 82B0     		sub	sp, sp, #8
 541              	.LCFI8:
 542              		.cfi_def_cfa_offset 8
 543 033e 0190     		str	r0, [sp, #4]
 363:../Libraries/STM32F30x_StdPeriph_Driver/src/stm32f30x_gpio.c ****   /* Check the parameters */
 364:../Libraries/STM32F30x_StdPeriph_Driver/src/stm32f30x_gpio.c ****   assert_param(IS_GPIO_ALL_PERIPH(GPIOx));
 365:../Libraries/STM32F30x_StdPeriph_Driver/src/stm32f30x_gpio.c ****   
 366:../Libraries/STM32F30x_StdPeriph_Driver/src/stm32f30x_gpio.c ****   return ((uint16_t)GPIOx->ODR);
 544              		.loc 1 366 0
 545 0340 019B     		ldr	r3, [sp, #4]
 546 0342 9B8A     		ldrh	r3, [r3, #20]	@ movhi
 547 0344 9BB2     		uxth	r3, r3
 367:../Libraries/STM32F30x_StdPeriph_Driver/src/stm32f30x_gpio.c **** }
 548              		.loc 1 367 0
 549 0346 1846     		mov	r0, r3
 550 0348 02B0     		add	sp, sp, #8
 551 034a 7047     		bx	lr
 552              		.cfi_endproc
 553              	.LFE118:
 555              		.align	2
 556              		.global	GPIO_SetBits
 557              		.thumb
 558              		.thumb_func
 560              	GPIO_SetBits:
 561              	.LFB119:
 368:../Libraries/STM32F30x_StdPeriph_Driver/src/stm32f30x_gpio.c **** 
 369:../Libraries/STM32F30x_StdPeriph_Driver/src/stm32f30x_gpio.c **** /**
 370:../Libraries/STM32F30x_StdPeriph_Driver/src/stm32f30x_gpio.c ****   * @brief  Sets the selected data port bits.
 371:../Libraries/STM32F30x_StdPeriph_Driver/src/stm32f30x_gpio.c ****   * @param  GPIOx: where x can be (A, B, C, D, E or F) to select the GPIO peripheral.
 372:../Libraries/STM32F30x_StdPeriph_Driver/src/stm32f30x_gpio.c ****   * @param  GPIO_Pin: specifies the port bits to be written.
 373:../Libraries/STM32F30x_StdPeriph_Driver/src/stm32f30x_gpio.c ****   * @note   This parameter can be GPIO_Pin_x where x can be :
 374:../Libraries/STM32F30x_StdPeriph_Driver/src/stm32f30x_gpio.c ****   *         (0..15) for GPIOA, GPIOB, GPIOC, GPIOD or GPIOE;
 375:../Libraries/STM32F30x_StdPeriph_Driver/src/stm32f30x_gpio.c ****   *         (0..2, 4, 6, 9..10) for GPIOF.
 376:../Libraries/STM32F30x_StdPeriph_Driver/src/stm32f30x_gpio.c ****   * @retval None
 377:../Libraries/STM32F30x_StdPeriph_Driver/src/stm32f30x_gpio.c ****   */
 378:../Libraries/STM32F30x_StdPeriph_Driver/src/stm32f30x_gpio.c **** void GPIO_SetBits(GPIO_TypeDef* GPIOx, uint16_t GPIO_Pin)
 379:../Libraries/STM32F30x_StdPeriph_Driver/src/stm32f30x_gpio.c **** {
 562              		.loc 1 379 0
 563              		.cfi_startproc
 564              		@ args = 0, pretend = 0, frame = 8
 565              		@ frame_needed = 0, uses_anonymous_args = 0
 566              		@ link register save eliminated.
 567 034c 82B0     		sub	sp, sp, #8
 568              	.LCFI9:
 569              		.cfi_def_cfa_offset 8
 570 034e 0190     		str	r0, [sp, #4]
 571 0350 0B46     		mov	r3, r1
 572 0352 ADF80230 		strh	r3, [sp, #2]	@ movhi
 380:../Libraries/STM32F30x_StdPeriph_Driver/src/stm32f30x_gpio.c ****   /* Check the parameters */
 381:../Libraries/STM32F30x_StdPeriph_Driver/src/stm32f30x_gpio.c ****   assert_param(IS_GPIO_ALL_PERIPH(GPIOx));
 382:../Libraries/STM32F30x_StdPeriph_Driver/src/stm32f30x_gpio.c ****   assert_param(IS_GPIO_PIN(GPIO_Pin));
 383:../Libraries/STM32F30x_StdPeriph_Driver/src/stm32f30x_gpio.c ****   
 384:../Libraries/STM32F30x_StdPeriph_Driver/src/stm32f30x_gpio.c ****   GPIOx->BSRR = GPIO_Pin;
 573              		.loc 1 384 0
 574 0356 BDF80220 		ldrh	r2, [sp, #2]
 575 035a 019B     		ldr	r3, [sp, #4]
 576 035c 9A61     		str	r2, [r3, #24]
 385:../Libraries/STM32F30x_StdPeriph_Driver/src/stm32f30x_gpio.c **** }
 577              		.loc 1 385 0
 578 035e 02B0     		add	sp, sp, #8
 579 0360 7047     		bx	lr
 580              		.cfi_endproc
 581              	.LFE119:
 583 0362 00BF     		.align	2
 584              		.global	GPIO_ResetBits
 585              		.thumb
 586              		.thumb_func
 588              	GPIO_ResetBits:
 589              	.LFB120:
 386:../Libraries/STM32F30x_StdPeriph_Driver/src/stm32f30x_gpio.c **** 
 387:../Libraries/STM32F30x_StdPeriph_Driver/src/stm32f30x_gpio.c **** /**
 388:../Libraries/STM32F30x_StdPeriph_Driver/src/stm32f30x_gpio.c ****   * @brief  Clears the selected data port bits.
 389:../Libraries/STM32F30x_StdPeriph_Driver/src/stm32f30x_gpio.c ****   * @param  GPIOx: where x can be (A, B, C, D, E or F) to select the GPIO peripheral.
 390:../Libraries/STM32F30x_StdPeriph_Driver/src/stm32f30x_gpio.c ****   * @param  GPIO_Pin: specifies the port bits to be written.
 391:../Libraries/STM32F30x_StdPeriph_Driver/src/stm32f30x_gpio.c ****   * @note   This parameter can be GPIO_Pin_x where x can be :
 392:../Libraries/STM32F30x_StdPeriph_Driver/src/stm32f30x_gpio.c ****   *         (0..15) for GPIOA, GPIOB, GPIOC, GPIOD or GPIOE;
 393:../Libraries/STM32F30x_StdPeriph_Driver/src/stm32f30x_gpio.c ****   *         (0..2, 4, 6, 9..10) for GPIOF.
 394:../Libraries/STM32F30x_StdPeriph_Driver/src/stm32f30x_gpio.c ****   * @retval None
 395:../Libraries/STM32F30x_StdPeriph_Driver/src/stm32f30x_gpio.c ****   */
 396:../Libraries/STM32F30x_StdPeriph_Driver/src/stm32f30x_gpio.c **** void GPIO_ResetBits(GPIO_TypeDef* GPIOx, uint16_t GPIO_Pin)
 397:../Libraries/STM32F30x_StdPeriph_Driver/src/stm32f30x_gpio.c **** {
 590              		.loc 1 397 0
 591              		.cfi_startproc
 592              		@ args = 0, pretend = 0, frame = 8
 593              		@ frame_needed = 0, uses_anonymous_args = 0
 594              		@ link register save eliminated.
 595 0364 82B0     		sub	sp, sp, #8
 596              	.LCFI10:
 597              		.cfi_def_cfa_offset 8
 598 0366 0190     		str	r0, [sp, #4]
 599 0368 0B46     		mov	r3, r1
 600 036a ADF80230 		strh	r3, [sp, #2]	@ movhi
 398:../Libraries/STM32F30x_StdPeriph_Driver/src/stm32f30x_gpio.c ****   /* Check the parameters */
 399:../Libraries/STM32F30x_StdPeriph_Driver/src/stm32f30x_gpio.c ****   assert_param(IS_GPIO_ALL_PERIPH(GPIOx));
 400:../Libraries/STM32F30x_StdPeriph_Driver/src/stm32f30x_gpio.c ****   assert_param(IS_GPIO_PIN(GPIO_Pin));
 401:../Libraries/STM32F30x_StdPeriph_Driver/src/stm32f30x_gpio.c ****   
 402:../Libraries/STM32F30x_StdPeriph_Driver/src/stm32f30x_gpio.c ****   GPIOx->BRR = GPIO_Pin;
 601              		.loc 1 402 0
 602 036e 019B     		ldr	r3, [sp, #4]
 603 0370 BDF80220 		ldrh	r2, [sp, #2]	@ movhi
 604 0374 1A85     		strh	r2, [r3, #40]	@ movhi
 403:../Libraries/STM32F30x_StdPeriph_Driver/src/stm32f30x_gpio.c **** }
 605              		.loc 1 403 0
 606 0376 02B0     		add	sp, sp, #8
 607 0378 7047     		bx	lr
 608              		.cfi_endproc
 609              	.LFE120:
 611 037a 00BF     		.align	2
 612              		.global	GPIO_WriteBit
 613              		.thumb
 614              		.thumb_func
 616              	GPIO_WriteBit:
 617              	.LFB121:
 404:../Libraries/STM32F30x_StdPeriph_Driver/src/stm32f30x_gpio.c **** 
 405:../Libraries/STM32F30x_StdPeriph_Driver/src/stm32f30x_gpio.c **** /**
 406:../Libraries/STM32F30x_StdPeriph_Driver/src/stm32f30x_gpio.c ****   * @brief  Sets or clears the selected data port bit.
 407:../Libraries/STM32F30x_StdPeriph_Driver/src/stm32f30x_gpio.c ****   * @param  GPIOx: where x can be (A, B, C, D, E or F) to select the GPIO peripheral.
 408:../Libraries/STM32F30x_StdPeriph_Driver/src/stm32f30x_gpio.c ****   * @param  GPIO_Pin: specifies the port bit to be written.
 409:../Libraries/STM32F30x_StdPeriph_Driver/src/stm32f30x_gpio.c ****   * @note   This parameter can be GPIO_Pin_x where x can be :
 410:../Libraries/STM32F30x_StdPeriph_Driver/src/stm32f30x_gpio.c ****   *         (0..15) for GPIOA, GPIOB, GPIOC, GPIOD or GPIOE;
 411:../Libraries/STM32F30x_StdPeriph_Driver/src/stm32f30x_gpio.c ****   *         (0..2, 4, 6, 9..10) for GPIOF.
 412:../Libraries/STM32F30x_StdPeriph_Driver/src/stm32f30x_gpio.c ****   * @param  BitVal: specifies the value to be written to the selected bit.
 413:../Libraries/STM32F30x_StdPeriph_Driver/src/stm32f30x_gpio.c ****   *   This parameter can be one of the BitAction enumeration values:
 414:../Libraries/STM32F30x_StdPeriph_Driver/src/stm32f30x_gpio.c ****   *     @arg Bit_RESET: to clear the port pin
 415:../Libraries/STM32F30x_StdPeriph_Driver/src/stm32f30x_gpio.c ****   *     @arg Bit_SET: to set the port pin
 416:../Libraries/STM32F30x_StdPeriph_Driver/src/stm32f30x_gpio.c ****   * @retval None
 417:../Libraries/STM32F30x_StdPeriph_Driver/src/stm32f30x_gpio.c ****   */
 418:../Libraries/STM32F30x_StdPeriph_Driver/src/stm32f30x_gpio.c **** void GPIO_WriteBit(GPIO_TypeDef* GPIOx, uint16_t GPIO_Pin, BitAction BitVal)
 419:../Libraries/STM32F30x_StdPeriph_Driver/src/stm32f30x_gpio.c **** {
 618              		.loc 1 419 0
 619              		.cfi_startproc
 620              		@ args = 0, pretend = 0, frame = 8
 621              		@ frame_needed = 0, uses_anonymous_args = 0
 622              		@ link register save eliminated.
 623 037c 82B0     		sub	sp, sp, #8
 624              	.LCFI11:
 625              		.cfi_def_cfa_offset 8
 626 037e 0190     		str	r0, [sp, #4]
 627 0380 1346     		mov	r3, r2
 628 0382 0A46     		mov	r2, r1	@ movhi
 629 0384 ADF80220 		strh	r2, [sp, #2]	@ movhi
 630 0388 8DF80130 		strb	r3, [sp, #1]
 420:../Libraries/STM32F30x_StdPeriph_Driver/src/stm32f30x_gpio.c ****   /* Check the parameters */
 421:../Libraries/STM32F30x_StdPeriph_Driver/src/stm32f30x_gpio.c ****   assert_param(IS_GPIO_ALL_PERIPH(GPIOx));
 422:../Libraries/STM32F30x_StdPeriph_Driver/src/stm32f30x_gpio.c ****   assert_param(IS_GET_GPIO_PIN(GPIO_Pin));
 423:../Libraries/STM32F30x_StdPeriph_Driver/src/stm32f30x_gpio.c ****   assert_param(IS_GPIO_BIT_ACTION(BitVal));
 424:../Libraries/STM32F30x_StdPeriph_Driver/src/stm32f30x_gpio.c ****   
 425:../Libraries/STM32F30x_StdPeriph_Driver/src/stm32f30x_gpio.c ****   if (BitVal != Bit_RESET)
 631              		.loc 1 425 0
 632 038c 9DF80130 		ldrb	r3, [sp, #1]	@ zero_extendqisi2
 633 0390 002B     		cmp	r3, #0
 634 0392 04D0     		beq	.L27
 426:../Libraries/STM32F30x_StdPeriph_Driver/src/stm32f30x_gpio.c ****   {
 427:../Libraries/STM32F30x_StdPeriph_Driver/src/stm32f30x_gpio.c ****     GPIOx->BSRR = GPIO_Pin;
 635              		.loc 1 427 0
 636 0394 BDF80220 		ldrh	r2, [sp, #2]
 637 0398 019B     		ldr	r3, [sp, #4]
 638 039a 9A61     		str	r2, [r3, #24]
 639 039c 03E0     		b	.L26
 640              	.L27:
 428:../Libraries/STM32F30x_StdPeriph_Driver/src/stm32f30x_gpio.c ****   }
 429:../Libraries/STM32F30x_StdPeriph_Driver/src/stm32f30x_gpio.c ****   else
 430:../Libraries/STM32F30x_StdPeriph_Driver/src/stm32f30x_gpio.c ****   {
 431:../Libraries/STM32F30x_StdPeriph_Driver/src/stm32f30x_gpio.c ****     GPIOx->BRR = GPIO_Pin ;
 641              		.loc 1 431 0
 642 039e 019B     		ldr	r3, [sp, #4]
 643 03a0 BDF80220 		ldrh	r2, [sp, #2]	@ movhi
 644 03a4 1A85     		strh	r2, [r3, #40]	@ movhi
 645              	.L26:
 432:../Libraries/STM32F30x_StdPeriph_Driver/src/stm32f30x_gpio.c ****   }
 433:../Libraries/STM32F30x_StdPeriph_Driver/src/stm32f30x_gpio.c **** }
 646              		.loc 1 433 0
 647 03a6 02B0     		add	sp, sp, #8
 648 03a8 7047     		bx	lr
 649              		.cfi_endproc
 650              	.LFE121:
 652 03aa 00BF     		.align	2
 653              		.global	GPIO_Write
 654              		.thumb
 655              		.thumb_func
 657              	GPIO_Write:
 658              	.LFB122:
 434:../Libraries/STM32F30x_StdPeriph_Driver/src/stm32f30x_gpio.c **** 
 435:../Libraries/STM32F30x_StdPeriph_Driver/src/stm32f30x_gpio.c **** /**
 436:../Libraries/STM32F30x_StdPeriph_Driver/src/stm32f30x_gpio.c ****   * @brief  Writes data to the specified GPIO data port.
 437:../Libraries/STM32F30x_StdPeriph_Driver/src/stm32f30x_gpio.c ****   * @param  GPIOx: where x can be (A, B, C, D, E or F) to select the GPIO peripheral.
 438:../Libraries/STM32F30x_StdPeriph_Driver/src/stm32f30x_gpio.c ****   * @param  PortVal: specifies the value to be written to the port output data 
 439:../Libraries/STM32F30x_StdPeriph_Driver/src/stm32f30x_gpio.c ****   *                  register.
 440:../Libraries/STM32F30x_StdPeriph_Driver/src/stm32f30x_gpio.c ****   * @retval None
 441:../Libraries/STM32F30x_StdPeriph_Driver/src/stm32f30x_gpio.c ****   */
 442:../Libraries/STM32F30x_StdPeriph_Driver/src/stm32f30x_gpio.c **** void GPIO_Write(GPIO_TypeDef* GPIOx, uint16_t PortVal)
 443:../Libraries/STM32F30x_StdPeriph_Driver/src/stm32f30x_gpio.c **** {
 659              		.loc 1 443 0
 660              		.cfi_startproc
 661              		@ args = 0, pretend = 0, frame = 8
 662              		@ frame_needed = 0, uses_anonymous_args = 0
 663              		@ link register save eliminated.
 664 03ac 82B0     		sub	sp, sp, #8
 665              	.LCFI12:
 666              		.cfi_def_cfa_offset 8
 667 03ae 0190     		str	r0, [sp, #4]
 668 03b0 0B46     		mov	r3, r1
 669 03b2 ADF80230 		strh	r3, [sp, #2]	@ movhi
 444:../Libraries/STM32F30x_StdPeriph_Driver/src/stm32f30x_gpio.c ****   /* Check the parameters */
 445:../Libraries/STM32F30x_StdPeriph_Driver/src/stm32f30x_gpio.c ****   assert_param(IS_GPIO_ALL_PERIPH(GPIOx));
 446:../Libraries/STM32F30x_StdPeriph_Driver/src/stm32f30x_gpio.c ****   
 447:../Libraries/STM32F30x_StdPeriph_Driver/src/stm32f30x_gpio.c ****   GPIOx->ODR = PortVal;
 670              		.loc 1 447 0
 671 03b6 019B     		ldr	r3, [sp, #4]
 672 03b8 BDF80220 		ldrh	r2, [sp, #2]	@ movhi
 673 03bc 9A82     		strh	r2, [r3, #20]	@ movhi
 448:../Libraries/STM32F30x_StdPeriph_Driver/src/stm32f30x_gpio.c **** }
 674              		.loc 1 448 0
 675 03be 02B0     		add	sp, sp, #8
 676 03c0 7047     		bx	lr
 677              		.cfi_endproc
 678              	.LFE122:
 680 03c2 00BF     		.align	2
 681              		.global	GPIO_PinAFConfig
 682              		.thumb
 683              		.thumb_func
 685              	GPIO_PinAFConfig:
 686              	.LFB123:
 449:../Libraries/STM32F30x_StdPeriph_Driver/src/stm32f30x_gpio.c **** 
 450:../Libraries/STM32F30x_StdPeriph_Driver/src/stm32f30x_gpio.c **** /**
 451:../Libraries/STM32F30x_StdPeriph_Driver/src/stm32f30x_gpio.c ****   * @}
 452:../Libraries/STM32F30x_StdPeriph_Driver/src/stm32f30x_gpio.c ****   */
 453:../Libraries/STM32F30x_StdPeriph_Driver/src/stm32f30x_gpio.c **** 
 454:../Libraries/STM32F30x_StdPeriph_Driver/src/stm32f30x_gpio.c **** /** @defgroup GPIO_Group3 GPIO Alternate functions configuration functions
 455:../Libraries/STM32F30x_StdPeriph_Driver/src/stm32f30x_gpio.c ****  *  @brief   GPIO Alternate functions configuration functions
 456:../Libraries/STM32F30x_StdPeriph_Driver/src/stm32f30x_gpio.c ****  *
 457:../Libraries/STM32F30x_StdPeriph_Driver/src/stm32f30x_gpio.c **** @verbatim
 458:../Libraries/STM32F30x_StdPeriph_Driver/src/stm32f30x_gpio.c ****  ===============================================================================
 459:../Libraries/STM32F30x_StdPeriph_Driver/src/stm32f30x_gpio.c ****           ##### GPIO Alternate functions configuration functions #####
 460:../Libraries/STM32F30x_StdPeriph_Driver/src/stm32f30x_gpio.c ****  ===============================================================================
 461:../Libraries/STM32F30x_StdPeriph_Driver/src/stm32f30x_gpio.c **** 
 462:../Libraries/STM32F30x_StdPeriph_Driver/src/stm32f30x_gpio.c **** @endverbatim
 463:../Libraries/STM32F30x_StdPeriph_Driver/src/stm32f30x_gpio.c ****   * @{
 464:../Libraries/STM32F30x_StdPeriph_Driver/src/stm32f30x_gpio.c ****   */
 465:../Libraries/STM32F30x_StdPeriph_Driver/src/stm32f30x_gpio.c **** 
 466:../Libraries/STM32F30x_StdPeriph_Driver/src/stm32f30x_gpio.c **** /**
 467:../Libraries/STM32F30x_StdPeriph_Driver/src/stm32f30x_gpio.c ****   * @brief  Writes data to the specified GPIO data port.
 468:../Libraries/STM32F30x_StdPeriph_Driver/src/stm32f30x_gpio.c ****   * @param  GPIOx: where x can be (A, B, C, D, E or F) to select the GPIO peripheral.
 469:../Libraries/STM32F30x_StdPeriph_Driver/src/stm32f30x_gpio.c ****   * @param  GPIO_PinSource: specifies the pin for the Alternate function.
 470:../Libraries/STM32F30x_StdPeriph_Driver/src/stm32f30x_gpio.c ****   *   This parameter can be GPIO_PinSourcex where x can be (0..15).
 471:../Libraries/STM32F30x_StdPeriph_Driver/src/stm32f30x_gpio.c ****   * @param  GPIO_AF: selects the pin to be used as Alternate function.  
 472:../Libraries/STM32F30x_StdPeriph_Driver/src/stm32f30x_gpio.c ****   *   This parameter can be one of the following value:
 473:../Libraries/STM32F30x_StdPeriph_Driver/src/stm32f30x_gpio.c ****   *     @arg GPIO_AF_0:  JTCK-SWCLK, JTDI, JTDO/TRACESW0, JTMS-SWDAT, MCO, NJTRST, 
 474:../Libraries/STM32F30x_StdPeriph_Driver/src/stm32f30x_gpio.c ****   *                      TRACED, TRACECK.
 475:../Libraries/STM32F30x_StdPeriph_Driver/src/stm32f30x_gpio.c ****   *     @arg GPIO_AF_1:  OUT, TIM2, TIM15, TIM16, TIM17.
 476:../Libraries/STM32F30x_StdPeriph_Driver/src/stm32f30x_gpio.c ****   *     @arg GPIO_AF_2:  COMP1_OUT, TIM1, TIM2, TIM3, TIM4, TIM8, TIM15.
 477:../Libraries/STM32F30x_StdPeriph_Driver/src/stm32f30x_gpio.c ****   *     @arg GPIO_AF_3:  COMP7_OUT, TIM8, TIM15, Touch.
 478:../Libraries/STM32F30x_StdPeriph_Driver/src/stm32f30x_gpio.c ****   *     @arg GPIO_AF_4:  I2C1, I2C2, TIM1, TIM8, TIM16, TIM17.
 479:../Libraries/STM32F30x_StdPeriph_Driver/src/stm32f30x_gpio.c ****   *     @arg GPIO_AF_5:  IR_OUT, I2S2, I2S3, SPI1, SPI2, TIM8, USART4, USART5
 480:../Libraries/STM32F30x_StdPeriph_Driver/src/stm32f30x_gpio.c ****   *     @arg GPIO_AF_6:  IR_OUT, I2S2, I2S3, SPI2, SPI3, TIM1, TIM8
 481:../Libraries/STM32F30x_StdPeriph_Driver/src/stm32f30x_gpio.c ****   *     @arg GPIO_AF_7:  AOP2_OUT, CAN, COMP3_OUT, COMP5_OUT, COMP6_OUT, USART1, 
 482:../Libraries/STM32F30x_StdPeriph_Driver/src/stm32f30x_gpio.c ****   *                      USART2, USART3.
 483:../Libraries/STM32F30x_StdPeriph_Driver/src/stm32f30x_gpio.c ****   *     @arg GPIO_AF_8:  COMP1_OUT, COMP2_OUT, COMP3_OUT, COMP4_OUT, COMP5_OUT, 
 484:../Libraries/STM32F30x_StdPeriph_Driver/src/stm32f30x_gpio.c ****   *                      COMP6_OUT.
 485:../Libraries/STM32F30x_StdPeriph_Driver/src/stm32f30x_gpio.c ****   *     @arg GPIO_AF_9:  AOP4_OUT, CAN, TIM1, TIM8, TIM15.
 486:../Libraries/STM32F30x_StdPeriph_Driver/src/stm32f30x_gpio.c ****   *     @arg GPIO_AF_10: AOP1_OUT, AOP3_OUT, TIM2, TIM3, TIM4, TIM8, TIM17. 
 487:../Libraries/STM32F30x_StdPeriph_Driver/src/stm32f30x_gpio.c ****   *     @arg GPIO_AF_11: TIM1, TIM8.
 488:../Libraries/STM32F30x_StdPeriph_Driver/src/stm32f30x_gpio.c ****   *     @arg GPIO_AF_12: TIM1.
 489:../Libraries/STM32F30x_StdPeriph_Driver/src/stm32f30x_gpio.c ****   *     @arg GPIO_AF_14: USBDM, USBDP.
 490:../Libraries/STM32F30x_StdPeriph_Driver/src/stm32f30x_gpio.c ****   *     @arg GPIO_AF_15: OUT.             
 491:../Libraries/STM32F30x_StdPeriph_Driver/src/stm32f30x_gpio.c ****   * @note  The pin should already been configured in Alternate Function mode(AF)
 492:../Libraries/STM32F30x_StdPeriph_Driver/src/stm32f30x_gpio.c ****   *        using GPIO_InitStruct->GPIO_Mode = GPIO_Mode_AF
 493:../Libraries/STM32F30x_StdPeriph_Driver/src/stm32f30x_gpio.c ****   * @note  Refer to the Alternate function mapping table in the device datasheet 
 494:../Libraries/STM32F30x_StdPeriph_Driver/src/stm32f30x_gpio.c ****   *        for the detailed mapping of the system and peripherals alternate 
 495:../Libraries/STM32F30x_StdPeriph_Driver/src/stm32f30x_gpio.c ****   *        function I/O pins.
 496:../Libraries/STM32F30x_StdPeriph_Driver/src/stm32f30x_gpio.c ****   * @retval None
 497:../Libraries/STM32F30x_StdPeriph_Driver/src/stm32f30x_gpio.c ****   */
 498:../Libraries/STM32F30x_StdPeriph_Driver/src/stm32f30x_gpio.c **** void GPIO_PinAFConfig(GPIO_TypeDef* GPIOx, uint16_t GPIO_PinSource, uint8_t GPIO_AF)
 499:../Libraries/STM32F30x_StdPeriph_Driver/src/stm32f30x_gpio.c **** {
 687              		.loc 1 499 0
 688              		.cfi_startproc
 689              		@ args = 0, pretend = 0, frame = 16
 690              		@ frame_needed = 0, uses_anonymous_args = 0
 691              		@ link register save eliminated.
 692 03c4 84B0     		sub	sp, sp, #16
 693              	.LCFI13:
 694              		.cfi_def_cfa_offset 16
 695 03c6 0190     		str	r0, [sp, #4]
 696 03c8 1346     		mov	r3, r2
 697 03ca 0A46     		mov	r2, r1	@ movhi
 698 03cc ADF80220 		strh	r2, [sp, #2]	@ movhi
 699 03d0 8DF80130 		strb	r3, [sp, #1]
 500:../Libraries/STM32F30x_StdPeriph_Driver/src/stm32f30x_gpio.c ****   uint32_t temp = 0x00;
 700              		.loc 1 500 0
 701 03d4 4FF00003 		mov	r3, #0
 702 03d8 0393     		str	r3, [sp, #12]
 501:../Libraries/STM32F30x_StdPeriph_Driver/src/stm32f30x_gpio.c ****   uint32_t temp_2 = 0x00;
 703              		.loc 1 501 0
 704 03da 4FF00003 		mov	r3, #0
 705 03de 0293     		str	r3, [sp, #8]
 502:../Libraries/STM32F30x_StdPeriph_Driver/src/stm32f30x_gpio.c ****   
 503:../Libraries/STM32F30x_StdPeriph_Driver/src/stm32f30x_gpio.c ****   /* Check the parameters */
 504:../Libraries/STM32F30x_StdPeriph_Driver/src/stm32f30x_gpio.c ****   assert_param(IS_GPIO_ALL_PERIPH(GPIOx));
 505:../Libraries/STM32F30x_StdPeriph_Driver/src/stm32f30x_gpio.c ****   assert_param(IS_GPIO_PIN_SOURCE(GPIO_PinSource));
 506:../Libraries/STM32F30x_StdPeriph_Driver/src/stm32f30x_gpio.c ****   assert_param(IS_GPIO_AF(GPIO_AF));
 507:../Libraries/STM32F30x_StdPeriph_Driver/src/stm32f30x_gpio.c ****   
 508:../Libraries/STM32F30x_StdPeriph_Driver/src/stm32f30x_gpio.c ****   temp = ((uint32_t)(GPIO_AF) << ((uint32_t)((uint32_t)GPIO_PinSource & (uint32_t)0x07) * 4));
 706              		.loc 1 508 0
 707 03e0 9DF80120 		ldrb	r2, [sp, #1]	@ zero_extendqisi2
 708 03e4 BDF80230 		ldrh	r3, [sp, #2]
 709 03e8 03F00703 		and	r3, r3, #7
 710 03ec 4FEA8303 		lsl	r3, r3, #2
 711 03f0 02FA03F3 		lsl	r3, r2, r3
 712 03f4 0393     		str	r3, [sp, #12]
 509:../Libraries/STM32F30x_StdPeriph_Driver/src/stm32f30x_gpio.c ****   GPIOx->AFR[GPIO_PinSource >> 0x03] &= ~((uint32_t)0xF << ((uint32_t)((uint32_t)GPIO_PinSource & (
 713              		.loc 1 509 0
 714 03f6 BDF80230 		ldrh	r3, [sp, #2]
 715 03fa 4FEAD303 		lsr	r3, r3, #3
 716 03fe 9BB2     		uxth	r3, r3
 717 0400 1A46     		mov	r2, r3
 718 0402 BDF80230 		ldrh	r3, [sp, #2]
 719 0406 4FEAD303 		lsr	r3, r3, #3
 720 040a 9BB2     		uxth	r3, r3
 721 040c 1946     		mov	r1, r3
 722 040e 019B     		ldr	r3, [sp, #4]
 723 0410 01F10801 		add	r1, r1, #8
 724 0414 53F82110 		ldr	r1, [r3, r1, lsl #2]
 725 0418 BDF80230 		ldrh	r3, [sp, #2]
 726 041c 03F00703 		and	r3, r3, #7
 727 0420 4FEA8303 		lsl	r3, r3, #2
 728 0424 4FF00F00 		mov	r0, #15
 729 0428 00FA03F3 		lsl	r3, r0, r3
 730 042c 6FEA0303 		mvn	r3, r3
 731 0430 1940     		ands	r1, r1, r3
 732 0432 019B     		ldr	r3, [sp, #4]
 733 0434 02F10802 		add	r2, r2, #8
 734 0438 43F82210 		str	r1, [r3, r2, lsl #2]
 510:../Libraries/STM32F30x_StdPeriph_Driver/src/stm32f30x_gpio.c ****   temp_2 = GPIOx->AFR[GPIO_PinSource >> 0x03] | temp;
 735              		.loc 1 510 0
 736 043c BDF80230 		ldrh	r3, [sp, #2]
 737 0440 4FEAD303 		lsr	r3, r3, #3
 738 0444 9BB2     		uxth	r3, r3
 739 0446 1A46     		mov	r2, r3
 740 0448 019B     		ldr	r3, [sp, #4]
 741 044a 02F10802 		add	r2, r2, #8
 742 044e 53F82220 		ldr	r2, [r3, r2, lsl #2]
 743 0452 039B     		ldr	r3, [sp, #12]
 744 0454 1343     		orrs	r3, r3, r2
 745 0456 0293     		str	r3, [sp, #8]
 511:../Libraries/STM32F30x_StdPeriph_Driver/src/stm32f30x_gpio.c ****   GPIOx->AFR[GPIO_PinSource >> 0x03] = temp_2;
 746              		.loc 1 511 0
 747 0458 BDF80230 		ldrh	r3, [sp, #2]
 748 045c 4FEAD303 		lsr	r3, r3, #3
 749 0460 9BB2     		uxth	r3, r3
 750 0462 1A46     		mov	r2, r3
 751 0464 019B     		ldr	r3, [sp, #4]
 752 0466 02F10802 		add	r2, r2, #8
 753 046a 0299     		ldr	r1, [sp, #8]
 754 046c 43F82210 		str	r1, [r3, r2, lsl #2]
 512:../Libraries/STM32F30x_StdPeriph_Driver/src/stm32f30x_gpio.c **** }
 755              		.loc 1 512 0
 756 0470 04B0     		add	sp, sp, #16
 757 0472 7047     		bx	lr
 758              		.cfi_endproc
 759              	.LFE123:
 761              	.Letext0:
 762              		.file 2 "c:\\program files\\codesourcery\\sourcery_codebench_lite_for_arm_eabi\\bin\\../lib/gcc/ar
 763              		.file 3 "D:\\Documents and Settings\\e722209\\Desktop\\workspace\\aq32Plus_F3\\Libraries\\Device\\
 764              		.file 4 "D:\\Documents and Settings\\e722209\\Desktop\\workspace\\aq32Plus_F3\\Libraries\\STM32F30
 765              		.file 5 "D:\\Documents and Settings\\e722209\\Desktop\\workspace\\aq32Plus_F3\\Libraries\\CMSIS\\I