   1              		.syntax unified
   2              		.cpu cortex-m4
   3              		.eabi_attribute 27, 3
   4              		.fpu fpv4-sp-d16
   5              		.eabi_attribute 20, 1
   6              		.eabi_attribute 21, 1
   7              		.eabi_attribute 23, 3
   8              		.eabi_attribute 24, 1
   9              		.eabi_attribute 25, 1
  10              		.eabi_attribute 26, 1
  11              		.eabi_attribute 30, 6
  12              		.eabi_attribute 34, 1
  13              		.eabi_attribute 18, 4
  14              		.thumb
  15              		.file	"stm32f30x_adc.c"
  16              		.text
  17              	.Ltext0:
  18              		.cfi_sections	.debug_frame
  19              		.align	2
  20              		.global	ADC_DeInit
  21              		.thumb
  22              		.thumb_func
  24              	ADC_DeInit:
  25              	.LFB111:
  26              		.file 1 "../Libraries/STM32F30x_StdPeriph_Driver/src/stm32f30x_adc.c"
   1:../Libraries/STM32F30x_StdPeriph_Driver/src/stm32f30x_adc.c **** /**
   2:../Libraries/STM32F30x_StdPeriph_Driver/src/stm32f30x_adc.c ****   ******************************************************************************
   3:../Libraries/STM32F30x_StdPeriph_Driver/src/stm32f30x_adc.c ****   * @file    stm32f30x_adc.c
   4:../Libraries/STM32F30x_StdPeriph_Driver/src/stm32f30x_adc.c ****   * @author  MCD Application Team
   5:../Libraries/STM32F30x_StdPeriph_Driver/src/stm32f30x_adc.c ****   * @version V1.0.1
   6:../Libraries/STM32F30x_StdPeriph_Driver/src/stm32f30x_adc.c ****   * @date    23-October-2012
   7:../Libraries/STM32F30x_StdPeriph_Driver/src/stm32f30x_adc.c ****   * @brief   This file provides firmware functions to manage the following 
   8:../Libraries/STM32F30x_StdPeriph_Driver/src/stm32f30x_adc.c ****   *          functionalities of the Analog to Digital Convertor (ADC) peripheral:
   9:../Libraries/STM32F30x_StdPeriph_Driver/src/stm32f30x_adc.c ****   *           + Initialization and Configuration
  10:../Libraries/STM32F30x_StdPeriph_Driver/src/stm32f30x_adc.c ****   *           + Analog Watchdog configuration
  11:../Libraries/STM32F30x_StdPeriph_Driver/src/stm32f30x_adc.c ****   *           + Temperature Sensor, Vbat & Vrefint (Internal Reference Voltage) management 
  12:../Libraries/STM32F30x_StdPeriph_Driver/src/stm32f30x_adc.c ****   *           + Regular Channels Configuration
  13:../Libraries/STM32F30x_StdPeriph_Driver/src/stm32f30x_adc.c ****   *           + Regular Channels DMA Configuration
  14:../Libraries/STM32F30x_StdPeriph_Driver/src/stm32f30x_adc.c ****   *           + Injected channels Configuration
  15:../Libraries/STM32F30x_StdPeriph_Driver/src/stm32f30x_adc.c ****   *           + Interrupts and flags management
  16:../Libraries/STM32F30x_StdPeriph_Driver/src/stm32f30x_adc.c ****   *           + Dual mode configuration  
  17:../Libraries/STM32F30x_StdPeriph_Driver/src/stm32f30x_adc.c ****   *         
  18:../Libraries/STM32F30x_StdPeriph_Driver/src/stm32f30x_adc.c ****   @verbatim
  19:../Libraries/STM32F30x_StdPeriph_Driver/src/stm32f30x_adc.c ****   ==============================================================================
  20:../Libraries/STM32F30x_StdPeriph_Driver/src/stm32f30x_adc.c ****                              ##### How to use this driver #####
  21:../Libraries/STM32F30x_StdPeriph_Driver/src/stm32f30x_adc.c ****   ==============================================================================
  22:../Libraries/STM32F30x_StdPeriph_Driver/src/stm32f30x_adc.c ****     [..]
  23:../Libraries/STM32F30x_StdPeriph_Driver/src/stm32f30x_adc.c ****     (#) select the ADC clock using the function RCC_ADCCLKConfig()
  24:../Libraries/STM32F30x_StdPeriph_Driver/src/stm32f30x_adc.c ****     (#) Enable the ADC interface clock using RCC_AHBPeriphClockCmd();
  25:../Libraries/STM32F30x_StdPeriph_Driver/src/stm32f30x_adc.c ****     (#) ADC pins configuration
  26:../Libraries/STM32F30x_StdPeriph_Driver/src/stm32f30x_adc.c ****         (++) Enable the clock for the ADC GPIOs using the following function:
  27:../Libraries/STM32F30x_StdPeriph_Driver/src/stm32f30x_adc.c ****              RCC_AHBPeriphClockCmd(RCC_AHBPeriph_GPIOx, ENABLE);
  28:../Libraries/STM32F30x_StdPeriph_Driver/src/stm32f30x_adc.c ****         (++) Configure these ADC pins in analog mode using GPIO_Init();
  29:../Libraries/STM32F30x_StdPeriph_Driver/src/stm32f30x_adc.c ****     (#) Configure the ADC conversion resolution, data alignment, external
  30:../Libraries/STM32F30x_StdPeriph_Driver/src/stm32f30x_adc.c ****         trigger and edge, sequencer lenght and Enable/Disable the continuous mode
  31:../Libraries/STM32F30x_StdPeriph_Driver/src/stm32f30x_adc.c ****         using the ADC_Init() function.
  32:../Libraries/STM32F30x_StdPeriph_Driver/src/stm32f30x_adc.c ****     (#) Activate the ADC peripheral using ADC_Cmd() function.
  33:../Libraries/STM32F30x_StdPeriph_Driver/src/stm32f30x_adc.c **** 
  34:../Libraries/STM32F30x_StdPeriph_Driver/src/stm32f30x_adc.c ****     *** ADC channels group configuration ***
  35:../Libraries/STM32F30x_StdPeriph_Driver/src/stm32f30x_adc.c ****     ========================================    
  36:../Libraries/STM32F30x_StdPeriph_Driver/src/stm32f30x_adc.c ****     [..] 
  37:../Libraries/STM32F30x_StdPeriph_Driver/src/stm32f30x_adc.c ****     (+) To configure the ADC channels features, use ADC_Init(), ADC_InjectedInit()
  38:../Libraries/STM32F30x_StdPeriph_Driver/src/stm32f30x_adc.c ****         and ADC_RegularChannelConfig() functions or/and ADC_InjectedChannelConfig()
  39:../Libraries/STM32F30x_StdPeriph_Driver/src/stm32f30x_adc.c ****     (+) To activate the continuous mode, use the ADC_ContinuousModeCmd()
  40:../Libraries/STM32F30x_StdPeriph_Driver/src/stm32f30x_adc.c ****         function.
  41:../Libraries/STM32F30x_StdPeriph_Driver/src/stm32f30x_adc.c ****     (+) To activate the Discontinuous mode, use the ADC_DiscModeCmd() functions. 
  42:../Libraries/STM32F30x_StdPeriph_Driver/src/stm32f30x_adc.c ****     (+) To activate the overrun mode, use the ADC_OverrunModeCmd() functions.
  43:../Libraries/STM32F30x_StdPeriph_Driver/src/stm32f30x_adc.c ****     (+) To activate the calibration mode, use the ADC_StartCalibration() functions.
  44:../Libraries/STM32F30x_StdPeriph_Driver/src/stm32f30x_adc.c ****     (+) To read the ADC converted values, use the ADC_GetConversionValue()
  45:../Libraries/STM32F30x_StdPeriph_Driver/src/stm32f30x_adc.c ****         function.
  46:../Libraries/STM32F30x_StdPeriph_Driver/src/stm32f30x_adc.c **** 
  47:../Libraries/STM32F30x_StdPeriph_Driver/src/stm32f30x_adc.c ****     *** DMA for ADC channels features configuration ***
  48:../Libraries/STM32F30x_StdPeriph_Driver/src/stm32f30x_adc.c ****     ===================================================     
  49:../Libraries/STM32F30x_StdPeriph_Driver/src/stm32f30x_adc.c ****     [..] 
  50:../Libraries/STM32F30x_StdPeriph_Driver/src/stm32f30x_adc.c ****     (+) To enable the DMA mode for ADC channels group, use the ADC_DMACmd() function.
  51:../Libraries/STM32F30x_StdPeriph_Driver/src/stm32f30x_adc.c ****     (+) To configure the DMA transfer request, use ADC_DMAConfig() function.
  52:../Libraries/STM32F30x_StdPeriph_Driver/src/stm32f30x_adc.c **** 
  53:../Libraries/STM32F30x_StdPeriph_Driver/src/stm32f30x_adc.c ****   @endverbatim
  54:../Libraries/STM32F30x_StdPeriph_Driver/src/stm32f30x_adc.c ****   *
  55:../Libraries/STM32F30x_StdPeriph_Driver/src/stm32f30x_adc.c ****   ******************************************************************************
  56:../Libraries/STM32F30x_StdPeriph_Driver/src/stm32f30x_adc.c ****   * @attention
  57:../Libraries/STM32F30x_StdPeriph_Driver/src/stm32f30x_adc.c ****   *
  58:../Libraries/STM32F30x_StdPeriph_Driver/src/stm32f30x_adc.c ****   * <h2><center>&copy; COPYRIGHT 2012 STMicroelectronics</center></h2>
  59:../Libraries/STM32F30x_StdPeriph_Driver/src/stm32f30x_adc.c ****   *
  60:../Libraries/STM32F30x_StdPeriph_Driver/src/stm32f30x_adc.c ****   * Licensed under MCD-ST Liberty SW License Agreement V2, (the "License");
  61:../Libraries/STM32F30x_StdPeriph_Driver/src/stm32f30x_adc.c ****   * You may not use this file except in compliance with the License.
  62:../Libraries/STM32F30x_StdPeriph_Driver/src/stm32f30x_adc.c ****   * You may obtain a copy of the License at:
  63:../Libraries/STM32F30x_StdPeriph_Driver/src/stm32f30x_adc.c ****   *
  64:../Libraries/STM32F30x_StdPeriph_Driver/src/stm32f30x_adc.c ****   *        http://www.st.com/software_license_agreement_liberty_v2
  65:../Libraries/STM32F30x_StdPeriph_Driver/src/stm32f30x_adc.c ****   *
  66:../Libraries/STM32F30x_StdPeriph_Driver/src/stm32f30x_adc.c ****   * Unless required by applicable law or agreed to in writing, software 
  67:../Libraries/STM32F30x_StdPeriph_Driver/src/stm32f30x_adc.c ****   * distributed under the License is distributed on an "AS IS" BASIS, 
  68:../Libraries/STM32F30x_StdPeriph_Driver/src/stm32f30x_adc.c ****   * WITHOUT WARRANTIES OR CONDITIONS OF ANY KIND, either express or implied.
  69:../Libraries/STM32F30x_StdPeriph_Driver/src/stm32f30x_adc.c ****   * See the License for the specific language governing permissions and
  70:../Libraries/STM32F30x_StdPeriph_Driver/src/stm32f30x_adc.c ****   * limitations under the License.
  71:../Libraries/STM32F30x_StdPeriph_Driver/src/stm32f30x_adc.c ****   *
  72:../Libraries/STM32F30x_StdPeriph_Driver/src/stm32f30x_adc.c ****   ******************************************************************************
  73:../Libraries/STM32F30x_StdPeriph_Driver/src/stm32f30x_adc.c ****   */
  74:../Libraries/STM32F30x_StdPeriph_Driver/src/stm32f30x_adc.c **** 
  75:../Libraries/STM32F30x_StdPeriph_Driver/src/stm32f30x_adc.c **** /* Includes ------------------------------------------------------------------*/
  76:../Libraries/STM32F30x_StdPeriph_Driver/src/stm32f30x_adc.c **** #include "stm32f30x_adc.h"
  77:../Libraries/STM32F30x_StdPeriph_Driver/src/stm32f30x_adc.c **** #include "stm32f30x_rcc.h"
  78:../Libraries/STM32F30x_StdPeriph_Driver/src/stm32f30x_adc.c **** 
  79:../Libraries/STM32F30x_StdPeriph_Driver/src/stm32f30x_adc.c **** /** @addtogroup STM32F30x_StdPeriph_Driver
  80:../Libraries/STM32F30x_StdPeriph_Driver/src/stm32f30x_adc.c ****   * @{
  81:../Libraries/STM32F30x_StdPeriph_Driver/src/stm32f30x_adc.c ****   */
  82:../Libraries/STM32F30x_StdPeriph_Driver/src/stm32f30x_adc.c **** 
  83:../Libraries/STM32F30x_StdPeriph_Driver/src/stm32f30x_adc.c **** /** @defgroup ADC 
  84:../Libraries/STM32F30x_StdPeriph_Driver/src/stm32f30x_adc.c ****   * @brief ADC driver modules
  85:../Libraries/STM32F30x_StdPeriph_Driver/src/stm32f30x_adc.c ****   * @{
  86:../Libraries/STM32F30x_StdPeriph_Driver/src/stm32f30x_adc.c ****   */
  87:../Libraries/STM32F30x_StdPeriph_Driver/src/stm32f30x_adc.c **** 
  88:../Libraries/STM32F30x_StdPeriph_Driver/src/stm32f30x_adc.c **** /* Private typedef -----------------------------------------------------------*/
  89:../Libraries/STM32F30x_StdPeriph_Driver/src/stm32f30x_adc.c **** /* Private define ------------------------------------------------------------*/
  90:../Libraries/STM32F30x_StdPeriph_Driver/src/stm32f30x_adc.c **** 
  91:../Libraries/STM32F30x_StdPeriph_Driver/src/stm32f30x_adc.c **** /* CFGR register Mask */
  92:../Libraries/STM32F30x_StdPeriph_Driver/src/stm32f30x_adc.c **** #define CFGR_CLEAR_Mask             ((uint32_t)0xFDFFC007)
  93:../Libraries/STM32F30x_StdPeriph_Driver/src/stm32f30x_adc.c **** 
  94:../Libraries/STM32F30x_StdPeriph_Driver/src/stm32f30x_adc.c **** /* JSQR register Mask */
  95:../Libraries/STM32F30x_StdPeriph_Driver/src/stm32f30x_adc.c **** #define JSQR_CLEAR_Mask             ((uint32_t)0x00000000)
  96:../Libraries/STM32F30x_StdPeriph_Driver/src/stm32f30x_adc.c **** 
  97:../Libraries/STM32F30x_StdPeriph_Driver/src/stm32f30x_adc.c **** /* ADC ADON mask */
  98:../Libraries/STM32F30x_StdPeriph_Driver/src/stm32f30x_adc.c **** #define CCR_CLEAR_MASK              ((uint32_t)0xFFFC10E0)
  99:../Libraries/STM32F30x_StdPeriph_Driver/src/stm32f30x_adc.c **** 
 100:../Libraries/STM32F30x_StdPeriph_Driver/src/stm32f30x_adc.c **** /* ADC JDRx registers offset */
 101:../Libraries/STM32F30x_StdPeriph_Driver/src/stm32f30x_adc.c **** #define JDR_Offset                  ((uint8_t)0x80)
 102:../Libraries/STM32F30x_StdPeriph_Driver/src/stm32f30x_adc.c **** 
 103:../Libraries/STM32F30x_StdPeriph_Driver/src/stm32f30x_adc.c **** /* Private macro -------------------------------------------------------------*/
 104:../Libraries/STM32F30x_StdPeriph_Driver/src/stm32f30x_adc.c **** /* Private variables ---------------------------------------------------------*/
 105:../Libraries/STM32F30x_StdPeriph_Driver/src/stm32f30x_adc.c **** /* Private function prototypes -----------------------------------------------*/
 106:../Libraries/STM32F30x_StdPeriph_Driver/src/stm32f30x_adc.c **** /* Private functions ---------------------------------------------------------*/
 107:../Libraries/STM32F30x_StdPeriph_Driver/src/stm32f30x_adc.c **** 
 108:../Libraries/STM32F30x_StdPeriph_Driver/src/stm32f30x_adc.c **** /** @defgroup ADC_Private_Functions
 109:../Libraries/STM32F30x_StdPeriph_Driver/src/stm32f30x_adc.c ****   * @{
 110:../Libraries/STM32F30x_StdPeriph_Driver/src/stm32f30x_adc.c ****   */
 111:../Libraries/STM32F30x_StdPeriph_Driver/src/stm32f30x_adc.c **** 
 112:../Libraries/STM32F30x_StdPeriph_Driver/src/stm32f30x_adc.c **** /** @defgroup ADC_Group1 Initialization and Configuration functions
 113:../Libraries/STM32F30x_StdPeriph_Driver/src/stm32f30x_adc.c ****  *  @brief   Initialization and Configuration functions 
 114:../Libraries/STM32F30x_StdPeriph_Driver/src/stm32f30x_adc.c ****  *
 115:../Libraries/STM32F30x_StdPeriph_Driver/src/stm32f30x_adc.c **** @verbatim    
 116:../Libraries/STM32F30x_StdPeriph_Driver/src/stm32f30x_adc.c ****  ===============================================================================
 117:../Libraries/STM32F30x_StdPeriph_Driver/src/stm32f30x_adc.c ****                  ##### Initialization and Configuration functions  #####
 118:../Libraries/STM32F30x_StdPeriph_Driver/src/stm32f30x_adc.c ****  ===============================================================================  
 119:../Libraries/STM32F30x_StdPeriph_Driver/src/stm32f30x_adc.c ****   [..] 
 120:../Libraries/STM32F30x_StdPeriph_Driver/src/stm32f30x_adc.c ****   This section provides functions allowing to:
 121:../Libraries/STM32F30x_StdPeriph_Driver/src/stm32f30x_adc.c ****    (#) Initialize and configure the ADC injected and/or regular channels and dual mode.
 122:../Libraries/STM32F30x_StdPeriph_Driver/src/stm32f30x_adc.c ****    (#) Management of the calibration process
 123:../Libraries/STM32F30x_StdPeriph_Driver/src/stm32f30x_adc.c ****    (#) ADC Power-on Power-off
 124:../Libraries/STM32F30x_StdPeriph_Driver/src/stm32f30x_adc.c ****    (#) Single ended or differential mode 
 125:../Libraries/STM32F30x_StdPeriph_Driver/src/stm32f30x_adc.c ****    (#) Enabling the queue of context and the auto delay mode
 126:../Libraries/STM32F30x_StdPeriph_Driver/src/stm32f30x_adc.c ****    (#) The number of ADC conversions that will be done using the sequencer for regular 
 127:../Libraries/STM32F30x_StdPeriph_Driver/src/stm32f30x_adc.c ****        channel group
 128:../Libraries/STM32F30x_StdPeriph_Driver/src/stm32f30x_adc.c ****    (#) Enable or disable the ADC peripheral
 129:../Libraries/STM32F30x_StdPeriph_Driver/src/stm32f30x_adc.c ****    
 130:../Libraries/STM32F30x_StdPeriph_Driver/src/stm32f30x_adc.c **** @endverbatim
 131:../Libraries/STM32F30x_StdPeriph_Driver/src/stm32f30x_adc.c ****   * @{
 132:../Libraries/STM32F30x_StdPeriph_Driver/src/stm32f30x_adc.c ****   */
 133:../Libraries/STM32F30x_StdPeriph_Driver/src/stm32f30x_adc.c **** 
 134:../Libraries/STM32F30x_StdPeriph_Driver/src/stm32f30x_adc.c **** /**
 135:../Libraries/STM32F30x_StdPeriph_Driver/src/stm32f30x_adc.c ****   * @brief  Deinitializes the ADCx peripheral registers to their default reset values.
 136:../Libraries/STM32F30x_StdPeriph_Driver/src/stm32f30x_adc.c ****   * @param  ADCx: where x can be 1, 2,3 or 4 to select the ADC peripheral.
 137:../Libraries/STM32F30x_StdPeriph_Driver/src/stm32f30x_adc.c ****   * @retval None
 138:../Libraries/STM32F30x_StdPeriph_Driver/src/stm32f30x_adc.c ****   */
 139:../Libraries/STM32F30x_StdPeriph_Driver/src/stm32f30x_adc.c **** void ADC_DeInit(ADC_TypeDef* ADCx)
 140:../Libraries/STM32F30x_StdPeriph_Driver/src/stm32f30x_adc.c **** {
  27              		.loc 1 140 0
  28              		.cfi_startproc
  29              		@ args = 0, pretend = 0, frame = 8
  30              		@ frame_needed = 0, uses_anonymous_args = 0
  31 0000 00B5     		push	{lr}
  32              	.LCFI0:
  33              		.cfi_def_cfa_offset 4
  34              		.cfi_offset 14, -4
  35 0002 83B0     		sub	sp, sp, #12
  36              	.LCFI1:
  37              		.cfi_def_cfa_offset 16
  38 0004 0190     		str	r0, [sp, #4]
 141:../Libraries/STM32F30x_StdPeriph_Driver/src/stm32f30x_adc.c ****   /* Check the parameters */
 142:../Libraries/STM32F30x_StdPeriph_Driver/src/stm32f30x_adc.c ****   assert_param(IS_ADC_ALL_PERIPH(ADCx));
 143:../Libraries/STM32F30x_StdPeriph_Driver/src/stm32f30x_adc.c **** 
 144:../Libraries/STM32F30x_StdPeriph_Driver/src/stm32f30x_adc.c **** 
 145:../Libraries/STM32F30x_StdPeriph_Driver/src/stm32f30x_adc.c ****   if((ADCx == ADC1) || (ADCx == ADC2))
  39              		.loc 1 145 0
  40 0006 019B     		ldr	r3, [sp, #4]
  41 0008 B3F1A04F 		cmp	r3, #1342177280
  42 000c 06D0     		beq	.L2
  43              		.loc 1 145 0 is_stmt 0 discriminator 1
  44 000e 019A     		ldr	r2, [sp, #4]
  45 0010 4FF48073 		mov	r3, #256
  46 0014 C5F20003 		movt	r3, 20480
  47 0018 9A42     		cmp	r2, r3
  48 001a 0CD1     		bne	.L3
  49              	.L2:
 146:../Libraries/STM32F30x_StdPeriph_Driver/src/stm32f30x_adc.c ****   {
 147:../Libraries/STM32F30x_StdPeriph_Driver/src/stm32f30x_adc.c ****     /* Enable ADC1/ADC2 reset state */
 148:../Libraries/STM32F30x_StdPeriph_Driver/src/stm32f30x_adc.c ****     RCC_AHBPeriphResetCmd(RCC_AHBPeriph_ADC12, ENABLE);
  50              		.loc 1 148 0 is_stmt 1
  51 001c 4FF08050 		mov	r0, #268435456
  52 0020 4FF00101 		mov	r1, #1
  53 0024 FFF7FEFF 		bl	RCC_AHBPeriphResetCmd
 149:../Libraries/STM32F30x_StdPeriph_Driver/src/stm32f30x_adc.c ****     /* Release ADC1/ADC2 from reset state */
 150:../Libraries/STM32F30x_StdPeriph_Driver/src/stm32f30x_adc.c ****     RCC_AHBPeriphResetCmd(RCC_AHBPeriph_ADC12, DISABLE);
  54              		.loc 1 150 0
  55 0028 4FF08050 		mov	r0, #268435456
  56 002c 4FF00001 		mov	r1, #0
  57 0030 FFF7FEFF 		bl	RCC_AHBPeriphResetCmd
  58 0034 19E0     		b	.L1
  59              	.L3:
 151:../Libraries/STM32F30x_StdPeriph_Driver/src/stm32f30x_adc.c ****   }
 152:../Libraries/STM32F30x_StdPeriph_Driver/src/stm32f30x_adc.c ****   else if((ADCx == ADC3) || (ADCx == ADC4))
  60              		.loc 1 152 0
  61 0036 019A     		ldr	r2, [sp, #4]
  62 0038 4FF48063 		mov	r3, #1024
  63 003c C5F20003 		movt	r3, 20480
  64 0040 9A42     		cmp	r2, r3
  65 0042 06D0     		beq	.L5
  66              		.loc 1 152 0 is_stmt 0 discriminator 1
  67 0044 019A     		ldr	r2, [sp, #4]
  68 0046 4FF4A063 		mov	r3, #1280
  69 004a C5F20003 		movt	r3, 20480
  70 004e 9A42     		cmp	r2, r3
  71 0050 0BD1     		bne	.L1
  72              	.L5:
 153:../Libraries/STM32F30x_StdPeriph_Driver/src/stm32f30x_adc.c ****   {
 154:../Libraries/STM32F30x_StdPeriph_Driver/src/stm32f30x_adc.c ****     /* Enable ADC3/ADC4 reset state */
 155:../Libraries/STM32F30x_StdPeriph_Driver/src/stm32f30x_adc.c ****     RCC_AHBPeriphResetCmd(RCC_AHBPeriph_ADC34, ENABLE);
  73              		.loc 1 155 0 is_stmt 1
  74 0052 4FF00050 		mov	r0, #536870912
  75 0056 4FF00101 		mov	r1, #1
  76 005a FFF7FEFF 		bl	RCC_AHBPeriphResetCmd
 156:../Libraries/STM32F30x_StdPeriph_Driver/src/stm32f30x_adc.c ****     /* Release ADC3/ADC4 from reset state */
 157:../Libraries/STM32F30x_StdPeriph_Driver/src/stm32f30x_adc.c ****     RCC_AHBPeriphResetCmd(RCC_AHBPeriph_ADC34, DISABLE);
  77              		.loc 1 157 0
  78 005e 4FF00050 		mov	r0, #536870912
  79 0062 4FF00001 		mov	r1, #0
  80 0066 FFF7FEFF 		bl	RCC_AHBPeriphResetCmd
  81              	.L1:
 158:../Libraries/STM32F30x_StdPeriph_Driver/src/stm32f30x_adc.c ****   }
 159:../Libraries/STM32F30x_StdPeriph_Driver/src/stm32f30x_adc.c **** }
  82              		.loc 1 159 0
  83 006a 03B0     		add	sp, sp, #12
  84 006c 00BD     		pop	{pc}
  85              		.cfi_endproc
  86              	.LFE111:
  88 006e 00BF     		.align	2
  89              		.global	ADC_Init
  90              		.thumb
  91              		.thumb_func
  93              	ADC_Init:
  94              	.LFB112:
 160:../Libraries/STM32F30x_StdPeriph_Driver/src/stm32f30x_adc.c **** /**
 161:../Libraries/STM32F30x_StdPeriph_Driver/src/stm32f30x_adc.c ****   * @brief  Initializes the ADCx peripheral according to the specified parameters
 162:../Libraries/STM32F30x_StdPeriph_Driver/src/stm32f30x_adc.c ****   *         in the ADC_InitStruct.
 163:../Libraries/STM32F30x_StdPeriph_Driver/src/stm32f30x_adc.c ****   * @param  ADCx: where x can be 1, 2, 3 or 4 to select the ADC peripheral.
 164:../Libraries/STM32F30x_StdPeriph_Driver/src/stm32f30x_adc.c ****   * @param  ADC_InitStruct: pointer to an ADC_InitTypeDef structure that contains
 165:../Libraries/STM32F30x_StdPeriph_Driver/src/stm32f30x_adc.c ****   *         the configuration information for the specified ADC peripheral.
 166:../Libraries/STM32F30x_StdPeriph_Driver/src/stm32f30x_adc.c ****   * @retval None
 167:../Libraries/STM32F30x_StdPeriph_Driver/src/stm32f30x_adc.c ****   */
 168:../Libraries/STM32F30x_StdPeriph_Driver/src/stm32f30x_adc.c **** void ADC_Init(ADC_TypeDef* ADCx, ADC_InitTypeDef* ADC_InitStruct)
 169:../Libraries/STM32F30x_StdPeriph_Driver/src/stm32f30x_adc.c **** {
  95              		.loc 1 169 0
  96              		.cfi_startproc
  97              		@ args = 0, pretend = 0, frame = 16
  98              		@ frame_needed = 0, uses_anonymous_args = 0
  99              		@ link register save eliminated.
 100 0070 84B0     		sub	sp, sp, #16
 101              	.LCFI2:
 102              		.cfi_def_cfa_offset 16
 103 0072 0190     		str	r0, [sp, #4]
 104 0074 0091     		str	r1, [sp, #0]
 170:../Libraries/STM32F30x_StdPeriph_Driver/src/stm32f30x_adc.c ****   uint32_t tmpreg1 = 0;
 105              		.loc 1 170 0
 106 0076 4FF00003 		mov	r3, #0
 107 007a 0393     		str	r3, [sp, #12]
 171:../Libraries/STM32F30x_StdPeriph_Driver/src/stm32f30x_adc.c ****   /* Check the parameters */
 172:../Libraries/STM32F30x_StdPeriph_Driver/src/stm32f30x_adc.c ****   assert_param(IS_ADC_ALL_PERIPH(ADCx));
 173:../Libraries/STM32F30x_StdPeriph_Driver/src/stm32f30x_adc.c ****   assert_param(IS_ADC_CONVMODE(ADC_InitStruct->ADC_ContinuousConvMode));
 174:../Libraries/STM32F30x_StdPeriph_Driver/src/stm32f30x_adc.c ****   assert_param(IS_ADC_RESOLUTION(ADC_InitStruct->ADC_Resolution));
 175:../Libraries/STM32F30x_StdPeriph_Driver/src/stm32f30x_adc.c ****   assert_param(IS_ADC_EXT_TRIG(ADC_InitStruct->ADC_ExternalTrigConvEvent)); 
 176:../Libraries/STM32F30x_StdPeriph_Driver/src/stm32f30x_adc.c ****   assert_param(IS_EXTERNALTRIG_EDGE(ADC_InitStruct->ADC_ExternalTrigEventEdge));  
 177:../Libraries/STM32F30x_StdPeriph_Driver/src/stm32f30x_adc.c ****   assert_param(IS_ADC_DATA_ALIGN(ADC_InitStruct->ADC_DataAlign)); 
 178:../Libraries/STM32F30x_StdPeriph_Driver/src/stm32f30x_adc.c ****   assert_param(IS_ADC_OVRUNMODE(ADC_InitStruct->ADC_OverrunMode));
 179:../Libraries/STM32F30x_StdPeriph_Driver/src/stm32f30x_adc.c ****   assert_param(IS_ADC_AUTOINJECMODE(ADC_InitStruct->ADC_AutoInjMode));
 180:../Libraries/STM32F30x_StdPeriph_Driver/src/stm32f30x_adc.c ****   assert_param(IS_ADC_REGULAR_LENGTH(ADC_InitStruct->ADC_NbrOfRegChannel));
 181:../Libraries/STM32F30x_StdPeriph_Driver/src/stm32f30x_adc.c **** 
 182:../Libraries/STM32F30x_StdPeriph_Driver/src/stm32f30x_adc.c ****   /*---------------------------- ADCx CFGR Configuration -----------------*/
 183:../Libraries/STM32F30x_StdPeriph_Driver/src/stm32f30x_adc.c ****   /* Get the ADCx CFGR value */
 184:../Libraries/STM32F30x_StdPeriph_Driver/src/stm32f30x_adc.c ****   tmpreg1 = ADCx->CFGR;
 108              		.loc 1 184 0
 109 007c 019B     		ldr	r3, [sp, #4]
 110 007e DB68     		ldr	r3, [r3, #12]
 111 0080 0393     		str	r3, [sp, #12]
 185:../Libraries/STM32F30x_StdPeriph_Driver/src/stm32f30x_adc.c ****   /* Clear SCAN bit */
 186:../Libraries/STM32F30x_StdPeriph_Driver/src/stm32f30x_adc.c ****   tmpreg1 &= CFGR_CLEAR_Mask; 
 112              		.loc 1 186 0
 113 0082 039A     		ldr	r2, [sp, #12]
 114 0084 4CF20703 		movw	r3, #49159
 115 0088 CFF6FF53 		movt	r3, 65023
 116 008c 1340     		ands	r3, r3, r2
 117 008e 0393     		str	r3, [sp, #12]
 187:../Libraries/STM32F30x_StdPeriph_Driver/src/stm32f30x_adc.c ****   /* Configure ADCx: scan conversion mode */
 188:../Libraries/STM32F30x_StdPeriph_Driver/src/stm32f30x_adc.c ****   /* Set SCAN bit according to ADC_ScanConvMode value */
 189:../Libraries/STM32F30x_StdPeriph_Driver/src/stm32f30x_adc.c ****   tmpreg1 |= (uint32_t)ADC_InitStruct->ADC_ContinuousConvMode | 
 118              		.loc 1 189 0
 119 0090 009B     		ldr	r3, [sp, #0]
 120 0092 1A68     		ldr	r2, [r3, #0]
 190:../Libraries/STM32F30x_StdPeriph_Driver/src/stm32f30x_adc.c ****   ADC_InitStruct->ADC_Resolution|                 
 121              		.loc 1 190 0
 122 0094 009B     		ldr	r3, [sp, #0]
 123 0096 5B68     		ldr	r3, [r3, #4]
 189:../Libraries/STM32F30x_StdPeriph_Driver/src/stm32f30x_adc.c ****   tmpreg1 |= (uint32_t)ADC_InitStruct->ADC_ContinuousConvMode | 
 124              		.loc 1 189 0
 125 0098 1A43     		orrs	r2, r2, r3
 191:../Libraries/STM32F30x_StdPeriph_Driver/src/stm32f30x_adc.c ****   ADC_InitStruct->ADC_ExternalTrigConvEvent|         
 126              		.loc 1 191 0
 127 009a 009B     		ldr	r3, [sp, #0]
 128 009c 9B68     		ldr	r3, [r3, #8]
 190:../Libraries/STM32F30x_StdPeriph_Driver/src/stm32f30x_adc.c ****   ADC_InitStruct->ADC_Resolution|                 
 129              		.loc 1 190 0
 130 009e 1A43     		orrs	r2, r2, r3
 192:../Libraries/STM32F30x_StdPeriph_Driver/src/stm32f30x_adc.c ****   ADC_InitStruct->ADC_ExternalTrigEventEdge|     
 131              		.loc 1 192 0
 132 00a0 009B     		ldr	r3, [sp, #0]
 133 00a2 DB68     		ldr	r3, [r3, #12]
 191:../Libraries/STM32F30x_StdPeriph_Driver/src/stm32f30x_adc.c ****   ADC_InitStruct->ADC_ExternalTrigConvEvent|         
 134              		.loc 1 191 0
 135 00a4 1A43     		orrs	r2, r2, r3
 193:../Libraries/STM32F30x_StdPeriph_Driver/src/stm32f30x_adc.c ****   ADC_InitStruct->ADC_DataAlign|                 
 136              		.loc 1 193 0
 137 00a6 009B     		ldr	r3, [sp, #0]
 138 00a8 1B69     		ldr	r3, [r3, #16]
 192:../Libraries/STM32F30x_StdPeriph_Driver/src/stm32f30x_adc.c ****   ADC_InitStruct->ADC_ExternalTrigEventEdge|     
 139              		.loc 1 192 0
 140 00aa 1A43     		orrs	r2, r2, r3
 194:../Libraries/STM32F30x_StdPeriph_Driver/src/stm32f30x_adc.c ****   ADC_InitStruct->ADC_OverrunMode|        
 141              		.loc 1 194 0
 142 00ac 009B     		ldr	r3, [sp, #0]
 143 00ae 5B69     		ldr	r3, [r3, #20]
 193:../Libraries/STM32F30x_StdPeriph_Driver/src/stm32f30x_adc.c ****   ADC_InitStruct->ADC_DataAlign|                 
 144              		.loc 1 193 0
 145 00b0 1A43     		orrs	r2, r2, r3
 195:../Libraries/STM32F30x_StdPeriph_Driver/src/stm32f30x_adc.c ****   ADC_InitStruct->ADC_AutoInjMode;
 146              		.loc 1 195 0
 147 00b2 009B     		ldr	r3, [sp, #0]
 148 00b4 9B69     		ldr	r3, [r3, #24]
 194:../Libraries/STM32F30x_StdPeriph_Driver/src/stm32f30x_adc.c ****   ADC_InitStruct->ADC_OverrunMode|        
 149              		.loc 1 194 0
 150 00b6 1343     		orrs	r3, r3, r2
 189:../Libraries/STM32F30x_StdPeriph_Driver/src/stm32f30x_adc.c ****   tmpreg1 |= (uint32_t)ADC_InitStruct->ADC_ContinuousConvMode | 
 151              		.loc 1 189 0
 152 00b8 039A     		ldr	r2, [sp, #12]
 153 00ba 1343     		orrs	r3, r3, r2
 154 00bc 0393     		str	r3, [sp, #12]
 196:../Libraries/STM32F30x_StdPeriph_Driver/src/stm32f30x_adc.c ****   
 197:../Libraries/STM32F30x_StdPeriph_Driver/src/stm32f30x_adc.c ****   /* Write to ADCx CFGR */
 198:../Libraries/STM32F30x_StdPeriph_Driver/src/stm32f30x_adc.c ****   ADCx->CFGR = tmpreg1;
 155              		.loc 1 198 0
 156 00be 019B     		ldr	r3, [sp, #4]
 157 00c0 039A     		ldr	r2, [sp, #12]
 158 00c2 DA60     		str	r2, [r3, #12]
 199:../Libraries/STM32F30x_StdPeriph_Driver/src/stm32f30x_adc.c ****   
 200:../Libraries/STM32F30x_StdPeriph_Driver/src/stm32f30x_adc.c ****   /*---------------------------- ADCx SQR1 Configuration -----------------*/
 201:../Libraries/STM32F30x_StdPeriph_Driver/src/stm32f30x_adc.c ****   /* Get the ADCx SQR1 value */
 202:../Libraries/STM32F30x_StdPeriph_Driver/src/stm32f30x_adc.c ****   tmpreg1 = ADCx->SQR1;
 159              		.loc 1 202 0
 160 00c4 019B     		ldr	r3, [sp, #4]
 161 00c6 1B6B     		ldr	r3, [r3, #48]
 162 00c8 0393     		str	r3, [sp, #12]
 203:../Libraries/STM32F30x_StdPeriph_Driver/src/stm32f30x_adc.c ****   /* Clear L bits */
 204:../Libraries/STM32F30x_StdPeriph_Driver/src/stm32f30x_adc.c ****   tmpreg1 &= ~(uint32_t)(ADC_SQR1_L);
 163              		.loc 1 204 0
 164 00ca 039B     		ldr	r3, [sp, #12]
 165 00cc 23F00F03 		bic	r3, r3, #15
 166 00d0 0393     		str	r3, [sp, #12]
 205:../Libraries/STM32F30x_StdPeriph_Driver/src/stm32f30x_adc.c ****   /* Configure ADCx: regular channel sequence length */
 206:../Libraries/STM32F30x_StdPeriph_Driver/src/stm32f30x_adc.c ****   /* Set L bits according to ADC_NbrOfRegChannel value */
 207:../Libraries/STM32F30x_StdPeriph_Driver/src/stm32f30x_adc.c ****   tmpreg1 |= (uint32_t) (ADC_InitStruct->ADC_NbrOfRegChannel - 1);
 167              		.loc 1 207 0
 168 00d2 009B     		ldr	r3, [sp, #0]
 169 00d4 1B7F     		ldrb	r3, [r3, #28]	@ zero_extendqisi2
 170 00d6 03F1FF33 		add	r3, r3, #-1
 171 00da 039A     		ldr	r2, [sp, #12]
 172 00dc 1343     		orrs	r3, r3, r2
 173 00de 0393     		str	r3, [sp, #12]
 208:../Libraries/STM32F30x_StdPeriph_Driver/src/stm32f30x_adc.c ****   /* Write to ADCx SQR1 */
 209:../Libraries/STM32F30x_StdPeriph_Driver/src/stm32f30x_adc.c ****   ADCx->SQR1 = tmpreg1; 
 174              		.loc 1 209 0
 175 00e0 019B     		ldr	r3, [sp, #4]
 176 00e2 039A     		ldr	r2, [sp, #12]
 177 00e4 1A63     		str	r2, [r3, #48]
 210:../Libraries/STM32F30x_StdPeriph_Driver/src/stm32f30x_adc.c ****    
 211:../Libraries/STM32F30x_StdPeriph_Driver/src/stm32f30x_adc.c **** }  
 178              		.loc 1 211 0
 179 00e6 04B0     		add	sp, sp, #16
 180 00e8 7047     		bx	lr
 181              		.cfi_endproc
 182              	.LFE112:
 184 00ea 00BF     		.align	2
 185              		.global	ADC_StructInit
 186              		.thumb
 187              		.thumb_func
 189              	ADC_StructInit:
 190              	.LFB113:
 212:../Libraries/STM32F30x_StdPeriph_Driver/src/stm32f30x_adc.c **** 
 213:../Libraries/STM32F30x_StdPeriph_Driver/src/stm32f30x_adc.c **** /**
 214:../Libraries/STM32F30x_StdPeriph_Driver/src/stm32f30x_adc.c ****   * @brief  Fills each ADC_InitStruct member with its default value.
 215:../Libraries/STM32F30x_StdPeriph_Driver/src/stm32f30x_adc.c ****   * @param  ADC_InitStruct : pointer to an ADC_InitTypeDef structure which will be initialized.
 216:../Libraries/STM32F30x_StdPeriph_Driver/src/stm32f30x_adc.c ****   * @retval None
 217:../Libraries/STM32F30x_StdPeriph_Driver/src/stm32f30x_adc.c ****   */
 218:../Libraries/STM32F30x_StdPeriph_Driver/src/stm32f30x_adc.c **** void ADC_StructInit(ADC_InitTypeDef* ADC_InitStruct)
 219:../Libraries/STM32F30x_StdPeriph_Driver/src/stm32f30x_adc.c **** {
 191              		.loc 1 219 0
 192              		.cfi_startproc
 193              		@ args = 0, pretend = 0, frame = 8
 194              		@ frame_needed = 0, uses_anonymous_args = 0
 195              		@ link register save eliminated.
 196 00ec 82B0     		sub	sp, sp, #8
 197              	.LCFI3:
 198              		.cfi_def_cfa_offset 8
 199 00ee 0190     		str	r0, [sp, #4]
 220:../Libraries/STM32F30x_StdPeriph_Driver/src/stm32f30x_adc.c ****   /* Reset ADC init structure parameters values */
 221:../Libraries/STM32F30x_StdPeriph_Driver/src/stm32f30x_adc.c ****   ADC_InitStruct->ADC_ContinuousConvMode = DISABLE;
 200              		.loc 1 221 0
 201 00f0 019B     		ldr	r3, [sp, #4]
 202 00f2 4FF00002 		mov	r2, #0
 203 00f6 1A60     		str	r2, [r3, #0]
 222:../Libraries/STM32F30x_StdPeriph_Driver/src/stm32f30x_adc.c ****   ADC_InitStruct->ADC_Resolution = ADC_Resolution_12b;                 
 204              		.loc 1 222 0
 205 00f8 019B     		ldr	r3, [sp, #4]
 206 00fa 4FF00002 		mov	r2, #0
 207 00fe 5A60     		str	r2, [r3, #4]
 223:../Libraries/STM32F30x_StdPeriph_Driver/src/stm32f30x_adc.c ****   ADC_InitStruct->ADC_ExternalTrigConvEvent = ADC_ExternalTrigConvEvent_0;         
 208              		.loc 1 223 0
 209 0100 019B     		ldr	r3, [sp, #4]
 210 0102 4FF00002 		mov	r2, #0
 211 0106 9A60     		str	r2, [r3, #8]
 224:../Libraries/STM32F30x_StdPeriph_Driver/src/stm32f30x_adc.c ****   ADC_InitStruct->ADC_ExternalTrigEventEdge = ADC_ExternalTrigEventEdge_None;
 212              		.loc 1 224 0
 213 0108 019B     		ldr	r3, [sp, #4]
 214 010a 4FF00002 		mov	r2, #0
 215 010e DA60     		str	r2, [r3, #12]
 225:../Libraries/STM32F30x_StdPeriph_Driver/src/stm32f30x_adc.c ****   ADC_InitStruct->ADC_DataAlign = ADC_DataAlign_Right;                 
 216              		.loc 1 225 0
 217 0110 019B     		ldr	r3, [sp, #4]
 218 0112 4FF00002 		mov	r2, #0
 219 0116 1A61     		str	r2, [r3, #16]
 226:../Libraries/STM32F30x_StdPeriph_Driver/src/stm32f30x_adc.c ****   ADC_InitStruct->ADC_OverrunMode = DISABLE;   
 220              		.loc 1 226 0
 221 0118 019B     		ldr	r3, [sp, #4]
 222 011a 4FF00002 		mov	r2, #0
 223 011e 5A61     		str	r2, [r3, #20]
 227:../Libraries/STM32F30x_StdPeriph_Driver/src/stm32f30x_adc.c ****   ADC_InitStruct->ADC_AutoInjMode = DISABLE;  
 224              		.loc 1 227 0
 225 0120 019B     		ldr	r3, [sp, #4]
 226 0122 4FF00002 		mov	r2, #0
 227 0126 9A61     		str	r2, [r3, #24]
 228:../Libraries/STM32F30x_StdPeriph_Driver/src/stm32f30x_adc.c ****   ADC_InitStruct->ADC_NbrOfRegChannel = 1; 
 228              		.loc 1 228 0
 229 0128 019B     		ldr	r3, [sp, #4]
 230 012a 4FF00102 		mov	r2, #1
 231 012e 1A77     		strb	r2, [r3, #28]
 229:../Libraries/STM32F30x_StdPeriph_Driver/src/stm32f30x_adc.c **** }
 232              		.loc 1 229 0
 233 0130 02B0     		add	sp, sp, #8
 234 0132 7047     		bx	lr
 235              		.cfi_endproc
 236              	.LFE113:
 238              		.align	2
 239              		.global	ADC_InjectedInit
 240              		.thumb
 241              		.thumb_func
 243              	ADC_InjectedInit:
 244              	.LFB114:
 230:../Libraries/STM32F30x_StdPeriph_Driver/src/stm32f30x_adc.c **** 
 231:../Libraries/STM32F30x_StdPeriph_Driver/src/stm32f30x_adc.c **** /**
 232:../Libraries/STM32F30x_StdPeriph_Driver/src/stm32f30x_adc.c ****   * @brief  Initializes the ADCx peripheral according to the specified parameters
 233:../Libraries/STM32F30x_StdPeriph_Driver/src/stm32f30x_adc.c ****   *         in the ADC_InitStruct.
 234:../Libraries/STM32F30x_StdPeriph_Driver/src/stm32f30x_adc.c ****   * @param  ADCx: where x can be 1, 2, 3 or 4 to select the ADC peripheral.
 235:../Libraries/STM32F30x_StdPeriph_Driver/src/stm32f30x_adc.c ****   * @param  ADC_InjectInitStruct: pointer to an ADC_InjecInitTypeDef structure that contains
 236:../Libraries/STM32F30x_StdPeriph_Driver/src/stm32f30x_adc.c ****   *         the configuration information for the specified ADC injected channel.
 237:../Libraries/STM32F30x_StdPeriph_Driver/src/stm32f30x_adc.c ****   * @retval None
 238:../Libraries/STM32F30x_StdPeriph_Driver/src/stm32f30x_adc.c ****   */
 239:../Libraries/STM32F30x_StdPeriph_Driver/src/stm32f30x_adc.c **** void ADC_InjectedInit(ADC_TypeDef* ADCx, ADC_InjectedInitTypeDef* ADC_InjectedInitStruct)
 240:../Libraries/STM32F30x_StdPeriph_Driver/src/stm32f30x_adc.c **** {
 245              		.loc 1 240 0
 246              		.cfi_startproc
 247              		@ args = 0, pretend = 0, frame = 16
 248              		@ frame_needed = 0, uses_anonymous_args = 0
 249              		@ link register save eliminated.
 250 0134 84B0     		sub	sp, sp, #16
 251              	.LCFI4:
 252              		.cfi_def_cfa_offset 16
 253 0136 0190     		str	r0, [sp, #4]
 254 0138 0091     		str	r1, [sp, #0]
 241:../Libraries/STM32F30x_StdPeriph_Driver/src/stm32f30x_adc.c ****   uint32_t tmpreg1 = 0;
 255              		.loc 1 241 0
 256 013a 4FF00003 		mov	r3, #0
 257 013e 0393     		str	r3, [sp, #12]
 242:../Libraries/STM32F30x_StdPeriph_Driver/src/stm32f30x_adc.c ****   /* Check the parameters */
 243:../Libraries/STM32F30x_StdPeriph_Driver/src/stm32f30x_adc.c ****   assert_param(IS_ADC_ALL_PERIPH(ADCx));
 244:../Libraries/STM32F30x_StdPeriph_Driver/src/stm32f30x_adc.c ****   assert_param(IS_ADC_EXT_INJEC_TRIG(ADC_InjectedInitStruct->ADC_ExternalTrigInjecConvEvent)); 
 245:../Libraries/STM32F30x_StdPeriph_Driver/src/stm32f30x_adc.c ****   assert_param(IS_EXTERNALTRIGINJ_EDGE(ADC_InjectedInitStruct->ADC_ExternalTrigInjecEventEdge));   
 246:../Libraries/STM32F30x_StdPeriph_Driver/src/stm32f30x_adc.c ****   assert_param(IS_ADC_INJECTED_LENGTH(ADC_InjectedInitStruct->ADC_NbrOfInjecChannel));
 247:../Libraries/STM32F30x_StdPeriph_Driver/src/stm32f30x_adc.c ****   assert_param(IS_ADC_INJECTED_CHANNEL(ADC_InjectedInitStruct->ADC_InjecSequence1));
 248:../Libraries/STM32F30x_StdPeriph_Driver/src/stm32f30x_adc.c ****   assert_param(IS_ADC_INJECTED_CHANNEL(ADC_InjectedInitStruct->ADC_InjecSequence2));
 249:../Libraries/STM32F30x_StdPeriph_Driver/src/stm32f30x_adc.c ****   assert_param(IS_ADC_INJECTED_CHANNEL(ADC_InjectedInitStruct->ADC_InjecSequence3));
 250:../Libraries/STM32F30x_StdPeriph_Driver/src/stm32f30x_adc.c ****   assert_param(IS_ADC_INJECTED_CHANNEL(ADC_InjectedInitStruct->ADC_InjecSequence4));
 251:../Libraries/STM32F30x_StdPeriph_Driver/src/stm32f30x_adc.c ****   
 252:../Libraries/STM32F30x_StdPeriph_Driver/src/stm32f30x_adc.c ****   /*---------------------------- ADCx JSQR Configuration -----------------*/
 253:../Libraries/STM32F30x_StdPeriph_Driver/src/stm32f30x_adc.c ****   /* Get the ADCx JSQR value */
 254:../Libraries/STM32F30x_StdPeriph_Driver/src/stm32f30x_adc.c ****   tmpreg1 = ADCx->JSQR;
 258              		.loc 1 254 0
 259 0140 019B     		ldr	r3, [sp, #4]
 260 0142 DB6C     		ldr	r3, [r3, #76]
 261 0144 0393     		str	r3, [sp, #12]
 255:../Libraries/STM32F30x_StdPeriph_Driver/src/stm32f30x_adc.c ****   /* Clear L bits */
 256:../Libraries/STM32F30x_StdPeriph_Driver/src/stm32f30x_adc.c ****   tmpreg1 &= JSQR_CLEAR_Mask;
 262              		.loc 1 256 0
 263 0146 4FF00003 		mov	r3, #0
 264 014a 0393     		str	r3, [sp, #12]
 257:../Libraries/STM32F30x_StdPeriph_Driver/src/stm32f30x_adc.c ****   /* Configure ADCx: Injected channel sequence length, external trigger, 
 258:../Libraries/STM32F30x_StdPeriph_Driver/src/stm32f30x_adc.c ****      external trigger edge and sequences
 259:../Libraries/STM32F30x_StdPeriph_Driver/src/stm32f30x_adc.c ****   */
 260:../Libraries/STM32F30x_StdPeriph_Driver/src/stm32f30x_adc.c ****   tmpreg1 = (uint32_t) ((ADC_InjectedInitStruct->ADC_NbrOfInjecChannel - (uint8_t)1) |
 265              		.loc 1 260 0
 266 014c 009B     		ldr	r3, [sp, #0]
 267 014e 1B7A     		ldrb	r3, [r3, #8]	@ zero_extendqisi2
 268 0150 03F1FF33 		add	r3, r3, #-1
 269 0154 1A46     		mov	r2, r3
 261:../Libraries/STM32F30x_StdPeriph_Driver/src/stm32f30x_adc.c ****                          ADC_InjectedInitStruct->ADC_ExternalTrigInjecConvEvent |         
 270              		.loc 1 261 0
 271 0156 009B     		ldr	r3, [sp, #0]
 272 0158 1B68     		ldr	r3, [r3, #0]
 260:../Libraries/STM32F30x_StdPeriph_Driver/src/stm32f30x_adc.c ****   tmpreg1 = (uint32_t) ((ADC_InjectedInitStruct->ADC_NbrOfInjecChannel - (uint8_t)1) |
 273              		.loc 1 260 0
 274 015a 1A43     		orrs	r2, r2, r3
 262:../Libraries/STM32F30x_StdPeriph_Driver/src/stm32f30x_adc.c ****                          ADC_InjectedInitStruct->ADC_ExternalTrigInjecEventEdge |
 275              		.loc 1 262 0
 276 015c 009B     		ldr	r3, [sp, #0]
 277 015e 5B68     		ldr	r3, [r3, #4]
 261:../Libraries/STM32F30x_StdPeriph_Driver/src/stm32f30x_adc.c ****                          ADC_InjectedInitStruct->ADC_ExternalTrigInjecConvEvent |         
 278              		.loc 1 261 0
 279 0160 1A43     		orrs	r2, r2, r3
 263:../Libraries/STM32F30x_StdPeriph_Driver/src/stm32f30x_adc.c ****                          (uint32_t)((ADC_InjectedInitStruct->ADC_InjecSequence1) << 8) |
 280              		.loc 1 263 0
 281 0162 009B     		ldr	r3, [sp, #0]
 282 0164 DB68     		ldr	r3, [r3, #12]
 283 0166 4FEA0323 		lsl	r3, r3, #8
 262:../Libraries/STM32F30x_StdPeriph_Driver/src/stm32f30x_adc.c ****                          ADC_InjectedInitStruct->ADC_ExternalTrigInjecEventEdge |
 284              		.loc 1 262 0
 285 016a 1A43     		orrs	r2, r2, r3
 264:../Libraries/STM32F30x_StdPeriph_Driver/src/stm32f30x_adc.c ****                          (uint32_t)((ADC_InjectedInitStruct->ADC_InjecSequence2) << 14) |
 286              		.loc 1 264 0
 287 016c 009B     		ldr	r3, [sp, #0]
 288 016e 1B69     		ldr	r3, [r3, #16]
 289 0170 4FEA8333 		lsl	r3, r3, #14
 263:../Libraries/STM32F30x_StdPeriph_Driver/src/stm32f30x_adc.c ****                          (uint32_t)((ADC_InjectedInitStruct->ADC_InjecSequence1) << 8) |
 290              		.loc 1 263 0
 291 0174 1A43     		orrs	r2, r2, r3
 265:../Libraries/STM32F30x_StdPeriph_Driver/src/stm32f30x_adc.c ****                          (uint32_t)((ADC_InjectedInitStruct->ADC_InjecSequence3) << 20) |
 292              		.loc 1 265 0
 293 0176 009B     		ldr	r3, [sp, #0]
 294 0178 5B69     		ldr	r3, [r3, #20]
 295 017a 4FEA0353 		lsl	r3, r3, #20
 264:../Libraries/STM32F30x_StdPeriph_Driver/src/stm32f30x_adc.c ****                          (uint32_t)((ADC_InjectedInitStruct->ADC_InjecSequence2) << 14) |
 296              		.loc 1 264 0
 297 017e 1A43     		orrs	r2, r2, r3
 266:../Libraries/STM32F30x_StdPeriph_Driver/src/stm32f30x_adc.c ****                          (uint32_t)((ADC_InjectedInitStruct->ADC_InjecSequence4) << 26));
 298              		.loc 1 266 0
 299 0180 009B     		ldr	r3, [sp, #0]
 300 0182 9B69     		ldr	r3, [r3, #24]
 301 0184 4FEA8363 		lsl	r3, r3, #26
 260:../Libraries/STM32F30x_StdPeriph_Driver/src/stm32f30x_adc.c ****   tmpreg1 = (uint32_t) ((ADC_InjectedInitStruct->ADC_NbrOfInjecChannel - (uint8_t)1) |
 302              		.loc 1 260 0
 303 0188 1343     		orrs	r3, r3, r2
 304 018a 0393     		str	r3, [sp, #12]
 267:../Libraries/STM32F30x_StdPeriph_Driver/src/stm32f30x_adc.c ****   /* Write to ADCx SQR1 */
 268:../Libraries/STM32F30x_StdPeriph_Driver/src/stm32f30x_adc.c ****   ADCx->JSQR = tmpreg1;  
 305              		.loc 1 268 0
 306 018c 019B     		ldr	r3, [sp, #4]
 307 018e 039A     		ldr	r2, [sp, #12]
 308 0190 DA64     		str	r2, [r3, #76]
 269:../Libraries/STM32F30x_StdPeriph_Driver/src/stm32f30x_adc.c **** }
 309              		.loc 1 269 0
 310 0192 04B0     		add	sp, sp, #16
 311 0194 7047     		bx	lr
 312              		.cfi_endproc
 313              	.LFE114:
 315 0196 00BF     		.align	2
 316              		.global	ADC_InjectedStructInit
 317              		.thumb
 318              		.thumb_func
 320              	ADC_InjectedStructInit:
 321              	.LFB115:
 270:../Libraries/STM32F30x_StdPeriph_Driver/src/stm32f30x_adc.c **** 
 271:../Libraries/STM32F30x_StdPeriph_Driver/src/stm32f30x_adc.c **** /**
 272:../Libraries/STM32F30x_StdPeriph_Driver/src/stm32f30x_adc.c ****   * @brief  Fills each ADC_InjectedInitStruct member with its default value.
 273:../Libraries/STM32F30x_StdPeriph_Driver/src/stm32f30x_adc.c ****   * @param  ADC_InjectedInitStruct : pointer to an ADC_InjectedInitTypeDef structure which will be 
 274:../Libraries/STM32F30x_StdPeriph_Driver/src/stm32f30x_adc.c ****   * @retval None
 275:../Libraries/STM32F30x_StdPeriph_Driver/src/stm32f30x_adc.c ****   */
 276:../Libraries/STM32F30x_StdPeriph_Driver/src/stm32f30x_adc.c **** void ADC_InjectedStructInit(ADC_InjectedInitTypeDef* ADC_InjectedInitStruct)
 277:../Libraries/STM32F30x_StdPeriph_Driver/src/stm32f30x_adc.c **** {
 322              		.loc 1 277 0
 323              		.cfi_startproc
 324              		@ args = 0, pretend = 0, frame = 8
 325              		@ frame_needed = 0, uses_anonymous_args = 0
 326              		@ link register save eliminated.
 327 0198 82B0     		sub	sp, sp, #8
 328              	.LCFI5:
 329              		.cfi_def_cfa_offset 8
 330 019a 0190     		str	r0, [sp, #4]
 278:../Libraries/STM32F30x_StdPeriph_Driver/src/stm32f30x_adc.c ****   ADC_InjectedInitStruct->ADC_ExternalTrigInjecConvEvent = ADC_ExternalTrigInjecConvEvent_0;    
 331              		.loc 1 278 0
 332 019c 019B     		ldr	r3, [sp, #4]
 333 019e 4FF00002 		mov	r2, #0
 334 01a2 1A60     		str	r2, [r3, #0]
 279:../Libraries/STM32F30x_StdPeriph_Driver/src/stm32f30x_adc.c ****   ADC_InjectedInitStruct->ADC_ExternalTrigInjecEventEdge = ADC_ExternalTrigInjecEventEdge_None;    
 335              		.loc 1 279 0
 336 01a4 019B     		ldr	r3, [sp, #4]
 337 01a6 4FF00002 		mov	r2, #0
 338 01aa 5A60     		str	r2, [r3, #4]
 280:../Libraries/STM32F30x_StdPeriph_Driver/src/stm32f30x_adc.c ****   ADC_InjectedInitStruct->ADC_NbrOfInjecChannel = 1;                                               
 339              		.loc 1 280 0
 340 01ac 019B     		ldr	r3, [sp, #4]
 341 01ae 4FF00102 		mov	r2, #1
 342 01b2 1A72     		strb	r2, [r3, #8]
 281:../Libraries/STM32F30x_StdPeriph_Driver/src/stm32f30x_adc.c ****   ADC_InjectedInitStruct->ADC_InjecSequence1 = ADC_InjectedChannel_1; 
 343              		.loc 1 281 0
 344 01b4 019B     		ldr	r3, [sp, #4]
 345 01b6 4FF00102 		mov	r2, #1
 346 01ba DA60     		str	r2, [r3, #12]
 282:../Libraries/STM32F30x_StdPeriph_Driver/src/stm32f30x_adc.c ****   ADC_InjectedInitStruct->ADC_InjecSequence2 = ADC_InjectedChannel_1;
 347              		.loc 1 282 0
 348 01bc 019B     		ldr	r3, [sp, #4]
 349 01be 4FF00102 		mov	r2, #1
 350 01c2 1A61     		str	r2, [r3, #16]
 283:../Libraries/STM32F30x_StdPeriph_Driver/src/stm32f30x_adc.c ****   ADC_InjectedInitStruct->ADC_InjecSequence3 = ADC_InjectedChannel_1;
 351              		.loc 1 283 0
 352 01c4 019B     		ldr	r3, [sp, #4]
 353 01c6 4FF00102 		mov	r2, #1
 354 01ca 5A61     		str	r2, [r3, #20]
 284:../Libraries/STM32F30x_StdPeriph_Driver/src/stm32f30x_adc.c ****   ADC_InjectedInitStruct->ADC_InjecSequence4 = ADC_InjectedChannel_1; 
 355              		.loc 1 284 0
 356 01cc 019B     		ldr	r3, [sp, #4]
 357 01ce 4FF00102 		mov	r2, #1
 358 01d2 9A61     		str	r2, [r3, #24]
 285:../Libraries/STM32F30x_StdPeriph_Driver/src/stm32f30x_adc.c **** }
 359              		.loc 1 285 0
 360 01d4 02B0     		add	sp, sp, #8
 361 01d6 7047     		bx	lr
 362              		.cfi_endproc
 363              	.LFE115:
 365              		.align	2
 366              		.global	ADC_CommonInit
 367              		.thumb
 368              		.thumb_func
 370              	ADC_CommonInit:
 371              	.LFB116:
 286:../Libraries/STM32F30x_StdPeriph_Driver/src/stm32f30x_adc.c ****     
 287:../Libraries/STM32F30x_StdPeriph_Driver/src/stm32f30x_adc.c **** /**
 288:../Libraries/STM32F30x_StdPeriph_Driver/src/stm32f30x_adc.c ****   * @brief  Initializes the ADCs peripherals according to the specified parameters 
 289:../Libraries/STM32F30x_StdPeriph_Driver/src/stm32f30x_adc.c ****   *         in the ADC_CommonInitStruct.
 290:../Libraries/STM32F30x_StdPeriph_Driver/src/stm32f30x_adc.c ****   * @param  ADCx: where x can be 1 or 4 to select the ADC peripheral.
 291:../Libraries/STM32F30x_StdPeriph_Driver/src/stm32f30x_adc.c ****   * @param  ADC_CommonInitStruct: pointer to an ADC_CommonInitTypeDef structure 
 292:../Libraries/STM32F30x_StdPeriph_Driver/src/stm32f30x_adc.c ****   *         that contains the configuration information for  All ADCs peripherals.
 293:../Libraries/STM32F30x_StdPeriph_Driver/src/stm32f30x_adc.c ****   * @retval None
 294:../Libraries/STM32F30x_StdPeriph_Driver/src/stm32f30x_adc.c ****   */
 295:../Libraries/STM32F30x_StdPeriph_Driver/src/stm32f30x_adc.c **** void ADC_CommonInit(ADC_TypeDef* ADCx, ADC_CommonInitTypeDef* ADC_CommonInitStruct)
 296:../Libraries/STM32F30x_StdPeriph_Driver/src/stm32f30x_adc.c **** {
 372              		.loc 1 296 0
 373              		.cfi_startproc
 374              		@ args = 0, pretend = 0, frame = 16
 375              		@ frame_needed = 0, uses_anonymous_args = 0
 376              		@ link register save eliminated.
 377 01d8 84B0     		sub	sp, sp, #16
 378              	.LCFI6:
 379              		.cfi_def_cfa_offset 16
 380 01da 0190     		str	r0, [sp, #4]
 381 01dc 0091     		str	r1, [sp, #0]
 297:../Libraries/STM32F30x_StdPeriph_Driver/src/stm32f30x_adc.c ****   uint32_t tmpreg1 = 0;
 382              		.loc 1 297 0
 383 01de 4FF00003 		mov	r3, #0
 384 01e2 0393     		str	r3, [sp, #12]
 298:../Libraries/STM32F30x_StdPeriph_Driver/src/stm32f30x_adc.c ****   /* Check the parameters */
 299:../Libraries/STM32F30x_StdPeriph_Driver/src/stm32f30x_adc.c ****   assert_param(IS_ADC_MODE(ADC_CommonInitStruct->ADC_Mode));
 300:../Libraries/STM32F30x_StdPeriph_Driver/src/stm32f30x_adc.c ****   assert_param(IS_ADC_CLOCKMODE(ADC_CommonInitStruct->ADC_Clock));
 301:../Libraries/STM32F30x_StdPeriph_Driver/src/stm32f30x_adc.c ****   assert_param(IS_ADC_DMA_MODE(ADC_CommonInitStruct->ADC_DMAMode));
 302:../Libraries/STM32F30x_StdPeriph_Driver/src/stm32f30x_adc.c ****   assert_param(IS_ADC_DMA_ACCESS_MODE(ADC_CommonInitStruct->ADC_DMAAccessMode));
 303:../Libraries/STM32F30x_StdPeriph_Driver/src/stm32f30x_adc.c ****   assert_param(IS_ADC_TWOSAMPLING_DELAY(ADC_CommonInitStruct->ADC_TwoSamplingDelay));
 304:../Libraries/STM32F30x_StdPeriph_Driver/src/stm32f30x_adc.c **** 
 305:../Libraries/STM32F30x_StdPeriph_Driver/src/stm32f30x_adc.c ****   if((ADCx == ADC1) || (ADCx == ADC2))
 385              		.loc 1 305 0
 386 01e4 019B     		ldr	r3, [sp, #4]
 387 01e6 B3F1A04F 		cmp	r3, #1342177280
 388 01ea 06D0     		beq	.L11
 389              		.loc 1 305 0 is_stmt 0 discriminator 1
 390 01ec 019A     		ldr	r2, [sp, #4]
 391 01ee 4FF48073 		mov	r3, #256
 392 01f2 C5F20003 		movt	r3, 20480
 393 01f6 9A42     		cmp	r2, r3
 394 01f8 0DD1     		bne	.L12
 395              	.L11:
 306:../Libraries/STM32F30x_StdPeriph_Driver/src/stm32f30x_adc.c ****   {
 307:../Libraries/STM32F30x_StdPeriph_Driver/src/stm32f30x_adc.c ****     /* Get the ADC CCR value */
 308:../Libraries/STM32F30x_StdPeriph_Driver/src/stm32f30x_adc.c ****     tmpreg1 = ADC1_2->CCR;
 396              		.loc 1 308 0 is_stmt 1
 397 01fa 4FF44073 		mov	r3, #768
 398 01fe C5F20003 		movt	r3, 20480
 399 0202 9B68     		ldr	r3, [r3, #8]
 400 0204 0393     		str	r3, [sp, #12]
 309:../Libraries/STM32F30x_StdPeriph_Driver/src/stm32f30x_adc.c ****   
 310:../Libraries/STM32F30x_StdPeriph_Driver/src/stm32f30x_adc.c ****     /* Clear MULTI, DELAY, DMA and ADCPRE bits */
 311:../Libraries/STM32F30x_StdPeriph_Driver/src/stm32f30x_adc.c ****     tmpreg1 &= CCR_CLEAR_MASK;
 401              		.loc 1 311 0
 402 0206 039A     		ldr	r2, [sp, #12]
 403 0208 4FF48753 		mov	r3, #4320
 404 020c CFF6FC73 		movt	r3, 65532
 405 0210 1340     		ands	r3, r3, r2
 406 0212 0393     		str	r3, [sp, #12]
 407 0214 0CE0     		b	.L13
 408              	.L12:
 312:../Libraries/STM32F30x_StdPeriph_Driver/src/stm32f30x_adc.c ****   }
 313:../Libraries/STM32F30x_StdPeriph_Driver/src/stm32f30x_adc.c ****   else
 314:../Libraries/STM32F30x_StdPeriph_Driver/src/stm32f30x_adc.c ****   {
 315:../Libraries/STM32F30x_StdPeriph_Driver/src/stm32f30x_adc.c ****     /* Get the ADC CCR value */
 316:../Libraries/STM32F30x_StdPeriph_Driver/src/stm32f30x_adc.c ****     tmpreg1 = ADC3_4->CCR;
 409              		.loc 1 316 0
 410 0216 4FF4E063 		mov	r3, #1792
 411 021a C5F20003 		movt	r3, 20480
 412 021e 9B68     		ldr	r3, [r3, #8]
 413 0220 0393     		str	r3, [sp, #12]
 317:../Libraries/STM32F30x_StdPeriph_Driver/src/stm32f30x_adc.c ****   
 318:../Libraries/STM32F30x_StdPeriph_Driver/src/stm32f30x_adc.c ****     /* Clear MULTI, DELAY, DMA and ADCPRE bits */
 319:../Libraries/STM32F30x_StdPeriph_Driver/src/stm32f30x_adc.c ****     tmpreg1 &= CCR_CLEAR_MASK;
 414              		.loc 1 319 0
 415 0222 039A     		ldr	r2, [sp, #12]
 416 0224 4FF48753 		mov	r3, #4320
 417 0228 CFF6FC73 		movt	r3, 65532
 418 022c 1340     		ands	r3, r3, r2
 419 022e 0393     		str	r3, [sp, #12]
 420              	.L13:
 320:../Libraries/STM32F30x_StdPeriph_Driver/src/stm32f30x_adc.c ****   }
 321:../Libraries/STM32F30x_StdPeriph_Driver/src/stm32f30x_adc.c ****   /*---------------------------- ADC CCR Configuration -----------------*/  
 322:../Libraries/STM32F30x_StdPeriph_Driver/src/stm32f30x_adc.c ****   /* Configure ADCx: Multi mode, Delay between two sampling time, ADC clock, DMA mode
 323:../Libraries/STM32F30x_StdPeriph_Driver/src/stm32f30x_adc.c ****      and DMA access mode for dual mode */
 324:../Libraries/STM32F30x_StdPeriph_Driver/src/stm32f30x_adc.c ****   /* Set MULTI bits according to ADC_Mode value */
 325:../Libraries/STM32F30x_StdPeriph_Driver/src/stm32f30x_adc.c ****   /* Set CKMODE bits according to ADC_Clock value */
 326:../Libraries/STM32F30x_StdPeriph_Driver/src/stm32f30x_adc.c ****   /* Set MDMA bits according to ADC_DMAAccessMode value */
 327:../Libraries/STM32F30x_StdPeriph_Driver/src/stm32f30x_adc.c ****   /* Set DMACFG bits according to ADC_DMAMode value */
 328:../Libraries/STM32F30x_StdPeriph_Driver/src/stm32f30x_adc.c ****   /* Set DELAY bits according to ADC_TwoSamplingDelay value */    
 329:../Libraries/STM32F30x_StdPeriph_Driver/src/stm32f30x_adc.c ****   tmpreg1 |= (uint32_t)(ADC_CommonInitStruct->ADC_Mode | 
 421              		.loc 1 329 0
 422 0230 009B     		ldr	r3, [sp, #0]
 423 0232 1A68     		ldr	r2, [r3, #0]
 330:../Libraries/STM32F30x_StdPeriph_Driver/src/stm32f30x_adc.c ****                         ADC_CommonInitStruct->ADC_Clock | 
 424              		.loc 1 330 0
 425 0234 009B     		ldr	r3, [sp, #0]
 426 0236 5B68     		ldr	r3, [r3, #4]
 329:../Libraries/STM32F30x_StdPeriph_Driver/src/stm32f30x_adc.c ****   tmpreg1 |= (uint32_t)(ADC_CommonInitStruct->ADC_Mode | 
 427              		.loc 1 329 0
 428 0238 1A43     		orrs	r2, r2, r3
 331:../Libraries/STM32F30x_StdPeriph_Driver/src/stm32f30x_adc.c ****                         ADC_CommonInitStruct->ADC_DMAAccessMode | 
 429              		.loc 1 331 0
 430 023a 009B     		ldr	r3, [sp, #0]
 431 023c 9B68     		ldr	r3, [r3, #8]
 330:../Libraries/STM32F30x_StdPeriph_Driver/src/stm32f30x_adc.c ****                         ADC_CommonInitStruct->ADC_Clock | 
 432              		.loc 1 330 0
 433 023e 1A43     		orrs	r2, r2, r3
 332:../Libraries/STM32F30x_StdPeriph_Driver/src/stm32f30x_adc.c ****                         (uint32_t)(ADC_CommonInitStruct->ADC_DMAMode << 12) |
 434              		.loc 1 332 0
 435 0240 009B     		ldr	r3, [sp, #0]
 436 0242 DB68     		ldr	r3, [r3, #12]
 437 0244 4FEA0333 		lsl	r3, r3, #12
 331:../Libraries/STM32F30x_StdPeriph_Driver/src/stm32f30x_adc.c ****                         ADC_CommonInitStruct->ADC_DMAAccessMode | 
 438              		.loc 1 331 0
 439 0248 1A43     		orrs	r2, r2, r3
 333:../Libraries/STM32F30x_StdPeriph_Driver/src/stm32f30x_adc.c ****                         (uint32_t)((uint32_t)ADC_CommonInitStruct->ADC_TwoSamplingDelay << 8));
 440              		.loc 1 333 0
 441 024a 009B     		ldr	r3, [sp, #0]
 442 024c 1B7C     		ldrb	r3, [r3, #16]	@ zero_extendqisi2
 443 024e 4FEA0323 		lsl	r3, r3, #8
 329:../Libraries/STM32F30x_StdPeriph_Driver/src/stm32f30x_adc.c ****   tmpreg1 |= (uint32_t)(ADC_CommonInitStruct->ADC_Mode | 
 444              		.loc 1 329 0
 445 0252 1343     		orrs	r3, r3, r2
 446 0254 039A     		ldr	r2, [sp, #12]
 447 0256 1343     		orrs	r3, r3, r2
 448 0258 0393     		str	r3, [sp, #12]
 334:../Libraries/STM32F30x_StdPeriph_Driver/src/stm32f30x_adc.c **** 
 335:../Libraries/STM32F30x_StdPeriph_Driver/src/stm32f30x_adc.c ****   if((ADCx == ADC1) || (ADCx == ADC2))
 449              		.loc 1 335 0
 450 025a 019B     		ldr	r3, [sp, #4]
 451 025c B3F1A04F 		cmp	r3, #1342177280
 452 0260 06D0     		beq	.L14
 453              		.loc 1 335 0 is_stmt 0 discriminator 1
 454 0262 019A     		ldr	r2, [sp, #4]
 455 0264 4FF48073 		mov	r3, #256
 456 0268 C5F20003 		movt	r3, 20480
 457 026c 9A42     		cmp	r2, r3
 458 026e 06D1     		bne	.L15
 459              	.L14:
 336:../Libraries/STM32F30x_StdPeriph_Driver/src/stm32f30x_adc.c ****   {                        
 337:../Libraries/STM32F30x_StdPeriph_Driver/src/stm32f30x_adc.c ****     /* Write to ADC CCR */
 338:../Libraries/STM32F30x_StdPeriph_Driver/src/stm32f30x_adc.c ****     ADC1_2->CCR = tmpreg1;
 460              		.loc 1 338 0 is_stmt 1
 461 0270 4FF44073 		mov	r3, #768
 462 0274 C5F20003 		movt	r3, 20480
 463 0278 039A     		ldr	r2, [sp, #12]
 464 027a 9A60     		str	r2, [r3, #8]
 465 027c 05E0     		b	.L10
 466              	.L15:
 339:../Libraries/STM32F30x_StdPeriph_Driver/src/stm32f30x_adc.c ****   }
 340:../Libraries/STM32F30x_StdPeriph_Driver/src/stm32f30x_adc.c ****   else
 341:../Libraries/STM32F30x_StdPeriph_Driver/src/stm32f30x_adc.c ****   {
 342:../Libraries/STM32F30x_StdPeriph_Driver/src/stm32f30x_adc.c ****     /* Write to ADC CCR */
 343:../Libraries/STM32F30x_StdPeriph_Driver/src/stm32f30x_adc.c ****     ADC3_4->CCR = tmpreg1;
 467              		.loc 1 343 0
 468 027e 4FF4E063 		mov	r3, #1792
 469 0282 C5F20003 		movt	r3, 20480
 470 0286 039A     		ldr	r2, [sp, #12]
 471 0288 9A60     		str	r2, [r3, #8]
 472              	.L10:
 344:../Libraries/STM32F30x_StdPeriph_Driver/src/stm32f30x_adc.c ****   }
 345:../Libraries/STM32F30x_StdPeriph_Driver/src/stm32f30x_adc.c **** }
 473              		.loc 1 345 0
 474 028a 04B0     		add	sp, sp, #16
 475 028c 7047     		bx	lr
 476              		.cfi_endproc
 477              	.LFE116:
 479 028e 00BF     		.align	2
 480              		.global	ADC_CommonStructInit
 481              		.thumb
 482              		.thumb_func
 484              	ADC_CommonStructInit:
 485              	.LFB117:
 346:../Libraries/STM32F30x_StdPeriph_Driver/src/stm32f30x_adc.c **** 
 347:../Libraries/STM32F30x_StdPeriph_Driver/src/stm32f30x_adc.c **** /**
 348:../Libraries/STM32F30x_StdPeriph_Driver/src/stm32f30x_adc.c ****   * @brief  Fills each ADC_CommonInitStruct member with its default value.
 349:../Libraries/STM32F30x_StdPeriph_Driver/src/stm32f30x_adc.c ****   * @param  ADC_CommonInitStruct: pointer to an ADC_CommonInitTypeDef structure
 350:../Libraries/STM32F30x_StdPeriph_Driver/src/stm32f30x_adc.c ****   *         which will be initialized.
 351:../Libraries/STM32F30x_StdPeriph_Driver/src/stm32f30x_adc.c ****   * @retval None
 352:../Libraries/STM32F30x_StdPeriph_Driver/src/stm32f30x_adc.c ****   */
 353:../Libraries/STM32F30x_StdPeriph_Driver/src/stm32f30x_adc.c **** void ADC_CommonStructInit(ADC_CommonInitTypeDef* ADC_CommonInitStruct)
 354:../Libraries/STM32F30x_StdPeriph_Driver/src/stm32f30x_adc.c **** {
 486              		.loc 1 354 0
 487              		.cfi_startproc
 488              		@ args = 0, pretend = 0, frame = 8
 489              		@ frame_needed = 0, uses_anonymous_args = 0
 490              		@ link register save eliminated.
 491 0290 82B0     		sub	sp, sp, #8
 492              	.LCFI7:
 493              		.cfi_def_cfa_offset 8
 494 0292 0190     		str	r0, [sp, #4]
 355:../Libraries/STM32F30x_StdPeriph_Driver/src/stm32f30x_adc.c ****   /* Initialize the ADC_Mode member */
 356:../Libraries/STM32F30x_StdPeriph_Driver/src/stm32f30x_adc.c ****   ADC_CommonInitStruct->ADC_Mode = ADC_Mode_Independent;
 495              		.loc 1 356 0
 496 0294 019B     		ldr	r3, [sp, #4]
 497 0296 4FF00002 		mov	r2, #0
 498 029a 1A60     		str	r2, [r3, #0]
 357:../Libraries/STM32F30x_StdPeriph_Driver/src/stm32f30x_adc.c **** 
 358:../Libraries/STM32F30x_StdPeriph_Driver/src/stm32f30x_adc.c ****   /* initialize the ADC_Clock member */
 359:../Libraries/STM32F30x_StdPeriph_Driver/src/stm32f30x_adc.c ****   ADC_CommonInitStruct->ADC_Clock = ADC_Clock_AsynClkMode;
 499              		.loc 1 359 0
 500 029c 019B     		ldr	r3, [sp, #4]
 501 029e 4FF00002 		mov	r2, #0
 502 02a2 5A60     		str	r2, [r3, #4]
 360:../Libraries/STM32F30x_StdPeriph_Driver/src/stm32f30x_adc.c **** 
 361:../Libraries/STM32F30x_StdPeriph_Driver/src/stm32f30x_adc.c ****   /* Initialize the ADC_DMAAccessMode member */
 362:../Libraries/STM32F30x_StdPeriph_Driver/src/stm32f30x_adc.c ****   ADC_CommonInitStruct->ADC_DMAAccessMode = ADC_DMAAccessMode_Disabled;
 503              		.loc 1 362 0
 504 02a4 019B     		ldr	r3, [sp, #4]
 505 02a6 4FF00002 		mov	r2, #0
 506 02aa 9A60     		str	r2, [r3, #8]
 363:../Libraries/STM32F30x_StdPeriph_Driver/src/stm32f30x_adc.c **** 
 364:../Libraries/STM32F30x_StdPeriph_Driver/src/stm32f30x_adc.c ****   /* Initialize the ADC_DMAMode member */
 365:../Libraries/STM32F30x_StdPeriph_Driver/src/stm32f30x_adc.c ****   ADC_CommonInitStruct->ADC_DMAMode = ADC_DMAMode_OneShot;
 507              		.loc 1 365 0
 508 02ac 019B     		ldr	r3, [sp, #4]
 509 02ae 4FF00002 		mov	r2, #0
 510 02b2 DA60     		str	r2, [r3, #12]
 366:../Libraries/STM32F30x_StdPeriph_Driver/src/stm32f30x_adc.c **** 
 367:../Libraries/STM32F30x_StdPeriph_Driver/src/stm32f30x_adc.c ****   /* Initialize the ADC_TwoSamplingDelay member */
 368:../Libraries/STM32F30x_StdPeriph_Driver/src/stm32f30x_adc.c ****   ADC_CommonInitStruct->ADC_TwoSamplingDelay = 0;
 511              		.loc 1 368 0
 512 02b4 019B     		ldr	r3, [sp, #4]
 513 02b6 4FF00002 		mov	r2, #0
 514 02ba 1A74     		strb	r2, [r3, #16]
 369:../Libraries/STM32F30x_StdPeriph_Driver/src/stm32f30x_adc.c **** 
 370:../Libraries/STM32F30x_StdPeriph_Driver/src/stm32f30x_adc.c **** }
 515              		.loc 1 370 0
 516 02bc 02B0     		add	sp, sp, #8
 517 02be 7047     		bx	lr
 518              		.cfi_endproc
 519              	.LFE117:
 521              		.align	2
 522              		.global	ADC_Cmd
 523              		.thumb
 524              		.thumb_func
 526              	ADC_Cmd:
 527              	.LFB118:
 371:../Libraries/STM32F30x_StdPeriph_Driver/src/stm32f30x_adc.c **** 
 372:../Libraries/STM32F30x_StdPeriph_Driver/src/stm32f30x_adc.c **** /**
 373:../Libraries/STM32F30x_StdPeriph_Driver/src/stm32f30x_adc.c ****   * @brief  Enables or disables the specified ADC peripheral.
 374:../Libraries/STM32F30x_StdPeriph_Driver/src/stm32f30x_adc.c ****   * @param  ADCx: where x can be 1, 2, 3 or 4 to select the ADC peripheral.
 375:../Libraries/STM32F30x_StdPeriph_Driver/src/stm32f30x_adc.c ****   * @param  NewState: new state of the ADCx peripheral.
 376:../Libraries/STM32F30x_StdPeriph_Driver/src/stm32f30x_adc.c ****   *   This parameter can be: ENABLE or DISABLE.
 377:../Libraries/STM32F30x_StdPeriph_Driver/src/stm32f30x_adc.c ****   * @retval None
 378:../Libraries/STM32F30x_StdPeriph_Driver/src/stm32f30x_adc.c ****   */
 379:../Libraries/STM32F30x_StdPeriph_Driver/src/stm32f30x_adc.c **** void ADC_Cmd(ADC_TypeDef* ADCx, FunctionalState NewState)
 380:../Libraries/STM32F30x_StdPeriph_Driver/src/stm32f30x_adc.c **** {
 528              		.loc 1 380 0
 529              		.cfi_startproc
 530              		@ args = 0, pretend = 0, frame = 8
 531              		@ frame_needed = 0, uses_anonymous_args = 0
 532              		@ link register save eliminated.
 533 02c0 82B0     		sub	sp, sp, #8
 534              	.LCFI8:
 535              		.cfi_def_cfa_offset 8
 536 02c2 0190     		str	r0, [sp, #4]
 537 02c4 0B46     		mov	r3, r1
 538 02c6 8DF80330 		strb	r3, [sp, #3]
 381:../Libraries/STM32F30x_StdPeriph_Driver/src/stm32f30x_adc.c ****   /* Check the parameters */
 382:../Libraries/STM32F30x_StdPeriph_Driver/src/stm32f30x_adc.c ****   assert_param(IS_ADC_ALL_PERIPH(ADCx));
 383:../Libraries/STM32F30x_StdPeriph_Driver/src/stm32f30x_adc.c ****   assert_param(IS_FUNCTIONAL_STATE(NewState));
 384:../Libraries/STM32F30x_StdPeriph_Driver/src/stm32f30x_adc.c **** 
 385:../Libraries/STM32F30x_StdPeriph_Driver/src/stm32f30x_adc.c ****   if (NewState != DISABLE)
 539              		.loc 1 385 0
 540 02ca 9DF80330 		ldrb	r3, [sp, #3]	@ zero_extendqisi2
 541 02ce 002B     		cmp	r3, #0
 542 02d0 06D0     		beq	.L19
 386:../Libraries/STM32F30x_StdPeriph_Driver/src/stm32f30x_adc.c ****   {
 387:../Libraries/STM32F30x_StdPeriph_Driver/src/stm32f30x_adc.c ****     /* Set the ADEN bit */
 388:../Libraries/STM32F30x_StdPeriph_Driver/src/stm32f30x_adc.c ****     ADCx->CR |= ADC_CR_ADEN;
 543              		.loc 1 388 0
 544 02d2 019B     		ldr	r3, [sp, #4]
 545 02d4 9B68     		ldr	r3, [r3, #8]
 546 02d6 43F00102 		orr	r2, r3, #1
 547 02da 019B     		ldr	r3, [sp, #4]
 548 02dc 9A60     		str	r2, [r3, #8]
 549 02de 05E0     		b	.L18
 550              	.L19:
 389:../Libraries/STM32F30x_StdPeriph_Driver/src/stm32f30x_adc.c ****   }
 390:../Libraries/STM32F30x_StdPeriph_Driver/src/stm32f30x_adc.c ****   else
 391:../Libraries/STM32F30x_StdPeriph_Driver/src/stm32f30x_adc.c ****   {
 392:../Libraries/STM32F30x_StdPeriph_Driver/src/stm32f30x_adc.c ****     /* Disable the selected ADC peripheral: Set the ADDIS bit */
 393:../Libraries/STM32F30x_StdPeriph_Driver/src/stm32f30x_adc.c ****     ADCx->CR |= ADC_CR_ADDIS;
 551              		.loc 1 393 0
 552 02e0 019B     		ldr	r3, [sp, #4]
 553 02e2 9B68     		ldr	r3, [r3, #8]
 554 02e4 43F00202 		orr	r2, r3, #2
 555 02e8 019B     		ldr	r3, [sp, #4]
 556 02ea 9A60     		str	r2, [r3, #8]
 557              	.L18:
 394:../Libraries/STM32F30x_StdPeriph_Driver/src/stm32f30x_adc.c ****   }
 395:../Libraries/STM32F30x_StdPeriph_Driver/src/stm32f30x_adc.c **** }
 558              		.loc 1 395 0
 559 02ec 02B0     		add	sp, sp, #8
 560 02ee 7047     		bx	lr
 561              		.cfi_endproc
 562              	.LFE118:
 564              		.align	2
 565              		.global	ADC_StartCalibration
 566              		.thumb
 567              		.thumb_func
 569              	ADC_StartCalibration:
 570              	.LFB119:
 396:../Libraries/STM32F30x_StdPeriph_Driver/src/stm32f30x_adc.c **** 
 397:../Libraries/STM32F30x_StdPeriph_Driver/src/stm32f30x_adc.c **** /**
 398:../Libraries/STM32F30x_StdPeriph_Driver/src/stm32f30x_adc.c ****   * @brief  Starts the selected ADC calibration process.
 399:../Libraries/STM32F30x_StdPeriph_Driver/src/stm32f30x_adc.c ****   * @param  ADCx: where x can be 1, 2, 3 or 4 to select the ADC peripheral.
 400:../Libraries/STM32F30x_StdPeriph_Driver/src/stm32f30x_adc.c ****   * @retval None
 401:../Libraries/STM32F30x_StdPeriph_Driver/src/stm32f30x_adc.c ****   */
 402:../Libraries/STM32F30x_StdPeriph_Driver/src/stm32f30x_adc.c **** void ADC_StartCalibration(ADC_TypeDef* ADCx)
 403:../Libraries/STM32F30x_StdPeriph_Driver/src/stm32f30x_adc.c **** {
 571              		.loc 1 403 0
 572              		.cfi_startproc
 573              		@ args = 0, pretend = 0, frame = 8
 574              		@ frame_needed = 0, uses_anonymous_args = 0
 575              		@ link register save eliminated.
 576 02f0 82B0     		sub	sp, sp, #8
 577              	.LCFI9:
 578              		.cfi_def_cfa_offset 8
 579 02f2 0190     		str	r0, [sp, #4]
 404:../Libraries/STM32F30x_StdPeriph_Driver/src/stm32f30x_adc.c ****   /* Check the parameters */
 405:../Libraries/STM32F30x_StdPeriph_Driver/src/stm32f30x_adc.c ****   assert_param(IS_ADC_ALL_PERIPH(ADCx));
 406:../Libraries/STM32F30x_StdPeriph_Driver/src/stm32f30x_adc.c **** 
 407:../Libraries/STM32F30x_StdPeriph_Driver/src/stm32f30x_adc.c ****   /* Set the ADCAL bit */
 408:../Libraries/STM32F30x_StdPeriph_Driver/src/stm32f30x_adc.c ****   ADCx->CR |= ADC_CR_ADCAL;
 580              		.loc 1 408 0
 581 02f4 019B     		ldr	r3, [sp, #4]
 582 02f6 9B68     		ldr	r3, [r3, #8]
 583 02f8 43F00042 		orr	r2, r3, #-2147483648
 584 02fc 019B     		ldr	r3, [sp, #4]
 585 02fe 9A60     		str	r2, [r3, #8]
 409:../Libraries/STM32F30x_StdPeriph_Driver/src/stm32f30x_adc.c **** }
 586              		.loc 1 409 0
 587 0300 02B0     		add	sp, sp, #8
 588 0302 7047     		bx	lr
 589              		.cfi_endproc
 590              	.LFE119:
 592              		.align	2
 593              		.global	ADC_GetCalibrationValue
 594              		.thumb
 595              		.thumb_func
 597              	ADC_GetCalibrationValue:
 598              	.LFB120:
 410:../Libraries/STM32F30x_StdPeriph_Driver/src/stm32f30x_adc.c **** 
 411:../Libraries/STM32F30x_StdPeriph_Driver/src/stm32f30x_adc.c **** /**
 412:../Libraries/STM32F30x_StdPeriph_Driver/src/stm32f30x_adc.c ****   * @brief  Returns the ADCx calibration value.
 413:../Libraries/STM32F30x_StdPeriph_Driver/src/stm32f30x_adc.c ****   * @param  ADCx: where x can be 1, 2, 3 or 4 to select the ADC peripheral.
 414:../Libraries/STM32F30x_StdPeriph_Driver/src/stm32f30x_adc.c ****   * @retval None
 415:../Libraries/STM32F30x_StdPeriph_Driver/src/stm32f30x_adc.c ****   */
 416:../Libraries/STM32F30x_StdPeriph_Driver/src/stm32f30x_adc.c **** uint32_t ADC_GetCalibrationValue(ADC_TypeDef* ADCx)
 417:../Libraries/STM32F30x_StdPeriph_Driver/src/stm32f30x_adc.c **** {
 599              		.loc 1 417 0
 600              		.cfi_startproc
 601              		@ args = 0, pretend = 0, frame = 8
 602              		@ frame_needed = 0, uses_anonymous_args = 0
 603              		@ link register save eliminated.
 604 0304 82B0     		sub	sp, sp, #8
 605              	.LCFI10:
 606              		.cfi_def_cfa_offset 8
 607 0306 0190     		str	r0, [sp, #4]
 418:../Libraries/STM32F30x_StdPeriph_Driver/src/stm32f30x_adc.c ****   /* Check the parameters */
 419:../Libraries/STM32F30x_StdPeriph_Driver/src/stm32f30x_adc.c ****   assert_param(IS_ADC_ALL_PERIPH(ADCx));
 420:../Libraries/STM32F30x_StdPeriph_Driver/src/stm32f30x_adc.c **** 
 421:../Libraries/STM32F30x_StdPeriph_Driver/src/stm32f30x_adc.c ****   /* Return the selected ADC calibration value */
 422:../Libraries/STM32F30x_StdPeriph_Driver/src/stm32f30x_adc.c ****   return (uint32_t)ADCx->CALFACT;
 608              		.loc 1 422 0
 609 0308 019B     		ldr	r3, [sp, #4]
 610 030a D3F8B430 		ldr	r3, [r3, #180]
 423:../Libraries/STM32F30x_StdPeriph_Driver/src/stm32f30x_adc.c **** }
 611              		.loc 1 423 0
 612 030e 1846     		mov	r0, r3
 613 0310 02B0     		add	sp, sp, #8
 614 0312 7047     		bx	lr
 615              		.cfi_endproc
 616              	.LFE120:
 618              		.align	2
 619              		.global	ADC_SetCalibrationValue
 620              		.thumb
 621              		.thumb_func
 623              	ADC_SetCalibrationValue:
 624              	.LFB121:
 424:../Libraries/STM32F30x_StdPeriph_Driver/src/stm32f30x_adc.c **** 
 425:../Libraries/STM32F30x_StdPeriph_Driver/src/stm32f30x_adc.c **** /**
 426:../Libraries/STM32F30x_StdPeriph_Driver/src/stm32f30x_adc.c ****   * @brief  Sets the ADCx calibration register.
 427:../Libraries/STM32F30x_StdPeriph_Driver/src/stm32f30x_adc.c ****   * @param  ADCx: where x can be 1, 2, 3 or 4 to select the ADC peripheral.
 428:../Libraries/STM32F30x_StdPeriph_Driver/src/stm32f30x_adc.c ****   * @retval None
 429:../Libraries/STM32F30x_StdPeriph_Driver/src/stm32f30x_adc.c ****   */
 430:../Libraries/STM32F30x_StdPeriph_Driver/src/stm32f30x_adc.c **** void ADC_SetCalibrationValue(ADC_TypeDef* ADCx, uint32_t ADC_Calibration)
 431:../Libraries/STM32F30x_StdPeriph_Driver/src/stm32f30x_adc.c **** {
 625              		.loc 1 431 0
 626              		.cfi_startproc
 627              		@ args = 0, pretend = 0, frame = 8
 628              		@ frame_needed = 0, uses_anonymous_args = 0
 629              		@ link register save eliminated.
 630 0314 82B0     		sub	sp, sp, #8
 631              	.LCFI11:
 632              		.cfi_def_cfa_offset 8
 633 0316 0190     		str	r0, [sp, #4]
 634 0318 0091     		str	r1, [sp, #0]
 432:../Libraries/STM32F30x_StdPeriph_Driver/src/stm32f30x_adc.c ****   /* Check the parameters */
 433:../Libraries/STM32F30x_StdPeriph_Driver/src/stm32f30x_adc.c ****   assert_param(IS_ADC_ALL_PERIPH(ADCx));
 434:../Libraries/STM32F30x_StdPeriph_Driver/src/stm32f30x_adc.c **** 
 435:../Libraries/STM32F30x_StdPeriph_Driver/src/stm32f30x_adc.c ****   /* Set the ADC calibration register value */
 436:../Libraries/STM32F30x_StdPeriph_Driver/src/stm32f30x_adc.c ****   ADCx->CALFACT = ADC_Calibration;
 635              		.loc 1 436 0
 636 031a 019B     		ldr	r3, [sp, #4]
 637 031c 009A     		ldr	r2, [sp, #0]
 638 031e C3F8B420 		str	r2, [r3, #180]
 437:../Libraries/STM32F30x_StdPeriph_Driver/src/stm32f30x_adc.c **** }
 639              		.loc 1 437 0
 640 0322 02B0     		add	sp, sp, #8
 641 0324 7047     		bx	lr
 642              		.cfi_endproc
 643              	.LFE121:
 645 0326 00BF     		.align	2
 646              		.global	ADC_SelectCalibrationMode
 647              		.thumb
 648              		.thumb_func
 650              	ADC_SelectCalibrationMode:
 651              	.LFB122:
 438:../Libraries/STM32F30x_StdPeriph_Driver/src/stm32f30x_adc.c **** 
 439:../Libraries/STM32F30x_StdPeriph_Driver/src/stm32f30x_adc.c **** /**
 440:../Libraries/STM32F30x_StdPeriph_Driver/src/stm32f30x_adc.c ****   * @brief  Select the ADC calibration mode.
 441:../Libraries/STM32F30x_StdPeriph_Driver/src/stm32f30x_adc.c ****   * @param  ADCx: where x can be 1, 2, 3 or 4 to select the ADC peripheral.
 442:../Libraries/STM32F30x_StdPeriph_Driver/src/stm32f30x_adc.c ****   * @param  ADC_CalibrationMode: the ADC calibration mode.
 443:../Libraries/STM32F30x_StdPeriph_Driver/src/stm32f30x_adc.c ****   *         This parameter can be one of the following values: 
 444:../Libraries/STM32F30x_StdPeriph_Driver/src/stm32f30x_adc.c ****   *          @arg ADC_CalibrationMode_Single: to select the calibration for single channel
 445:../Libraries/STM32F30x_StdPeriph_Driver/src/stm32f30x_adc.c ****   *          @arg ADC_CalibrationMode_Differential: to select the calibration for differential chan
 446:../Libraries/STM32F30x_StdPeriph_Driver/src/stm32f30x_adc.c ****   * @retval None
 447:../Libraries/STM32F30x_StdPeriph_Driver/src/stm32f30x_adc.c ****   */
 448:../Libraries/STM32F30x_StdPeriph_Driver/src/stm32f30x_adc.c **** void ADC_SelectCalibrationMode(ADC_TypeDef* ADCx, uint32_t ADC_CalibrationMode)
 449:../Libraries/STM32F30x_StdPeriph_Driver/src/stm32f30x_adc.c **** {
 652              		.loc 1 449 0
 653              		.cfi_startproc
 654              		@ args = 0, pretend = 0, frame = 8
 655              		@ frame_needed = 0, uses_anonymous_args = 0
 656              		@ link register save eliminated.
 657 0328 82B0     		sub	sp, sp, #8
 658              	.LCFI12:
 659              		.cfi_def_cfa_offset 8
 660 032a 0190     		str	r0, [sp, #4]
 661 032c 0091     		str	r1, [sp, #0]
 450:../Libraries/STM32F30x_StdPeriph_Driver/src/stm32f30x_adc.c ****   /* Check the parameters */
 451:../Libraries/STM32F30x_StdPeriph_Driver/src/stm32f30x_adc.c ****   assert_param(IS_ADC_ALL_PERIPH(ADCx));
 452:../Libraries/STM32F30x_StdPeriph_Driver/src/stm32f30x_adc.c ****   assert_param(IS_ADC_CALIBRATION_MODE(ADC_CalibrationMode));
 453:../Libraries/STM32F30x_StdPeriph_Driver/src/stm32f30x_adc.c ****   /* Set or Reset the ADCALDIF bit */
 454:../Libraries/STM32F30x_StdPeriph_Driver/src/stm32f30x_adc.c ****   ADCx->CR &= (~ADC_CR_ADCALDIF);
 662              		.loc 1 454 0
 663 032e 019B     		ldr	r3, [sp, #4]
 664 0330 9B68     		ldr	r3, [r3, #8]
 665 0332 23F08042 		bic	r2, r3, #1073741824
 666 0336 019B     		ldr	r3, [sp, #4]
 667 0338 9A60     		str	r2, [r3, #8]
 455:../Libraries/STM32F30x_StdPeriph_Driver/src/stm32f30x_adc.c ****   ADCx->CR |= ADC_CalibrationMode;
 668              		.loc 1 455 0
 669 033a 019B     		ldr	r3, [sp, #4]
 670 033c 9A68     		ldr	r2, [r3, #8]
 671 033e 009B     		ldr	r3, [sp, #0]
 672 0340 1A43     		orrs	r2, r2, r3
 673 0342 019B     		ldr	r3, [sp, #4]
 674 0344 9A60     		str	r2, [r3, #8]
 456:../Libraries/STM32F30x_StdPeriph_Driver/src/stm32f30x_adc.c **** 
 457:../Libraries/STM32F30x_StdPeriph_Driver/src/stm32f30x_adc.c **** }
 675              		.loc 1 457 0
 676 0346 02B0     		add	sp, sp, #8
 677 0348 7047     		bx	lr
 678              		.cfi_endproc
 679              	.LFE122:
 681 034a 00BF     		.align	2
 682              		.global	ADC_GetCalibrationStatus
 683              		.thumb
 684              		.thumb_func
 686              	ADC_GetCalibrationStatus:
 687              	.LFB123:
 458:../Libraries/STM32F30x_StdPeriph_Driver/src/stm32f30x_adc.c **** 
 459:../Libraries/STM32F30x_StdPeriph_Driver/src/stm32f30x_adc.c **** /**
 460:../Libraries/STM32F30x_StdPeriph_Driver/src/stm32f30x_adc.c ****   * @brief  Gets the selected ADC calibration status.
 461:../Libraries/STM32F30x_StdPeriph_Driver/src/stm32f30x_adc.c ****   * @param  ADCx: where x can be 1, 2, 3 or 4 to select the ADC peripheral.
 462:../Libraries/STM32F30x_StdPeriph_Driver/src/stm32f30x_adc.c ****   * @retval The new state of ADC calibration (SET or RESET).
 463:../Libraries/STM32F30x_StdPeriph_Driver/src/stm32f30x_adc.c ****   */
 464:../Libraries/STM32F30x_StdPeriph_Driver/src/stm32f30x_adc.c **** FlagStatus ADC_GetCalibrationStatus(ADC_TypeDef* ADCx)
 465:../Libraries/STM32F30x_StdPeriph_Driver/src/stm32f30x_adc.c **** {
 688              		.loc 1 465 0
 689              		.cfi_startproc
 690              		@ args = 0, pretend = 0, frame = 16
 691              		@ frame_needed = 0, uses_anonymous_args = 0
 692              		@ link register save eliminated.
 693 034c 84B0     		sub	sp, sp, #16
 694              	.LCFI13:
 695              		.cfi_def_cfa_offset 16
 696 034e 0190     		str	r0, [sp, #4]
 466:../Libraries/STM32F30x_StdPeriph_Driver/src/stm32f30x_adc.c ****   FlagStatus bitstatus = RESET;
 697              		.loc 1 466 0
 698 0350 4FF00003 		mov	r3, #0
 699 0354 8DF80F30 		strb	r3, [sp, #15]
 467:../Libraries/STM32F30x_StdPeriph_Driver/src/stm32f30x_adc.c ****   /* Check the parameters */
 468:../Libraries/STM32F30x_StdPeriph_Driver/src/stm32f30x_adc.c ****   assert_param(IS_ADC_ALL_PERIPH(ADCx));
 469:../Libraries/STM32F30x_StdPeriph_Driver/src/stm32f30x_adc.c ****   /* Check the status of CAL bit */
 470:../Libraries/STM32F30x_StdPeriph_Driver/src/stm32f30x_adc.c ****   if ((ADCx->CR & ADC_CR_ADCAL) != (uint32_t)RESET)
 700              		.loc 1 470 0
 701 0358 019B     		ldr	r3, [sp, #4]
 702 035a 9B68     		ldr	r3, [r3, #8]
 703 035c 002B     		cmp	r3, #0
 704 035e 04DA     		bge	.L26
 471:../Libraries/STM32F30x_StdPeriph_Driver/src/stm32f30x_adc.c ****   {
 472:../Libraries/STM32F30x_StdPeriph_Driver/src/stm32f30x_adc.c ****     /* CAL bit is set: calibration on going */
 473:../Libraries/STM32F30x_StdPeriph_Driver/src/stm32f30x_adc.c ****     bitstatus = SET;
 705              		.loc 1 473 0
 706 0360 4FF00103 		mov	r3, #1
 707 0364 8DF80F30 		strb	r3, [sp, #15]
 708 0368 03E0     		b	.L27
 709              	.L26:
 474:../Libraries/STM32F30x_StdPeriph_Driver/src/stm32f30x_adc.c ****   }
 475:../Libraries/STM32F30x_StdPeriph_Driver/src/stm32f30x_adc.c ****   else
 476:../Libraries/STM32F30x_StdPeriph_Driver/src/stm32f30x_adc.c ****   {
 477:../Libraries/STM32F30x_StdPeriph_Driver/src/stm32f30x_adc.c ****     /* CAL bit is reset: end of calibration */
 478:../Libraries/STM32F30x_StdPeriph_Driver/src/stm32f30x_adc.c ****     bitstatus = RESET;
 710              		.loc 1 478 0
 711 036a 4FF00003 		mov	r3, #0
 712 036e 8DF80F30 		strb	r3, [sp, #15]
 713              	.L27:
 479:../Libraries/STM32F30x_StdPeriph_Driver/src/stm32f30x_adc.c ****   }
 480:../Libraries/STM32F30x_StdPeriph_Driver/src/stm32f30x_adc.c ****   /* Return the CAL bit status */
 481:../Libraries/STM32F30x_StdPeriph_Driver/src/stm32f30x_adc.c ****   return  bitstatus;
 714              		.loc 1 481 0
 715 0372 9DF80F30 		ldrb	r3, [sp, #15]	@ zero_extendqisi2
 482:../Libraries/STM32F30x_StdPeriph_Driver/src/stm32f30x_adc.c **** }
 716              		.loc 1 482 0
 717 0376 1846     		mov	r0, r3
 718 0378 04B0     		add	sp, sp, #16
 719 037a 7047     		bx	lr
 720              		.cfi_endproc
 721              	.LFE123:
 723              		.align	2
 724              		.global	ADC_DisableCmd
 725              		.thumb
 726              		.thumb_func
 728              	ADC_DisableCmd:
 729              	.LFB124:
 483:../Libraries/STM32F30x_StdPeriph_Driver/src/stm32f30x_adc.c **** 
 484:../Libraries/STM32F30x_StdPeriph_Driver/src/stm32f30x_adc.c **** /**
 485:../Libraries/STM32F30x_StdPeriph_Driver/src/stm32f30x_adc.c ****   * @brief  ADC Disable Command.
 486:../Libraries/STM32F30x_StdPeriph_Driver/src/stm32f30x_adc.c ****   * @param  ADCx: where x can be 1, 2, 3 or 4 to select the ADC peripheral.
 487:../Libraries/STM32F30x_StdPeriph_Driver/src/stm32f30x_adc.c ****   * @retval None
 488:../Libraries/STM32F30x_StdPeriph_Driver/src/stm32f30x_adc.c ****   */
 489:../Libraries/STM32F30x_StdPeriph_Driver/src/stm32f30x_adc.c **** void ADC_DisableCmd(ADC_TypeDef* ADCx)
 490:../Libraries/STM32F30x_StdPeriph_Driver/src/stm32f30x_adc.c **** {
 730              		.loc 1 490 0
 731              		.cfi_startproc
 732              		@ args = 0, pretend = 0, frame = 8
 733              		@ frame_needed = 0, uses_anonymous_args = 0
 734              		@ link register save eliminated.
 735 037c 82B0     		sub	sp, sp, #8
 736              	.LCFI14:
 737              		.cfi_def_cfa_offset 8
 738 037e 0190     		str	r0, [sp, #4]
 491:../Libraries/STM32F30x_StdPeriph_Driver/src/stm32f30x_adc.c ****   /* Check the parameters */
 492:../Libraries/STM32F30x_StdPeriph_Driver/src/stm32f30x_adc.c ****   assert_param(IS_ADC_ALL_PERIPH(ADCx));
 493:../Libraries/STM32F30x_StdPeriph_Driver/src/stm32f30x_adc.c **** 
 494:../Libraries/STM32F30x_StdPeriph_Driver/src/stm32f30x_adc.c ****   /* Set the ADDIS bit */
 495:../Libraries/STM32F30x_StdPeriph_Driver/src/stm32f30x_adc.c ****   ADCx->CR |= ADC_CR_ADDIS;
 739              		.loc 1 495 0
 740 0380 019B     		ldr	r3, [sp, #4]
 741 0382 9B68     		ldr	r3, [r3, #8]
 742 0384 43F00202 		orr	r2, r3, #2
 743 0388 019B     		ldr	r3, [sp, #4]
 744 038a 9A60     		str	r2, [r3, #8]
 496:../Libraries/STM32F30x_StdPeriph_Driver/src/stm32f30x_adc.c **** }
 745              		.loc 1 496 0
 746 038c 02B0     		add	sp, sp, #8
 747 038e 7047     		bx	lr
 748              		.cfi_endproc
 749              	.LFE124:
 751              		.align	2
 752              		.global	ADC_GetDisableCmdStatus
 753              		.thumb
 754              		.thumb_func
 756              	ADC_GetDisableCmdStatus:
 757              	.LFB125:
 497:../Libraries/STM32F30x_StdPeriph_Driver/src/stm32f30x_adc.c **** 
 498:../Libraries/STM32F30x_StdPeriph_Driver/src/stm32f30x_adc.c **** 
 499:../Libraries/STM32F30x_StdPeriph_Driver/src/stm32f30x_adc.c **** /**
 500:../Libraries/STM32F30x_StdPeriph_Driver/src/stm32f30x_adc.c ****   * @brief  Gets the selected ADC disable command Status.
 501:../Libraries/STM32F30x_StdPeriph_Driver/src/stm32f30x_adc.c ****   * @param  ADCx: where x can be 1, 2, 3 or 4 to select the ADC peripheral.
 502:../Libraries/STM32F30x_StdPeriph_Driver/src/stm32f30x_adc.c ****   * @retval The new state of ADC ADC disable command (SET or RESET).
 503:../Libraries/STM32F30x_StdPeriph_Driver/src/stm32f30x_adc.c ****   */
 504:../Libraries/STM32F30x_StdPeriph_Driver/src/stm32f30x_adc.c **** FlagStatus ADC_GetDisableCmdStatus(ADC_TypeDef* ADCx)
 505:../Libraries/STM32F30x_StdPeriph_Driver/src/stm32f30x_adc.c **** {
 758              		.loc 1 505 0
 759              		.cfi_startproc
 760              		@ args = 0, pretend = 0, frame = 16
 761              		@ frame_needed = 0, uses_anonymous_args = 0
 762              		@ link register save eliminated.
 763 0390 84B0     		sub	sp, sp, #16
 764              	.LCFI15:
 765              		.cfi_def_cfa_offset 16
 766 0392 0190     		str	r0, [sp, #4]
 506:../Libraries/STM32F30x_StdPeriph_Driver/src/stm32f30x_adc.c ****   FlagStatus bitstatus = RESET;
 767              		.loc 1 506 0
 768 0394 4FF00003 		mov	r3, #0
 769 0398 8DF80F30 		strb	r3, [sp, #15]
 507:../Libraries/STM32F30x_StdPeriph_Driver/src/stm32f30x_adc.c ****   /* Check the parameters */
 508:../Libraries/STM32F30x_StdPeriph_Driver/src/stm32f30x_adc.c ****   assert_param(IS_ADC_ALL_PERIPH(ADCx));
 509:../Libraries/STM32F30x_StdPeriph_Driver/src/stm32f30x_adc.c **** 
 510:../Libraries/STM32F30x_StdPeriph_Driver/src/stm32f30x_adc.c ****   /* Check the status of ADDIS bit */
 511:../Libraries/STM32F30x_StdPeriph_Driver/src/stm32f30x_adc.c ****   if ((ADCx->CR & ADC_CR_ADDIS) != (uint32_t)RESET)
 770              		.loc 1 511 0
 771 039c 019B     		ldr	r3, [sp, #4]
 772 039e 9B68     		ldr	r3, [r3, #8]
 773 03a0 03F00203 		and	r3, r3, #2
 774 03a4 002B     		cmp	r3, #0
 775 03a6 04D0     		beq	.L30
 512:../Libraries/STM32F30x_StdPeriph_Driver/src/stm32f30x_adc.c ****   {
 513:../Libraries/STM32F30x_StdPeriph_Driver/src/stm32f30x_adc.c ****     /* ADDIS bit is set */
 514:../Libraries/STM32F30x_StdPeriph_Driver/src/stm32f30x_adc.c ****     bitstatus = SET;
 776              		.loc 1 514 0
 777 03a8 4FF00103 		mov	r3, #1
 778 03ac 8DF80F30 		strb	r3, [sp, #15]
 779 03b0 03E0     		b	.L31
 780              	.L30:
 515:../Libraries/STM32F30x_StdPeriph_Driver/src/stm32f30x_adc.c ****   }
 516:../Libraries/STM32F30x_StdPeriph_Driver/src/stm32f30x_adc.c ****   else
 517:../Libraries/STM32F30x_StdPeriph_Driver/src/stm32f30x_adc.c ****   {
 518:../Libraries/STM32F30x_StdPeriph_Driver/src/stm32f30x_adc.c ****     /* ADDIS bit is reset */
 519:../Libraries/STM32F30x_StdPeriph_Driver/src/stm32f30x_adc.c ****     bitstatus = RESET;
 781              		.loc 1 519 0
 782 03b2 4FF00003 		mov	r3, #0
 783 03b6 8DF80F30 		strb	r3, [sp, #15]
 784              	.L31:
 520:../Libraries/STM32F30x_StdPeriph_Driver/src/stm32f30x_adc.c ****   }
 521:../Libraries/STM32F30x_StdPeriph_Driver/src/stm32f30x_adc.c ****   /* Return the ADDIS bit status */
 522:../Libraries/STM32F30x_StdPeriph_Driver/src/stm32f30x_adc.c ****   return  bitstatus;
 785              		.loc 1 522 0
 786 03ba 9DF80F30 		ldrb	r3, [sp, #15]	@ zero_extendqisi2
 523:../Libraries/STM32F30x_StdPeriph_Driver/src/stm32f30x_adc.c **** }
 787              		.loc 1 523 0
 788 03be 1846     		mov	r0, r3
 789 03c0 04B0     		add	sp, sp, #16
 790 03c2 7047     		bx	lr
 791              		.cfi_endproc
 792              	.LFE125:
 794              		.align	2
 795              		.global	ADC_VoltageRegulatorCmd
 796              		.thumb
 797              		.thumb_func
 799              	ADC_VoltageRegulatorCmd:
 800              	.LFB126:
 524:../Libraries/STM32F30x_StdPeriph_Driver/src/stm32f30x_adc.c **** 
 525:../Libraries/STM32F30x_StdPeriph_Driver/src/stm32f30x_adc.c **** /**
 526:../Libraries/STM32F30x_StdPeriph_Driver/src/stm32f30x_adc.c ****   * @brief  Enables or disables the specified ADC Voltage Regulator.
 527:../Libraries/STM32F30x_StdPeriph_Driver/src/stm32f30x_adc.c ****   * @param  ADCx: where x can be 1, 2, 3 or 4 to select the ADC peripheral.
 528:../Libraries/STM32F30x_StdPeriph_Driver/src/stm32f30x_adc.c ****   * @param  NewState: new state of the ADCx Voltage Regulator.
 529:../Libraries/STM32F30x_StdPeriph_Driver/src/stm32f30x_adc.c ****   *         This parameter can be: ENABLE or DISABLE.
 530:../Libraries/STM32F30x_StdPeriph_Driver/src/stm32f30x_adc.c ****   * @retval None
 531:../Libraries/STM32F30x_StdPeriph_Driver/src/stm32f30x_adc.c ****   */
 532:../Libraries/STM32F30x_StdPeriph_Driver/src/stm32f30x_adc.c **** void ADC_VoltageRegulatorCmd(ADC_TypeDef* ADCx, FunctionalState NewState)
 533:../Libraries/STM32F30x_StdPeriph_Driver/src/stm32f30x_adc.c **** {
 801              		.loc 1 533 0
 802              		.cfi_startproc
 803              		@ args = 0, pretend = 0, frame = 8
 804              		@ frame_needed = 0, uses_anonymous_args = 0
 805              		@ link register save eliminated.
 806 03c4 82B0     		sub	sp, sp, #8
 807              	.LCFI16:
 808              		.cfi_def_cfa_offset 8
 809 03c6 0190     		str	r0, [sp, #4]
 810 03c8 0B46     		mov	r3, r1
 811 03ca 8DF80330 		strb	r3, [sp, #3]
 534:../Libraries/STM32F30x_StdPeriph_Driver/src/stm32f30x_adc.c ****   /* Check the parameters */
 535:../Libraries/STM32F30x_StdPeriph_Driver/src/stm32f30x_adc.c ****   assert_param(IS_ADC_ALL_PERIPH(ADCx));
 536:../Libraries/STM32F30x_StdPeriph_Driver/src/stm32f30x_adc.c ****   assert_param(IS_FUNCTIONAL_STATE(NewState));
 537:../Libraries/STM32F30x_StdPeriph_Driver/src/stm32f30x_adc.c **** 
 538:../Libraries/STM32F30x_StdPeriph_Driver/src/stm32f30x_adc.c ****   /* set the intermediate state before moving the ADC voltage regulator 
 539:../Libraries/STM32F30x_StdPeriph_Driver/src/stm32f30x_adc.c ****   from enable state to disable state or from disable state to enable state */
 540:../Libraries/STM32F30x_StdPeriph_Driver/src/stm32f30x_adc.c ****   ADCx->CR &= ~(ADC_CR_ADVREGEN);
 812              		.loc 1 540 0
 813 03ce 019B     		ldr	r3, [sp, #4]
 814 03d0 9B68     		ldr	r3, [r3, #8]
 815 03d2 23F04052 		bic	r2, r3, #805306368
 816 03d6 019B     		ldr	r3, [sp, #4]
 817 03d8 9A60     		str	r2, [r3, #8]
 541:../Libraries/STM32F30x_StdPeriph_Driver/src/stm32f30x_adc.c ****   
 542:../Libraries/STM32F30x_StdPeriph_Driver/src/stm32f30x_adc.c ****   if (NewState != DISABLE)
 818              		.loc 1 542 0
 819 03da 9DF80330 		ldrb	r3, [sp, #3]	@ zero_extendqisi2
 820 03de 002B     		cmp	r3, #0
 821 03e0 06D0     		beq	.L33
 543:../Libraries/STM32F30x_StdPeriph_Driver/src/stm32f30x_adc.c ****   {
 544:../Libraries/STM32F30x_StdPeriph_Driver/src/stm32f30x_adc.c ****     /* Set the ADVREGEN bit 0 */
 545:../Libraries/STM32F30x_StdPeriph_Driver/src/stm32f30x_adc.c ****     ADCx->CR |= ADC_CR_ADVREGEN_0;
 822              		.loc 1 545 0
 823 03e2 019B     		ldr	r3, [sp, #4]
 824 03e4 9B68     		ldr	r3, [r3, #8]
 825 03e6 43F08052 		orr	r2, r3, #268435456
 826 03ea 019B     		ldr	r3, [sp, #4]
 827 03ec 9A60     		str	r2, [r3, #8]
 828 03ee 05E0     		b	.L32
 829              	.L33:
 546:../Libraries/STM32F30x_StdPeriph_Driver/src/stm32f30x_adc.c ****   }
 547:../Libraries/STM32F30x_StdPeriph_Driver/src/stm32f30x_adc.c ****   else
 548:../Libraries/STM32F30x_StdPeriph_Driver/src/stm32f30x_adc.c ****   {
 549:../Libraries/STM32F30x_StdPeriph_Driver/src/stm32f30x_adc.c ****     /* Set the ADVREGEN bit 1 */
 550:../Libraries/STM32F30x_StdPeriph_Driver/src/stm32f30x_adc.c ****     ADCx->CR |=ADC_CR_ADVREGEN_1;
 830              		.loc 1 550 0
 831 03f0 019B     		ldr	r3, [sp, #4]
 832 03f2 9B68     		ldr	r3, [r3, #8]
 833 03f4 43F00052 		orr	r2, r3, #536870912
 834 03f8 019B     		ldr	r3, [sp, #4]
 835 03fa 9A60     		str	r2, [r3, #8]
 836              	.L32:
 551:../Libraries/STM32F30x_StdPeriph_Driver/src/stm32f30x_adc.c ****   }
 552:../Libraries/STM32F30x_StdPeriph_Driver/src/stm32f30x_adc.c **** }
 837              		.loc 1 552 0
 838 03fc 02B0     		add	sp, sp, #8
 839 03fe 7047     		bx	lr
 840              		.cfi_endproc
 841              	.LFE126:
 843              		.align	2
 844              		.global	ADC_SelectDifferentialMode
 845              		.thumb
 846              		.thumb_func
 848              	ADC_SelectDifferentialMode:
 849              	.LFB127:
 553:../Libraries/STM32F30x_StdPeriph_Driver/src/stm32f30x_adc.c **** 
 554:../Libraries/STM32F30x_StdPeriph_Driver/src/stm32f30x_adc.c **** /**
 555:../Libraries/STM32F30x_StdPeriph_Driver/src/stm32f30x_adc.c ****   * @brief  Selectes the differential mode for a specific channel
 556:../Libraries/STM32F30x_StdPeriph_Driver/src/stm32f30x_adc.c ****   * @param  ADCx: where x can be 1, 2, 3 or 4 to select the ADC peripheral.
 557:../Libraries/STM32F30x_StdPeriph_Driver/src/stm32f30x_adc.c ****   * @param  ADC_Channel: the ADC channel to configure for the analog watchdog. 
 558:../Libraries/STM32F30x_StdPeriph_Driver/src/stm32f30x_adc.c ****   *   This parameter can be one of the following values:
 559:../Libraries/STM32F30x_StdPeriph_Driver/src/stm32f30x_adc.c ****   *     @arg ADC_Channel_1: ADC Channel1 selected
 560:../Libraries/STM32F30x_StdPeriph_Driver/src/stm32f30x_adc.c ****   *     @arg ADC_Channel_2: ADC Channel2 selected
 561:../Libraries/STM32F30x_StdPeriph_Driver/src/stm32f30x_adc.c ****   *     @arg ADC_Channel_3: ADC Channel3 selected
 562:../Libraries/STM32F30x_StdPeriph_Driver/src/stm32f30x_adc.c ****   *     @arg ADC_Channel_4: ADC Channel4 selected
 563:../Libraries/STM32F30x_StdPeriph_Driver/src/stm32f30x_adc.c ****   *     @arg ADC_Channel_5: ADC Channel5 selected
 564:../Libraries/STM32F30x_StdPeriph_Driver/src/stm32f30x_adc.c ****   *     @arg ADC_Channel_6: ADC Channel6 selected
 565:../Libraries/STM32F30x_StdPeriph_Driver/src/stm32f30x_adc.c ****   *     @arg ADC_Channel_7: ADC Channel7 selected
 566:../Libraries/STM32F30x_StdPeriph_Driver/src/stm32f30x_adc.c ****   *     @arg ADC_Channel_8: ADC Channel8 selected
 567:../Libraries/STM32F30x_StdPeriph_Driver/src/stm32f30x_adc.c ****   *     @arg ADC_Channel_9: ADC Channel9 selected
 568:../Libraries/STM32F30x_StdPeriph_Driver/src/stm32f30x_adc.c ****   *     @arg ADC_Channel_10: ADC Channel10 selected
 569:../Libraries/STM32F30x_StdPeriph_Driver/src/stm32f30x_adc.c ****   *     @arg ADC_Channel_11: ADC Channel11 selected
 570:../Libraries/STM32F30x_StdPeriph_Driver/src/stm32f30x_adc.c ****   *     @arg ADC_Channel_12: ADC Channel12 selected
 571:../Libraries/STM32F30x_StdPeriph_Driver/src/stm32f30x_adc.c ****   *     @arg ADC_Channel_13: ADC Channel13 selected
 572:../Libraries/STM32F30x_StdPeriph_Driver/src/stm32f30x_adc.c ****   *     @arg ADC_Channel_14: ADC Channel14 selected
 573:../Libraries/STM32F30x_StdPeriph_Driver/src/stm32f30x_adc.c ****   * @note : Channel 15, 16 and 17 are fixed to single-ended inputs mode.
 574:../Libraries/STM32F30x_StdPeriph_Driver/src/stm32f30x_adc.c ****   * @retval None
 575:../Libraries/STM32F30x_StdPeriph_Driver/src/stm32f30x_adc.c ****   */
 576:../Libraries/STM32F30x_StdPeriph_Driver/src/stm32f30x_adc.c **** void ADC_SelectDifferentialMode(ADC_TypeDef* ADCx, uint8_t ADC_Channel, FunctionalState NewState)
 577:../Libraries/STM32F30x_StdPeriph_Driver/src/stm32f30x_adc.c **** {
 850              		.loc 1 577 0
 851              		.cfi_startproc
 852              		@ args = 0, pretend = 0, frame = 8
 853              		@ frame_needed = 0, uses_anonymous_args = 0
 854              		@ link register save eliminated.
 855 0400 82B0     		sub	sp, sp, #8
 856              	.LCFI17:
 857              		.cfi_def_cfa_offset 8
 858 0402 0190     		str	r0, [sp, #4]
 859 0404 1346     		mov	r3, r2
 860 0406 0A46     		mov	r2, r1
 861 0408 8DF80320 		strb	r2, [sp, #3]
 862 040c 8DF80230 		strb	r3, [sp, #2]
 578:../Libraries/STM32F30x_StdPeriph_Driver/src/stm32f30x_adc.c ****   /* Check the parameters */
 579:../Libraries/STM32F30x_StdPeriph_Driver/src/stm32f30x_adc.c ****   assert_param(IS_ADC_ALL_PERIPH(ADCx)); 
 580:../Libraries/STM32F30x_StdPeriph_Driver/src/stm32f30x_adc.c ****   assert_param(IS_ADC_DIFFCHANNEL(ADC_Channel)); 
 581:../Libraries/STM32F30x_StdPeriph_Driver/src/stm32f30x_adc.c ****   assert_param(IS_FUNCTIONAL_STATE(NewState));
 582:../Libraries/STM32F30x_StdPeriph_Driver/src/stm32f30x_adc.c **** 
 583:../Libraries/STM32F30x_StdPeriph_Driver/src/stm32f30x_adc.c ****   if (NewState != DISABLE)
 863              		.loc 1 583 0
 864 0410 9DF80230 		ldrb	r3, [sp, #2]	@ zero_extendqisi2
 865 0414 002B     		cmp	r3, #0
 866 0416 0DD0     		beq	.L36
 584:../Libraries/STM32F30x_StdPeriph_Driver/src/stm32f30x_adc.c ****   {
 585:../Libraries/STM32F30x_StdPeriph_Driver/src/stm32f30x_adc.c ****     /* Set the DIFSEL bit */
 586:../Libraries/STM32F30x_StdPeriph_Driver/src/stm32f30x_adc.c ****    ADCx->DIFSEL |= (uint32_t)(1 << ADC_Channel );
 867              		.loc 1 586 0
 868 0418 019B     		ldr	r3, [sp, #4]
 869 041a D3F8B020 		ldr	r2, [r3, #176]
 870 041e 9DF80330 		ldrb	r3, [sp, #3]	@ zero_extendqisi2
 871 0422 4FF00101 		mov	r1, #1
 872 0426 01FA03F3 		lsl	r3, r1, r3
 873 042a 1A43     		orrs	r2, r2, r3
 874 042c 019B     		ldr	r3, [sp, #4]
 875 042e C3F8B020 		str	r2, [r3, #176]
 876 0432 0EE0     		b	.L35
 877              	.L36:
 587:../Libraries/STM32F30x_StdPeriph_Driver/src/stm32f30x_adc.c ****   }
 588:../Libraries/STM32F30x_StdPeriph_Driver/src/stm32f30x_adc.c ****   else
 589:../Libraries/STM32F30x_StdPeriph_Driver/src/stm32f30x_adc.c ****   {
 590:../Libraries/STM32F30x_StdPeriph_Driver/src/stm32f30x_adc.c ****     /* Reset the DIFSEL bit */
 591:../Libraries/STM32F30x_StdPeriph_Driver/src/stm32f30x_adc.c ****    ADCx->DIFSEL &= ~(uint32_t)(1 << ADC_Channel);
 878              		.loc 1 591 0
 879 0434 019B     		ldr	r3, [sp, #4]
 880 0436 D3F8B020 		ldr	r2, [r3, #176]
 881 043a 9DF80330 		ldrb	r3, [sp, #3]	@ zero_extendqisi2
 882 043e 4FF00101 		mov	r1, #1
 883 0442 01FA03F3 		lsl	r3, r1, r3
 884 0446 6FEA0303 		mvn	r3, r3
 885 044a 1A40     		ands	r2, r2, r3
 886 044c 019B     		ldr	r3, [sp, #4]
 887 044e C3F8B020 		str	r2, [r3, #176]
 888              	.L35:
 592:../Libraries/STM32F30x_StdPeriph_Driver/src/stm32f30x_adc.c ****   }
 593:../Libraries/STM32F30x_StdPeriph_Driver/src/stm32f30x_adc.c **** }
 889              		.loc 1 593 0
 890 0452 02B0     		add	sp, sp, #8
 891 0454 7047     		bx	lr
 892              		.cfi_endproc
 893              	.LFE127:
 895 0456 00BF     		.align	2
 896              		.global	ADC_SelectQueueOfContextMode
 897              		.thumb
 898              		.thumb_func
 900              	ADC_SelectQueueOfContextMode:
 901              	.LFB128:
 594:../Libraries/STM32F30x_StdPeriph_Driver/src/stm32f30x_adc.c **** 
 595:../Libraries/STM32F30x_StdPeriph_Driver/src/stm32f30x_adc.c **** /**
 596:../Libraries/STM32F30x_StdPeriph_Driver/src/stm32f30x_adc.c ****   * @brief  Selects the Queue Of Context Mode for injected channels.
 597:../Libraries/STM32F30x_StdPeriph_Driver/src/stm32f30x_adc.c ****   * @param  ADCx: where x can be 1, 2, 3 or 4 to select the ADC peripheral.
 598:../Libraries/STM32F30x_StdPeriph_Driver/src/stm32f30x_adc.c ****   * @param  NewState: new state of the Queue Of Context Mode.
 599:../Libraries/STM32F30x_StdPeriph_Driver/src/stm32f30x_adc.c ****   *   This parameter can be: ENABLE or DISABLE.
 600:../Libraries/STM32F30x_StdPeriph_Driver/src/stm32f30x_adc.c ****   * @retval None
 601:../Libraries/STM32F30x_StdPeriph_Driver/src/stm32f30x_adc.c ****   */
 602:../Libraries/STM32F30x_StdPeriph_Driver/src/stm32f30x_adc.c **** void ADC_SelectQueueOfContextMode(ADC_TypeDef* ADCx, FunctionalState NewState)
 603:../Libraries/STM32F30x_StdPeriph_Driver/src/stm32f30x_adc.c **** {
 902              		.loc 1 603 0
 903              		.cfi_startproc
 904              		@ args = 0, pretend = 0, frame = 8
 905              		@ frame_needed = 0, uses_anonymous_args = 0
 906              		@ link register save eliminated.
 907 0458 82B0     		sub	sp, sp, #8
 908              	.LCFI18:
 909              		.cfi_def_cfa_offset 8
 910 045a 0190     		str	r0, [sp, #4]
 911 045c 0B46     		mov	r3, r1
 912 045e 8DF80330 		strb	r3, [sp, #3]
 604:../Libraries/STM32F30x_StdPeriph_Driver/src/stm32f30x_adc.c ****   /* Check the parameters */
 605:../Libraries/STM32F30x_StdPeriph_Driver/src/stm32f30x_adc.c ****   assert_param(IS_ADC_ALL_PERIPH(ADCx)); 
 606:../Libraries/STM32F30x_StdPeriph_Driver/src/stm32f30x_adc.c ****   assert_param(IS_FUNCTIONAL_STATE(NewState));
 607:../Libraries/STM32F30x_StdPeriph_Driver/src/stm32f30x_adc.c **** 
 608:../Libraries/STM32F30x_StdPeriph_Driver/src/stm32f30x_adc.c ****   if (NewState != DISABLE)
 913              		.loc 1 608 0
 914 0462 9DF80330 		ldrb	r3, [sp, #3]	@ zero_extendqisi2
 915 0466 002B     		cmp	r3, #0
 916 0468 06D0     		beq	.L39
 609:../Libraries/STM32F30x_StdPeriph_Driver/src/stm32f30x_adc.c ****   {
 610:../Libraries/STM32F30x_StdPeriph_Driver/src/stm32f30x_adc.c ****     /* Set the JQM bit */
 611:../Libraries/STM32F30x_StdPeriph_Driver/src/stm32f30x_adc.c ****     ADCx->CFGR |= (uint32_t)(ADC_CFGR_JQM );
 917              		.loc 1 611 0
 918 046a 019B     		ldr	r3, [sp, #4]
 919 046c DB68     		ldr	r3, [r3, #12]
 920 046e 43F40012 		orr	r2, r3, #2097152
 921 0472 019B     		ldr	r3, [sp, #4]
 922 0474 DA60     		str	r2, [r3, #12]
 923 0476 05E0     		b	.L38
 924              	.L39:
 612:../Libraries/STM32F30x_StdPeriph_Driver/src/stm32f30x_adc.c ****   }
 613:../Libraries/STM32F30x_StdPeriph_Driver/src/stm32f30x_adc.c ****   else
 614:../Libraries/STM32F30x_StdPeriph_Driver/src/stm32f30x_adc.c ****   {
 615:../Libraries/STM32F30x_StdPeriph_Driver/src/stm32f30x_adc.c ****     /* Reset the JQM bit */
 616:../Libraries/STM32F30x_StdPeriph_Driver/src/stm32f30x_adc.c ****     ADCx->CFGR &= ~(uint32_t)(ADC_CFGR_JQM);
 925              		.loc 1 616 0
 926 0478 019B     		ldr	r3, [sp, #4]
 927 047a DB68     		ldr	r3, [r3, #12]
 928 047c 23F40012 		bic	r2, r3, #2097152
 929 0480 019B     		ldr	r3, [sp, #4]
 930 0482 DA60     		str	r2, [r3, #12]
 931              	.L38:
 617:../Libraries/STM32F30x_StdPeriph_Driver/src/stm32f30x_adc.c ****   }
 618:../Libraries/STM32F30x_StdPeriph_Driver/src/stm32f30x_adc.c **** }
 932              		.loc 1 618 0
 933 0484 02B0     		add	sp, sp, #8
 934 0486 7047     		bx	lr
 935              		.cfi_endproc
 936              	.LFE128:
 938              		.align	2
 939              		.global	ADC_AutoDelayCmd
 940              		.thumb
 941              		.thumb_func
 943              	ADC_AutoDelayCmd:
 944              	.LFB129:
 619:../Libraries/STM32F30x_StdPeriph_Driver/src/stm32f30x_adc.c **** 
 620:../Libraries/STM32F30x_StdPeriph_Driver/src/stm32f30x_adc.c **** /**
 621:../Libraries/STM32F30x_StdPeriph_Driver/src/stm32f30x_adc.c ****   * @brief  Selects the ADC Delayed Conversion Mode.
 622:../Libraries/STM32F30x_StdPeriph_Driver/src/stm32f30x_adc.c ****   * @param  ADCx: where x can be 1, 2, 3 or 4 to select the ADC peripheral.
 623:../Libraries/STM32F30x_StdPeriph_Driver/src/stm32f30x_adc.c ****   * @param  NewState: new state of the ADC Delayed Conversion Mode.
 624:../Libraries/STM32F30x_StdPeriph_Driver/src/stm32f30x_adc.c ****   *   This parameter can be: ENABLE or DISABLE.
 625:../Libraries/STM32F30x_StdPeriph_Driver/src/stm32f30x_adc.c ****   * @retval None
 626:../Libraries/STM32F30x_StdPeriph_Driver/src/stm32f30x_adc.c ****   */
 627:../Libraries/STM32F30x_StdPeriph_Driver/src/stm32f30x_adc.c **** void ADC_AutoDelayCmd(ADC_TypeDef* ADCx, FunctionalState NewState)
 628:../Libraries/STM32F30x_StdPeriph_Driver/src/stm32f30x_adc.c **** {
 945              		.loc 1 628 0
 946              		.cfi_startproc
 947              		@ args = 0, pretend = 0, frame = 8
 948              		@ frame_needed = 0, uses_anonymous_args = 0
 949              		@ link register save eliminated.
 950 0488 82B0     		sub	sp, sp, #8
 951              	.LCFI19:
 952              		.cfi_def_cfa_offset 8
 953 048a 0190     		str	r0, [sp, #4]
 954 048c 0B46     		mov	r3, r1
 955 048e 8DF80330 		strb	r3, [sp, #3]
 629:../Libraries/STM32F30x_StdPeriph_Driver/src/stm32f30x_adc.c ****   /* Check the parameters */
 630:../Libraries/STM32F30x_StdPeriph_Driver/src/stm32f30x_adc.c ****   assert_param(IS_ADC_ALL_PERIPH(ADCx)); 
 631:../Libraries/STM32F30x_StdPeriph_Driver/src/stm32f30x_adc.c ****   assert_param(IS_FUNCTIONAL_STATE(NewState));
 632:../Libraries/STM32F30x_StdPeriph_Driver/src/stm32f30x_adc.c **** 
 633:../Libraries/STM32F30x_StdPeriph_Driver/src/stm32f30x_adc.c ****   if (NewState != DISABLE)
 956              		.loc 1 633 0
 957 0492 9DF80330 		ldrb	r3, [sp, #3]	@ zero_extendqisi2
 958 0496 002B     		cmp	r3, #0
 959 0498 06D0     		beq	.L42
 634:../Libraries/STM32F30x_StdPeriph_Driver/src/stm32f30x_adc.c ****   {
 635:../Libraries/STM32F30x_StdPeriph_Driver/src/stm32f30x_adc.c ****     /* Set the AUTDLY bit */
 636:../Libraries/STM32F30x_StdPeriph_Driver/src/stm32f30x_adc.c ****     ADCx->CFGR |= (uint32_t)(ADC_CFGR_AUTDLY );
 960              		.loc 1 636 0
 961 049a 019B     		ldr	r3, [sp, #4]
 962 049c DB68     		ldr	r3, [r3, #12]
 963 049e 43F48042 		orr	r2, r3, #16384
 964 04a2 019B     		ldr	r3, [sp, #4]
 965 04a4 DA60     		str	r2, [r3, #12]
 966 04a6 05E0     		b	.L41
 967              	.L42:
 637:../Libraries/STM32F30x_StdPeriph_Driver/src/stm32f30x_adc.c ****   }
 638:../Libraries/STM32F30x_StdPeriph_Driver/src/stm32f30x_adc.c ****   else
 639:../Libraries/STM32F30x_StdPeriph_Driver/src/stm32f30x_adc.c ****   {
 640:../Libraries/STM32F30x_StdPeriph_Driver/src/stm32f30x_adc.c ****     /* Reset the AUTDLY bit */
 641:../Libraries/STM32F30x_StdPeriph_Driver/src/stm32f30x_adc.c ****     ADCx->CFGR &= ~(uint32_t)(ADC_CFGR_AUTDLY);
 968              		.loc 1 641 0
 969 04a8 019B     		ldr	r3, [sp, #4]
 970 04aa DB68     		ldr	r3, [r3, #12]
 971 04ac 23F48042 		bic	r2, r3, #16384
 972 04b0 019B     		ldr	r3, [sp, #4]
 973 04b2 DA60     		str	r2, [r3, #12]
 974              	.L41:
 642:../Libraries/STM32F30x_StdPeriph_Driver/src/stm32f30x_adc.c ****   }
 643:../Libraries/STM32F30x_StdPeriph_Driver/src/stm32f30x_adc.c **** }
 975              		.loc 1 643 0
 976 04b4 02B0     		add	sp, sp, #8
 977 04b6 7047     		bx	lr
 978              		.cfi_endproc
 979              	.LFE129:
 981              		.align	2
 982              		.global	ADC_AnalogWatchdogCmd
 983              		.thumb
 984              		.thumb_func
 986              	ADC_AnalogWatchdogCmd:
 987              	.LFB130:
 644:../Libraries/STM32F30x_StdPeriph_Driver/src/stm32f30x_adc.c **** 
 645:../Libraries/STM32F30x_StdPeriph_Driver/src/stm32f30x_adc.c **** /**
 646:../Libraries/STM32F30x_StdPeriph_Driver/src/stm32f30x_adc.c ****   * @}
 647:../Libraries/STM32F30x_StdPeriph_Driver/src/stm32f30x_adc.c ****   */
 648:../Libraries/STM32F30x_StdPeriph_Driver/src/stm32f30x_adc.c **** 
 649:../Libraries/STM32F30x_StdPeriph_Driver/src/stm32f30x_adc.c **** /** @defgroup ADC_Group2 Analog Watchdog configuration functions
 650:../Libraries/STM32F30x_StdPeriph_Driver/src/stm32f30x_adc.c ****  *  @brief   Analog Watchdog configuration functions 
 651:../Libraries/STM32F30x_StdPeriph_Driver/src/stm32f30x_adc.c ****  *
 652:../Libraries/STM32F30x_StdPeriph_Driver/src/stm32f30x_adc.c **** @verbatim   
 653:../Libraries/STM32F30x_StdPeriph_Driver/src/stm32f30x_adc.c ****  ===============================================================================
 654:../Libraries/STM32F30x_StdPeriph_Driver/src/stm32f30x_adc.c ****                     ##### Analog Watchdog configuration functions #####
 655:../Libraries/STM32F30x_StdPeriph_Driver/src/stm32f30x_adc.c ****  ===============================================================================  
 656:../Libraries/STM32F30x_StdPeriph_Driver/src/stm32f30x_adc.c **** 
 657:../Libraries/STM32F30x_StdPeriph_Driver/src/stm32f30x_adc.c ****   [..] This section provides functions allowing to configure the 3 Analog Watchdogs 
 658:../Libraries/STM32F30x_StdPeriph_Driver/src/stm32f30x_adc.c ****        (AWDG1, AWDG2 and AWDG3) in the ADC.
 659:../Libraries/STM32F30x_StdPeriph_Driver/src/stm32f30x_adc.c ****   
 660:../Libraries/STM32F30x_StdPeriph_Driver/src/stm32f30x_adc.c ****   [..] A typical configuration Analog Watchdog is done following these steps :
 661:../Libraries/STM32F30x_StdPeriph_Driver/src/stm32f30x_adc.c ****    (#) The ADC guarded channel(s) is (are) selected using the functions: 
 662:../Libraries/STM32F30x_StdPeriph_Driver/src/stm32f30x_adc.c ****       (++) ADC_AnalogWatchdog1SingleChannelConfig().
 663:../Libraries/STM32F30x_StdPeriph_Driver/src/stm32f30x_adc.c ****       (++) ADC_AnalogWatchdog2SingleChannelConfig().
 664:../Libraries/STM32F30x_StdPeriph_Driver/src/stm32f30x_adc.c ****       (++) ADC_AnalogWatchdog3SingleChannelConfig().
 665:../Libraries/STM32F30x_StdPeriph_Driver/src/stm32f30x_adc.c **** 
 666:../Libraries/STM32F30x_StdPeriph_Driver/src/stm32f30x_adc.c ****    (#) The Analog watchdog lower and higher threshold are configured using the functions: 
 667:../Libraries/STM32F30x_StdPeriph_Driver/src/stm32f30x_adc.c ****       (++) ADC_AnalogWatchdog1ThresholdsConfig().
 668:../Libraries/STM32F30x_StdPeriph_Driver/src/stm32f30x_adc.c ****       (++) ADC_AnalogWatchdog2ThresholdsConfig().
 669:../Libraries/STM32F30x_StdPeriph_Driver/src/stm32f30x_adc.c ****       (++) ADC_AnalogWatchdog3ThresholdsConfig().
 670:../Libraries/STM32F30x_StdPeriph_Driver/src/stm32f30x_adc.c **** 
 671:../Libraries/STM32F30x_StdPeriph_Driver/src/stm32f30x_adc.c ****    (#) The Analog watchdog is enabled and configured to enable the check, on one
 672:../Libraries/STM32F30x_StdPeriph_Driver/src/stm32f30x_adc.c ****       or more channels, using the function:
 673:../Libraries/STM32F30x_StdPeriph_Driver/src/stm32f30x_adc.c ****       (++) ADC_AnalogWatchdogCmd().
 674:../Libraries/STM32F30x_StdPeriph_Driver/src/stm32f30x_adc.c **** 
 675:../Libraries/STM32F30x_StdPeriph_Driver/src/stm32f30x_adc.c **** @endverbatim
 676:../Libraries/STM32F30x_StdPeriph_Driver/src/stm32f30x_adc.c ****   * @{
 677:../Libraries/STM32F30x_StdPeriph_Driver/src/stm32f30x_adc.c ****   */
 678:../Libraries/STM32F30x_StdPeriph_Driver/src/stm32f30x_adc.c **** 
 679:../Libraries/STM32F30x_StdPeriph_Driver/src/stm32f30x_adc.c **** /**
 680:../Libraries/STM32F30x_StdPeriph_Driver/src/stm32f30x_adc.c ****   * @brief  Enables or disables the analog watchdog on single/all regular
 681:../Libraries/STM32F30x_StdPeriph_Driver/src/stm32f30x_adc.c ****   *         or injected channels
 682:../Libraries/STM32F30x_StdPeriph_Driver/src/stm32f30x_adc.c ****   * @param  ADCx: where x can be 1, 2, 3 or 4 to select the ADC peripheral.
 683:../Libraries/STM32F30x_StdPeriph_Driver/src/stm32f30x_adc.c ****   * @param  ADC_AnalogWatchdog: the ADC analog watchdog configuration.
 684:../Libraries/STM32F30x_StdPeriph_Driver/src/stm32f30x_adc.c ****   *   This parameter can be one of the following values:
 685:../Libraries/STM32F30x_StdPeriph_Driver/src/stm32f30x_adc.c ****   *     @arg ADC_AnalogWatchdog_SingleRegEnable: Analog watchdog on a single regular channel
 686:../Libraries/STM32F30x_StdPeriph_Driver/src/stm32f30x_adc.c ****   *     @arg ADC_AnalogWatchdog_SingleInjecEnable: Analog watchdog on a single injected channel
 687:../Libraries/STM32F30x_StdPeriph_Driver/src/stm32f30x_adc.c ****   *     @arg ADC_AnalogWatchdog_SingleRegOrInjecEnable: Analog watchdog on a single regular or inje
 688:../Libraries/STM32F30x_StdPeriph_Driver/src/stm32f30x_adc.c ****   *     @arg ADC_AnalogWatchdog_AllRegEnable: Analog watchdog on  all regular channel
 689:../Libraries/STM32F30x_StdPeriph_Driver/src/stm32f30x_adc.c ****   *     @arg ADC_AnalogWatchdog_AllInjecEnable: Analog watchdog on  all injected channel
 690:../Libraries/STM32F30x_StdPeriph_Driver/src/stm32f30x_adc.c ****   *     @arg ADC_AnalogWatchdog_AllRegAllInjecEnable: Analog watchdog on all regular and injected c
 691:../Libraries/STM32F30x_StdPeriph_Driver/src/stm32f30x_adc.c ****   *     @arg ADC_AnalogWatchdog_None: No channel guarded by the analog watchdog
 692:../Libraries/STM32F30x_StdPeriph_Driver/src/stm32f30x_adc.c ****   * @retval None	  
 693:../Libraries/STM32F30x_StdPeriph_Driver/src/stm32f30x_adc.c ****   */
 694:../Libraries/STM32F30x_StdPeriph_Driver/src/stm32f30x_adc.c **** void ADC_AnalogWatchdogCmd(ADC_TypeDef* ADCx, uint32_t ADC_AnalogWatchdog)
 695:../Libraries/STM32F30x_StdPeriph_Driver/src/stm32f30x_adc.c **** {
 988              		.loc 1 695 0
 989              		.cfi_startproc
 990              		@ args = 0, pretend = 0, frame = 16
 991              		@ frame_needed = 0, uses_anonymous_args = 0
 992              		@ link register save eliminated.
 993 04b8 84B0     		sub	sp, sp, #16
 994              	.LCFI20:
 995              		.cfi_def_cfa_offset 16
 996 04ba 0190     		str	r0, [sp, #4]
 997 04bc 0091     		str	r1, [sp, #0]
 696:../Libraries/STM32F30x_StdPeriph_Driver/src/stm32f30x_adc.c ****   uint32_t tmpreg = 0;
 998              		.loc 1 696 0
 999 04be 4FF00003 		mov	r3, #0
 1000 04c2 0393     		str	r3, [sp, #12]
 697:../Libraries/STM32F30x_StdPeriph_Driver/src/stm32f30x_adc.c ****   /* Check the parameters */
 698:../Libraries/STM32F30x_StdPeriph_Driver/src/stm32f30x_adc.c ****   assert_param(IS_ADC_ALL_PERIPH(ADCx));
 699:../Libraries/STM32F30x_StdPeriph_Driver/src/stm32f30x_adc.c ****   assert_param(IS_ADC_ANALOG_WATCHDOG(ADC_AnalogWatchdog));
 700:../Libraries/STM32F30x_StdPeriph_Driver/src/stm32f30x_adc.c ****   /* Get the old register value */
 701:../Libraries/STM32F30x_StdPeriph_Driver/src/stm32f30x_adc.c ****   tmpreg = ADCx->CFGR;
 1001              		.loc 1 701 0
 1002 04c4 019B     		ldr	r3, [sp, #4]
 1003 04c6 DB68     		ldr	r3, [r3, #12]
 1004 04c8 0393     		str	r3, [sp, #12]
 702:../Libraries/STM32F30x_StdPeriph_Driver/src/stm32f30x_adc.c ****   /* Clear AWDEN, AWDENJ and AWDSGL bits */
 703:../Libraries/STM32F30x_StdPeriph_Driver/src/stm32f30x_adc.c ****   tmpreg &= ~(uint32_t)(ADC_CFGR_AWD1SGL|ADC_CFGR_AWD1EN|ADC_CFGR_JAWD1EN);
 1005              		.loc 1 703 0
 1006 04ca 039B     		ldr	r3, [sp, #12]
 1007 04cc 23F0E073 		bic	r3, r3, #29360128
 1008 04d0 0393     		str	r3, [sp, #12]
 704:../Libraries/STM32F30x_StdPeriph_Driver/src/stm32f30x_adc.c ****   /* Set the analog watchdog enable mode */
 705:../Libraries/STM32F30x_StdPeriph_Driver/src/stm32f30x_adc.c ****   tmpreg |= ADC_AnalogWatchdog;
 1009              		.loc 1 705 0
 1010 04d2 039A     		ldr	r2, [sp, #12]
 1011 04d4 009B     		ldr	r3, [sp, #0]
 1012 04d6 1343     		orrs	r3, r3, r2
 1013 04d8 0393     		str	r3, [sp, #12]
 706:../Libraries/STM32F30x_StdPeriph_Driver/src/stm32f30x_adc.c ****   /* Store the new register value */
 707:../Libraries/STM32F30x_StdPeriph_Driver/src/stm32f30x_adc.c ****   ADCx->CFGR = tmpreg;
 1014              		.loc 1 707 0
 1015 04da 019B     		ldr	r3, [sp, #4]
 1016 04dc 039A     		ldr	r2, [sp, #12]
 1017 04de DA60     		str	r2, [r3, #12]
 708:../Libraries/STM32F30x_StdPeriph_Driver/src/stm32f30x_adc.c **** }
 1018              		.loc 1 708 0
 1019 04e0 04B0     		add	sp, sp, #16
 1020 04e2 7047     		bx	lr
 1021              		.cfi_endproc
 1022              	.LFE130:
 1024              		.align	2
 1025              		.global	ADC_AnalogWatchdog1ThresholdsConfig
 1026              		.thumb
 1027              		.thumb_func
 1029              	ADC_AnalogWatchdog1ThresholdsConfig:
 1030              	.LFB131:
 709:../Libraries/STM32F30x_StdPeriph_Driver/src/stm32f30x_adc.c **** 
 710:../Libraries/STM32F30x_StdPeriph_Driver/src/stm32f30x_adc.c **** /**
 711:../Libraries/STM32F30x_StdPeriph_Driver/src/stm32f30x_adc.c ****   * @brief  Configures the high and low thresholds of the analog watchdog1.
 712:../Libraries/STM32F30x_StdPeriph_Driver/src/stm32f30x_adc.c ****   * @param  ADCx: where x can be 1, 2, 3 or 4 to select the ADC peripheral.
 713:../Libraries/STM32F30x_StdPeriph_Driver/src/stm32f30x_adc.c ****   * @param  HighThreshold: the ADC analog watchdog High threshold value.
 714:../Libraries/STM32F30x_StdPeriph_Driver/src/stm32f30x_adc.c ****   *   This parameter must be a 12bit value.
 715:../Libraries/STM32F30x_StdPeriph_Driver/src/stm32f30x_adc.c ****   * @param  LowThreshold: the ADC analog watchdog Low threshold value.
 716:../Libraries/STM32F30x_StdPeriph_Driver/src/stm32f30x_adc.c ****   *   This parameter must be a 12bit value.
 717:../Libraries/STM32F30x_StdPeriph_Driver/src/stm32f30x_adc.c ****   * @retval None
 718:../Libraries/STM32F30x_StdPeriph_Driver/src/stm32f30x_adc.c ****   */
 719:../Libraries/STM32F30x_StdPeriph_Driver/src/stm32f30x_adc.c **** void ADC_AnalogWatchdog1ThresholdsConfig(ADC_TypeDef* ADCx, uint16_t HighThreshold,
 720:../Libraries/STM32F30x_StdPeriph_Driver/src/stm32f30x_adc.c ****                                          uint16_t LowThreshold)
 721:../Libraries/STM32F30x_StdPeriph_Driver/src/stm32f30x_adc.c **** {
 1031              		.loc 1 721 0
 1032              		.cfi_startproc
 1033              		@ args = 0, pretend = 0, frame = 8
 1034              		@ frame_needed = 0, uses_anonymous_args = 0
 1035              		@ link register save eliminated.
 1036 04e4 82B0     		sub	sp, sp, #8
 1037              	.LCFI21:
 1038              		.cfi_def_cfa_offset 8
 1039 04e6 0190     		str	r0, [sp, #4]
 1040 04e8 1346     		mov	r3, r2
 1041 04ea 0A46     		mov	r2, r1	@ movhi
 1042 04ec ADF80220 		strh	r2, [sp, #2]	@ movhi
 1043 04f0 ADF80030 		strh	r3, [sp, #0]	@ movhi
 722:../Libraries/STM32F30x_StdPeriph_Driver/src/stm32f30x_adc.c ****   /* Check the parameters */
 723:../Libraries/STM32F30x_StdPeriph_Driver/src/stm32f30x_adc.c ****   assert_param(IS_ADC_ALL_PERIPH(ADCx));
 724:../Libraries/STM32F30x_StdPeriph_Driver/src/stm32f30x_adc.c ****   assert_param(IS_ADC_THRESHOLD(HighThreshold));
 725:../Libraries/STM32F30x_StdPeriph_Driver/src/stm32f30x_adc.c ****   assert_param(IS_ADC_THRESHOLD(LowThreshold));
 726:../Libraries/STM32F30x_StdPeriph_Driver/src/stm32f30x_adc.c ****   /* Set the ADCx high threshold */
 727:../Libraries/STM32F30x_StdPeriph_Driver/src/stm32f30x_adc.c ****   ADCx->TR1 &= ~(uint32_t)ADC_TR1_HT1;
 1044              		.loc 1 727 0
 1045 04f4 019B     		ldr	r3, [sp, #4]
 1046 04f6 1B6A     		ldr	r3, [r3, #32]
 1047 04f8 23F07E63 		bic	r3, r3, #266338304
 1048 04fc 23F4F813 		bic	r3, r3, #2031616
 1049 0500 019A     		ldr	r2, [sp, #4]
 1050 0502 1362     		str	r3, [r2, #32]
 728:../Libraries/STM32F30x_StdPeriph_Driver/src/stm32f30x_adc.c ****   ADCx->TR1 |= (uint32_t)((uint32_t)HighThreshold << 16);
 1051              		.loc 1 728 0
 1052 0504 019B     		ldr	r3, [sp, #4]
 1053 0506 1A6A     		ldr	r2, [r3, #32]
 1054 0508 BDF80230 		ldrh	r3, [sp, #2]
 1055 050c 4FEA0343 		lsl	r3, r3, #16
 1056 0510 1A43     		orrs	r2, r2, r3
 1057 0512 019B     		ldr	r3, [sp, #4]
 1058 0514 1A62     		str	r2, [r3, #32]
 729:../Libraries/STM32F30x_StdPeriph_Driver/src/stm32f30x_adc.c **** 
 730:../Libraries/STM32F30x_StdPeriph_Driver/src/stm32f30x_adc.c ****   /* Set the ADCx low threshold */
 731:../Libraries/STM32F30x_StdPeriph_Driver/src/stm32f30x_adc.c ****   ADCx->TR1 &= ~(uint32_t)ADC_TR1_LT1;
 1059              		.loc 1 731 0
 1060 0516 019B     		ldr	r3, [sp, #4]
 1061 0518 1B6A     		ldr	r3, [r3, #32]
 1062 051a 23F47E63 		bic	r3, r3, #4064
 1063 051e 23F01F03 		bic	r3, r3, #31
 1064 0522 019A     		ldr	r2, [sp, #4]
 1065 0524 1362     		str	r3, [r2, #32]
 732:../Libraries/STM32F30x_StdPeriph_Driver/src/stm32f30x_adc.c ****   ADCx->TR1 |= LowThreshold;
 1066              		.loc 1 732 0
 1067 0526 019B     		ldr	r3, [sp, #4]
 1068 0528 1A6A     		ldr	r2, [r3, #32]
 1069 052a BDF80030 		ldrh	r3, [sp, #0]
 1070 052e 1A43     		orrs	r2, r2, r3
 1071 0530 019B     		ldr	r3, [sp, #4]
 1072 0532 1A62     		str	r2, [r3, #32]
 733:../Libraries/STM32F30x_StdPeriph_Driver/src/stm32f30x_adc.c **** }
 1073              		.loc 1 733 0
 1074 0534 02B0     		add	sp, sp, #8
 1075 0536 7047     		bx	lr
 1076              		.cfi_endproc
 1077              	.LFE131:
 1079              		.align	2
 1080              		.global	ADC_AnalogWatchdog2ThresholdsConfig
 1081              		.thumb
 1082              		.thumb_func
 1084              	ADC_AnalogWatchdog2ThresholdsConfig:
 1085              	.LFB132:
 734:../Libraries/STM32F30x_StdPeriph_Driver/src/stm32f30x_adc.c **** 
 735:../Libraries/STM32F30x_StdPeriph_Driver/src/stm32f30x_adc.c **** /**
 736:../Libraries/STM32F30x_StdPeriph_Driver/src/stm32f30x_adc.c ****   * @brief  Configures the high and low thresholds of the analog watchdog2.
 737:../Libraries/STM32F30x_StdPeriph_Driver/src/stm32f30x_adc.c ****   * @param  ADCx: where x can be 1, 2, 3 or 4 to select the ADC peripheral.
 738:../Libraries/STM32F30x_StdPeriph_Driver/src/stm32f30x_adc.c ****   * @param  HighThreshold: the ADC analog watchdog High threshold value.
 739:../Libraries/STM32F30x_StdPeriph_Driver/src/stm32f30x_adc.c ****   *   This parameter must be a 8bit value.
 740:../Libraries/STM32F30x_StdPeriph_Driver/src/stm32f30x_adc.c ****   * @param  LowThreshold: the ADC analog watchdog Low threshold value.
 741:../Libraries/STM32F30x_StdPeriph_Driver/src/stm32f30x_adc.c ****   *   This parameter must be a 8bit value.
 742:../Libraries/STM32F30x_StdPeriph_Driver/src/stm32f30x_adc.c ****   * @retval None
 743:../Libraries/STM32F30x_StdPeriph_Driver/src/stm32f30x_adc.c ****   */
 744:../Libraries/STM32F30x_StdPeriph_Driver/src/stm32f30x_adc.c **** void ADC_AnalogWatchdog2ThresholdsConfig(ADC_TypeDef* ADCx, uint8_t HighThreshold,
 745:../Libraries/STM32F30x_StdPeriph_Driver/src/stm32f30x_adc.c ****                                          uint8_t LowThreshold)
 746:../Libraries/STM32F30x_StdPeriph_Driver/src/stm32f30x_adc.c **** {
 1086              		.loc 1 746 0
 1087              		.cfi_startproc
 1088              		@ args = 0, pretend = 0, frame = 8
 1089              		@ frame_needed = 0, uses_anonymous_args = 0
 1090              		@ link register save eliminated.
 1091 0538 82B0     		sub	sp, sp, #8
 1092              	.LCFI22:
 1093              		.cfi_def_cfa_offset 8
 1094 053a 0190     		str	r0, [sp, #4]
 1095 053c 1346     		mov	r3, r2
 1096 053e 0A46     		mov	r2, r1
 1097 0540 8DF80320 		strb	r2, [sp, #3]
 1098 0544 8DF80230 		strb	r3, [sp, #2]
 747:../Libraries/STM32F30x_StdPeriph_Driver/src/stm32f30x_adc.c ****   /* Check the parameters */
 748:../Libraries/STM32F30x_StdPeriph_Driver/src/stm32f30x_adc.c ****   assert_param(IS_ADC_ALL_PERIPH(ADCx));
 749:../Libraries/STM32F30x_StdPeriph_Driver/src/stm32f30x_adc.c ****   
 750:../Libraries/STM32F30x_StdPeriph_Driver/src/stm32f30x_adc.c ****   /* Set the ADCx high threshold */
 751:../Libraries/STM32F30x_StdPeriph_Driver/src/stm32f30x_adc.c ****   ADCx->TR2 &= ~(uint32_t)ADC_TR2_HT2;
 1099              		.loc 1 751 0
 1100 0548 019B     		ldr	r3, [sp, #4]
 1101 054a 5B6A     		ldr	r3, [r3, #36]
 1102 054c 23F47F02 		bic	r2, r3, #16711680
 1103 0550 019B     		ldr	r3, [sp, #4]
 1104 0552 5A62     		str	r2, [r3, #36]
 752:../Libraries/STM32F30x_StdPeriph_Driver/src/stm32f30x_adc.c ****   ADCx->TR2 |= (uint32_t)((uint32_t)HighThreshold << 16);
 1105              		.loc 1 752 0
 1106 0554 019B     		ldr	r3, [sp, #4]
 1107 0556 5A6A     		ldr	r2, [r3, #36]
 1108 0558 9DF80330 		ldrb	r3, [sp, #3]	@ zero_extendqisi2
 1109 055c 4FEA0343 		lsl	r3, r3, #16
 1110 0560 1A43     		orrs	r2, r2, r3
 1111 0562 019B     		ldr	r3, [sp, #4]
 1112 0564 5A62     		str	r2, [r3, #36]
 753:../Libraries/STM32F30x_StdPeriph_Driver/src/stm32f30x_adc.c **** 
 754:../Libraries/STM32F30x_StdPeriph_Driver/src/stm32f30x_adc.c ****   /* Set the ADCx low threshold */
 755:../Libraries/STM32F30x_StdPeriph_Driver/src/stm32f30x_adc.c ****   ADCx->TR2 &= ~(uint32_t)ADC_TR2_LT2;
 1113              		.loc 1 755 0
 1114 0566 019B     		ldr	r3, [sp, #4]
 1115 0568 5B6A     		ldr	r3, [r3, #36]
 1116 056a 23F0FF02 		bic	r2, r3, #255
 1117 056e 019B     		ldr	r3, [sp, #4]
 1118 0570 5A62     		str	r2, [r3, #36]
 756:../Libraries/STM32F30x_StdPeriph_Driver/src/stm32f30x_adc.c ****   ADCx->TR2 |= LowThreshold;
 1119              		.loc 1 756 0
 1120 0572 019B     		ldr	r3, [sp, #4]
 1121 0574 5A6A     		ldr	r2, [r3, #36]
 1122 0576 9DF80230 		ldrb	r3, [sp, #2]	@ zero_extendqisi2
 1123 057a 1A43     		orrs	r2, r2, r3
 1124 057c 019B     		ldr	r3, [sp, #4]
 1125 057e 5A62     		str	r2, [r3, #36]
 757:../Libraries/STM32F30x_StdPeriph_Driver/src/stm32f30x_adc.c **** }
 1126              		.loc 1 757 0
 1127 0580 02B0     		add	sp, sp, #8
 1128 0582 7047     		bx	lr
 1129              		.cfi_endproc
 1130              	.LFE132:
 1132              		.align	2
 1133              		.global	ADC_AnalogWatchdog3ThresholdsConfig
 1134              		.thumb
 1135              		.thumb_func
 1137              	ADC_AnalogWatchdog3ThresholdsConfig:
 1138              	.LFB133:
 758:../Libraries/STM32F30x_StdPeriph_Driver/src/stm32f30x_adc.c **** 
 759:../Libraries/STM32F30x_StdPeriph_Driver/src/stm32f30x_adc.c **** /**
 760:../Libraries/STM32F30x_StdPeriph_Driver/src/stm32f30x_adc.c ****   * @brief  Configures the high and low thresholds of the analog watchdog3.
 761:../Libraries/STM32F30x_StdPeriph_Driver/src/stm32f30x_adc.c ****   * @param  ADCx: where x can be 1, 2, 3 or 4 to select the ADC peripheral.
 762:../Libraries/STM32F30x_StdPeriph_Driver/src/stm32f30x_adc.c ****   * @param  HighThreshold: the ADC analog watchdog High threshold value.
 763:../Libraries/STM32F30x_StdPeriph_Driver/src/stm32f30x_adc.c ****   *   This parameter must be a 8bit value.
 764:../Libraries/STM32F30x_StdPeriph_Driver/src/stm32f30x_adc.c ****   * @param  LowThreshold: the ADC analog watchdog Low threshold value.
 765:../Libraries/STM32F30x_StdPeriph_Driver/src/stm32f30x_adc.c ****   *   This parameter must be a 8bit value.
 766:../Libraries/STM32F30x_StdPeriph_Driver/src/stm32f30x_adc.c ****   * @retval None
 767:../Libraries/STM32F30x_StdPeriph_Driver/src/stm32f30x_adc.c ****   */
 768:../Libraries/STM32F30x_StdPeriph_Driver/src/stm32f30x_adc.c **** void ADC_AnalogWatchdog3ThresholdsConfig(ADC_TypeDef* ADCx, uint8_t HighThreshold,
 769:../Libraries/STM32F30x_StdPeriph_Driver/src/stm32f30x_adc.c ****                                          uint8_t LowThreshold)
 770:../Libraries/STM32F30x_StdPeriph_Driver/src/stm32f30x_adc.c **** {
 1139              		.loc 1 770 0
 1140              		.cfi_startproc
 1141              		@ args = 0, pretend = 0, frame = 8
 1142              		@ frame_needed = 0, uses_anonymous_args = 0
 1143              		@ link register save eliminated.
 1144 0584 82B0     		sub	sp, sp, #8
 1145              	.LCFI23:
 1146              		.cfi_def_cfa_offset 8
 1147 0586 0190     		str	r0, [sp, #4]
 1148 0588 1346     		mov	r3, r2
 1149 058a 0A46     		mov	r2, r1
 1150 058c 8DF80320 		strb	r2, [sp, #3]
 1151 0590 8DF80230 		strb	r3, [sp, #2]
 771:../Libraries/STM32F30x_StdPeriph_Driver/src/stm32f30x_adc.c ****   /* Check the parameters */
 772:../Libraries/STM32F30x_StdPeriph_Driver/src/stm32f30x_adc.c ****   assert_param(IS_ADC_ALL_PERIPH(ADCx));
 773:../Libraries/STM32F30x_StdPeriph_Driver/src/stm32f30x_adc.c **** 
 774:../Libraries/STM32F30x_StdPeriph_Driver/src/stm32f30x_adc.c ****   /* Set the ADCx high threshold */
 775:../Libraries/STM32F30x_StdPeriph_Driver/src/stm32f30x_adc.c ****   ADCx->TR3 &= ~(uint32_t)ADC_TR3_HT3;
 1152              		.loc 1 775 0
 1153 0594 019B     		ldr	r3, [sp, #4]
 1154 0596 9B6A     		ldr	r3, [r3, #40]
 1155 0598 23F47F02 		bic	r2, r3, #16711680
 1156 059c 019B     		ldr	r3, [sp, #4]
 1157 059e 9A62     		str	r2, [r3, #40]
 776:../Libraries/STM32F30x_StdPeriph_Driver/src/stm32f30x_adc.c ****   ADCx->TR3 |= (uint32_t)((uint32_t)HighThreshold << 16);
 1158              		.loc 1 776 0
 1159 05a0 019B     		ldr	r3, [sp, #4]
 1160 05a2 9A6A     		ldr	r2, [r3, #40]
 1161 05a4 9DF80330 		ldrb	r3, [sp, #3]	@ zero_extendqisi2
 1162 05a8 4FEA0343 		lsl	r3, r3, #16
 1163 05ac 1A43     		orrs	r2, r2, r3
 1164 05ae 019B     		ldr	r3, [sp, #4]
 1165 05b0 9A62     		str	r2, [r3, #40]
 777:../Libraries/STM32F30x_StdPeriph_Driver/src/stm32f30x_adc.c **** 
 778:../Libraries/STM32F30x_StdPeriph_Driver/src/stm32f30x_adc.c ****   /* Set the ADCx low threshold */
 779:../Libraries/STM32F30x_StdPeriph_Driver/src/stm32f30x_adc.c ****   ADCx->TR3 &= ~(uint32_t)ADC_TR3_LT3;
 1166              		.loc 1 779 0
 1167 05b2 019B     		ldr	r3, [sp, #4]
 1168 05b4 9B6A     		ldr	r3, [r3, #40]
 1169 05b6 23F0FF02 		bic	r2, r3, #255
 1170 05ba 019B     		ldr	r3, [sp, #4]
 1171 05bc 9A62     		str	r2, [r3, #40]
 780:../Libraries/STM32F30x_StdPeriph_Driver/src/stm32f30x_adc.c ****   ADCx->TR3 |= LowThreshold;
 1172              		.loc 1 780 0
 1173 05be 019B     		ldr	r3, [sp, #4]
 1174 05c0 9A6A     		ldr	r2, [r3, #40]
 1175 05c2 9DF80230 		ldrb	r3, [sp, #2]	@ zero_extendqisi2
 1176 05c6 1A43     		orrs	r2, r2, r3
 1177 05c8 019B     		ldr	r3, [sp, #4]
 1178 05ca 9A62     		str	r2, [r3, #40]
 781:../Libraries/STM32F30x_StdPeriph_Driver/src/stm32f30x_adc.c **** }
 1179              		.loc 1 781 0
 1180 05cc 02B0     		add	sp, sp, #8
 1181 05ce 7047     		bx	lr
 1182              		.cfi_endproc
 1183              	.LFE133:
 1185              		.align	2
 1186              		.global	ADC_AnalogWatchdog1SingleChannelConfig
 1187              		.thumb
 1188              		.thumb_func
 1190              	ADC_AnalogWatchdog1SingleChannelConfig:
 1191              	.LFB134:
 782:../Libraries/STM32F30x_StdPeriph_Driver/src/stm32f30x_adc.c **** 
 783:../Libraries/STM32F30x_StdPeriph_Driver/src/stm32f30x_adc.c **** /**
 784:../Libraries/STM32F30x_StdPeriph_Driver/src/stm32f30x_adc.c ****   * @brief  Configures the analog watchdog 2 guarded single channel
 785:../Libraries/STM32F30x_StdPeriph_Driver/src/stm32f30x_adc.c ****   * @param  ADCx: where x can be 1, 2, 3 or 4 to select the ADC peripheral.
 786:../Libraries/STM32F30x_StdPeriph_Driver/src/stm32f30x_adc.c ****   * @param  ADC_Channel: the ADC channel to configure for the analog watchdog. 
 787:../Libraries/STM32F30x_StdPeriph_Driver/src/stm32f30x_adc.c ****   *   This parameter can be one of the following values:
 788:../Libraries/STM32F30x_StdPeriph_Driver/src/stm32f30x_adc.c ****   *     @arg ADC_Channel_1: ADC Channel1 selected
 789:../Libraries/STM32F30x_StdPeriph_Driver/src/stm32f30x_adc.c ****   *     @arg ADC_Channel_2: ADC Channel2 selected
 790:../Libraries/STM32F30x_StdPeriph_Driver/src/stm32f30x_adc.c ****   *     @arg ADC_Channel_3: ADC Channel3 selected
 791:../Libraries/STM32F30x_StdPeriph_Driver/src/stm32f30x_adc.c ****   *     @arg ADC_Channel_4: ADC Channel4 selected
 792:../Libraries/STM32F30x_StdPeriph_Driver/src/stm32f30x_adc.c ****   *     @arg ADC_Channel_5: ADC Channel5 selected
 793:../Libraries/STM32F30x_StdPeriph_Driver/src/stm32f30x_adc.c ****   *     @arg ADC_Channel_6: ADC Channel6 selected
 794:../Libraries/STM32F30x_StdPeriph_Driver/src/stm32f30x_adc.c ****   *     @arg ADC_Channel_7: ADC Channel7 selected
 795:../Libraries/STM32F30x_StdPeriph_Driver/src/stm32f30x_adc.c ****   *     @arg ADC_Channel_8: ADC Channel8 selected
 796:../Libraries/STM32F30x_StdPeriph_Driver/src/stm32f30x_adc.c ****   *     @arg ADC_Channel_9: ADC Channel9 selected
 797:../Libraries/STM32F30x_StdPeriph_Driver/src/stm32f30x_adc.c ****   *     @arg ADC_Channel_10: ADC Channel10 selected
 798:../Libraries/STM32F30x_StdPeriph_Driver/src/stm32f30x_adc.c ****   *     @arg ADC_Channel_11: ADC Channel11 selected
 799:../Libraries/STM32F30x_StdPeriph_Driver/src/stm32f30x_adc.c ****   *     @arg ADC_Channel_12: ADC Channel12 selected
 800:../Libraries/STM32F30x_StdPeriph_Driver/src/stm32f30x_adc.c ****   *     @arg ADC_Channel_13: ADC Channel13 selected
 801:../Libraries/STM32F30x_StdPeriph_Driver/src/stm32f30x_adc.c ****   *     @arg ADC_Channel_14: ADC Channel14 selected
 802:../Libraries/STM32F30x_StdPeriph_Driver/src/stm32f30x_adc.c ****   *     @arg ADC_Channel_15: ADC Channel15 selected
 803:../Libraries/STM32F30x_StdPeriph_Driver/src/stm32f30x_adc.c ****   *     @arg ADC_Channel_16: ADC Channel16 selected
 804:../Libraries/STM32F30x_StdPeriph_Driver/src/stm32f30x_adc.c ****   *     @arg ADC_Channel_17: ADC Channel17 selected
 805:../Libraries/STM32F30x_StdPeriph_Driver/src/stm32f30x_adc.c ****   *     @arg ADC_Channel_18: ADC Channel18 selected
 806:../Libraries/STM32F30x_StdPeriph_Driver/src/stm32f30x_adc.c ****   * @retval None
 807:../Libraries/STM32F30x_StdPeriph_Driver/src/stm32f30x_adc.c ****   */
 808:../Libraries/STM32F30x_StdPeriph_Driver/src/stm32f30x_adc.c **** void ADC_AnalogWatchdog1SingleChannelConfig(ADC_TypeDef* ADCx, uint8_t ADC_Channel)
 809:../Libraries/STM32F30x_StdPeriph_Driver/src/stm32f30x_adc.c **** {
 1192              		.loc 1 809 0
 1193              		.cfi_startproc
 1194              		@ args = 0, pretend = 0, frame = 16
 1195              		@ frame_needed = 0, uses_anonymous_args = 0
 1196              		@ link register save eliminated.
 1197 05d0 84B0     		sub	sp, sp, #16
 1198              	.LCFI24:
 1199              		.cfi_def_cfa_offset 16
 1200 05d2 0190     		str	r0, [sp, #4]
 1201 05d4 0B46     		mov	r3, r1
 1202 05d6 8DF80330 		strb	r3, [sp, #3]
 810:../Libraries/STM32F30x_StdPeriph_Driver/src/stm32f30x_adc.c ****   uint32_t tmpreg = 0;
 1203              		.loc 1 810 0
 1204 05da 4FF00003 		mov	r3, #0
 1205 05de 0393     		str	r3, [sp, #12]
 811:../Libraries/STM32F30x_StdPeriph_Driver/src/stm32f30x_adc.c ****   /* Check the parameters */
 812:../Libraries/STM32F30x_StdPeriph_Driver/src/stm32f30x_adc.c ****   assert_param(IS_ADC_ALL_PERIPH(ADCx));
 813:../Libraries/STM32F30x_StdPeriph_Driver/src/stm32f30x_adc.c ****   assert_param(IS_ADC_CHANNEL(ADC_Channel));
 814:../Libraries/STM32F30x_StdPeriph_Driver/src/stm32f30x_adc.c ****   /* Get the old register value */
 815:../Libraries/STM32F30x_StdPeriph_Driver/src/stm32f30x_adc.c ****   tmpreg = ADCx->CFGR;
 1206              		.loc 1 815 0
 1207 05e0 019B     		ldr	r3, [sp, #4]
 1208 05e2 DB68     		ldr	r3, [r3, #12]
 1209 05e4 0393     		str	r3, [sp, #12]
 816:../Libraries/STM32F30x_StdPeriph_Driver/src/stm32f30x_adc.c ****   /* Clear the Analog watchdog channel select bits */
 817:../Libraries/STM32F30x_StdPeriph_Driver/src/stm32f30x_adc.c ****   tmpreg &= ~(uint32_t)ADC_CFGR_AWD1CH;
 1210              		.loc 1 817 0
 1211 05e6 039B     		ldr	r3, [sp, #12]
 1212 05e8 23F0F843 		bic	r3, r3, #2080374784
 1213 05ec 0393     		str	r3, [sp, #12]
 818:../Libraries/STM32F30x_StdPeriph_Driver/src/stm32f30x_adc.c ****   /* Set the Analog watchdog channel */
 819:../Libraries/STM32F30x_StdPeriph_Driver/src/stm32f30x_adc.c ****   tmpreg |= (uint32_t)((uint32_t)ADC_Channel << 26);
 1214              		.loc 1 819 0
 1215 05ee 9DF80330 		ldrb	r3, [sp, #3]	@ zero_extendqisi2
 1216 05f2 4FEA8363 		lsl	r3, r3, #26
 1217 05f6 039A     		ldr	r2, [sp, #12]
 1218 05f8 1343     		orrs	r3, r3, r2
 1219 05fa 0393     		str	r3, [sp, #12]
 820:../Libraries/STM32F30x_StdPeriph_Driver/src/stm32f30x_adc.c ****   /* Store the new register value */
 821:../Libraries/STM32F30x_StdPeriph_Driver/src/stm32f30x_adc.c ****   ADCx->CFGR = tmpreg;
 1220              		.loc 1 821 0
 1221 05fc 019B     		ldr	r3, [sp, #4]
 1222 05fe 039A     		ldr	r2, [sp, #12]
 1223 0600 DA60     		str	r2, [r3, #12]
 822:../Libraries/STM32F30x_StdPeriph_Driver/src/stm32f30x_adc.c **** }
 1224              		.loc 1 822 0
 1225 0602 04B0     		add	sp, sp, #16
 1226 0604 7047     		bx	lr
 1227              		.cfi_endproc
 1228              	.LFE134:
 1230 0606 00BF     		.align	2
 1231              		.global	ADC_AnalogWatchdog2SingleChannelConfig
 1232              		.thumb
 1233              		.thumb_func
 1235              	ADC_AnalogWatchdog2SingleChannelConfig:
 1236              	.LFB135:
 823:../Libraries/STM32F30x_StdPeriph_Driver/src/stm32f30x_adc.c **** 
 824:../Libraries/STM32F30x_StdPeriph_Driver/src/stm32f30x_adc.c **** /**
 825:../Libraries/STM32F30x_StdPeriph_Driver/src/stm32f30x_adc.c ****   * @brief  Configures the analog watchdog 2 guarded single channel
 826:../Libraries/STM32F30x_StdPeriph_Driver/src/stm32f30x_adc.c ****   * @param  ADCx: where x can be 1, 2, 3 or 4 to select the ADC peripheral.
 827:../Libraries/STM32F30x_StdPeriph_Driver/src/stm32f30x_adc.c ****   * @param  ADC_Channel: the ADC channel to configure for the analog watchdog. 
 828:../Libraries/STM32F30x_StdPeriph_Driver/src/stm32f30x_adc.c ****   *   This parameter can be one of the following values:
 829:../Libraries/STM32F30x_StdPeriph_Driver/src/stm32f30x_adc.c ****   *     @arg ADC_Channel_1: ADC Channel1 selected
 830:../Libraries/STM32F30x_StdPeriph_Driver/src/stm32f30x_adc.c ****   *     @arg ADC_Channel_2: ADC Channel2 selected
 831:../Libraries/STM32F30x_StdPeriph_Driver/src/stm32f30x_adc.c ****   *     @arg ADC_Channel_3: ADC Channel3 selected
 832:../Libraries/STM32F30x_StdPeriph_Driver/src/stm32f30x_adc.c ****   *     @arg ADC_Channel_4: ADC Channel4 selected
 833:../Libraries/STM32F30x_StdPeriph_Driver/src/stm32f30x_adc.c ****   *     @arg ADC_Channel_5: ADC Channel5 selected
 834:../Libraries/STM32F30x_StdPeriph_Driver/src/stm32f30x_adc.c ****   *     @arg ADC_Channel_6: ADC Channel6 selected
 835:../Libraries/STM32F30x_StdPeriph_Driver/src/stm32f30x_adc.c ****   *     @arg ADC_Channel_7: ADC Channel7 selected
 836:../Libraries/STM32F30x_StdPeriph_Driver/src/stm32f30x_adc.c ****   *     @arg ADC_Channel_8: ADC Channel8 selected
 837:../Libraries/STM32F30x_StdPeriph_Driver/src/stm32f30x_adc.c ****   *     @arg ADC_Channel_9: ADC Channel9 selected
 838:../Libraries/STM32F30x_StdPeriph_Driver/src/stm32f30x_adc.c ****   *     @arg ADC_Channel_10: ADC Channel10 selected
 839:../Libraries/STM32F30x_StdPeriph_Driver/src/stm32f30x_adc.c ****   *     @arg ADC_Channel_11: ADC Channel11 selected
 840:../Libraries/STM32F30x_StdPeriph_Driver/src/stm32f30x_adc.c ****   *     @arg ADC_Channel_12: ADC Channel12 selected
 841:../Libraries/STM32F30x_StdPeriph_Driver/src/stm32f30x_adc.c ****   *     @arg ADC_Channel_13: ADC Channel13 selected
 842:../Libraries/STM32F30x_StdPeriph_Driver/src/stm32f30x_adc.c ****   *     @arg ADC_Channel_14: ADC Channel14 selected
 843:../Libraries/STM32F30x_StdPeriph_Driver/src/stm32f30x_adc.c ****   *     @arg ADC_Channel_15: ADC Channel15 selected
 844:../Libraries/STM32F30x_StdPeriph_Driver/src/stm32f30x_adc.c ****   *     @arg ADC_Channel_16: ADC Channel16 selected
 845:../Libraries/STM32F30x_StdPeriph_Driver/src/stm32f30x_adc.c ****   *     @arg ADC_Channel_17: ADC Channel17 selected
 846:../Libraries/STM32F30x_StdPeriph_Driver/src/stm32f30x_adc.c ****   *     @arg ADC_Channel_18: ADC Channel18 selected
 847:../Libraries/STM32F30x_StdPeriph_Driver/src/stm32f30x_adc.c ****   * @retval None
 848:../Libraries/STM32F30x_StdPeriph_Driver/src/stm32f30x_adc.c ****   */
 849:../Libraries/STM32F30x_StdPeriph_Driver/src/stm32f30x_adc.c **** void ADC_AnalogWatchdog2SingleChannelConfig(ADC_TypeDef* ADCx, uint8_t ADC_Channel)
 850:../Libraries/STM32F30x_StdPeriph_Driver/src/stm32f30x_adc.c **** {
 1237              		.loc 1 850 0
 1238              		.cfi_startproc
 1239              		@ args = 0, pretend = 0, frame = 16
 1240              		@ frame_needed = 0, uses_anonymous_args = 0
 1241              		@ link register save eliminated.
 1242 0608 84B0     		sub	sp, sp, #16
 1243              	.LCFI25:
 1244              		.cfi_def_cfa_offset 16
 1245 060a 0190     		str	r0, [sp, #4]
 1246 060c 0B46     		mov	r3, r1
 1247 060e 8DF80330 		strb	r3, [sp, #3]
 851:../Libraries/STM32F30x_StdPeriph_Driver/src/stm32f30x_adc.c ****   uint32_t tmpreg = 0;
 1248              		.loc 1 851 0
 1249 0612 4FF00003 		mov	r3, #0
 1250 0616 0393     		str	r3, [sp, #12]
 852:../Libraries/STM32F30x_StdPeriph_Driver/src/stm32f30x_adc.c ****   /* Check the parameters */
 853:../Libraries/STM32F30x_StdPeriph_Driver/src/stm32f30x_adc.c ****   assert_param(IS_ADC_ALL_PERIPH(ADCx));
 854:../Libraries/STM32F30x_StdPeriph_Driver/src/stm32f30x_adc.c ****   assert_param(IS_ADC_CHANNEL(ADC_Channel));
 855:../Libraries/STM32F30x_StdPeriph_Driver/src/stm32f30x_adc.c ****   /* Get the old register value */
 856:../Libraries/STM32F30x_StdPeriph_Driver/src/stm32f30x_adc.c ****   tmpreg = ADCx->AWD2CR;
 1251              		.loc 1 856 0
 1252 0618 019B     		ldr	r3, [sp, #4]
 1253 061a D3F8A030 		ldr	r3, [r3, #160]
 1254 061e 0393     		str	r3, [sp, #12]
 857:../Libraries/STM32F30x_StdPeriph_Driver/src/stm32f30x_adc.c ****   /* Clear the Analog watchdog channel select bits */
 858:../Libraries/STM32F30x_StdPeriph_Driver/src/stm32f30x_adc.c ****   tmpreg &= ~(uint32_t)ADC_AWD2CR_AWD2CH;
 1255              		.loc 1 858 0
 1256 0620 039A     		ldr	r2, [sp, #12]
 1257 0622 4FF00103 		mov	r3, #1
 1258 0626 CFF6F873 		movt	r3, 65528
 1259 062a 1340     		ands	r3, r3, r2
 1260 062c 0393     		str	r3, [sp, #12]
 859:../Libraries/STM32F30x_StdPeriph_Driver/src/stm32f30x_adc.c ****   /* Set the Analog watchdog channel */
 860:../Libraries/STM32F30x_StdPeriph_Driver/src/stm32f30x_adc.c ****   tmpreg |= (uint32_t)1 << (ADC_Channel);
 1261              		.loc 1 860 0
 1262 062e 9DF80330 		ldrb	r3, [sp, #3]	@ zero_extendqisi2
 1263 0632 4FF00102 		mov	r2, #1
 1264 0636 02FA03F3 		lsl	r3, r2, r3
 1265 063a 039A     		ldr	r2, [sp, #12]
 1266 063c 1343     		orrs	r3, r3, r2
 1267 063e 0393     		str	r3, [sp, #12]
 861:../Libraries/STM32F30x_StdPeriph_Driver/src/stm32f30x_adc.c ****   /* Store the new register value */
 862:../Libraries/STM32F30x_StdPeriph_Driver/src/stm32f30x_adc.c ****   ADCx->AWD2CR |= tmpreg;
 1268              		.loc 1 862 0
 1269 0640 019B     		ldr	r3, [sp, #4]
 1270 0642 D3F8A020 		ldr	r2, [r3, #160]
 1271 0646 039B     		ldr	r3, [sp, #12]
 1272 0648 1A43     		orrs	r2, r2, r3
 1273 064a 019B     		ldr	r3, [sp, #4]
 1274 064c C3F8A020 		str	r2, [r3, #160]
 863:../Libraries/STM32F30x_StdPeriph_Driver/src/stm32f30x_adc.c **** }
 1275              		.loc 1 863 0
 1276 0650 04B0     		add	sp, sp, #16
 1277 0652 7047     		bx	lr
 1278              		.cfi_endproc
 1279              	.LFE135:
 1281              		.align	2
 1282              		.global	ADC_AnalogWatchdog3SingleChannelConfig
 1283              		.thumb
 1284              		.thumb_func
 1286              	ADC_AnalogWatchdog3SingleChannelConfig:
 1287              	.LFB136:
 864:../Libraries/STM32F30x_StdPeriph_Driver/src/stm32f30x_adc.c **** 
 865:../Libraries/STM32F30x_StdPeriph_Driver/src/stm32f30x_adc.c **** /**
 866:../Libraries/STM32F30x_StdPeriph_Driver/src/stm32f30x_adc.c ****   * @brief  Configures the analog watchdog 3 guarded single channel
 867:../Libraries/STM32F30x_StdPeriph_Driver/src/stm32f30x_adc.c ****   * @param  ADCx: where x can be 1, 2, 3 or 4 to select the ADC peripheral.
 868:../Libraries/STM32F30x_StdPeriph_Driver/src/stm32f30x_adc.c ****   * @param  ADC_Channel: the ADC channel to configure for the analog watchdog. 
 869:../Libraries/STM32F30x_StdPeriph_Driver/src/stm32f30x_adc.c ****   *   This parameter can be one of the following values:
 870:../Libraries/STM32F30x_StdPeriph_Driver/src/stm32f30x_adc.c ****   *     @arg ADC_Channel_1: ADC Channel1 selected
 871:../Libraries/STM32F30x_StdPeriph_Driver/src/stm32f30x_adc.c ****   *     @arg ADC_Channel_2: ADC Channel2 selected
 872:../Libraries/STM32F30x_StdPeriph_Driver/src/stm32f30x_adc.c ****   *     @arg ADC_Channel_3: ADC Channel3 selected
 873:../Libraries/STM32F30x_StdPeriph_Driver/src/stm32f30x_adc.c ****   *     @arg ADC_Channel_4: ADC Channel4 selected
 874:../Libraries/STM32F30x_StdPeriph_Driver/src/stm32f30x_adc.c ****   *     @arg ADC_Channel_5: ADC Channel5 selected
 875:../Libraries/STM32F30x_StdPeriph_Driver/src/stm32f30x_adc.c ****   *     @arg ADC_Channel_6: ADC Channel6 selected
 876:../Libraries/STM32F30x_StdPeriph_Driver/src/stm32f30x_adc.c ****   *     @arg ADC_Channel_7: ADC Channel7 selected
 877:../Libraries/STM32F30x_StdPeriph_Driver/src/stm32f30x_adc.c ****   *     @arg ADC_Channel_8: ADC Channel8 selected
 878:../Libraries/STM32F30x_StdPeriph_Driver/src/stm32f30x_adc.c ****   *     @arg ADC_Channel_9: ADC Channel9 selected
 879:../Libraries/STM32F30x_StdPeriph_Driver/src/stm32f30x_adc.c ****   *     @arg ADC_Channel_10: ADC Channel10 selected
 880:../Libraries/STM32F30x_StdPeriph_Driver/src/stm32f30x_adc.c ****   *     @arg ADC_Channel_11: ADC Channel11 selected
 881:../Libraries/STM32F30x_StdPeriph_Driver/src/stm32f30x_adc.c ****   *     @arg ADC_Channel_12: ADC Channel12 selected
 882:../Libraries/STM32F30x_StdPeriph_Driver/src/stm32f30x_adc.c ****   *     @arg ADC_Channel_13: ADC Channel13 selected
 883:../Libraries/STM32F30x_StdPeriph_Driver/src/stm32f30x_adc.c ****   *     @arg ADC_Channel_14: ADC Channel14 selected
 884:../Libraries/STM32F30x_StdPeriph_Driver/src/stm32f30x_adc.c ****   *     @arg ADC_Channel_15: ADC Channel15 selected
 885:../Libraries/STM32F30x_StdPeriph_Driver/src/stm32f30x_adc.c ****   *     @arg ADC_Channel_16: ADC Channel16 selected
 886:../Libraries/STM32F30x_StdPeriph_Driver/src/stm32f30x_adc.c ****   *     @arg ADC_Channel_17: ADC Channel17 selected
 887:../Libraries/STM32F30x_StdPeriph_Driver/src/stm32f30x_adc.c ****   *     @arg ADC_Channel_18: ADC Channel18 selected
 888:../Libraries/STM32F30x_StdPeriph_Driver/src/stm32f30x_adc.c ****   * @retval None
 889:../Libraries/STM32F30x_StdPeriph_Driver/src/stm32f30x_adc.c ****   */
 890:../Libraries/STM32F30x_StdPeriph_Driver/src/stm32f30x_adc.c **** void ADC_AnalogWatchdog3SingleChannelConfig(ADC_TypeDef* ADCx, uint8_t ADC_Channel)
 891:../Libraries/STM32F30x_StdPeriph_Driver/src/stm32f30x_adc.c **** {
 1288              		.loc 1 891 0
 1289              		.cfi_startproc
 1290              		@ args = 0, pretend = 0, frame = 16
 1291              		@ frame_needed = 0, uses_anonymous_args = 0
 1292              		@ link register save eliminated.
 1293 0654 84B0     		sub	sp, sp, #16
 1294              	.LCFI26:
 1295              		.cfi_def_cfa_offset 16
 1296 0656 0190     		str	r0, [sp, #4]
 1297 0658 0B46     		mov	r3, r1
 1298 065a 8DF80330 		strb	r3, [sp, #3]
 892:../Libraries/STM32F30x_StdPeriph_Driver/src/stm32f30x_adc.c ****   uint32_t tmpreg = 0;
 1299              		.loc 1 892 0
 1300 065e 4FF00003 		mov	r3, #0
 1301 0662 0393     		str	r3, [sp, #12]
 893:../Libraries/STM32F30x_StdPeriph_Driver/src/stm32f30x_adc.c ****   /* Check the parameters */
 894:../Libraries/STM32F30x_StdPeriph_Driver/src/stm32f30x_adc.c ****   assert_param(IS_ADC_ALL_PERIPH(ADCx));
 895:../Libraries/STM32F30x_StdPeriph_Driver/src/stm32f30x_adc.c ****   assert_param(IS_ADC_CHANNEL(ADC_Channel));
 896:../Libraries/STM32F30x_StdPeriph_Driver/src/stm32f30x_adc.c ****   /* Get the old register value */
 897:../Libraries/STM32F30x_StdPeriph_Driver/src/stm32f30x_adc.c ****   tmpreg = ADCx->AWD3CR;
 1302              		.loc 1 897 0
 1303 0664 019B     		ldr	r3, [sp, #4]
 1304 0666 D3F8A430 		ldr	r3, [r3, #164]
 1305 066a 0393     		str	r3, [sp, #12]
 898:../Libraries/STM32F30x_StdPeriph_Driver/src/stm32f30x_adc.c ****   /* Clear the Analog watchdog channel select bits */
 899:../Libraries/STM32F30x_StdPeriph_Driver/src/stm32f30x_adc.c ****   tmpreg &= ~(uint32_t)ADC_AWD3CR_AWD3CH;
 1306              		.loc 1 899 0
 1307 066c 039A     		ldr	r2, [sp, #12]
 1308 066e 4FF00103 		mov	r3, #1
 1309 0672 CFF6F873 		movt	r3, 65528
 1310 0676 1340     		ands	r3, r3, r2
 1311 0678 0393     		str	r3, [sp, #12]
 900:../Libraries/STM32F30x_StdPeriph_Driver/src/stm32f30x_adc.c ****   /* Set the Analog watchdog channel */
 901:../Libraries/STM32F30x_StdPeriph_Driver/src/stm32f30x_adc.c ****   tmpreg |= (uint32_t)1 << (ADC_Channel);
 1312              		.loc 1 901 0
 1313 067a 9DF80330 		ldrb	r3, [sp, #3]	@ zero_extendqisi2
 1314 067e 4FF00102 		mov	r2, #1
 1315 0682 02FA03F3 		lsl	r3, r2, r3
 1316 0686 039A     		ldr	r2, [sp, #12]
 1317 0688 1343     		orrs	r3, r3, r2
 1318 068a 0393     		str	r3, [sp, #12]
 902:../Libraries/STM32F30x_StdPeriph_Driver/src/stm32f30x_adc.c ****   /* Store the new register value */
 903:../Libraries/STM32F30x_StdPeriph_Driver/src/stm32f30x_adc.c ****   ADCx->AWD3CR |= tmpreg;
 1319              		.loc 1 903 0
 1320 068c 019B     		ldr	r3, [sp, #4]
 1321 068e D3F8A420 		ldr	r2, [r3, #164]
 1322 0692 039B     		ldr	r3, [sp, #12]
 1323 0694 1A43     		orrs	r2, r2, r3
 1324 0696 019B     		ldr	r3, [sp, #4]
 1325 0698 C3F8A420 		str	r2, [r3, #164]
 904:../Libraries/STM32F30x_StdPeriph_Driver/src/stm32f30x_adc.c **** }
 1326              		.loc 1 904 0
 1327 069c 04B0     		add	sp, sp, #16
 1328 069e 7047     		bx	lr
 1329              		.cfi_endproc
 1330              	.LFE136:
 1332              		.align	2
 1333              		.global	ADC_TempSensorCmd
 1334              		.thumb
 1335              		.thumb_func
 1337              	ADC_TempSensorCmd:
 1338              	.LFB137:
 905:../Libraries/STM32F30x_StdPeriph_Driver/src/stm32f30x_adc.c **** 
 906:../Libraries/STM32F30x_StdPeriph_Driver/src/stm32f30x_adc.c **** /**
 907:../Libraries/STM32F30x_StdPeriph_Driver/src/stm32f30x_adc.c ****   * @}
 908:../Libraries/STM32F30x_StdPeriph_Driver/src/stm32f30x_adc.c ****   */
 909:../Libraries/STM32F30x_StdPeriph_Driver/src/stm32f30x_adc.c **** 
 910:../Libraries/STM32F30x_StdPeriph_Driver/src/stm32f30x_adc.c **** /** @defgroup ADC_Group3 Temperature Sensor - Vrefint (Internal Reference Voltage) and VBAT managem
 911:../Libraries/STM32F30x_StdPeriph_Driver/src/stm32f30x_adc.c ****  *  @brief   Vbat, Temperature Sensor & Vrefint (Internal Reference Voltage) management function 
 912:../Libraries/STM32F30x_StdPeriph_Driver/src/stm32f30x_adc.c ****  *
 913:../Libraries/STM32F30x_StdPeriph_Driver/src/stm32f30x_adc.c **** @verbatim   
 914:../Libraries/STM32F30x_StdPeriph_Driver/src/stm32f30x_adc.c ****  ==================================================================================================
 915:../Libraries/STM32F30x_StdPeriph_Driver/src/stm32f30x_adc.c ****   ##### Temperature Sensor - Vrefint (Internal Reference Voltage) and VBAT management functions ###
 916:../Libraries/STM32F30x_StdPeriph_Driver/src/stm32f30x_adc.c ****  ==================================================================================================
 917:../Libraries/STM32F30x_StdPeriph_Driver/src/stm32f30x_adc.c **** 
 918:../Libraries/STM32F30x_StdPeriph_Driver/src/stm32f30x_adc.c ****   [..] This section provides a function allowing to enable/ disable the internal 
 919:../Libraries/STM32F30x_StdPeriph_Driver/src/stm32f30x_adc.c ****   connections between the ADC and the Vbat/2, Temperature Sensor and the Vrefint source.
 920:../Libraries/STM32F30x_StdPeriph_Driver/src/stm32f30x_adc.c **** 
 921:../Libraries/STM32F30x_StdPeriph_Driver/src/stm32f30x_adc.c ****   [..] A typical configuration to get the Temperature sensor and Vrefint channels 
 922:../Libraries/STM32F30x_StdPeriph_Driver/src/stm32f30x_adc.c ****   voltages is done following these steps :
 923:../Libraries/STM32F30x_StdPeriph_Driver/src/stm32f30x_adc.c ****    (#) Enable the internal connection of Vbat/2, Temperature sensor and Vrefint sources 
 924:../Libraries/STM32F30x_StdPeriph_Driver/src/stm32f30x_adc.c ****        with the ADC channels using:
 925:../Libraries/STM32F30x_StdPeriph_Driver/src/stm32f30x_adc.c ****       (++) ADC_TempSensorCmd()  
 926:../Libraries/STM32F30x_StdPeriph_Driver/src/stm32f30x_adc.c ****       (++) ADC_VrefintCmd() 
 927:../Libraries/STM32F30x_StdPeriph_Driver/src/stm32f30x_adc.c ****       (++) ADC_VbatCmd()  
 928:../Libraries/STM32F30x_StdPeriph_Driver/src/stm32f30x_adc.c **** 
 929:../Libraries/STM32F30x_StdPeriph_Driver/src/stm32f30x_adc.c ****    (#) select the ADC_Channel_TempSensor and/or ADC_Channel_Vrefint and/or ADC_Channel_Vbat using 
 930:../Libraries/STM32F30x_StdPeriph_Driver/src/stm32f30x_adc.c ****       (++) ADC_RegularChannelConfig() or  
 931:../Libraries/STM32F30x_StdPeriph_Driver/src/stm32f30x_adc.c ****       (++) ADC_InjectedInit() functions 
 932:../Libraries/STM32F30x_StdPeriph_Driver/src/stm32f30x_adc.c **** 
 933:../Libraries/STM32F30x_StdPeriph_Driver/src/stm32f30x_adc.c ****    (#) Get the voltage values, using:
 934:../Libraries/STM32F30x_StdPeriph_Driver/src/stm32f30x_adc.c ****       (++) ADC_GetConversionValue() or  
 935:../Libraries/STM32F30x_StdPeriph_Driver/src/stm32f30x_adc.c ****       (++) ADC_GetInjectedConversionValue().
 936:../Libraries/STM32F30x_StdPeriph_Driver/src/stm32f30x_adc.c ****  
 937:../Libraries/STM32F30x_StdPeriph_Driver/src/stm32f30x_adc.c **** @endverbatim
 938:../Libraries/STM32F30x_StdPeriph_Driver/src/stm32f30x_adc.c ****   * @{
 939:../Libraries/STM32F30x_StdPeriph_Driver/src/stm32f30x_adc.c ****   */
 940:../Libraries/STM32F30x_StdPeriph_Driver/src/stm32f30x_adc.c **** 
 941:../Libraries/STM32F30x_StdPeriph_Driver/src/stm32f30x_adc.c **** /**
 942:../Libraries/STM32F30x_StdPeriph_Driver/src/stm32f30x_adc.c ****   * @brief  Enables or disables the temperature sensor channel.
 943:../Libraries/STM32F30x_StdPeriph_Driver/src/stm32f30x_adc.c ****   * @param  ADCx: where x can be 1 or 4 to select the ADC peripheral.
 944:../Libraries/STM32F30x_StdPeriph_Driver/src/stm32f30x_adc.c ****   * @param  NewState: new state of the temperature sensor.
 945:../Libraries/STM32F30x_StdPeriph_Driver/src/stm32f30x_adc.c ****   *   This parameter can be: ENABLE or DISABLE.
 946:../Libraries/STM32F30x_StdPeriph_Driver/src/stm32f30x_adc.c ****   * @retval None
 947:../Libraries/STM32F30x_StdPeriph_Driver/src/stm32f30x_adc.c ****   */
 948:../Libraries/STM32F30x_StdPeriph_Driver/src/stm32f30x_adc.c **** void ADC_TempSensorCmd(ADC_TypeDef* ADCx, FunctionalState NewState)
 949:../Libraries/STM32F30x_StdPeriph_Driver/src/stm32f30x_adc.c **** {
 1339              		.loc 1 949 0
 1340              		.cfi_startproc
 1341              		@ args = 0, pretend = 0, frame = 8
 1342              		@ frame_needed = 0, uses_anonymous_args = 0
 1343              		@ link register save eliminated.
 1344 06a0 82B0     		sub	sp, sp, #8
 1345              	.LCFI27:
 1346              		.cfi_def_cfa_offset 8
 1347 06a2 0190     		str	r0, [sp, #4]
 1348 06a4 0B46     		mov	r3, r1
 1349 06a6 8DF80330 		strb	r3, [sp, #3]
 950:../Libraries/STM32F30x_StdPeriph_Driver/src/stm32f30x_adc.c ****   /* Check the parameters */
 951:../Libraries/STM32F30x_StdPeriph_Driver/src/stm32f30x_adc.c ****   assert_param(IS_ADC_ALL_PERIPH(ADCx));
 952:../Libraries/STM32F30x_StdPeriph_Driver/src/stm32f30x_adc.c ****   assert_param(IS_FUNCTIONAL_STATE(NewState));
 953:../Libraries/STM32F30x_StdPeriph_Driver/src/stm32f30x_adc.c **** 
 954:../Libraries/STM32F30x_StdPeriph_Driver/src/stm32f30x_adc.c ****   if((ADCx == ADC1) || (ADCx == ADC2))
 1350              		.loc 1 954 0
 1351 06aa 019B     		ldr	r3, [sp, #4]
 1352 06ac B3F1A04F 		cmp	r3, #1342177280
 1353 06b0 06D0     		beq	.L52
 1354              		.loc 1 954 0 is_stmt 0 discriminator 1
 1355 06b2 019A     		ldr	r2, [sp, #4]
 1356 06b4 4FF48073 		mov	r3, #256
 1357 06b8 C5F20003 		movt	r3, 20480
 1358 06bc 9A42     		cmp	r2, r3
 1359 06be 1DD1     		bne	.L53
 1360              	.L52:
 955:../Libraries/STM32F30x_StdPeriph_Driver/src/stm32f30x_adc.c ****   {
 956:../Libraries/STM32F30x_StdPeriph_Driver/src/stm32f30x_adc.c ****     if (NewState != DISABLE)
 1361              		.loc 1 956 0 is_stmt 1
 1362 06c0 9DF80330 		ldrb	r3, [sp, #3]	@ zero_extendqisi2
 1363 06c4 002B     		cmp	r3, #0
 1364 06c6 0CD0     		beq	.L54
 957:../Libraries/STM32F30x_StdPeriph_Driver/src/stm32f30x_adc.c ****     {
 958:../Libraries/STM32F30x_StdPeriph_Driver/src/stm32f30x_adc.c ****       /* Enable the temperature sensor channel*/
 959:../Libraries/STM32F30x_StdPeriph_Driver/src/stm32f30x_adc.c ****       ADC1_2->CCR |= ADC12_CCR_TSEN;
 1365              		.loc 1 959 0
 1366 06c8 4FF44073 		mov	r3, #768
 1367 06cc C5F20003 		movt	r3, 20480
 1368 06d0 4FF44072 		mov	r2, #768
 1369 06d4 C5F20002 		movt	r2, 20480
 1370 06d8 9268     		ldr	r2, [r2, #8]
 1371 06da 42F40002 		orr	r2, r2, #8388608
 1372 06de 9A60     		str	r2, [r3, #8]
 956:../Libraries/STM32F30x_StdPeriph_Driver/src/stm32f30x_adc.c ****     if (NewState != DISABLE)
 1373              		.loc 1 956 0
 1374 06e0 29E0     		b	.L51
 1375              	.L54:
 960:../Libraries/STM32F30x_StdPeriph_Driver/src/stm32f30x_adc.c ****     }
 961:../Libraries/STM32F30x_StdPeriph_Driver/src/stm32f30x_adc.c ****     else
 962:../Libraries/STM32F30x_StdPeriph_Driver/src/stm32f30x_adc.c ****     {
 963:../Libraries/STM32F30x_StdPeriph_Driver/src/stm32f30x_adc.c ****       /* Disable the temperature sensor channel*/
 964:../Libraries/STM32F30x_StdPeriph_Driver/src/stm32f30x_adc.c ****       ADC1_2->CCR &= ~(uint32_t)ADC12_CCR_TSEN;
 1376              		.loc 1 964 0
 1377 06e2 4FF44073 		mov	r3, #768
 1378 06e6 C5F20003 		movt	r3, 20480
 1379 06ea 4FF44072 		mov	r2, #768
 1380 06ee C5F20002 		movt	r2, 20480
 1381 06f2 9268     		ldr	r2, [r2, #8]
 1382 06f4 22F40002 		bic	r2, r2, #8388608
 1383 06f8 9A60     		str	r2, [r3, #8]
 956:../Libraries/STM32F30x_StdPeriph_Driver/src/stm32f30x_adc.c ****     if (NewState != DISABLE)
 1384              		.loc 1 956 0
 1385 06fa 1CE0     		b	.L51
 1386              	.L53:
 965:../Libraries/STM32F30x_StdPeriph_Driver/src/stm32f30x_adc.c ****     }
 966:../Libraries/STM32F30x_StdPeriph_Driver/src/stm32f30x_adc.c ****   }
 967:../Libraries/STM32F30x_StdPeriph_Driver/src/stm32f30x_adc.c ****   else
 968:../Libraries/STM32F30x_StdPeriph_Driver/src/stm32f30x_adc.c ****   {
 969:../Libraries/STM32F30x_StdPeriph_Driver/src/stm32f30x_adc.c ****     if (NewState != DISABLE)
 1387              		.loc 1 969 0
 1388 06fc 9DF80330 		ldrb	r3, [sp, #3]	@ zero_extendqisi2
 1389 0700 002B     		cmp	r3, #0
 1390 0702 0CD0     		beq	.L57
 970:../Libraries/STM32F30x_StdPeriph_Driver/src/stm32f30x_adc.c ****     {
 971:../Libraries/STM32F30x_StdPeriph_Driver/src/stm32f30x_adc.c ****       /* Enable the temperature sensor channel*/
 972:../Libraries/STM32F30x_StdPeriph_Driver/src/stm32f30x_adc.c ****       ADC3_4->CCR |= ADC34_CCR_TSEN;
 1391              		.loc 1 972 0
 1392 0704 4FF4E063 		mov	r3, #1792
 1393 0708 C5F20003 		movt	r3, 20480
 1394 070c 4FF4E062 		mov	r2, #1792
 1395 0710 C5F20002 		movt	r2, 20480
 1396 0714 9268     		ldr	r2, [r2, #8]
 1397 0716 42F40002 		orr	r2, r2, #8388608
 1398 071a 9A60     		str	r2, [r3, #8]
 1399 071c 0BE0     		b	.L51
 1400              	.L57:
 973:../Libraries/STM32F30x_StdPeriph_Driver/src/stm32f30x_adc.c ****     }
 974:../Libraries/STM32F30x_StdPeriph_Driver/src/stm32f30x_adc.c ****     else
 975:../Libraries/STM32F30x_StdPeriph_Driver/src/stm32f30x_adc.c ****     {
 976:../Libraries/STM32F30x_StdPeriph_Driver/src/stm32f30x_adc.c ****       /* Disable the temperature sensor channel*/
 977:../Libraries/STM32F30x_StdPeriph_Driver/src/stm32f30x_adc.c ****       ADC3_4->CCR &= ~(uint32_t)ADC34_CCR_TSEN;
 1401              		.loc 1 977 0
 1402 071e 4FF4E063 		mov	r3, #1792
 1403 0722 C5F20003 		movt	r3, 20480
 1404 0726 4FF4E062 		mov	r2, #1792
 1405 072a C5F20002 		movt	r2, 20480
 1406 072e 9268     		ldr	r2, [r2, #8]
 1407 0730 22F40002 		bic	r2, r2, #8388608
 1408 0734 9A60     		str	r2, [r3, #8]
 1409              	.L51:
 978:../Libraries/STM32F30x_StdPeriph_Driver/src/stm32f30x_adc.c ****     }
 979:../Libraries/STM32F30x_StdPeriph_Driver/src/stm32f30x_adc.c ****   }
 980:../Libraries/STM32F30x_StdPeriph_Driver/src/stm32f30x_adc.c **** }
 1410              		.loc 1 980 0
 1411 0736 02B0     		add	sp, sp, #8
 1412 0738 7047     		bx	lr
 1413              		.cfi_endproc
 1414              	.LFE137:
 1416 073a 00BF     		.align	2
 1417              		.global	ADC_VrefintCmd
 1418              		.thumb
 1419              		.thumb_func
 1421              	ADC_VrefintCmd:
 1422              	.LFB138:
 981:../Libraries/STM32F30x_StdPeriph_Driver/src/stm32f30x_adc.c **** 
 982:../Libraries/STM32F30x_StdPeriph_Driver/src/stm32f30x_adc.c **** /**
 983:../Libraries/STM32F30x_StdPeriph_Driver/src/stm32f30x_adc.c ****   * @brief  Enables or disables the Vrefint channel.
 984:../Libraries/STM32F30x_StdPeriph_Driver/src/stm32f30x_adc.c ****   * @param  ADCx: where x can be 1 or 4 to select the ADC peripheral.
 985:../Libraries/STM32F30x_StdPeriph_Driver/src/stm32f30x_adc.c ****   * @param  NewState: new state of the Vrefint.
 986:../Libraries/STM32F30x_StdPeriph_Driver/src/stm32f30x_adc.c ****   *   This parameter can be: ENABLE or DISABLE.
 987:../Libraries/STM32F30x_StdPeriph_Driver/src/stm32f30x_adc.c ****   * @retval None
 988:../Libraries/STM32F30x_StdPeriph_Driver/src/stm32f30x_adc.c ****   */
 989:../Libraries/STM32F30x_StdPeriph_Driver/src/stm32f30x_adc.c **** void ADC_VrefintCmd(ADC_TypeDef* ADCx, FunctionalState NewState)
 990:../Libraries/STM32F30x_StdPeriph_Driver/src/stm32f30x_adc.c **** {
 1423              		.loc 1 990 0
 1424              		.cfi_startproc
 1425              		@ args = 0, pretend = 0, frame = 8
 1426              		@ frame_needed = 0, uses_anonymous_args = 0
 1427              		@ link register save eliminated.
 1428 073c 82B0     		sub	sp, sp, #8
 1429              	.LCFI28:
 1430              		.cfi_def_cfa_offset 8
 1431 073e 0190     		str	r0, [sp, #4]
 1432 0740 0B46     		mov	r3, r1
 1433 0742 8DF80330 		strb	r3, [sp, #3]
 991:../Libraries/STM32F30x_StdPeriph_Driver/src/stm32f30x_adc.c ****   /* Check the parameters */
 992:../Libraries/STM32F30x_StdPeriph_Driver/src/stm32f30x_adc.c ****   assert_param(IS_ADC_ALL_PERIPH(ADCx));
 993:../Libraries/STM32F30x_StdPeriph_Driver/src/stm32f30x_adc.c ****   assert_param(IS_FUNCTIONAL_STATE(NewState));
 994:../Libraries/STM32F30x_StdPeriph_Driver/src/stm32f30x_adc.c **** 
 995:../Libraries/STM32F30x_StdPeriph_Driver/src/stm32f30x_adc.c ****   if((ADCx == ADC1) || (ADCx == ADC2))
 1434              		.loc 1 995 0
 1435 0746 019B     		ldr	r3, [sp, #4]
 1436 0748 B3F1A04F 		cmp	r3, #1342177280
 1437 074c 06D0     		beq	.L59
 1438              		.loc 1 995 0 is_stmt 0 discriminator 1
 1439 074e 019A     		ldr	r2, [sp, #4]
 1440 0750 4FF48073 		mov	r3, #256
 1441 0754 C5F20003 		movt	r3, 20480
 1442 0758 9A42     		cmp	r2, r3
 1443 075a 1DD1     		bne	.L60
 1444              	.L59:
 996:../Libraries/STM32F30x_StdPeriph_Driver/src/stm32f30x_adc.c ****   {
 997:../Libraries/STM32F30x_StdPeriph_Driver/src/stm32f30x_adc.c ****     if (NewState != DISABLE)
 1445              		.loc 1 997 0 is_stmt 1
 1446 075c 9DF80330 		ldrb	r3, [sp, #3]	@ zero_extendqisi2
 1447 0760 002B     		cmp	r3, #0
 1448 0762 0CD0     		beq	.L61
 998:../Libraries/STM32F30x_StdPeriph_Driver/src/stm32f30x_adc.c ****     {
 999:../Libraries/STM32F30x_StdPeriph_Driver/src/stm32f30x_adc.c ****       /* Enable the Vrefint channel*/
1000:../Libraries/STM32F30x_StdPeriph_Driver/src/stm32f30x_adc.c ****       ADC1_2->CCR |= ADC12_CCR_VREFEN;
 1449              		.loc 1 1000 0
 1450 0764 4FF44073 		mov	r3, #768
 1451 0768 C5F20003 		movt	r3, 20480
 1452 076c 4FF44072 		mov	r2, #768
 1453 0770 C5F20002 		movt	r2, 20480
 1454 0774 9268     		ldr	r2, [r2, #8]
 1455 0776 42F48002 		orr	r2, r2, #4194304
 1456 077a 9A60     		str	r2, [r3, #8]
 997:../Libraries/STM32F30x_StdPeriph_Driver/src/stm32f30x_adc.c ****     if (NewState != DISABLE)
 1457              		.loc 1 997 0
 1458 077c 29E0     		b	.L58
 1459              	.L61:
1001:../Libraries/STM32F30x_StdPeriph_Driver/src/stm32f30x_adc.c ****     }
1002:../Libraries/STM32F30x_StdPeriph_Driver/src/stm32f30x_adc.c ****     else
1003:../Libraries/STM32F30x_StdPeriph_Driver/src/stm32f30x_adc.c ****     {
1004:../Libraries/STM32F30x_StdPeriph_Driver/src/stm32f30x_adc.c ****       /* Disable the Vrefint channel*/
1005:../Libraries/STM32F30x_StdPeriph_Driver/src/stm32f30x_adc.c ****       ADC1_2->CCR &= ~(uint32_t)ADC12_CCR_VREFEN;
 1460              		.loc 1 1005 0
 1461 077e 4FF44073 		mov	r3, #768
 1462 0782 C5F20003 		movt	r3, 20480
 1463 0786 4FF44072 		mov	r2, #768
 1464 078a C5F20002 		movt	r2, 20480
 1465 078e 9268     		ldr	r2, [r2, #8]
 1466 0790 22F48002 		bic	r2, r2, #4194304
 1467 0794 9A60     		str	r2, [r3, #8]
 997:../Libraries/STM32F30x_StdPeriph_Driver/src/stm32f30x_adc.c ****     if (NewState != DISABLE)
 1468              		.loc 1 997 0
 1469 0796 1CE0     		b	.L58
 1470              	.L60:
1006:../Libraries/STM32F30x_StdPeriph_Driver/src/stm32f30x_adc.c ****     }
1007:../Libraries/STM32F30x_StdPeriph_Driver/src/stm32f30x_adc.c ****   }
1008:../Libraries/STM32F30x_StdPeriph_Driver/src/stm32f30x_adc.c ****   else
1009:../Libraries/STM32F30x_StdPeriph_Driver/src/stm32f30x_adc.c ****   {
1010:../Libraries/STM32F30x_StdPeriph_Driver/src/stm32f30x_adc.c ****     if (NewState != DISABLE)
 1471              		.loc 1 1010 0
 1472 0798 9DF80330 		ldrb	r3, [sp, #3]	@ zero_extendqisi2
 1473 079c 002B     		cmp	r3, #0
 1474 079e 0CD0     		beq	.L64
1011:../Libraries/STM32F30x_StdPeriph_Driver/src/stm32f30x_adc.c ****     {
1012:../Libraries/STM32F30x_StdPeriph_Driver/src/stm32f30x_adc.c ****       /* Enable the Vrefint channel*/
1013:../Libraries/STM32F30x_StdPeriph_Driver/src/stm32f30x_adc.c ****       ADC3_4->CCR |= ADC34_CCR_VREFEN;
 1475              		.loc 1 1013 0
 1476 07a0 4FF4E063 		mov	r3, #1792
 1477 07a4 C5F20003 		movt	r3, 20480
 1478 07a8 4FF4E062 		mov	r2, #1792
 1479 07ac C5F20002 		movt	r2, 20480
 1480 07b0 9268     		ldr	r2, [r2, #8]
 1481 07b2 42F48002 		orr	r2, r2, #4194304
 1482 07b6 9A60     		str	r2, [r3, #8]
 1483 07b8 0BE0     		b	.L58
 1484              	.L64:
1014:../Libraries/STM32F30x_StdPeriph_Driver/src/stm32f30x_adc.c ****     }
1015:../Libraries/STM32F30x_StdPeriph_Driver/src/stm32f30x_adc.c ****     else
1016:../Libraries/STM32F30x_StdPeriph_Driver/src/stm32f30x_adc.c ****     {
1017:../Libraries/STM32F30x_StdPeriph_Driver/src/stm32f30x_adc.c ****       /* Disable the Vrefint channel*/
1018:../Libraries/STM32F30x_StdPeriph_Driver/src/stm32f30x_adc.c ****       ADC3_4->CCR &= ~(uint32_t)ADC34_CCR_VREFEN;
 1485              		.loc 1 1018 0
 1486 07ba 4FF4E063 		mov	r3, #1792
 1487 07be C5F20003 		movt	r3, 20480
 1488 07c2 4FF4E062 		mov	r2, #1792
 1489 07c6 C5F20002 		movt	r2, 20480
 1490 07ca 9268     		ldr	r2, [r2, #8]
 1491 07cc 22F48002 		bic	r2, r2, #4194304
 1492 07d0 9A60     		str	r2, [r3, #8]
 1493              	.L58:
1019:../Libraries/STM32F30x_StdPeriph_Driver/src/stm32f30x_adc.c ****     }
1020:../Libraries/STM32F30x_StdPeriph_Driver/src/stm32f30x_adc.c ****   }
1021:../Libraries/STM32F30x_StdPeriph_Driver/src/stm32f30x_adc.c **** }
 1494              		.loc 1 1021 0
 1495 07d2 02B0     		add	sp, sp, #8
 1496 07d4 7047     		bx	lr
 1497              		.cfi_endproc
 1498              	.LFE138:
 1500 07d6 00BF     		.align	2
 1501              		.global	ADC_VbatCmd
 1502              		.thumb
 1503              		.thumb_func
 1505              	ADC_VbatCmd:
 1506              	.LFB139:
1022:../Libraries/STM32F30x_StdPeriph_Driver/src/stm32f30x_adc.c **** 
1023:../Libraries/STM32F30x_StdPeriph_Driver/src/stm32f30x_adc.c **** /**
1024:../Libraries/STM32F30x_StdPeriph_Driver/src/stm32f30x_adc.c ****   * @brief  Enables or disables the Vbat channel.
1025:../Libraries/STM32F30x_StdPeriph_Driver/src/stm32f30x_adc.c ****   * @param  ADCx: where x can be 1 or 4 to select the ADC peripheral.
1026:../Libraries/STM32F30x_StdPeriph_Driver/src/stm32f30x_adc.c ****   * @param  NewState: new state of the Vbat.
1027:../Libraries/STM32F30x_StdPeriph_Driver/src/stm32f30x_adc.c ****   *   This parameter can be: ENABLE or DISABLE.
1028:../Libraries/STM32F30x_StdPeriph_Driver/src/stm32f30x_adc.c ****   * @retval None
1029:../Libraries/STM32F30x_StdPeriph_Driver/src/stm32f30x_adc.c ****   */
1030:../Libraries/STM32F30x_StdPeriph_Driver/src/stm32f30x_adc.c **** void ADC_VbatCmd(ADC_TypeDef* ADCx, FunctionalState NewState)
1031:../Libraries/STM32F30x_StdPeriph_Driver/src/stm32f30x_adc.c **** {
 1507              		.loc 1 1031 0
 1508              		.cfi_startproc
 1509              		@ args = 0, pretend = 0, frame = 8
 1510              		@ frame_needed = 0, uses_anonymous_args = 0
 1511              		@ link register save eliminated.
 1512 07d8 82B0     		sub	sp, sp, #8
 1513              	.LCFI29:
 1514              		.cfi_def_cfa_offset 8
 1515 07da 0190     		str	r0, [sp, #4]
 1516 07dc 0B46     		mov	r3, r1
 1517 07de 8DF80330 		strb	r3, [sp, #3]
1032:../Libraries/STM32F30x_StdPeriph_Driver/src/stm32f30x_adc.c ****   /* Check the parameters */
1033:../Libraries/STM32F30x_StdPeriph_Driver/src/stm32f30x_adc.c ****   assert_param(IS_ADC_ALL_PERIPH(ADCx));
1034:../Libraries/STM32F30x_StdPeriph_Driver/src/stm32f30x_adc.c ****   assert_param(IS_FUNCTIONAL_STATE(NewState));
1035:../Libraries/STM32F30x_StdPeriph_Driver/src/stm32f30x_adc.c **** 
1036:../Libraries/STM32F30x_StdPeriph_Driver/src/stm32f30x_adc.c ****   if((ADCx == ADC1) || (ADCx == ADC2))
 1518              		.loc 1 1036 0
 1519 07e2 019B     		ldr	r3, [sp, #4]
 1520 07e4 B3F1A04F 		cmp	r3, #1342177280
 1521 07e8 06D0     		beq	.L66
 1522              		.loc 1 1036 0 is_stmt 0 discriminator 1
 1523 07ea 019A     		ldr	r2, [sp, #4]
 1524 07ec 4FF48073 		mov	r3, #256
 1525 07f0 C5F20003 		movt	r3, 20480
 1526 07f4 9A42     		cmp	r2, r3
 1527 07f6 1DD1     		bne	.L67
 1528              	.L66:
1037:../Libraries/STM32F30x_StdPeriph_Driver/src/stm32f30x_adc.c ****   {
1038:../Libraries/STM32F30x_StdPeriph_Driver/src/stm32f30x_adc.c ****     if (NewState != DISABLE)
 1529              		.loc 1 1038 0 is_stmt 1
 1530 07f8 9DF80330 		ldrb	r3, [sp, #3]	@ zero_extendqisi2
 1531 07fc 002B     		cmp	r3, #0
 1532 07fe 0CD0     		beq	.L68
1039:../Libraries/STM32F30x_StdPeriph_Driver/src/stm32f30x_adc.c ****     {
1040:../Libraries/STM32F30x_StdPeriph_Driver/src/stm32f30x_adc.c ****       /* Enable the Vbat channel*/
1041:../Libraries/STM32F30x_StdPeriph_Driver/src/stm32f30x_adc.c ****       ADC1_2->CCR |= ADC12_CCR_VBATEN;
 1533              		.loc 1 1041 0
 1534 0800 4FF44073 		mov	r3, #768
 1535 0804 C5F20003 		movt	r3, 20480
 1536 0808 4FF44072 		mov	r2, #768
 1537 080c C5F20002 		movt	r2, 20480
 1538 0810 9268     		ldr	r2, [r2, #8]
 1539 0812 42F08072 		orr	r2, r2, #16777216
 1540 0816 9A60     		str	r2, [r3, #8]
1038:../Libraries/STM32F30x_StdPeriph_Driver/src/stm32f30x_adc.c ****     if (NewState != DISABLE)
 1541              		.loc 1 1038 0
 1542 0818 29E0     		b	.L65
 1543              	.L68:
1042:../Libraries/STM32F30x_StdPeriph_Driver/src/stm32f30x_adc.c ****     }
1043:../Libraries/STM32F30x_StdPeriph_Driver/src/stm32f30x_adc.c ****     else
1044:../Libraries/STM32F30x_StdPeriph_Driver/src/stm32f30x_adc.c ****     {
1045:../Libraries/STM32F30x_StdPeriph_Driver/src/stm32f30x_adc.c ****       /* Disable the Vbat channel*/
1046:../Libraries/STM32F30x_StdPeriph_Driver/src/stm32f30x_adc.c ****       ADC1_2->CCR &= ~(uint32_t)ADC12_CCR_VBATEN;
 1544              		.loc 1 1046 0
 1545 081a 4FF44073 		mov	r3, #768
 1546 081e C5F20003 		movt	r3, 20480
 1547 0822 4FF44072 		mov	r2, #768
 1548 0826 C5F20002 		movt	r2, 20480
 1549 082a 9268     		ldr	r2, [r2, #8]
 1550 082c 22F08072 		bic	r2, r2, #16777216
 1551 0830 9A60     		str	r2, [r3, #8]
1038:../Libraries/STM32F30x_StdPeriph_Driver/src/stm32f30x_adc.c ****     if (NewState != DISABLE)
 1552              		.loc 1 1038 0
 1553 0832 1CE0     		b	.L65
 1554              	.L67:
1047:../Libraries/STM32F30x_StdPeriph_Driver/src/stm32f30x_adc.c ****     }
1048:../Libraries/STM32F30x_StdPeriph_Driver/src/stm32f30x_adc.c ****   }
1049:../Libraries/STM32F30x_StdPeriph_Driver/src/stm32f30x_adc.c ****   else
1050:../Libraries/STM32F30x_StdPeriph_Driver/src/stm32f30x_adc.c ****   {
1051:../Libraries/STM32F30x_StdPeriph_Driver/src/stm32f30x_adc.c ****     if (NewState != DISABLE)
 1555              		.loc 1 1051 0
 1556 0834 9DF80330 		ldrb	r3, [sp, #3]	@ zero_extendqisi2
 1557 0838 002B     		cmp	r3, #0
 1558 083a 0CD0     		beq	.L71
1052:../Libraries/STM32F30x_StdPeriph_Driver/src/stm32f30x_adc.c ****     {
1053:../Libraries/STM32F30x_StdPeriph_Driver/src/stm32f30x_adc.c ****       /* Enable the Vbat channel*/
1054:../Libraries/STM32F30x_StdPeriph_Driver/src/stm32f30x_adc.c ****       ADC3_4->CCR |= ADC34_CCR_VBATEN;
 1559              		.loc 1 1054 0
 1560 083c 4FF4E063 		mov	r3, #1792
 1561 0840 C5F20003 		movt	r3, 20480
 1562 0844 4FF4E062 		mov	r2, #1792
 1563 0848 C5F20002 		movt	r2, 20480
 1564 084c 9268     		ldr	r2, [r2, #8]
 1565 084e 42F08072 		orr	r2, r2, #16777216
 1566 0852 9A60     		str	r2, [r3, #8]
 1567 0854 0BE0     		b	.L65
 1568              	.L71:
1055:../Libraries/STM32F30x_StdPeriph_Driver/src/stm32f30x_adc.c ****     }
1056:../Libraries/STM32F30x_StdPeriph_Driver/src/stm32f30x_adc.c ****     else
1057:../Libraries/STM32F30x_StdPeriph_Driver/src/stm32f30x_adc.c ****     {
1058:../Libraries/STM32F30x_StdPeriph_Driver/src/stm32f30x_adc.c ****       /* Disable the Vbat channel*/
1059:../Libraries/STM32F30x_StdPeriph_Driver/src/stm32f30x_adc.c ****       ADC3_4->CCR &= ~(uint32_t)ADC34_CCR_VBATEN;
 1569              		.loc 1 1059 0
 1570 0856 4FF4E063 		mov	r3, #1792
 1571 085a C5F20003 		movt	r3, 20480
 1572 085e 4FF4E062 		mov	r2, #1792
 1573 0862 C5F20002 		movt	r2, 20480
 1574 0866 9268     		ldr	r2, [r2, #8]
 1575 0868 22F08072 		bic	r2, r2, #16777216
 1576 086c 9A60     		str	r2, [r3, #8]
 1577              	.L65:
1060:../Libraries/STM32F30x_StdPeriph_Driver/src/stm32f30x_adc.c ****     }
1061:../Libraries/STM32F30x_StdPeriph_Driver/src/stm32f30x_adc.c ****   }
1062:../Libraries/STM32F30x_StdPeriph_Driver/src/stm32f30x_adc.c **** }
 1578              		.loc 1 1062 0
 1579 086e 02B0     		add	sp, sp, #8
 1580 0870 7047     		bx	lr
 1581              		.cfi_endproc
 1582              	.LFE139:
 1584 0872 00BF     		.align	2
 1585              		.global	ADC_RegularChannelConfig
 1586              		.thumb
 1587              		.thumb_func
 1589              	ADC_RegularChannelConfig:
 1590              	.LFB140:
1063:../Libraries/STM32F30x_StdPeriph_Driver/src/stm32f30x_adc.c **** 
1064:../Libraries/STM32F30x_StdPeriph_Driver/src/stm32f30x_adc.c **** /**
1065:../Libraries/STM32F30x_StdPeriph_Driver/src/stm32f30x_adc.c ****   * @}
1066:../Libraries/STM32F30x_StdPeriph_Driver/src/stm32f30x_adc.c ****   */
1067:../Libraries/STM32F30x_StdPeriph_Driver/src/stm32f30x_adc.c **** 
1068:../Libraries/STM32F30x_StdPeriph_Driver/src/stm32f30x_adc.c **** /** @defgroup ADC_Group4 Regular Channels Configuration functions
1069:../Libraries/STM32F30x_StdPeriph_Driver/src/stm32f30x_adc.c ****  *  @brief   Regular Channels Configuration functions 
1070:../Libraries/STM32F30x_StdPeriph_Driver/src/stm32f30x_adc.c ****  *
1071:../Libraries/STM32F30x_StdPeriph_Driver/src/stm32f30x_adc.c **** @verbatim   
1072:../Libraries/STM32F30x_StdPeriph_Driver/src/stm32f30x_adc.c ****  ===============================================================================
1073:../Libraries/STM32F30x_StdPeriph_Driver/src/stm32f30x_adc.c ****                   ##### Channels Configuration functions #####
1074:../Libraries/STM32F30x_StdPeriph_Driver/src/stm32f30x_adc.c ****  ===============================================================================  
1075:../Libraries/STM32F30x_StdPeriph_Driver/src/stm32f30x_adc.c **** 
1076:../Libraries/STM32F30x_StdPeriph_Driver/src/stm32f30x_adc.c ****   [..] This section provides functions allowing to manage the ADC regular channels.
1077:../Libraries/STM32F30x_StdPeriph_Driver/src/stm32f30x_adc.c ****    
1078:../Libraries/STM32F30x_StdPeriph_Driver/src/stm32f30x_adc.c ****   [..] To configure a regular sequence of channels use:
1079:../Libraries/STM32F30x_StdPeriph_Driver/src/stm32f30x_adc.c ****    (#) ADC_RegularChannelConfig()
1080:../Libraries/STM32F30x_StdPeriph_Driver/src/stm32f30x_adc.c ****        this fuction allows:
1081:../Libraries/STM32F30x_StdPeriph_Driver/src/stm32f30x_adc.c ****        (++) Configure the rank in the regular group sequencer for each channel
1082:../Libraries/STM32F30x_StdPeriph_Driver/src/stm32f30x_adc.c ****        (++) Configure the sampling time for each channel
1083:../Libraries/STM32F30x_StdPeriph_Driver/src/stm32f30x_adc.c **** 
1084:../Libraries/STM32F30x_StdPeriph_Driver/src/stm32f30x_adc.c ****    (#) ADC_RegularChannelSequencerLengthConfig() to set the length of the regular sequencer
1085:../Libraries/STM32F30x_StdPeriph_Driver/src/stm32f30x_adc.c **** 
1086:../Libraries/STM32F30x_StdPeriph_Driver/src/stm32f30x_adc.c ****    [..] The regular trigger is configured using the following functions:
1087:../Libraries/STM32F30x_StdPeriph_Driver/src/stm32f30x_adc.c ****    (#) ADC_SelectExternalTrigger()
1088:../Libraries/STM32F30x_StdPeriph_Driver/src/stm32f30x_adc.c ****    (#) ADC_ExternalTriggerPolarityConfig()
1089:../Libraries/STM32F30x_StdPeriph_Driver/src/stm32f30x_adc.c **** 
1090:../Libraries/STM32F30x_StdPeriph_Driver/src/stm32f30x_adc.c ****    [..] The start and the stop conversion are controlled by:
1091:../Libraries/STM32F30x_StdPeriph_Driver/src/stm32f30x_adc.c ****    (#) ADC_StartConversion()
1092:../Libraries/STM32F30x_StdPeriph_Driver/src/stm32f30x_adc.c ****    (#) ADC_StopConversion()
1093:../Libraries/STM32F30x_StdPeriph_Driver/src/stm32f30x_adc.c ****     
1094:../Libraries/STM32F30x_StdPeriph_Driver/src/stm32f30x_adc.c ****    [..] 
1095:../Libraries/STM32F30x_StdPeriph_Driver/src/stm32f30x_adc.c ****    (@)Please Note that the following features for regular channels are configurated
1096:../Libraries/STM32F30x_StdPeriph_Driver/src/stm32f30x_adc.c ****      using the ADC_Init() function : 
1097:../Libraries/STM32F30x_StdPeriph_Driver/src/stm32f30x_adc.c ****           (++) continuous mode activation
1098:../Libraries/STM32F30x_StdPeriph_Driver/src/stm32f30x_adc.c ****           (++) Resolution  
1099:../Libraries/STM32F30x_StdPeriph_Driver/src/stm32f30x_adc.c ****           (++) Data Alignement 
1100:../Libraries/STM32F30x_StdPeriph_Driver/src/stm32f30x_adc.c ****           (++) Overrun Mode.
1101:../Libraries/STM32F30x_StdPeriph_Driver/src/stm32f30x_adc.c ****      
1102:../Libraries/STM32F30x_StdPeriph_Driver/src/stm32f30x_adc.c ****   [..] Get the conversion data: This subsection provides an important function in 
1103:../Libraries/STM32F30x_StdPeriph_Driver/src/stm32f30x_adc.c ****      the ADC peripheral since it returns the converted data of the current 
1104:../Libraries/STM32F30x_StdPeriph_Driver/src/stm32f30x_adc.c ****      regular channel. When the Conversion value is read, the EOC Flag is 
1105:../Libraries/STM32F30x_StdPeriph_Driver/src/stm32f30x_adc.c ****      automatically cleared.
1106:../Libraries/STM32F30x_StdPeriph_Driver/src/stm32f30x_adc.c **** 
1107:../Libraries/STM32F30x_StdPeriph_Driver/src/stm32f30x_adc.c ****   [..] To configure the  discontinous mode, the following functions should be used:
1108:../Libraries/STM32F30x_StdPeriph_Driver/src/stm32f30x_adc.c ****    (#) ADC_DiscModeChannelCountConfig() to configure the number of discontinuous channel to be conv
1109:../Libraries/STM32F30x_StdPeriph_Driver/src/stm32f30x_adc.c ****    (#) ADC_DiscModeCmd() to enable the discontinuous mode.
1110:../Libraries/STM32F30x_StdPeriph_Driver/src/stm32f30x_adc.c **** 
1111:../Libraries/STM32F30x_StdPeriph_Driver/src/stm32f30x_adc.c ****   [..] To configure and enable/disable the Channel offset use the functions:
1112:../Libraries/STM32F30x_StdPeriph_Driver/src/stm32f30x_adc.c ****      (++) ADC_SetChannelOffset1()
1113:../Libraries/STM32F30x_StdPeriph_Driver/src/stm32f30x_adc.c ****      (++) ADC_SetChannelOffset2()
1114:../Libraries/STM32F30x_StdPeriph_Driver/src/stm32f30x_adc.c ****      (++) ADC_SetChannelOffset3()
1115:../Libraries/STM32F30x_StdPeriph_Driver/src/stm32f30x_adc.c ****      (++) ADC_SetChannelOffset4()
1116:../Libraries/STM32F30x_StdPeriph_Driver/src/stm32f30x_adc.c ****      (++) ADC_ChannelOffset1Cmd()
1117:../Libraries/STM32F30x_StdPeriph_Driver/src/stm32f30x_adc.c ****      (++) ADC_ChannelOffset2Cmd()
1118:../Libraries/STM32F30x_StdPeriph_Driver/src/stm32f30x_adc.c ****      (++) ADC_ChannelOffset3Cmd()
1119:../Libraries/STM32F30x_StdPeriph_Driver/src/stm32f30x_adc.c ****      (++) ADC_ChannelOffset4Cmd()
1120:../Libraries/STM32F30x_StdPeriph_Driver/src/stm32f30x_adc.c ****   
1121:../Libraries/STM32F30x_StdPeriph_Driver/src/stm32f30x_adc.c **** @endverbatim
1122:../Libraries/STM32F30x_StdPeriph_Driver/src/stm32f30x_adc.c ****   * @{
1123:../Libraries/STM32F30x_StdPeriph_Driver/src/stm32f30x_adc.c ****   */
1124:../Libraries/STM32F30x_StdPeriph_Driver/src/stm32f30x_adc.c **** 
1125:../Libraries/STM32F30x_StdPeriph_Driver/src/stm32f30x_adc.c **** /**
1126:../Libraries/STM32F30x_StdPeriph_Driver/src/stm32f30x_adc.c ****   * @brief  Configures for the selected ADC regular channel its corresponding
1127:../Libraries/STM32F30x_StdPeriph_Driver/src/stm32f30x_adc.c ****   *         rank in the sequencer and its sample time.
1128:../Libraries/STM32F30x_StdPeriph_Driver/src/stm32f30x_adc.c ****   * @param  ADCx: where x can be 1, 2, 3 or 4 to select the ADC peripheral.
1129:../Libraries/STM32F30x_StdPeriph_Driver/src/stm32f30x_adc.c ****   * @param  ADC_Channel: the ADC channel to configure. 
1130:../Libraries/STM32F30x_StdPeriph_Driver/src/stm32f30x_adc.c ****   *   This parameter can be one of the following values:
1131:../Libraries/STM32F30x_StdPeriph_Driver/src/stm32f30x_adc.c ****   *     @arg ADC_Channel_1: ADC Channel1 selected
1132:../Libraries/STM32F30x_StdPeriph_Driver/src/stm32f30x_adc.c ****   *     @arg ADC_Channel_2: ADC Channel2 selected
1133:../Libraries/STM32F30x_StdPeriph_Driver/src/stm32f30x_adc.c ****   *     @arg ADC_Channel_3: ADC Channel3 selected
1134:../Libraries/STM32F30x_StdPeriph_Driver/src/stm32f30x_adc.c ****   *     @arg ADC_Channel_4: ADC Channel4 selected
1135:../Libraries/STM32F30x_StdPeriph_Driver/src/stm32f30x_adc.c ****   *     @arg ADC_Channel_5: ADC Channel5 selected
1136:../Libraries/STM32F30x_StdPeriph_Driver/src/stm32f30x_adc.c ****   *     @arg ADC_Channel_6: ADC Channel6 selected
1137:../Libraries/STM32F30x_StdPeriph_Driver/src/stm32f30x_adc.c ****   *     @arg ADC_Channel_7: ADC Channel7 selected
1138:../Libraries/STM32F30x_StdPeriph_Driver/src/stm32f30x_adc.c ****   *     @arg ADC_Channel_8: ADC Channel8 selected
1139:../Libraries/STM32F30x_StdPeriph_Driver/src/stm32f30x_adc.c ****   *     @arg ADC_Channel_9: ADC Channel9 selected
1140:../Libraries/STM32F30x_StdPeriph_Driver/src/stm32f30x_adc.c ****   *     @arg ADC_Channel_10: ADC Channel10 selected
1141:../Libraries/STM32F30x_StdPeriph_Driver/src/stm32f30x_adc.c ****   *     @arg ADC_Channel_11: ADC Channel11 selected
1142:../Libraries/STM32F30x_StdPeriph_Driver/src/stm32f30x_adc.c ****   *     @arg ADC_Channel_12: ADC Channel12 selected
1143:../Libraries/STM32F30x_StdPeriph_Driver/src/stm32f30x_adc.c ****   *     @arg ADC_Channel_13: ADC Channel13 selected
1144:../Libraries/STM32F30x_StdPeriph_Driver/src/stm32f30x_adc.c ****   *     @arg ADC_Channel_14: ADC Channel14 selected
1145:../Libraries/STM32F30x_StdPeriph_Driver/src/stm32f30x_adc.c ****   *     @arg ADC_Channel_15: ADC Channel15 selected
1146:../Libraries/STM32F30x_StdPeriph_Driver/src/stm32f30x_adc.c ****   *     @arg ADC_Channel_16: ADC Channel16 selected
1147:../Libraries/STM32F30x_StdPeriph_Driver/src/stm32f30x_adc.c ****   *     @arg ADC_Channel_17: ADC Channel17 selected
1148:../Libraries/STM32F30x_StdPeriph_Driver/src/stm32f30x_adc.c ****   *     @arg ADC_Channel_18: ADC Channel18 selected
1149:../Libraries/STM32F30x_StdPeriph_Driver/src/stm32f30x_adc.c ****   * @param  Rank: The rank in the regular group sequencer. This parameter must be between 1 to 16.
1150:../Libraries/STM32F30x_StdPeriph_Driver/src/stm32f30x_adc.c ****   * @param  ADC_SampleTime: The sample time value to be set for the selected channel. 
1151:../Libraries/STM32F30x_StdPeriph_Driver/src/stm32f30x_adc.c ****   *   This parameter can be one of the following values:
1152:../Libraries/STM32F30x_StdPeriph_Driver/src/stm32f30x_adc.c ****   *     @arg ADC_SampleTime_1Cycles5: Sample time equal to 1.5 cycles
1153:../Libraries/STM32F30x_StdPeriph_Driver/src/stm32f30x_adc.c ****   *     @arg ADC_SampleTime_2Cycles5: Sample time equal to 2.5 cycles
1154:../Libraries/STM32F30x_StdPeriph_Driver/src/stm32f30x_adc.c ****   *     @arg ADC_SampleTime_4Cycles5: Sample time equal to 4.5 cycles
1155:../Libraries/STM32F30x_StdPeriph_Driver/src/stm32f30x_adc.c ****   *     @arg ADC_SampleTime_7Cycles5: Sample time equal to 7.5 cycles	
1156:../Libraries/STM32F30x_StdPeriph_Driver/src/stm32f30x_adc.c ****   *     @arg ADC_SampleTime_19Cycles5: Sample time equal to 19.5 cycles	
1157:../Libraries/STM32F30x_StdPeriph_Driver/src/stm32f30x_adc.c ****   *     @arg ADC_SampleTime_61Cycles5: Sample time equal to 61.5 cycles	
1158:../Libraries/STM32F30x_StdPeriph_Driver/src/stm32f30x_adc.c ****   *     @arg ADC_SampleTime_181Cycles5: Sample time equal to 181.5 cycles	
1159:../Libraries/STM32F30x_StdPeriph_Driver/src/stm32f30x_adc.c ****   *     @arg ADC_SampleTime_601Cycles5: Sample time equal to 601.5 cycles	
1160:../Libraries/STM32F30x_StdPeriph_Driver/src/stm32f30x_adc.c ****   * @retval None
1161:../Libraries/STM32F30x_StdPeriph_Driver/src/stm32f30x_adc.c ****   */
1162:../Libraries/STM32F30x_StdPeriph_Driver/src/stm32f30x_adc.c **** void ADC_RegularChannelConfig(ADC_TypeDef* ADCx, uint8_t ADC_Channel, uint8_t Rank, uint8_t ADC_Sam
1163:../Libraries/STM32F30x_StdPeriph_Driver/src/stm32f30x_adc.c **** {
 1591              		.loc 1 1163 0
 1592              		.cfi_startproc
 1593              		@ args = 0, pretend = 0, frame = 16
 1594              		@ frame_needed = 0, uses_anonymous_args = 0
 1595              		@ link register save eliminated.
 1596 0874 84B0     		sub	sp, sp, #16
 1597              	.LCFI30:
 1598              		.cfi_def_cfa_offset 16
 1599 0876 0190     		str	r0, [sp, #4]
 1600 0878 8DF80310 		strb	r1, [sp, #3]
 1601 087c 8DF80220 		strb	r2, [sp, #2]
 1602 0880 8DF80130 		strb	r3, [sp, #1]
1164:../Libraries/STM32F30x_StdPeriph_Driver/src/stm32f30x_adc.c ****   uint32_t tmpreg1 = 0, tmpreg2 = 0;
 1603              		.loc 1 1164 0
 1604 0884 4FF00003 		mov	r3, #0
 1605 0888 0393     		str	r3, [sp, #12]
 1606 088a 4FF00003 		mov	r3, #0
 1607 088e 0293     		str	r3, [sp, #8]
1165:../Libraries/STM32F30x_StdPeriph_Driver/src/stm32f30x_adc.c ****   /* Check the parameters */
1166:../Libraries/STM32F30x_StdPeriph_Driver/src/stm32f30x_adc.c ****   assert_param(IS_ADC_ALL_PERIPH(ADCx));
1167:../Libraries/STM32F30x_StdPeriph_Driver/src/stm32f30x_adc.c ****   assert_param(IS_ADC_CHANNEL(ADC_Channel));
1168:../Libraries/STM32F30x_StdPeriph_Driver/src/stm32f30x_adc.c ****   assert_param(IS_ADC_SAMPLE_TIME(ADC_SampleTime));
1169:../Libraries/STM32F30x_StdPeriph_Driver/src/stm32f30x_adc.c **** 
1170:../Libraries/STM32F30x_StdPeriph_Driver/src/stm32f30x_adc.c ****   /* Regular sequence configuration */
1171:../Libraries/STM32F30x_StdPeriph_Driver/src/stm32f30x_adc.c ****   /* For Rank 1 to 4 */
1172:../Libraries/STM32F30x_StdPeriph_Driver/src/stm32f30x_adc.c ****   if (Rank < 5)
 1608              		.loc 1 1172 0
 1609 0890 9DF80230 		ldrb	r3, [sp, #2]	@ zero_extendqisi2
 1610 0894 042B     		cmp	r3, #4
 1611 0896 2AD8     		bhi	.L73
1173:../Libraries/STM32F30x_StdPeriph_Driver/src/stm32f30x_adc.c ****   {
1174:../Libraries/STM32F30x_StdPeriph_Driver/src/stm32f30x_adc.c ****     /* Get the old register value */
1175:../Libraries/STM32F30x_StdPeriph_Driver/src/stm32f30x_adc.c ****     tmpreg1 = ADCx->SQR1;
 1612              		.loc 1 1175 0
 1613 0898 019B     		ldr	r3, [sp, #4]
 1614 089a 1B6B     		ldr	r3, [r3, #48]
 1615 089c 0393     		str	r3, [sp, #12]
1176:../Libraries/STM32F30x_StdPeriph_Driver/src/stm32f30x_adc.c ****     /* Calculate the mask to clear */
1177:../Libraries/STM32F30x_StdPeriph_Driver/src/stm32f30x_adc.c ****     tmpreg2 = 0x1F << (6 * (Rank ));
 1616              		.loc 1 1177 0
 1617 089e 9DF80220 		ldrb	r2, [sp, #2]	@ zero_extendqisi2
 1618 08a2 1346     		mov	r3, r2
 1619 08a4 4FEA4303 		lsl	r3, r3, #1
 1620 08a8 9B18     		adds	r3, r3, r2
 1621 08aa 4FEA4303 		lsl	r3, r3, #1
 1622 08ae 4FF01F02 		mov	r2, #31
 1623 08b2 02FA03F3 		lsl	r3, r2, r3
 1624 08b6 0293     		str	r3, [sp, #8]
1178:../Libraries/STM32F30x_StdPeriph_Driver/src/stm32f30x_adc.c ****     /* Clear the old SQx bits for the selected rank */
1179:../Libraries/STM32F30x_StdPeriph_Driver/src/stm32f30x_adc.c ****     tmpreg1 &= ~tmpreg2;
 1625              		.loc 1 1179 0
 1626 08b8 029B     		ldr	r3, [sp, #8]
 1627 08ba 6FEA0303 		mvn	r3, r3
 1628 08be 039A     		ldr	r2, [sp, #12]
 1629 08c0 1340     		ands	r3, r3, r2
 1630 08c2 0393     		str	r3, [sp, #12]
1180:../Libraries/STM32F30x_StdPeriph_Driver/src/stm32f30x_adc.c ****     /* Calculate the mask to set */
1181:../Libraries/STM32F30x_StdPeriph_Driver/src/stm32f30x_adc.c ****     tmpreg2 = (uint32_t)(ADC_Channel) << (6 * (Rank));
 1631              		.loc 1 1181 0
 1632 08c4 9DF80310 		ldrb	r1, [sp, #3]	@ zero_extendqisi2
 1633 08c8 9DF80220 		ldrb	r2, [sp, #2]	@ zero_extendqisi2
 1634 08cc 1346     		mov	r3, r2
 1635 08ce 4FEA4303 		lsl	r3, r3, #1
 1636 08d2 9B18     		adds	r3, r3, r2
 1637 08d4 4FEA4303 		lsl	r3, r3, #1
 1638 08d8 01FA03F3 		lsl	r3, r1, r3
 1639 08dc 0293     		str	r3, [sp, #8]
1182:../Libraries/STM32F30x_StdPeriph_Driver/src/stm32f30x_adc.c ****     /* Set the SQx bits for the selected rank */
1183:../Libraries/STM32F30x_StdPeriph_Driver/src/stm32f30x_adc.c ****     tmpreg1 |= tmpreg2;
 1640              		.loc 1 1183 0
 1641 08de 039A     		ldr	r2, [sp, #12]
 1642 08e0 029B     		ldr	r3, [sp, #8]
 1643 08e2 1343     		orrs	r3, r3, r2
 1644 08e4 0393     		str	r3, [sp, #12]
1184:../Libraries/STM32F30x_StdPeriph_Driver/src/stm32f30x_adc.c ****     /* Store the new register value */
1185:../Libraries/STM32F30x_StdPeriph_Driver/src/stm32f30x_adc.c ****     ADCx->SQR1 = tmpreg1;
 1645              		.loc 1 1185 0
 1646 08e6 019B     		ldr	r3, [sp, #4]
 1647 08e8 039A     		ldr	r2, [sp, #12]
 1648 08ea 1A63     		str	r2, [r3, #48]
 1649 08ec 93E0     		b	.L74
 1650              	.L73:
1186:../Libraries/STM32F30x_StdPeriph_Driver/src/stm32f30x_adc.c ****   }
1187:../Libraries/STM32F30x_StdPeriph_Driver/src/stm32f30x_adc.c ****   /* For Rank 5 to 9 */
1188:../Libraries/STM32F30x_StdPeriph_Driver/src/stm32f30x_adc.c ****   else if (Rank < 10)
 1651              		.loc 1 1188 0
 1652 08ee 9DF80230 		ldrb	r3, [sp, #2]	@ zero_extendqisi2
 1653 08f2 092B     		cmp	r3, #9
 1654 08f4 2ED8     		bhi	.L75
1189:../Libraries/STM32F30x_StdPeriph_Driver/src/stm32f30x_adc.c ****   {
1190:../Libraries/STM32F30x_StdPeriph_Driver/src/stm32f30x_adc.c ****     /* Get the old register value */
1191:../Libraries/STM32F30x_StdPeriph_Driver/src/stm32f30x_adc.c ****     tmpreg1 = ADCx->SQR2;
 1655              		.loc 1 1191 0
 1656 08f6 019B     		ldr	r3, [sp, #4]
 1657 08f8 5B6B     		ldr	r3, [r3, #52]
 1658 08fa 0393     		str	r3, [sp, #12]
1192:../Libraries/STM32F30x_StdPeriph_Driver/src/stm32f30x_adc.c ****     /* Calculate the mask to clear */
1193:../Libraries/STM32F30x_StdPeriph_Driver/src/stm32f30x_adc.c ****     tmpreg2 = ADC_SQR2_SQ5 << (6 * (Rank - 5));
 1659              		.loc 1 1193 0
 1660 08fc 9DF80220 		ldrb	r2, [sp, #2]	@ zero_extendqisi2
 1661 0900 1346     		mov	r3, r2
 1662 0902 4FEA4303 		lsl	r3, r3, #1
 1663 0906 9B18     		adds	r3, r3, r2
 1664 0908 4FEA4303 		lsl	r3, r3, #1
 1665 090c A3F11E03 		sub	r3, r3, #30
 1666 0910 4FF01F02 		mov	r2, #31
 1667 0914 02FA03F3 		lsl	r3, r2, r3
 1668 0918 0293     		str	r3, [sp, #8]
1194:../Libraries/STM32F30x_StdPeriph_Driver/src/stm32f30x_adc.c ****     /* Clear the old SQx bits for the selected rank */
1195:../Libraries/STM32F30x_StdPeriph_Driver/src/stm32f30x_adc.c ****     tmpreg1 &= ~tmpreg2;
 1669              		.loc 1 1195 0
 1670 091a 029B     		ldr	r3, [sp, #8]
 1671 091c 6FEA0303 		mvn	r3, r3
 1672 0920 039A     		ldr	r2, [sp, #12]
 1673 0922 1340     		ands	r3, r3, r2
 1674 0924 0393     		str	r3, [sp, #12]
1196:../Libraries/STM32F30x_StdPeriph_Driver/src/stm32f30x_adc.c ****     /* Calculate the mask to set */
1197:../Libraries/STM32F30x_StdPeriph_Driver/src/stm32f30x_adc.c ****     tmpreg2 = (uint32_t)(ADC_Channel) << (6 * (Rank - 5));
 1675              		.loc 1 1197 0
 1676 0926 9DF80310 		ldrb	r1, [sp, #3]	@ zero_extendqisi2
 1677 092a 9DF80220 		ldrb	r2, [sp, #2]	@ zero_extendqisi2
 1678 092e 1346     		mov	r3, r2
 1679 0930 4FEA4303 		lsl	r3, r3, #1
 1680 0934 9B18     		adds	r3, r3, r2
 1681 0936 4FEA4303 		lsl	r3, r3, #1
 1682 093a A3F11E03 		sub	r3, r3, #30
 1683 093e 01FA03F3 		lsl	r3, r1, r3
 1684 0942 0293     		str	r3, [sp, #8]
1198:../Libraries/STM32F30x_StdPeriph_Driver/src/stm32f30x_adc.c ****     /* Set the SQx bits for the selected rank */
1199:../Libraries/STM32F30x_StdPeriph_Driver/src/stm32f30x_adc.c ****     tmpreg1 |= tmpreg2;
 1685              		.loc 1 1199 0
 1686 0944 039A     		ldr	r2, [sp, #12]
 1687 0946 029B     		ldr	r3, [sp, #8]
 1688 0948 1343     		orrs	r3, r3, r2
 1689 094a 0393     		str	r3, [sp, #12]
1200:../Libraries/STM32F30x_StdPeriph_Driver/src/stm32f30x_adc.c ****     /* Store the new register value */
1201:../Libraries/STM32F30x_StdPeriph_Driver/src/stm32f30x_adc.c ****     ADCx->SQR2 = tmpreg1;
 1690              		.loc 1 1201 0
 1691 094c 019B     		ldr	r3, [sp, #4]
 1692 094e 039A     		ldr	r2, [sp, #12]
 1693 0950 5A63     		str	r2, [r3, #52]
 1694 0952 60E0     		b	.L74
 1695              	.L75:
1202:../Libraries/STM32F30x_StdPeriph_Driver/src/stm32f30x_adc.c ****   }
1203:../Libraries/STM32F30x_StdPeriph_Driver/src/stm32f30x_adc.c ****   /* For Rank 10 to 14 */
1204:../Libraries/STM32F30x_StdPeriph_Driver/src/stm32f30x_adc.c ****   else if (Rank < 15)
 1696              		.loc 1 1204 0
 1697 0954 9DF80230 		ldrb	r3, [sp, #2]	@ zero_extendqisi2
 1698 0958 0E2B     		cmp	r3, #14
 1699 095a 2ED8     		bhi	.L76
1205:../Libraries/STM32F30x_StdPeriph_Driver/src/stm32f30x_adc.c ****   {
1206:../Libraries/STM32F30x_StdPeriph_Driver/src/stm32f30x_adc.c ****     /* Get the old register value */
1207:../Libraries/STM32F30x_StdPeriph_Driver/src/stm32f30x_adc.c ****     tmpreg1 = ADCx->SQR3;
 1700              		.loc 1 1207 0
 1701 095c 019B     		ldr	r3, [sp, #4]
 1702 095e 9B6B     		ldr	r3, [r3, #56]
 1703 0960 0393     		str	r3, [sp, #12]
1208:../Libraries/STM32F30x_StdPeriph_Driver/src/stm32f30x_adc.c ****     /* Calculate the mask to clear */
1209:../Libraries/STM32F30x_StdPeriph_Driver/src/stm32f30x_adc.c ****     tmpreg2 = ADC_SQR3_SQ10 << (6 * (Rank - 10));
 1704              		.loc 1 1209 0
 1705 0962 9DF80220 		ldrb	r2, [sp, #2]	@ zero_extendqisi2
 1706 0966 1346     		mov	r3, r2
 1707 0968 4FEA4303 		lsl	r3, r3, #1
 1708 096c 9B18     		adds	r3, r3, r2
 1709 096e 4FEA4303 		lsl	r3, r3, #1
 1710 0972 A3F13C03 		sub	r3, r3, #60
 1711 0976 4FF01F02 		mov	r2, #31
 1712 097a 02FA03F3 		lsl	r3, r2, r3
 1713 097e 0293     		str	r3, [sp, #8]
1210:../Libraries/STM32F30x_StdPeriph_Driver/src/stm32f30x_adc.c ****     /* Clear the old SQx bits for the selected rank */
1211:../Libraries/STM32F30x_StdPeriph_Driver/src/stm32f30x_adc.c ****     tmpreg1 &= ~tmpreg2;
 1714              		.loc 1 1211 0
 1715 0980 029B     		ldr	r3, [sp, #8]
 1716 0982 6FEA0303 		mvn	r3, r3
 1717 0986 039A     		ldr	r2, [sp, #12]
 1718 0988 1340     		ands	r3, r3, r2
 1719 098a 0393     		str	r3, [sp, #12]
1212:../Libraries/STM32F30x_StdPeriph_Driver/src/stm32f30x_adc.c ****     /* Calculate the mask to set */
1213:../Libraries/STM32F30x_StdPeriph_Driver/src/stm32f30x_adc.c ****     tmpreg2 = (uint32_t)(ADC_Channel) << (6 * (Rank - 10));
 1720              		.loc 1 1213 0
 1721 098c 9DF80310 		ldrb	r1, [sp, #3]	@ zero_extendqisi2
 1722 0990 9DF80220 		ldrb	r2, [sp, #2]	@ zero_extendqisi2
 1723 0994 1346     		mov	r3, r2
 1724 0996 4FEA4303 		lsl	r3, r3, #1
 1725 099a 9B18     		adds	r3, r3, r2
 1726 099c 4FEA4303 		lsl	r3, r3, #1
 1727 09a0 A3F13C03 		sub	r3, r3, #60
 1728 09a4 01FA03F3 		lsl	r3, r1, r3
 1729 09a8 0293     		str	r3, [sp, #8]
1214:../Libraries/STM32F30x_StdPeriph_Driver/src/stm32f30x_adc.c ****     /* Set the SQx bits for the selected rank */
1215:../Libraries/STM32F30x_StdPeriph_Driver/src/stm32f30x_adc.c ****     tmpreg1 |= tmpreg2;
 1730              		.loc 1 1215 0
 1731 09aa 039A     		ldr	r2, [sp, #12]
 1732 09ac 029B     		ldr	r3, [sp, #8]
 1733 09ae 1343     		orrs	r3, r3, r2
 1734 09b0 0393     		str	r3, [sp, #12]
1216:../Libraries/STM32F30x_StdPeriph_Driver/src/stm32f30x_adc.c ****     /* Store the new register value */
1217:../Libraries/STM32F30x_StdPeriph_Driver/src/stm32f30x_adc.c ****     ADCx->SQR3 = tmpreg1;
 1735              		.loc 1 1217 0
 1736 09b2 019B     		ldr	r3, [sp, #4]
 1737 09b4 039A     		ldr	r2, [sp, #12]
 1738 09b6 9A63     		str	r2, [r3, #56]
 1739 09b8 2DE0     		b	.L74
 1740              	.L76:
1218:../Libraries/STM32F30x_StdPeriph_Driver/src/stm32f30x_adc.c ****   }
1219:../Libraries/STM32F30x_StdPeriph_Driver/src/stm32f30x_adc.c ****   else 
1220:../Libraries/STM32F30x_StdPeriph_Driver/src/stm32f30x_adc.c ****   {
1221:../Libraries/STM32F30x_StdPeriph_Driver/src/stm32f30x_adc.c ****     /* Get the old register value */
1222:../Libraries/STM32F30x_StdPeriph_Driver/src/stm32f30x_adc.c ****     tmpreg1 = ADCx->SQR4;
 1741              		.loc 1 1222 0
 1742 09ba 019B     		ldr	r3, [sp, #4]
 1743 09bc DB6B     		ldr	r3, [r3, #60]
 1744 09be 0393     		str	r3, [sp, #12]
1223:../Libraries/STM32F30x_StdPeriph_Driver/src/stm32f30x_adc.c ****     /* Calculate the mask to clear */
1224:../Libraries/STM32F30x_StdPeriph_Driver/src/stm32f30x_adc.c ****     tmpreg2 = ADC_SQR3_SQ15 << (6 * (Rank - 15));
 1745              		.loc 1 1224 0
 1746 09c0 9DF80220 		ldrb	r2, [sp, #2]	@ zero_extendqisi2
 1747 09c4 1346     		mov	r3, r2
 1748 09c6 4FEA4303 		lsl	r3, r3, #1
 1749 09ca 9B18     		adds	r3, r3, r2
 1750 09cc 4FEA4303 		lsl	r3, r3, #1
 1751 09d0 A3F15A03 		sub	r3, r3, #90
 1752 09d4 4FF01F02 		mov	r2, #31
 1753 09d8 02FA03F3 		lsl	r3, r2, r3
 1754 09dc 0293     		str	r3, [sp, #8]
1225:../Libraries/STM32F30x_StdPeriph_Driver/src/stm32f30x_adc.c ****     /* Clear the old SQx bits for the selected rank */
1226:../Libraries/STM32F30x_StdPeriph_Driver/src/stm32f30x_adc.c ****     tmpreg1 &= ~tmpreg2;
 1755              		.loc 1 1226 0
 1756 09de 029B     		ldr	r3, [sp, #8]
 1757 09e0 6FEA0303 		mvn	r3, r3
 1758 09e4 039A     		ldr	r2, [sp, #12]
 1759 09e6 1340     		ands	r3, r3, r2
 1760 09e8 0393     		str	r3, [sp, #12]
1227:../Libraries/STM32F30x_StdPeriph_Driver/src/stm32f30x_adc.c ****     /* Calculate the mask to set */
1228:../Libraries/STM32F30x_StdPeriph_Driver/src/stm32f30x_adc.c ****     tmpreg2 = (uint32_t)(ADC_Channel) << (6 * (Rank - 15));
 1761              		.loc 1 1228 0
 1762 09ea 9DF80310 		ldrb	r1, [sp, #3]	@ zero_extendqisi2
 1763 09ee 9DF80220 		ldrb	r2, [sp, #2]	@ zero_extendqisi2
 1764 09f2 1346     		mov	r3, r2
 1765 09f4 4FEA4303 		lsl	r3, r3, #1
 1766 09f8 9B18     		adds	r3, r3, r2
 1767 09fa 4FEA4303 		lsl	r3, r3, #1
 1768 09fe A3F15A03 		sub	r3, r3, #90
 1769 0a02 01FA03F3 		lsl	r3, r1, r3
 1770 0a06 0293     		str	r3, [sp, #8]
1229:../Libraries/STM32F30x_StdPeriph_Driver/src/stm32f30x_adc.c ****     /* Set the SQx bits for the selected rank */
1230:../Libraries/STM32F30x_StdPeriph_Driver/src/stm32f30x_adc.c ****     tmpreg1 |= tmpreg2;
 1771              		.loc 1 1230 0
 1772 0a08 039A     		ldr	r2, [sp, #12]
 1773 0a0a 029B     		ldr	r3, [sp, #8]
 1774 0a0c 1343     		orrs	r3, r3, r2
 1775 0a0e 0393     		str	r3, [sp, #12]
1231:../Libraries/STM32F30x_StdPeriph_Driver/src/stm32f30x_adc.c ****     /* Store the new register value */
1232:../Libraries/STM32F30x_StdPeriph_Driver/src/stm32f30x_adc.c ****     ADCx->SQR4 = tmpreg1;
 1776              		.loc 1 1232 0
 1777 0a10 019B     		ldr	r3, [sp, #4]
 1778 0a12 039A     		ldr	r2, [sp, #12]
 1779 0a14 DA63     		str	r2, [r3, #60]
 1780              	.L74:
1233:../Libraries/STM32F30x_StdPeriph_Driver/src/stm32f30x_adc.c ****   }
1234:../Libraries/STM32F30x_StdPeriph_Driver/src/stm32f30x_adc.c **** 
1235:../Libraries/STM32F30x_StdPeriph_Driver/src/stm32f30x_adc.c ****   /* Channel sampling configuration */
1236:../Libraries/STM32F30x_StdPeriph_Driver/src/stm32f30x_adc.c ****   /* if ADC_Channel_10 ... ADC_Channel_18 is selected */
1237:../Libraries/STM32F30x_StdPeriph_Driver/src/stm32f30x_adc.c ****   if (ADC_Channel > ADC_Channel_9)
 1781              		.loc 1 1237 0
 1782 0a16 9DF80330 		ldrb	r3, [sp, #3]	@ zero_extendqisi2
 1783 0a1a 092B     		cmp	r3, #9
 1784 0a1c 2AD9     		bls	.L77
1238:../Libraries/STM32F30x_StdPeriph_Driver/src/stm32f30x_adc.c ****   {
1239:../Libraries/STM32F30x_StdPeriph_Driver/src/stm32f30x_adc.c ****     /* Get the old register value */
1240:../Libraries/STM32F30x_StdPeriph_Driver/src/stm32f30x_adc.c ****     tmpreg1 = ADCx->SMPR2;
 1785              		.loc 1 1240 0
 1786 0a1e 019B     		ldr	r3, [sp, #4]
 1787 0a20 9B69     		ldr	r3, [r3, #24]
 1788 0a22 0393     		str	r3, [sp, #12]
1241:../Libraries/STM32F30x_StdPeriph_Driver/src/stm32f30x_adc.c ****     /* Calculate the mask to clear */
1242:../Libraries/STM32F30x_StdPeriph_Driver/src/stm32f30x_adc.c ****     tmpreg2 = ADC_SMPR2_SMP10 << (3 * (ADC_Channel - 10));
 1789              		.loc 1 1242 0
 1790 0a24 9DF80320 		ldrb	r2, [sp, #3]	@ zero_extendqisi2
 1791 0a28 1346     		mov	r3, r2
 1792 0a2a 4FEA4303 		lsl	r3, r3, #1
 1793 0a2e 9B18     		adds	r3, r3, r2
 1794 0a30 A3F11E03 		sub	r3, r3, #30
 1795 0a34 4FF00702 		mov	r2, #7
 1796 0a38 02FA03F3 		lsl	r3, r2, r3
 1797 0a3c 0293     		str	r3, [sp, #8]
1243:../Libraries/STM32F30x_StdPeriph_Driver/src/stm32f30x_adc.c ****     /* Clear the old channel sample time */
1244:../Libraries/STM32F30x_StdPeriph_Driver/src/stm32f30x_adc.c **** 	ADCx->SMPR2 &= ~tmpreg2;
 1798              		.loc 1 1244 0
 1799 0a3e 019B     		ldr	r3, [sp, #4]
 1800 0a40 9A69     		ldr	r2, [r3, #24]
 1801 0a42 029B     		ldr	r3, [sp, #8]
 1802 0a44 6FEA0303 		mvn	r3, r3
 1803 0a48 1A40     		ands	r2, r2, r3
 1804 0a4a 019B     		ldr	r3, [sp, #4]
 1805 0a4c 9A61     		str	r2, [r3, #24]
1245:../Libraries/STM32F30x_StdPeriph_Driver/src/stm32f30x_adc.c ****     /* Calculate the mask to set */
1246:../Libraries/STM32F30x_StdPeriph_Driver/src/stm32f30x_adc.c **** 	ADCx->SMPR2 |= (uint32_t)ADC_SampleTime << (3 * (ADC_Channel - 10));
 1806              		.loc 1 1246 0
 1807 0a4e 019B     		ldr	r3, [sp, #4]
 1808 0a50 9969     		ldr	r1, [r3, #24]
 1809 0a52 9DF80100 		ldrb	r0, [sp, #1]	@ zero_extendqisi2
 1810 0a56 9DF80320 		ldrb	r2, [sp, #3]	@ zero_extendqisi2
 1811 0a5a 1346     		mov	r3, r2
 1812 0a5c 4FEA4303 		lsl	r3, r3, #1
 1813 0a60 9B18     		adds	r3, r3, r2
 1814 0a62 A3F11E03 		sub	r3, r3, #30
 1815 0a66 00FA03F3 		lsl	r3, r0, r3
 1816 0a6a 41EA0302 		orr	r2, r1, r3
 1817 0a6e 019B     		ldr	r3, [sp, #4]
 1818 0a70 9A61     		str	r2, [r3, #24]
 1819 0a72 27E0     		b	.L72
 1820              	.L77:
1247:../Libraries/STM32F30x_StdPeriph_Driver/src/stm32f30x_adc.c **** 
1248:../Libraries/STM32F30x_StdPeriph_Driver/src/stm32f30x_adc.c ****   }
1249:../Libraries/STM32F30x_StdPeriph_Driver/src/stm32f30x_adc.c ****   else /* ADC_Channel include in ADC_Channel_[0..9] */
1250:../Libraries/STM32F30x_StdPeriph_Driver/src/stm32f30x_adc.c ****   {
1251:../Libraries/STM32F30x_StdPeriph_Driver/src/stm32f30x_adc.c ****     /* Get the old register value */
1252:../Libraries/STM32F30x_StdPeriph_Driver/src/stm32f30x_adc.c ****     tmpreg1 = ADCx->SMPR1;
 1821              		.loc 1 1252 0
 1822 0a74 019B     		ldr	r3, [sp, #4]
 1823 0a76 5B69     		ldr	r3, [r3, #20]
 1824 0a78 0393     		str	r3, [sp, #12]
1253:../Libraries/STM32F30x_StdPeriph_Driver/src/stm32f30x_adc.c ****     /* Calculate the mask to clear */
1254:../Libraries/STM32F30x_StdPeriph_Driver/src/stm32f30x_adc.c ****     tmpreg2 = ADC_SMPR1_SMP1 << (3 * (ADC_Channel - 1));
 1825              		.loc 1 1254 0
 1826 0a7a 9DF80330 		ldrb	r3, [sp, #3]	@ zero_extendqisi2
 1827 0a7e 03F1FF32 		add	r2, r3, #-1
 1828 0a82 1346     		mov	r3, r2
 1829 0a84 4FEA4303 		lsl	r3, r3, #1
 1830 0a88 9B18     		adds	r3, r3, r2
 1831 0a8a 4FF03802 		mov	r2, #56
 1832 0a8e 02FA03F3 		lsl	r3, r2, r3
 1833 0a92 0293     		str	r3, [sp, #8]
1255:../Libraries/STM32F30x_StdPeriph_Driver/src/stm32f30x_adc.c ****     /* Clear the old channel sample time */
1256:../Libraries/STM32F30x_StdPeriph_Driver/src/stm32f30x_adc.c **** 	ADCx->SMPR1 &= ~tmpreg2;
 1834              		.loc 1 1256 0
 1835 0a94 019B     		ldr	r3, [sp, #4]
 1836 0a96 5A69     		ldr	r2, [r3, #20]
 1837 0a98 029B     		ldr	r3, [sp, #8]
 1838 0a9a 6FEA0303 		mvn	r3, r3
 1839 0a9e 1A40     		ands	r2, r2, r3
 1840 0aa0 019B     		ldr	r3, [sp, #4]
 1841 0aa2 5A61     		str	r2, [r3, #20]
1257:../Libraries/STM32F30x_StdPeriph_Driver/src/stm32f30x_adc.c ****     /* Calculate the mask to set */
1258:../Libraries/STM32F30x_StdPeriph_Driver/src/stm32f30x_adc.c **** 	ADCx->SMPR1 |= (uint32_t)ADC_SampleTime << (3 * (ADC_Channel));
 1842              		.loc 1 1258 0
 1843 0aa4 019B     		ldr	r3, [sp, #4]
 1844 0aa6 5969     		ldr	r1, [r3, #20]
 1845 0aa8 9DF80100 		ldrb	r0, [sp, #1]	@ zero_extendqisi2
 1846 0aac 9DF80320 		ldrb	r2, [sp, #3]	@ zero_extendqisi2
 1847 0ab0 1346     		mov	r3, r2
 1848 0ab2 4FEA4303 		lsl	r3, r3, #1
 1849 0ab6 9B18     		adds	r3, r3, r2
 1850 0ab8 00FA03F3 		lsl	r3, r0, r3
 1851 0abc 41EA0302 		orr	r2, r1, r3
 1852 0ac0 019B     		ldr	r3, [sp, #4]
 1853 0ac2 5A61     		str	r2, [r3, #20]
 1854              	.L72:
1259:../Libraries/STM32F30x_StdPeriph_Driver/src/stm32f30x_adc.c ****   }
1260:../Libraries/STM32F30x_StdPeriph_Driver/src/stm32f30x_adc.c **** }
 1855              		.loc 1 1260 0
 1856 0ac4 04B0     		add	sp, sp, #16
 1857 0ac6 7047     		bx	lr
 1858              		.cfi_endproc
 1859              	.LFE140:
 1861              		.align	2
 1862              		.global	ADC_RegularChannelSequencerLengthConfig
 1863              		.thumb
 1864              		.thumb_func
 1866              	ADC_RegularChannelSequencerLengthConfig:
 1867              	.LFB141:
1261:../Libraries/STM32F30x_StdPeriph_Driver/src/stm32f30x_adc.c **** 
1262:../Libraries/STM32F30x_StdPeriph_Driver/src/stm32f30x_adc.c **** /**
1263:../Libraries/STM32F30x_StdPeriph_Driver/src/stm32f30x_adc.c ****   * @brief  Sets the ADC regular channel sequence lenght.
1264:../Libraries/STM32F30x_StdPeriph_Driver/src/stm32f30x_adc.c ****   * @param  ADCx: where x can be 1, 2 or 3 to select the ADC peripheral.
1265:../Libraries/STM32F30x_StdPeriph_Driver/src/stm32f30x_adc.c ****   * @param  SequenceLength: The Regular sequence length. This parameter must be between 1 to 16.
1266:../Libraries/STM32F30x_StdPeriph_Driver/src/stm32f30x_adc.c ****   *   This parameter can be: ENABLE or DISABLE.
1267:../Libraries/STM32F30x_StdPeriph_Driver/src/stm32f30x_adc.c ****   * @retval None
1268:../Libraries/STM32F30x_StdPeriph_Driver/src/stm32f30x_adc.c ****   */
1269:../Libraries/STM32F30x_StdPeriph_Driver/src/stm32f30x_adc.c **** void ADC_RegularChannelSequencerLengthConfig(ADC_TypeDef* ADCx, uint8_t SequencerLength)
1270:../Libraries/STM32F30x_StdPeriph_Driver/src/stm32f30x_adc.c **** {
 1868              		.loc 1 1270 0
 1869              		.cfi_startproc
 1870              		@ args = 0, pretend = 0, frame = 8
 1871              		@ frame_needed = 0, uses_anonymous_args = 0
 1872              		@ link register save eliminated.
 1873 0ac8 82B0     		sub	sp, sp, #8
 1874              	.LCFI31:
 1875              		.cfi_def_cfa_offset 8
 1876 0aca 0190     		str	r0, [sp, #4]
 1877 0acc 0B46     		mov	r3, r1
 1878 0ace 8DF80330 		strb	r3, [sp, #3]
1271:../Libraries/STM32F30x_StdPeriph_Driver/src/stm32f30x_adc.c ****   /* Check the parameters */
1272:../Libraries/STM32F30x_StdPeriph_Driver/src/stm32f30x_adc.c ****   assert_param(IS_ADC_ALL_PERIPH(ADCx));
1273:../Libraries/STM32F30x_StdPeriph_Driver/src/stm32f30x_adc.c **** 
1274:../Libraries/STM32F30x_StdPeriph_Driver/src/stm32f30x_adc.c ****   /* Configure the ADC sequence lenght */  
1275:../Libraries/STM32F30x_StdPeriph_Driver/src/stm32f30x_adc.c ****   ADCx->SQR1 &= ~(uint32_t)ADC_SQR1_L;
 1879              		.loc 1 1275 0
 1880 0ad2 019B     		ldr	r3, [sp, #4]
 1881 0ad4 1B6B     		ldr	r3, [r3, #48]
 1882 0ad6 23F00F02 		bic	r2, r3, #15
 1883 0ada 019B     		ldr	r3, [sp, #4]
 1884 0adc 1A63     		str	r2, [r3, #48]
1276:../Libraries/STM32F30x_StdPeriph_Driver/src/stm32f30x_adc.c ****   ADCx->SQR1 |= (uint32_t)(SequencerLength - 1);   
 1885              		.loc 1 1276 0
 1886 0ade 019B     		ldr	r3, [sp, #4]
 1887 0ae0 1A6B     		ldr	r2, [r3, #48]
 1888 0ae2 9DF80330 		ldrb	r3, [sp, #3]	@ zero_extendqisi2
 1889 0ae6 03F1FF33 		add	r3, r3, #-1
 1890 0aea 1A43     		orrs	r2, r2, r3
 1891 0aec 019B     		ldr	r3, [sp, #4]
 1892 0aee 1A63     		str	r2, [r3, #48]
1277:../Libraries/STM32F30x_StdPeriph_Driver/src/stm32f30x_adc.c **** }
 1893              		.loc 1 1277 0
 1894 0af0 02B0     		add	sp, sp, #8
 1895 0af2 7047     		bx	lr
 1896              		.cfi_endproc
 1897              	.LFE141:
 1899              		.align	2
 1900              		.global	ADC_ExternalTriggerConfig
 1901              		.thumb
 1902              		.thumb_func
 1904              	ADC_ExternalTriggerConfig:
 1905              	.LFB142:
1278:../Libraries/STM32F30x_StdPeriph_Driver/src/stm32f30x_adc.c **** 
1279:../Libraries/STM32F30x_StdPeriph_Driver/src/stm32f30x_adc.c **** /**
1280:../Libraries/STM32F30x_StdPeriph_Driver/src/stm32f30x_adc.c ****   * @brief  External Trigger Enable and Polarity Selection for regular channels.
1281:../Libraries/STM32F30x_StdPeriph_Driver/src/stm32f30x_adc.c ****   * @param  ADCx: where x can be 1, 2, 3 or 4 to select the ADC peripheral.
1282:../Libraries/STM32F30x_StdPeriph_Driver/src/stm32f30x_adc.c ****   * @param  ADC_ExternalTrigConvEvent: ADC external Trigger source.
1283:../Libraries/STM32F30x_StdPeriph_Driver/src/stm32f30x_adc.c ****   *   This parameter can be one of the following values:
1284:../Libraries/STM32F30x_StdPeriph_Driver/src/stm32f30x_adc.c ****   *     @arg ADC_ExternalTrigger_Event0: External trigger event 0 
1285:../Libraries/STM32F30x_StdPeriph_Driver/src/stm32f30x_adc.c ****   *     @arg ADC_ExternalTrigger_Event1: External trigger event 1
1286:../Libraries/STM32F30x_StdPeriph_Driver/src/stm32f30x_adc.c ****   *     @arg ADC_ExternalTrigger_Event2: External trigger event 2
1287:../Libraries/STM32F30x_StdPeriph_Driver/src/stm32f30x_adc.c ****   *     @arg ADC_ExternalTrigger_Event3: External trigger event 3
1288:../Libraries/STM32F30x_StdPeriph_Driver/src/stm32f30x_adc.c ****   *     @arg ADC_ExternalTrigger_Event4: External trigger event 4 
1289:../Libraries/STM32F30x_StdPeriph_Driver/src/stm32f30x_adc.c ****   *     @arg ADC_ExternalTrigger_Event5: External trigger event 5
1290:../Libraries/STM32F30x_StdPeriph_Driver/src/stm32f30x_adc.c ****   *     @arg ADC_ExternalTrigger_Event6: External trigger event 6
1291:../Libraries/STM32F30x_StdPeriph_Driver/src/stm32f30x_adc.c ****   *     @arg ADC_ExternalTrigger_Event7: External trigger event 7
1292:../Libraries/STM32F30x_StdPeriph_Driver/src/stm32f30x_adc.c ****   *     @arg ADC_ExternalTrigger_Event8: External trigger event 8 
1293:../Libraries/STM32F30x_StdPeriph_Driver/src/stm32f30x_adc.c ****   *     @arg ADC_ExternalTrigger_Event9: External trigger event 9
1294:../Libraries/STM32F30x_StdPeriph_Driver/src/stm32f30x_adc.c ****   *     @arg ADC_ExternalTrigger_Event10: External trigger event 10
1295:../Libraries/STM32F30x_StdPeriph_Driver/src/stm32f30x_adc.c ****   *     @arg ADC_ExternalTrigger_Event11: External trigger event 11
1296:../Libraries/STM32F30x_StdPeriph_Driver/src/stm32f30x_adc.c ****   *     @arg ADC_ExternalTrigger_Event12: External trigger event 12 
1297:../Libraries/STM32F30x_StdPeriph_Driver/src/stm32f30x_adc.c ****   *     @arg ADC_ExternalTrigger_Event13: External trigger event 13
1298:../Libraries/STM32F30x_StdPeriph_Driver/src/stm32f30x_adc.c ****   *     @arg ADC_ExternalTrigger_Event14: External trigger event 14
1299:../Libraries/STM32F30x_StdPeriph_Driver/src/stm32f30x_adc.c ****   *     @arg ADC_ExternalTrigger_Event15: External trigger event 15	  
1300:../Libraries/STM32F30x_StdPeriph_Driver/src/stm32f30x_adc.c ****   * @param  ADC_ExternalTrigEventEdge: ADC external Trigger Polarity.
1301:../Libraries/STM32F30x_StdPeriph_Driver/src/stm32f30x_adc.c ****   *   This parameter can be one of the following values:
1302:../Libraries/STM32F30x_StdPeriph_Driver/src/stm32f30x_adc.c ****   *     @arg ADC_ExternalTrigEventEdge_OFF: Hardware trigger detection disabled 
1303:../Libraries/STM32F30x_StdPeriph_Driver/src/stm32f30x_adc.c ****   *                                          (conversions can be launched by software)
1304:../Libraries/STM32F30x_StdPeriph_Driver/src/stm32f30x_adc.c ****   *     @arg ADC_ExternalTrigEventEdge_RisingEdge: Hardware trigger detection on the rising edge
1305:../Libraries/STM32F30x_StdPeriph_Driver/src/stm32f30x_adc.c ****   *     @arg ADC_ExternalTrigEventEdge_FallingEdge: Hardware trigger detection on the falling edge
1306:../Libraries/STM32F30x_StdPeriph_Driver/src/stm32f30x_adc.c ****   *     @arg ADC_ExternalTrigEventEdge_BothEdge: Hardware trigger detection on both the rising and 
1307:../Libraries/STM32F30x_StdPeriph_Driver/src/stm32f30x_adc.c ****   * @retval None
1308:../Libraries/STM32F30x_StdPeriph_Driver/src/stm32f30x_adc.c ****   */
1309:../Libraries/STM32F30x_StdPeriph_Driver/src/stm32f30x_adc.c **** void ADC_ExternalTriggerConfig(ADC_TypeDef* ADCx, uint16_t ADC_ExternalTrigConvEvent, uint16_t ADC_
1310:../Libraries/STM32F30x_StdPeriph_Driver/src/stm32f30x_adc.c **** {
 1906              		.loc 1 1310 0
 1907              		.cfi_startproc
 1908              		@ args = 0, pretend = 0, frame = 8
 1909              		@ frame_needed = 0, uses_anonymous_args = 0
 1910              		@ link register save eliminated.
 1911 0af4 82B0     		sub	sp, sp, #8
 1912              	.LCFI32:
 1913              		.cfi_def_cfa_offset 8
 1914 0af6 0190     		str	r0, [sp, #4]
 1915 0af8 1346     		mov	r3, r2
 1916 0afa 0A46     		mov	r2, r1	@ movhi
 1917 0afc ADF80220 		strh	r2, [sp, #2]	@ movhi
 1918 0b00 ADF80030 		strh	r3, [sp, #0]	@ movhi
1311:../Libraries/STM32F30x_StdPeriph_Driver/src/stm32f30x_adc.c ****   /* Check the parameters */
1312:../Libraries/STM32F30x_StdPeriph_Driver/src/stm32f30x_adc.c ****   assert_param(IS_ADC_ALL_PERIPH(ADCx));
1313:../Libraries/STM32F30x_StdPeriph_Driver/src/stm32f30x_adc.c ****   assert_param(IS_ADC_EXT_TRIG(ADC_ExternalTrigConvEvent));
1314:../Libraries/STM32F30x_StdPeriph_Driver/src/stm32f30x_adc.c ****   assert_param(IS_EXTERNALTRIG_EDGE(ADC_ExternalTrigEventEdge));
1315:../Libraries/STM32F30x_StdPeriph_Driver/src/stm32f30x_adc.c **** 
1316:../Libraries/STM32F30x_StdPeriph_Driver/src/stm32f30x_adc.c ****   /* Disable the selected ADC conversion on external event */
1317:../Libraries/STM32F30x_StdPeriph_Driver/src/stm32f30x_adc.c ****   ADCx->CFGR &= ~(ADC_CFGR_EXTEN | ADC_CFGR_EXTSEL);
 1919              		.loc 1 1317 0
 1920 0b04 019B     		ldr	r3, [sp, #4]
 1921 0b06 DB68     		ldr	r3, [r3, #12]
 1922 0b08 23F47C62 		bic	r2, r3, #4032
 1923 0b0c 019B     		ldr	r3, [sp, #4]
 1924 0b0e DA60     		str	r2, [r3, #12]
1318:../Libraries/STM32F30x_StdPeriph_Driver/src/stm32f30x_adc.c ****   ADCx->CFGR |= (uint32_t)(ADC_ExternalTrigEventEdge | ADC_ExternalTrigConvEvent);
 1925              		.loc 1 1318 0
 1926 0b10 019B     		ldr	r3, [sp, #4]
 1927 0b12 DA68     		ldr	r2, [r3, #12]
 1928 0b14 BDF80010 		ldrh	r1, [sp, #0]	@ movhi
 1929 0b18 BDF80230 		ldrh	r3, [sp, #2]	@ movhi
 1930 0b1c 0B43     		orrs	r3, r3, r1
 1931 0b1e 9BB2     		uxth	r3, r3
 1932 0b20 1A43     		orrs	r2, r2, r3
 1933 0b22 019B     		ldr	r3, [sp, #4]
 1934 0b24 DA60     		str	r2, [r3, #12]
1319:../Libraries/STM32F30x_StdPeriph_Driver/src/stm32f30x_adc.c **** }
 1935              		.loc 1 1319 0
 1936 0b26 02B0     		add	sp, sp, #8
 1937 0b28 7047     		bx	lr
 1938              		.cfi_endproc
 1939              	.LFE142:
 1941 0b2a 00BF     		.align	2
 1942              		.global	ADC_StartConversion
 1943              		.thumb
 1944              		.thumb_func
 1946              	ADC_StartConversion:
 1947              	.LFB143:
1320:../Libraries/STM32F30x_StdPeriph_Driver/src/stm32f30x_adc.c **** 
1321:../Libraries/STM32F30x_StdPeriph_Driver/src/stm32f30x_adc.c **** /**
1322:../Libraries/STM32F30x_StdPeriph_Driver/src/stm32f30x_adc.c ****   * @brief  Enables or disables the selected ADC start conversion .
1323:../Libraries/STM32F30x_StdPeriph_Driver/src/stm32f30x_adc.c ****   * @param  ADCx: where x can be 1, 2, 3 or 4 to select the ADC peripheral.
1324:../Libraries/STM32F30x_StdPeriph_Driver/src/stm32f30x_adc.c ****   * @retval None
1325:../Libraries/STM32F30x_StdPeriph_Driver/src/stm32f30x_adc.c ****   */
1326:../Libraries/STM32F30x_StdPeriph_Driver/src/stm32f30x_adc.c **** void ADC_StartConversion(ADC_TypeDef* ADCx)
1327:../Libraries/STM32F30x_StdPeriph_Driver/src/stm32f30x_adc.c **** {
 1948              		.loc 1 1327 0
 1949              		.cfi_startproc
 1950              		@ args = 0, pretend = 0, frame = 8
 1951              		@ frame_needed = 0, uses_anonymous_args = 0
 1952              		@ link register save eliminated.
 1953 0b2c 82B0     		sub	sp, sp, #8
 1954              	.LCFI33:
 1955              		.cfi_def_cfa_offset 8
 1956 0b2e 0190     		str	r0, [sp, #4]
1328:../Libraries/STM32F30x_StdPeriph_Driver/src/stm32f30x_adc.c ****   /* Check the parameters */
1329:../Libraries/STM32F30x_StdPeriph_Driver/src/stm32f30x_adc.c ****   assert_param(IS_ADC_ALL_PERIPH(ADCx));
1330:../Libraries/STM32F30x_StdPeriph_Driver/src/stm32f30x_adc.c **** 
1331:../Libraries/STM32F30x_StdPeriph_Driver/src/stm32f30x_adc.c ****   /* Set the ADSTART bit */
1332:../Libraries/STM32F30x_StdPeriph_Driver/src/stm32f30x_adc.c ****   ADCx->CR |= ADC_CR_ADSTART;
 1957              		.loc 1 1332 0
 1958 0b30 019B     		ldr	r3, [sp, #4]
 1959 0b32 9B68     		ldr	r3, [r3, #8]
 1960 0b34 43F00402 		orr	r2, r3, #4
 1961 0b38 019B     		ldr	r3, [sp, #4]
 1962 0b3a 9A60     		str	r2, [r3, #8]
1333:../Libraries/STM32F30x_StdPeriph_Driver/src/stm32f30x_adc.c **** }
 1963              		.loc 1 1333 0
 1964 0b3c 02B0     		add	sp, sp, #8
 1965 0b3e 7047     		bx	lr
 1966              		.cfi_endproc
 1967              	.LFE143:
 1969              		.align	2
 1970              		.global	ADC_GetStartConversionStatus
 1971              		.thumb
 1972              		.thumb_func
 1974              	ADC_GetStartConversionStatus:
 1975              	.LFB144:
1334:../Libraries/STM32F30x_StdPeriph_Driver/src/stm32f30x_adc.c **** 
1335:../Libraries/STM32F30x_StdPeriph_Driver/src/stm32f30x_adc.c **** /**
1336:../Libraries/STM32F30x_StdPeriph_Driver/src/stm32f30x_adc.c ****   * @brief  Gets the selected ADC start conversion Status.
1337:../Libraries/STM32F30x_StdPeriph_Driver/src/stm32f30x_adc.c ****   * @param  ADCx: where x can be 1, 2, 3 or 4 to select the ADC peripheral.
1338:../Libraries/STM32F30x_StdPeriph_Driver/src/stm32f30x_adc.c ****   * @retval The new state of ADC start conversion (SET or RESET).
1339:../Libraries/STM32F30x_StdPeriph_Driver/src/stm32f30x_adc.c ****   */
1340:../Libraries/STM32F30x_StdPeriph_Driver/src/stm32f30x_adc.c **** FlagStatus ADC_GetStartConversionStatus(ADC_TypeDef* ADCx)
1341:../Libraries/STM32F30x_StdPeriph_Driver/src/stm32f30x_adc.c **** {
 1976              		.loc 1 1341 0
 1977              		.cfi_startproc
 1978              		@ args = 0, pretend = 0, frame = 16
 1979              		@ frame_needed = 0, uses_anonymous_args = 0
 1980              		@ link register save eliminated.
 1981 0b40 84B0     		sub	sp, sp, #16
 1982              	.LCFI34:
 1983              		.cfi_def_cfa_offset 16
 1984 0b42 0190     		str	r0, [sp, #4]
1342:../Libraries/STM32F30x_StdPeriph_Driver/src/stm32f30x_adc.c ****   FlagStatus bitstatus = RESET;
 1985              		.loc 1 1342 0
 1986 0b44 4FF00003 		mov	r3, #0
 1987 0b48 8DF80F30 		strb	r3, [sp, #15]
1343:../Libraries/STM32F30x_StdPeriph_Driver/src/stm32f30x_adc.c ****   /* Check the parameters */
1344:../Libraries/STM32F30x_StdPeriph_Driver/src/stm32f30x_adc.c ****   assert_param(IS_ADC_ALL_PERIPH(ADCx));
1345:../Libraries/STM32F30x_StdPeriph_Driver/src/stm32f30x_adc.c ****   /* Check the status of ADSTART bit */
1346:../Libraries/STM32F30x_StdPeriph_Driver/src/stm32f30x_adc.c ****   if ((ADCx->CR & ADC_CR_ADSTART) != (uint32_t)RESET)
 1988              		.loc 1 1346 0
 1989 0b4c 019B     		ldr	r3, [sp, #4]
 1990 0b4e 9B68     		ldr	r3, [r3, #8]
 1991 0b50 03F00403 		and	r3, r3, #4
 1992 0b54 002B     		cmp	r3, #0
 1993 0b56 04D0     		beq	.L83
1347:../Libraries/STM32F30x_StdPeriph_Driver/src/stm32f30x_adc.c ****   {
1348:../Libraries/STM32F30x_StdPeriph_Driver/src/stm32f30x_adc.c ****     /* ADSTART bit is set */
1349:../Libraries/STM32F30x_StdPeriph_Driver/src/stm32f30x_adc.c ****     bitstatus = SET;
 1994              		.loc 1 1349 0
 1995 0b58 4FF00103 		mov	r3, #1
 1996 0b5c 8DF80F30 		strb	r3, [sp, #15]
 1997 0b60 03E0     		b	.L84
 1998              	.L83:
1350:../Libraries/STM32F30x_StdPeriph_Driver/src/stm32f30x_adc.c ****   }
1351:../Libraries/STM32F30x_StdPeriph_Driver/src/stm32f30x_adc.c ****   else
1352:../Libraries/STM32F30x_StdPeriph_Driver/src/stm32f30x_adc.c ****   {
1353:../Libraries/STM32F30x_StdPeriph_Driver/src/stm32f30x_adc.c ****     /* ADSTART bit is reset */
1354:../Libraries/STM32F30x_StdPeriph_Driver/src/stm32f30x_adc.c ****     bitstatus = RESET;
 1999              		.loc 1 1354 0
 2000 0b62 4FF00003 		mov	r3, #0
 2001 0b66 8DF80F30 		strb	r3, [sp, #15]
 2002              	.L84:
1355:../Libraries/STM32F30x_StdPeriph_Driver/src/stm32f30x_adc.c ****   }
1356:../Libraries/STM32F30x_StdPeriph_Driver/src/stm32f30x_adc.c ****   /* Return the ADSTART bit status */
1357:../Libraries/STM32F30x_StdPeriph_Driver/src/stm32f30x_adc.c ****   return  bitstatus;
 2003              		.loc 1 1357 0
 2004 0b6a 9DF80F30 		ldrb	r3, [sp, #15]	@ zero_extendqisi2
1358:../Libraries/STM32F30x_StdPeriph_Driver/src/stm32f30x_adc.c **** }
 2005              		.loc 1 1358 0
 2006 0b6e 1846     		mov	r0, r3
 2007 0b70 04B0     		add	sp, sp, #16
 2008 0b72 7047     		bx	lr
 2009              		.cfi_endproc
 2010              	.LFE144:
 2012              		.align	2
 2013              		.global	ADC_StopConversion
 2014              		.thumb
 2015              		.thumb_func
 2017              	ADC_StopConversion:
 2018              	.LFB145:
1359:../Libraries/STM32F30x_StdPeriph_Driver/src/stm32f30x_adc.c **** 
1360:../Libraries/STM32F30x_StdPeriph_Driver/src/stm32f30x_adc.c **** /**
1361:../Libraries/STM32F30x_StdPeriph_Driver/src/stm32f30x_adc.c ****   * @brief  Stops the selected ADC ongoing conversion.
1362:../Libraries/STM32F30x_StdPeriph_Driver/src/stm32f30x_adc.c ****   * @param  ADCx: where x can be 1, 2, 3 or 4 to select the ADC peripheral.
1363:../Libraries/STM32F30x_StdPeriph_Driver/src/stm32f30x_adc.c ****   * @retval None
1364:../Libraries/STM32F30x_StdPeriph_Driver/src/stm32f30x_adc.c ****   */
1365:../Libraries/STM32F30x_StdPeriph_Driver/src/stm32f30x_adc.c **** void ADC_StopConversion(ADC_TypeDef* ADCx)
1366:../Libraries/STM32F30x_StdPeriph_Driver/src/stm32f30x_adc.c **** {
 2019              		.loc 1 1366 0
 2020              		.cfi_startproc
 2021              		@ args = 0, pretend = 0, frame = 8
 2022              		@ frame_needed = 0, uses_anonymous_args = 0
 2023              		@ link register save eliminated.
 2024 0b74 82B0     		sub	sp, sp, #8
 2025              	.LCFI35:
 2026              		.cfi_def_cfa_offset 8
 2027 0b76 0190     		str	r0, [sp, #4]
1367:../Libraries/STM32F30x_StdPeriph_Driver/src/stm32f30x_adc.c ****   /* Check the parameters */
1368:../Libraries/STM32F30x_StdPeriph_Driver/src/stm32f30x_adc.c ****   assert_param(IS_ADC_ALL_PERIPH(ADCx));
1369:../Libraries/STM32F30x_StdPeriph_Driver/src/stm32f30x_adc.c **** 
1370:../Libraries/STM32F30x_StdPeriph_Driver/src/stm32f30x_adc.c ****   /* Set the ADSTP bit */
1371:../Libraries/STM32F30x_StdPeriph_Driver/src/stm32f30x_adc.c ****    ADCx->CR |= ADC_CR_ADSTP;
 2028              		.loc 1 1371 0
 2029 0b78 019B     		ldr	r3, [sp, #4]
 2030 0b7a 9B68     		ldr	r3, [r3, #8]
 2031 0b7c 43F01002 		orr	r2, r3, #16
 2032 0b80 019B     		ldr	r3, [sp, #4]
 2033 0b82 9A60     		str	r2, [r3, #8]
1372:../Libraries/STM32F30x_StdPeriph_Driver/src/stm32f30x_adc.c **** }
 2034              		.loc 1 1372 0
 2035 0b84 02B0     		add	sp, sp, #8
 2036 0b86 7047     		bx	lr
 2037              		.cfi_endproc
 2038              	.LFE145:
 2040              		.align	2
 2041              		.global	ADC_DiscModeChannelCountConfig
 2042              		.thumb
 2043              		.thumb_func
 2045              	ADC_DiscModeChannelCountConfig:
 2046              	.LFB146:
1373:../Libraries/STM32F30x_StdPeriph_Driver/src/stm32f30x_adc.c **** 
1374:../Libraries/STM32F30x_StdPeriph_Driver/src/stm32f30x_adc.c **** 
1375:../Libraries/STM32F30x_StdPeriph_Driver/src/stm32f30x_adc.c **** /**
1376:../Libraries/STM32F30x_StdPeriph_Driver/src/stm32f30x_adc.c ****   * @brief  Configures the discontinuous mode for the selected ADC regular
1377:../Libraries/STM32F30x_StdPeriph_Driver/src/stm32f30x_adc.c ****   *         group channel.
1378:../Libraries/STM32F30x_StdPeriph_Driver/src/stm32f30x_adc.c ****   * @param  ADCx: where x can be 1, 2, 3 or 4 to select the ADC peripheral.
1379:../Libraries/STM32F30x_StdPeriph_Driver/src/stm32f30x_adc.c ****   * @param  Number: specifies the discontinuous mode regular channel
1380:../Libraries/STM32F30x_StdPeriph_Driver/src/stm32f30x_adc.c ****   *         count value. This number must be between 1 and 8.
1381:../Libraries/STM32F30x_StdPeriph_Driver/src/stm32f30x_adc.c ****   * @retval None
1382:../Libraries/STM32F30x_StdPeriph_Driver/src/stm32f30x_adc.c ****   */
1383:../Libraries/STM32F30x_StdPeriph_Driver/src/stm32f30x_adc.c **** void ADC_DiscModeChannelCountConfig(ADC_TypeDef* ADCx, uint8_t Number)
1384:../Libraries/STM32F30x_StdPeriph_Driver/src/stm32f30x_adc.c **** {
 2047              		.loc 1 1384 0
 2048              		.cfi_startproc
 2049              		@ args = 0, pretend = 0, frame = 16
 2050              		@ frame_needed = 0, uses_anonymous_args = 0
 2051              		@ link register save eliminated.
 2052 0b88 84B0     		sub	sp, sp, #16
 2053              	.LCFI36:
 2054              		.cfi_def_cfa_offset 16
 2055 0b8a 0190     		str	r0, [sp, #4]
 2056 0b8c 0B46     		mov	r3, r1
 2057 0b8e 8DF80330 		strb	r3, [sp, #3]
1385:../Libraries/STM32F30x_StdPeriph_Driver/src/stm32f30x_adc.c ****   uint32_t tmpreg1 = 0;
 2058              		.loc 1 1385 0
 2059 0b92 4FF00003 		mov	r3, #0
 2060 0b96 0393     		str	r3, [sp, #12]
1386:../Libraries/STM32F30x_StdPeriph_Driver/src/stm32f30x_adc.c ****   uint32_t tmpreg2 = 0;
 2061              		.loc 1 1386 0
 2062 0b98 4FF00003 		mov	r3, #0
 2063 0b9c 0293     		str	r3, [sp, #8]
1387:../Libraries/STM32F30x_StdPeriph_Driver/src/stm32f30x_adc.c ****   /* Check the parameters */
1388:../Libraries/STM32F30x_StdPeriph_Driver/src/stm32f30x_adc.c ****   assert_param(IS_ADC_ALL_PERIPH(ADCx));
1389:../Libraries/STM32F30x_StdPeriph_Driver/src/stm32f30x_adc.c ****   assert_param(IS_ADC_REGULAR_DISC_NUMBER(Number));
1390:../Libraries/STM32F30x_StdPeriph_Driver/src/stm32f30x_adc.c ****   /* Get the old register value */
1391:../Libraries/STM32F30x_StdPeriph_Driver/src/stm32f30x_adc.c ****   tmpreg1 = ADCx->CFGR;
 2064              		.loc 1 1391 0
 2065 0b9e 019B     		ldr	r3, [sp, #4]
 2066 0ba0 DB68     		ldr	r3, [r3, #12]
 2067 0ba2 0393     		str	r3, [sp, #12]
1392:../Libraries/STM32F30x_StdPeriph_Driver/src/stm32f30x_adc.c ****   /* Clear the old discontinuous mode channel count */
1393:../Libraries/STM32F30x_StdPeriph_Driver/src/stm32f30x_adc.c ****   tmpreg1 &= ~(uint32_t)(ADC_CFGR_DISCNUM);
 2068              		.loc 1 1393 0
 2069 0ba4 039B     		ldr	r3, [sp, #12]
 2070 0ba6 23F46023 		bic	r3, r3, #917504
 2071 0baa 0393     		str	r3, [sp, #12]
1394:../Libraries/STM32F30x_StdPeriph_Driver/src/stm32f30x_adc.c ****   /* Set the discontinuous mode channel count */
1395:../Libraries/STM32F30x_StdPeriph_Driver/src/stm32f30x_adc.c ****   tmpreg2 = Number - 1;
 2072              		.loc 1 1395 0
 2073 0bac 9DF80330 		ldrb	r3, [sp, #3]	@ zero_extendqisi2
 2074 0bb0 03F1FF33 		add	r3, r3, #-1
 2075 0bb4 0293     		str	r3, [sp, #8]
1396:../Libraries/STM32F30x_StdPeriph_Driver/src/stm32f30x_adc.c ****   tmpreg1 |= tmpreg2 << 17;
 2076              		.loc 1 1396 0
 2077 0bb6 029B     		ldr	r3, [sp, #8]
 2078 0bb8 4FEA4343 		lsl	r3, r3, #17
 2079 0bbc 039A     		ldr	r2, [sp, #12]
 2080 0bbe 1343     		orrs	r3, r3, r2
 2081 0bc0 0393     		str	r3, [sp, #12]
1397:../Libraries/STM32F30x_StdPeriph_Driver/src/stm32f30x_adc.c ****   /* Store the new register value */
1398:../Libraries/STM32F30x_StdPeriph_Driver/src/stm32f30x_adc.c ****   ADCx->CFGR = tmpreg1;
 2082              		.loc 1 1398 0
 2083 0bc2 019B     		ldr	r3, [sp, #4]
 2084 0bc4 039A     		ldr	r2, [sp, #12]
 2085 0bc6 DA60     		str	r2, [r3, #12]
1399:../Libraries/STM32F30x_StdPeriph_Driver/src/stm32f30x_adc.c **** }
 2086              		.loc 1 1399 0
 2087 0bc8 04B0     		add	sp, sp, #16
 2088 0bca 7047     		bx	lr
 2089              		.cfi_endproc
 2090              	.LFE146:
 2092              		.align	2
 2093              		.global	ADC_DiscModeCmd
 2094              		.thumb
 2095              		.thumb_func
 2097              	ADC_DiscModeCmd:
 2098              	.LFB147:
1400:../Libraries/STM32F30x_StdPeriph_Driver/src/stm32f30x_adc.c **** 
1401:../Libraries/STM32F30x_StdPeriph_Driver/src/stm32f30x_adc.c **** /**
1402:../Libraries/STM32F30x_StdPeriph_Driver/src/stm32f30x_adc.c ****   * @brief  Enables or disables the discontinuous mode on regular group
1403:../Libraries/STM32F30x_StdPeriph_Driver/src/stm32f30x_adc.c ****   *         channel for the specified ADC
1404:../Libraries/STM32F30x_StdPeriph_Driver/src/stm32f30x_adc.c ****   * @param  ADCx: where x can be 1, 2, 3 or 4 to select the ADC peripheral.
1405:../Libraries/STM32F30x_StdPeriph_Driver/src/stm32f30x_adc.c ****   * @param  NewState: new state of the selected ADC discontinuous mode
1406:../Libraries/STM32F30x_StdPeriph_Driver/src/stm32f30x_adc.c ****   *         on regular group channel.
1407:../Libraries/STM32F30x_StdPeriph_Driver/src/stm32f30x_adc.c ****   *         This parameter can be: ENABLE or DISABLE.
1408:../Libraries/STM32F30x_StdPeriph_Driver/src/stm32f30x_adc.c ****   * @retval None
1409:../Libraries/STM32F30x_StdPeriph_Driver/src/stm32f30x_adc.c ****   */
1410:../Libraries/STM32F30x_StdPeriph_Driver/src/stm32f30x_adc.c **** void ADC_DiscModeCmd(ADC_TypeDef* ADCx, FunctionalState NewState)
1411:../Libraries/STM32F30x_StdPeriph_Driver/src/stm32f30x_adc.c **** {
 2099              		.loc 1 1411 0
 2100              		.cfi_startproc
 2101              		@ args = 0, pretend = 0, frame = 8
 2102              		@ frame_needed = 0, uses_anonymous_args = 0
 2103              		@ link register save eliminated.
 2104 0bcc 82B0     		sub	sp, sp, #8
 2105              	.LCFI37:
 2106              		.cfi_def_cfa_offset 8
 2107 0bce 0190     		str	r0, [sp, #4]
 2108 0bd0 0B46     		mov	r3, r1
 2109 0bd2 8DF80330 		strb	r3, [sp, #3]
1412:../Libraries/STM32F30x_StdPeriph_Driver/src/stm32f30x_adc.c ****   /* Check the parameters */
1413:../Libraries/STM32F30x_StdPeriph_Driver/src/stm32f30x_adc.c ****   assert_param(IS_ADC_ALL_PERIPH(ADCx));
1414:../Libraries/STM32F30x_StdPeriph_Driver/src/stm32f30x_adc.c ****   assert_param(IS_FUNCTIONAL_STATE(NewState));
1415:../Libraries/STM32F30x_StdPeriph_Driver/src/stm32f30x_adc.c ****   if (NewState != DISABLE)
 2110              		.loc 1 1415 0
 2111 0bd6 9DF80330 		ldrb	r3, [sp, #3]	@ zero_extendqisi2
 2112 0bda 002B     		cmp	r3, #0
 2113 0bdc 06D0     		beq	.L88
1416:../Libraries/STM32F30x_StdPeriph_Driver/src/stm32f30x_adc.c ****   {
1417:../Libraries/STM32F30x_StdPeriph_Driver/src/stm32f30x_adc.c ****     /* Enable the selected ADC regular discontinuous mode */
1418:../Libraries/STM32F30x_StdPeriph_Driver/src/stm32f30x_adc.c ****     ADCx->CFGR |= ADC_CFGR_DISCEN;
 2114              		.loc 1 1418 0
 2115 0bde 019B     		ldr	r3, [sp, #4]
 2116 0be0 DB68     		ldr	r3, [r3, #12]
 2117 0be2 43F48032 		orr	r2, r3, #65536
 2118 0be6 019B     		ldr	r3, [sp, #4]
 2119 0be8 DA60     		str	r2, [r3, #12]
 2120 0bea 05E0     		b	.L87
 2121              	.L88:
1419:../Libraries/STM32F30x_StdPeriph_Driver/src/stm32f30x_adc.c ****   }
1420:../Libraries/STM32F30x_StdPeriph_Driver/src/stm32f30x_adc.c ****   else
1421:../Libraries/STM32F30x_StdPeriph_Driver/src/stm32f30x_adc.c ****   {
1422:../Libraries/STM32F30x_StdPeriph_Driver/src/stm32f30x_adc.c ****     /* Disable the selected ADC regular discontinuous mode */
1423:../Libraries/STM32F30x_StdPeriph_Driver/src/stm32f30x_adc.c ****     ADCx->CFGR &= ~(uint32_t)(ADC_CFGR_DISCEN);
 2122              		.loc 1 1423 0
 2123 0bec 019B     		ldr	r3, [sp, #4]
 2124 0bee DB68     		ldr	r3, [r3, #12]
 2125 0bf0 23F48032 		bic	r2, r3, #65536
 2126 0bf4 019B     		ldr	r3, [sp, #4]
 2127 0bf6 DA60     		str	r2, [r3, #12]
 2128              	.L87:
1424:../Libraries/STM32F30x_StdPeriph_Driver/src/stm32f30x_adc.c ****   }
1425:../Libraries/STM32F30x_StdPeriph_Driver/src/stm32f30x_adc.c **** }
 2129              		.loc 1 1425 0
 2130 0bf8 02B0     		add	sp, sp, #8
 2131 0bfa 7047     		bx	lr
 2132              		.cfi_endproc
 2133              	.LFE147:
 2135              		.align	2
 2136              		.global	ADC_GetConversionValue
 2137              		.thumb
 2138              		.thumb_func
 2140              	ADC_GetConversionValue:
 2141              	.LFB148:
1426:../Libraries/STM32F30x_StdPeriph_Driver/src/stm32f30x_adc.c **** 
1427:../Libraries/STM32F30x_StdPeriph_Driver/src/stm32f30x_adc.c **** /**
1428:../Libraries/STM32F30x_StdPeriph_Driver/src/stm32f30x_adc.c ****   * @brief  Returns the last ADCx conversion result data for regular channel.
1429:../Libraries/STM32F30x_StdPeriph_Driver/src/stm32f30x_adc.c ****   * @param  ADCx: where x can be 1, 2, 3 or 4 to select the ADC peripheral.
1430:../Libraries/STM32F30x_StdPeriph_Driver/src/stm32f30x_adc.c ****   * @retval The Data conversion value.
1431:../Libraries/STM32F30x_StdPeriph_Driver/src/stm32f30x_adc.c ****   */
1432:../Libraries/STM32F30x_StdPeriph_Driver/src/stm32f30x_adc.c **** uint16_t ADC_GetConversionValue(ADC_TypeDef* ADCx)
1433:../Libraries/STM32F30x_StdPeriph_Driver/src/stm32f30x_adc.c **** {
 2142              		.loc 1 1433 0
 2143              		.cfi_startproc
 2144              		@ args = 0, pretend = 0, frame = 8
 2145              		@ frame_needed = 0, uses_anonymous_args = 0
 2146              		@ link register save eliminated.
 2147 0bfc 82B0     		sub	sp, sp, #8
 2148              	.LCFI38:
 2149              		.cfi_def_cfa_offset 8
 2150 0bfe 0190     		str	r0, [sp, #4]
1434:../Libraries/STM32F30x_StdPeriph_Driver/src/stm32f30x_adc.c ****   /* Check the parameters */
1435:../Libraries/STM32F30x_StdPeriph_Driver/src/stm32f30x_adc.c ****   assert_param(IS_ADC_ALL_PERIPH(ADCx));
1436:../Libraries/STM32F30x_StdPeriph_Driver/src/stm32f30x_adc.c ****   /* Return the selected ADC conversion value */
1437:../Libraries/STM32F30x_StdPeriph_Driver/src/stm32f30x_adc.c ****   return (uint16_t) ADCx->DR;
 2151              		.loc 1 1437 0
 2152 0c00 019B     		ldr	r3, [sp, #4]
 2153 0c02 1B6C     		ldr	r3, [r3, #64]
 2154 0c04 9BB2     		uxth	r3, r3
1438:../Libraries/STM32F30x_StdPeriph_Driver/src/stm32f30x_adc.c **** }
 2155              		.loc 1 1438 0
 2156 0c06 1846     		mov	r0, r3
 2157 0c08 02B0     		add	sp, sp, #8
 2158 0c0a 7047     		bx	lr
 2159              		.cfi_endproc
 2160              	.LFE148:
 2162              		.align	2
 2163              		.global	ADC_GetDualModeConversionValue
 2164              		.thumb
 2165              		.thumb_func
 2167              	ADC_GetDualModeConversionValue:
 2168              	.LFB149:
1439:../Libraries/STM32F30x_StdPeriph_Driver/src/stm32f30x_adc.c **** 
1440:../Libraries/STM32F30x_StdPeriph_Driver/src/stm32f30x_adc.c **** /**
1441:../Libraries/STM32F30x_StdPeriph_Driver/src/stm32f30x_adc.c ****   * @brief  Returns the last ADC1, ADC2, ADC3 and ADC4 regular conversions results 
1442:../Libraries/STM32F30x_StdPeriph_Driver/src/stm32f30x_adc.c ****   *         data in the selected dual mode.
1443:../Libraries/STM32F30x_StdPeriph_Driver/src/stm32f30x_adc.c ****   * @param  ADCx: where x can be 1, 2, 3 or 4 to select the ADC peripheral.  
1444:../Libraries/STM32F30x_StdPeriph_Driver/src/stm32f30x_adc.c ****   * @retval The Data conversion value.
1445:../Libraries/STM32F30x_StdPeriph_Driver/src/stm32f30x_adc.c ****   * @note   In dual mode, the value returned by this function is as following
1446:../Libraries/STM32F30x_StdPeriph_Driver/src/stm32f30x_adc.c ****   *           Data[15:0] : these bits contain the regular data of the Master ADC.
1447:../Libraries/STM32F30x_StdPeriph_Driver/src/stm32f30x_adc.c ****   *           Data[31:16]: these bits contain the regular data of the Slave ADC.           
1448:../Libraries/STM32F30x_StdPeriph_Driver/src/stm32f30x_adc.c ****   */
1449:../Libraries/STM32F30x_StdPeriph_Driver/src/stm32f30x_adc.c **** uint32_t ADC_GetDualModeConversionValue(ADC_TypeDef* ADCx)
1450:../Libraries/STM32F30x_StdPeriph_Driver/src/stm32f30x_adc.c **** {
 2169              		.loc 1 1450 0
 2170              		.cfi_startproc
 2171              		@ args = 0, pretend = 0, frame = 16
 2172              		@ frame_needed = 0, uses_anonymous_args = 0
 2173              		@ link register save eliminated.
 2174 0c0c 84B0     		sub	sp, sp, #16
 2175              	.LCFI39:
 2176              		.cfi_def_cfa_offset 16
 2177 0c0e 0190     		str	r0, [sp, #4]
1451:../Libraries/STM32F30x_StdPeriph_Driver/src/stm32f30x_adc.c ****   uint32_t tmpreg1 = 0;
 2178              		.loc 1 1451 0
 2179 0c10 4FF00003 		mov	r3, #0
 2180 0c14 0393     		str	r3, [sp, #12]
1452:../Libraries/STM32F30x_StdPeriph_Driver/src/stm32f30x_adc.c **** 
1453:../Libraries/STM32F30x_StdPeriph_Driver/src/stm32f30x_adc.c ****   /* Check the parameters */
1454:../Libraries/STM32F30x_StdPeriph_Driver/src/stm32f30x_adc.c ****   assert_param(IS_ADC_ALL_PERIPH(ADCx));
1455:../Libraries/STM32F30x_StdPeriph_Driver/src/stm32f30x_adc.c **** 
1456:../Libraries/STM32F30x_StdPeriph_Driver/src/stm32f30x_adc.c ****   if((ADCx == ADC1) || (ADCx== ADC2))
 2181              		.loc 1 1456 0
 2182 0c16 019B     		ldr	r3, [sp, #4]
 2183 0c18 B3F1A04F 		cmp	r3, #1342177280
 2184 0c1c 06D0     		beq	.L92
 2185              		.loc 1 1456 0 is_stmt 0 discriminator 1
 2186 0c1e 019A     		ldr	r2, [sp, #4]
 2187 0c20 4FF48073 		mov	r3, #256
 2188 0c24 C5F20003 		movt	r3, 20480
 2189 0c28 9A42     		cmp	r2, r3
 2190 0c2a 06D1     		bne	.L93
 2191              	.L92:
1457:../Libraries/STM32F30x_StdPeriph_Driver/src/stm32f30x_adc.c ****   {
1458:../Libraries/STM32F30x_StdPeriph_Driver/src/stm32f30x_adc.c ****     /* Get the dual mode conversion value */
1459:../Libraries/STM32F30x_StdPeriph_Driver/src/stm32f30x_adc.c ****     tmpreg1 = ADC1_2->CDR;
 2192              		.loc 1 1459 0 is_stmt 1
 2193 0c2c 4FF44073 		mov	r3, #768
 2194 0c30 C5F20003 		movt	r3, 20480
 2195 0c34 DB68     		ldr	r3, [r3, #12]
 2196 0c36 0393     		str	r3, [sp, #12]
 2197 0c38 05E0     		b	.L94
 2198              	.L93:
1460:../Libraries/STM32F30x_StdPeriph_Driver/src/stm32f30x_adc.c ****   }
1461:../Libraries/STM32F30x_StdPeriph_Driver/src/stm32f30x_adc.c ****   else
1462:../Libraries/STM32F30x_StdPeriph_Driver/src/stm32f30x_adc.c ****   {	
1463:../Libraries/STM32F30x_StdPeriph_Driver/src/stm32f30x_adc.c ****     /* Get the dual mode conversion value */
1464:../Libraries/STM32F30x_StdPeriph_Driver/src/stm32f30x_adc.c ****     tmpreg1 = ADC3_4->CDR;
 2199              		.loc 1 1464 0
 2200 0c3a 4FF4E063 		mov	r3, #1792
 2201 0c3e C5F20003 		movt	r3, 20480
 2202 0c42 DB68     		ldr	r3, [r3, #12]
 2203 0c44 0393     		str	r3, [sp, #12]
 2204              	.L94:
1465:../Libraries/STM32F30x_StdPeriph_Driver/src/stm32f30x_adc.c ****   }
1466:../Libraries/STM32F30x_StdPeriph_Driver/src/stm32f30x_adc.c ****   /* Return the dual mode conversion value */
1467:../Libraries/STM32F30x_StdPeriph_Driver/src/stm32f30x_adc.c ****   return (uint32_t) tmpreg1;
 2205              		.loc 1 1467 0
 2206 0c46 039B     		ldr	r3, [sp, #12]
1468:../Libraries/STM32F30x_StdPeriph_Driver/src/stm32f30x_adc.c **** }
 2207              		.loc 1 1468 0
 2208 0c48 1846     		mov	r0, r3
 2209 0c4a 04B0     		add	sp, sp, #16
 2210 0c4c 7047     		bx	lr
 2211              		.cfi_endproc
 2212              	.LFE149:
 2214 0c4e 00BF     		.align	2
 2215              		.global	ADC_SetChannelOffset1
 2216              		.thumb
 2217              		.thumb_func
 2219              	ADC_SetChannelOffset1:
 2220              	.LFB150:
1469:../Libraries/STM32F30x_StdPeriph_Driver/src/stm32f30x_adc.c **** 
1470:../Libraries/STM32F30x_StdPeriph_Driver/src/stm32f30x_adc.c **** /**
1471:../Libraries/STM32F30x_StdPeriph_Driver/src/stm32f30x_adc.c ****   * @brief  Set the ADC channels conversion value offset1
1472:../Libraries/STM32F30x_StdPeriph_Driver/src/stm32f30x_adc.c ****   * @param  ADCx: where x can be 1, 2, 3 or 4 to select the ADC peripheral.
1473:../Libraries/STM32F30x_StdPeriph_Driver/src/stm32f30x_adc.c ****   * @param  ADC_Channel: the ADC channel to configure. 
1474:../Libraries/STM32F30x_StdPeriph_Driver/src/stm32f30x_adc.c ****   *   This parameter can be one of the following values:
1475:../Libraries/STM32F30x_StdPeriph_Driver/src/stm32f30x_adc.c ****   *     @arg ADC_Channel_1: ADC Channel1 selected
1476:../Libraries/STM32F30x_StdPeriph_Driver/src/stm32f30x_adc.c ****   *     @arg ADC_Channel_2: ADC Channel2 selected
1477:../Libraries/STM32F30x_StdPeriph_Driver/src/stm32f30x_adc.c ****   *     @arg ADC_Channel_3: ADC Channel3 selected
1478:../Libraries/STM32F30x_StdPeriph_Driver/src/stm32f30x_adc.c ****   *     @arg ADC_Channel_4: ADC Channel4 selected
1479:../Libraries/STM32F30x_StdPeriph_Driver/src/stm32f30x_adc.c ****   *     @arg ADC_Channel_5: ADC Channel5 selected
1480:../Libraries/STM32F30x_StdPeriph_Driver/src/stm32f30x_adc.c ****   *     @arg ADC_Channel_6: ADC Channel6 selected
1481:../Libraries/STM32F30x_StdPeriph_Driver/src/stm32f30x_adc.c ****   *     @arg ADC_Channel_7: ADC Channel7 selected
1482:../Libraries/STM32F30x_StdPeriph_Driver/src/stm32f30x_adc.c ****   *     @arg ADC_Channel_8: ADC Channel8 selected
1483:../Libraries/STM32F30x_StdPeriph_Driver/src/stm32f30x_adc.c ****   *     @arg ADC_Channel_9: ADC Channel9 selected
1484:../Libraries/STM32F30x_StdPeriph_Driver/src/stm32f30x_adc.c ****   *     @arg ADC_Channel_10: ADC Channel10 selected
1485:../Libraries/STM32F30x_StdPeriph_Driver/src/stm32f30x_adc.c ****   *     @arg ADC_Channel_11: ADC Channel11 selected
1486:../Libraries/STM32F30x_StdPeriph_Driver/src/stm32f30x_adc.c ****   *     @arg ADC_Channel_12: ADC Channel12 selected
1487:../Libraries/STM32F30x_StdPeriph_Driver/src/stm32f30x_adc.c ****   *     @arg ADC_Channel_13: ADC Channel13 selected
1488:../Libraries/STM32F30x_StdPeriph_Driver/src/stm32f30x_adc.c ****   *     @arg ADC_Channel_14: ADC Channel14 selected
1489:../Libraries/STM32F30x_StdPeriph_Driver/src/stm32f30x_adc.c ****   *     @arg ADC_Channel_15: ADC Channel15 selected
1490:../Libraries/STM32F30x_StdPeriph_Driver/src/stm32f30x_adc.c ****   *     @arg ADC_Channel_16: ADC Channel16 selected
1491:../Libraries/STM32F30x_StdPeriph_Driver/src/stm32f30x_adc.c ****   *     @arg ADC_Channel_17: ADC Channel17 selected
1492:../Libraries/STM32F30x_StdPeriph_Driver/src/stm32f30x_adc.c ****   *     @arg ADC_Channel_18: ADC Channel18 selected
1493:../Libraries/STM32F30x_StdPeriph_Driver/src/stm32f30x_adc.c ****   * @param  Offset: the offset value for the selected ADC Channel
1494:../Libraries/STM32F30x_StdPeriph_Driver/src/stm32f30x_adc.c ****   *   This parameter must be a 12bit value.
1495:../Libraries/STM32F30x_StdPeriph_Driver/src/stm32f30x_adc.c ****   * @retval None
1496:../Libraries/STM32F30x_StdPeriph_Driver/src/stm32f30x_adc.c ****   */
1497:../Libraries/STM32F30x_StdPeriph_Driver/src/stm32f30x_adc.c **** void ADC_SetChannelOffset1(ADC_TypeDef* ADCx, uint8_t ADC_Channel, uint16_t Offset)
1498:../Libraries/STM32F30x_StdPeriph_Driver/src/stm32f30x_adc.c **** {
 2221              		.loc 1 1498 0
 2222              		.cfi_startproc
 2223              		@ args = 0, pretend = 0, frame = 8
 2224              		@ frame_needed = 0, uses_anonymous_args = 0
 2225              		@ link register save eliminated.
 2226 0c50 82B0     		sub	sp, sp, #8
 2227              	.LCFI40:
 2228              		.cfi_def_cfa_offset 8
 2229 0c52 0190     		str	r0, [sp, #4]
 2230 0c54 1346     		mov	r3, r2
 2231 0c56 0A46     		mov	r2, r1
 2232 0c58 8DF80320 		strb	r2, [sp, #3]
 2233 0c5c ADF80030 		strh	r3, [sp, #0]	@ movhi
1499:../Libraries/STM32F30x_StdPeriph_Driver/src/stm32f30x_adc.c ****   /* Check the parameters */
1500:../Libraries/STM32F30x_StdPeriph_Driver/src/stm32f30x_adc.c ****   assert_param(IS_ADC_ALL_PERIPH(ADCx));
1501:../Libraries/STM32F30x_StdPeriph_Driver/src/stm32f30x_adc.c ****   assert_param(IS_ADC_CHANNEL(ADC_Channel));
1502:../Libraries/STM32F30x_StdPeriph_Driver/src/stm32f30x_adc.c ****   assert_param(IS_ADC_OFFSET(Offset));
1503:../Libraries/STM32F30x_StdPeriph_Driver/src/stm32f30x_adc.c ****     
1504:../Libraries/STM32F30x_StdPeriph_Driver/src/stm32f30x_adc.c ****   /* Select the Channel */
1505:../Libraries/STM32F30x_StdPeriph_Driver/src/stm32f30x_adc.c ****   ADCx->OFR1 &= ~ (uint32_t) ADC_OFR1_OFFSET1_CH;
 2234              		.loc 1 1505 0
 2235 0c60 019B     		ldr	r3, [sp, #4]
 2236 0c62 1B6E     		ldr	r3, [r3, #96]
 2237 0c64 23F0F842 		bic	r2, r3, #2080374784
 2238 0c68 019B     		ldr	r3, [sp, #4]
 2239 0c6a 1A66     		str	r2, [r3, #96]
1506:../Libraries/STM32F30x_StdPeriph_Driver/src/stm32f30x_adc.c ****   ADCx->OFR1 |=	(uint32_t)((uint32_t)ADC_Channel << 26);
 2240              		.loc 1 1506 0
 2241 0c6c 019B     		ldr	r3, [sp, #4]
 2242 0c6e 1A6E     		ldr	r2, [r3, #96]
 2243 0c70 9DF80330 		ldrb	r3, [sp, #3]	@ zero_extendqisi2
 2244 0c74 4FEA8363 		lsl	r3, r3, #26
 2245 0c78 1A43     		orrs	r2, r2, r3
 2246 0c7a 019B     		ldr	r3, [sp, #4]
 2247 0c7c 1A66     		str	r2, [r3, #96]
1507:../Libraries/STM32F30x_StdPeriph_Driver/src/stm32f30x_adc.c **** 
1508:../Libraries/STM32F30x_StdPeriph_Driver/src/stm32f30x_adc.c ****   /* Set the data offset */
1509:../Libraries/STM32F30x_StdPeriph_Driver/src/stm32f30x_adc.c ****   ADCx->OFR1 &= ~ (uint32_t) ADC_OFR1_OFFSET1;
 2248              		.loc 1 1509 0
 2249 0c7e 019B     		ldr	r3, [sp, #4]
 2250 0c80 1B6E     		ldr	r3, [r3, #96]
 2251 0c82 23F47E63 		bic	r3, r3, #4064
 2252 0c86 23F01F03 		bic	r3, r3, #31
 2253 0c8a 019A     		ldr	r2, [sp, #4]
 2254 0c8c 1366     		str	r3, [r2, #96]
1510:../Libraries/STM32F30x_StdPeriph_Driver/src/stm32f30x_adc.c ****   ADCx->OFR1 |= (uint32_t)Offset;
 2255              		.loc 1 1510 0
 2256 0c8e 019B     		ldr	r3, [sp, #4]
 2257 0c90 1A6E     		ldr	r2, [r3, #96]
 2258 0c92 BDF80030 		ldrh	r3, [sp, #0]
 2259 0c96 1A43     		orrs	r2, r2, r3
 2260 0c98 019B     		ldr	r3, [sp, #4]
 2261 0c9a 1A66     		str	r2, [r3, #96]
1511:../Libraries/STM32F30x_StdPeriph_Driver/src/stm32f30x_adc.c **** }
 2262              		.loc 1 1511 0
 2263 0c9c 02B0     		add	sp, sp, #8
 2264 0c9e 7047     		bx	lr
 2265              		.cfi_endproc
 2266              	.LFE150:
 2268              		.align	2
 2269              		.global	ADC_SetChannelOffset2
 2270              		.thumb
 2271              		.thumb_func
 2273              	ADC_SetChannelOffset2:
 2274              	.LFB151:
1512:../Libraries/STM32F30x_StdPeriph_Driver/src/stm32f30x_adc.c **** 
1513:../Libraries/STM32F30x_StdPeriph_Driver/src/stm32f30x_adc.c **** /**
1514:../Libraries/STM32F30x_StdPeriph_Driver/src/stm32f30x_adc.c ****   * @brief  Set the ADC channels conversion value offset2
1515:../Libraries/STM32F30x_StdPeriph_Driver/src/stm32f30x_adc.c ****   * @param  ADCx: where x can be 1, 2, 3 or 4 to select the ADC peripheral.
1516:../Libraries/STM32F30x_StdPeriph_Driver/src/stm32f30x_adc.c ****   * @param  ADC_Channel: the ADC channel to configure. 
1517:../Libraries/STM32F30x_StdPeriph_Driver/src/stm32f30x_adc.c ****   *   This parameter can be one of the following values:
1518:../Libraries/STM32F30x_StdPeriph_Driver/src/stm32f30x_adc.c ****   *     @arg ADC_Channel_1: ADC Channel1 selected
1519:../Libraries/STM32F30x_StdPeriph_Driver/src/stm32f30x_adc.c ****   *     @arg ADC_Channel_2: ADC Channel2 selected
1520:../Libraries/STM32F30x_StdPeriph_Driver/src/stm32f30x_adc.c ****   *     @arg ADC_Channel_3: ADC Channel3 selected
1521:../Libraries/STM32F30x_StdPeriph_Driver/src/stm32f30x_adc.c ****   *     @arg ADC_Channel_4: ADC Channel4 selected
1522:../Libraries/STM32F30x_StdPeriph_Driver/src/stm32f30x_adc.c ****   *     @arg ADC_Channel_5: ADC Channel5 selected
1523:../Libraries/STM32F30x_StdPeriph_Driver/src/stm32f30x_adc.c ****   *     @arg ADC_Channel_6: ADC Channel6 selected
1524:../Libraries/STM32F30x_StdPeriph_Driver/src/stm32f30x_adc.c ****   *     @arg ADC_Channel_7: ADC Channel7 selected
1525:../Libraries/STM32F30x_StdPeriph_Driver/src/stm32f30x_adc.c ****   *     @arg ADC_Channel_8: ADC Channel8 selected
1526:../Libraries/STM32F30x_StdPeriph_Driver/src/stm32f30x_adc.c ****   *     @arg ADC_Channel_9: ADC Channel9 selected
1527:../Libraries/STM32F30x_StdPeriph_Driver/src/stm32f30x_adc.c ****   *     @arg ADC_Channel_10: ADC Channel10 selected
1528:../Libraries/STM32F30x_StdPeriph_Driver/src/stm32f30x_adc.c ****   *     @arg ADC_Channel_11: ADC Channel11 selected
1529:../Libraries/STM32F30x_StdPeriph_Driver/src/stm32f30x_adc.c ****   *     @arg ADC_Channel_12: ADC Channel12 selected
1530:../Libraries/STM32F30x_StdPeriph_Driver/src/stm32f30x_adc.c ****   *     @arg ADC_Channel_13: ADC Channel13 selected
1531:../Libraries/STM32F30x_StdPeriph_Driver/src/stm32f30x_adc.c ****   *     @arg ADC_Channel_14: ADC Channel14 selected
1532:../Libraries/STM32F30x_StdPeriph_Driver/src/stm32f30x_adc.c ****   *     @arg ADC_Channel_15: ADC Channel15 selected
1533:../Libraries/STM32F30x_StdPeriph_Driver/src/stm32f30x_adc.c ****   *     @arg ADC_Channel_16: ADC Channel16 selected
1534:../Libraries/STM32F30x_StdPeriph_Driver/src/stm32f30x_adc.c ****   *     @arg ADC_Channel_17: ADC Channel17 selected
1535:../Libraries/STM32F30x_StdPeriph_Driver/src/stm32f30x_adc.c ****   *     @arg ADC_Channel_18: ADC Channel18 selected
1536:../Libraries/STM32F30x_StdPeriph_Driver/src/stm32f30x_adc.c ****   * @param  Offset: the offset value for the selected ADC Channel
1537:../Libraries/STM32F30x_StdPeriph_Driver/src/stm32f30x_adc.c ****   *   This parameter must be a 12bit value.
1538:../Libraries/STM32F30x_StdPeriph_Driver/src/stm32f30x_adc.c ****   * @retval None
1539:../Libraries/STM32F30x_StdPeriph_Driver/src/stm32f30x_adc.c ****   */
1540:../Libraries/STM32F30x_StdPeriph_Driver/src/stm32f30x_adc.c **** void ADC_SetChannelOffset2(ADC_TypeDef* ADCx, uint8_t ADC_Channel, uint16_t Offset)
1541:../Libraries/STM32F30x_StdPeriph_Driver/src/stm32f30x_adc.c **** {
 2275              		.loc 1 1541 0
 2276              		.cfi_startproc
 2277              		@ args = 0, pretend = 0, frame = 8
 2278              		@ frame_needed = 0, uses_anonymous_args = 0
 2279              		@ link register save eliminated.
 2280 0ca0 82B0     		sub	sp, sp, #8
 2281              	.LCFI41:
 2282              		.cfi_def_cfa_offset 8
 2283 0ca2 0190     		str	r0, [sp, #4]
 2284 0ca4 1346     		mov	r3, r2
 2285 0ca6 0A46     		mov	r2, r1
 2286 0ca8 8DF80320 		strb	r2, [sp, #3]
 2287 0cac ADF80030 		strh	r3, [sp, #0]	@ movhi
1542:../Libraries/STM32F30x_StdPeriph_Driver/src/stm32f30x_adc.c ****   /* Check the parameters */
1543:../Libraries/STM32F30x_StdPeriph_Driver/src/stm32f30x_adc.c ****   assert_param(IS_ADC_ALL_PERIPH(ADCx));
1544:../Libraries/STM32F30x_StdPeriph_Driver/src/stm32f30x_adc.c ****   assert_param(IS_ADC_CHANNEL(ADC_Channel));
1545:../Libraries/STM32F30x_StdPeriph_Driver/src/stm32f30x_adc.c ****   assert_param(IS_ADC_OFFSET(Offset));
1546:../Libraries/STM32F30x_StdPeriph_Driver/src/stm32f30x_adc.c ****     
1547:../Libraries/STM32F30x_StdPeriph_Driver/src/stm32f30x_adc.c ****   /* Select the Channel */
1548:../Libraries/STM32F30x_StdPeriph_Driver/src/stm32f30x_adc.c ****   ADCx->OFR2 &= ~ (uint32_t) ADC_OFR2_OFFSET2_CH;
 2288              		.loc 1 1548 0
 2289 0cb0 019B     		ldr	r3, [sp, #4]
 2290 0cb2 5B6E     		ldr	r3, [r3, #100]
 2291 0cb4 23F0F842 		bic	r2, r3, #2080374784
 2292 0cb8 019B     		ldr	r3, [sp, #4]
 2293 0cba 5A66     		str	r2, [r3, #100]
1549:../Libraries/STM32F30x_StdPeriph_Driver/src/stm32f30x_adc.c ****   ADCx->OFR2 |=	(uint32_t)((uint32_t)ADC_Channel << 26);
 2294              		.loc 1 1549 0
 2295 0cbc 019B     		ldr	r3, [sp, #4]
 2296 0cbe 5A6E     		ldr	r2, [r3, #100]
 2297 0cc0 9DF80330 		ldrb	r3, [sp, #3]	@ zero_extendqisi2
 2298 0cc4 4FEA8363 		lsl	r3, r3, #26
 2299 0cc8 1A43     		orrs	r2, r2, r3
 2300 0cca 019B     		ldr	r3, [sp, #4]
 2301 0ccc 5A66     		str	r2, [r3, #100]
1550:../Libraries/STM32F30x_StdPeriph_Driver/src/stm32f30x_adc.c **** 
1551:../Libraries/STM32F30x_StdPeriph_Driver/src/stm32f30x_adc.c ****   /* Set the data offset */
1552:../Libraries/STM32F30x_StdPeriph_Driver/src/stm32f30x_adc.c ****   ADCx->OFR2 &= ~ (uint32_t) ADC_OFR2_OFFSET2;
 2302              		.loc 1 1552 0
 2303 0cce 019B     		ldr	r3, [sp, #4]
 2304 0cd0 5B6E     		ldr	r3, [r3, #100]
 2305 0cd2 23F47E63 		bic	r3, r3, #4064
 2306 0cd6 23F01F03 		bic	r3, r3, #31
 2307 0cda 019A     		ldr	r2, [sp, #4]
 2308 0cdc 5366     		str	r3, [r2, #100]
1553:../Libraries/STM32F30x_StdPeriph_Driver/src/stm32f30x_adc.c ****   ADCx->OFR2 |= (uint32_t)Offset;
 2309              		.loc 1 1553 0
 2310 0cde 019B     		ldr	r3, [sp, #4]
 2311 0ce0 5A6E     		ldr	r2, [r3, #100]
 2312 0ce2 BDF80030 		ldrh	r3, [sp, #0]
 2313 0ce6 1A43     		orrs	r2, r2, r3
 2314 0ce8 019B     		ldr	r3, [sp, #4]
 2315 0cea 5A66     		str	r2, [r3, #100]
1554:../Libraries/STM32F30x_StdPeriph_Driver/src/stm32f30x_adc.c **** }
 2316              		.loc 1 1554 0
 2317 0cec 02B0     		add	sp, sp, #8
 2318 0cee 7047     		bx	lr
 2319              		.cfi_endproc
 2320              	.LFE151:
 2322              		.align	2
 2323              		.global	ADC_SetChannelOffset3
 2324              		.thumb
 2325              		.thumb_func
 2327              	ADC_SetChannelOffset3:
 2328              	.LFB152:
1555:../Libraries/STM32F30x_StdPeriph_Driver/src/stm32f30x_adc.c **** 
1556:../Libraries/STM32F30x_StdPeriph_Driver/src/stm32f30x_adc.c **** /**
1557:../Libraries/STM32F30x_StdPeriph_Driver/src/stm32f30x_adc.c ****   * @brief  Set the ADC channels conversion value offset3
1558:../Libraries/STM32F30x_StdPeriph_Driver/src/stm32f30x_adc.c ****   * @param  ADCx: where x can be 1, 2, 3 or 4 to select the ADC peripheral.
1559:../Libraries/STM32F30x_StdPeriph_Driver/src/stm32f30x_adc.c ****   * @param  ADC_Channel: the ADC channel to configure. 
1560:../Libraries/STM32F30x_StdPeriph_Driver/src/stm32f30x_adc.c ****   *   This parameter can be one of the following values:
1561:../Libraries/STM32F30x_StdPeriph_Driver/src/stm32f30x_adc.c ****   *     @arg ADC_Channel_1: ADC Channel1 selected
1562:../Libraries/STM32F30x_StdPeriph_Driver/src/stm32f30x_adc.c ****   *     @arg ADC_Channel_2: ADC Channel2 selected
1563:../Libraries/STM32F30x_StdPeriph_Driver/src/stm32f30x_adc.c ****   *     @arg ADC_Channel_3: ADC Channel3 selected
1564:../Libraries/STM32F30x_StdPeriph_Driver/src/stm32f30x_adc.c ****   *     @arg ADC_Channel_4: ADC Channel4 selected
1565:../Libraries/STM32F30x_StdPeriph_Driver/src/stm32f30x_adc.c ****   *     @arg ADC_Channel_5: ADC Channel5 selected
1566:../Libraries/STM32F30x_StdPeriph_Driver/src/stm32f30x_adc.c ****   *     @arg ADC_Channel_6: ADC Channel6 selected
1567:../Libraries/STM32F30x_StdPeriph_Driver/src/stm32f30x_adc.c ****   *     @arg ADC_Channel_7: ADC Channel7 selected
1568:../Libraries/STM32F30x_StdPeriph_Driver/src/stm32f30x_adc.c ****   *     @arg ADC_Channel_8: ADC Channel8 selected
1569:../Libraries/STM32F30x_StdPeriph_Driver/src/stm32f30x_adc.c ****   *     @arg ADC_Channel_9: ADC Channel9 selected
1570:../Libraries/STM32F30x_StdPeriph_Driver/src/stm32f30x_adc.c ****   *     @arg ADC_Channel_10: ADC Channel10 selected
1571:../Libraries/STM32F30x_StdPeriph_Driver/src/stm32f30x_adc.c ****   *     @arg ADC_Channel_11: ADC Channel11 selected
1572:../Libraries/STM32F30x_StdPeriph_Driver/src/stm32f30x_adc.c ****   *     @arg ADC_Channel_12: ADC Channel12 selected
1573:../Libraries/STM32F30x_StdPeriph_Driver/src/stm32f30x_adc.c ****   *     @arg ADC_Channel_13: ADC Channel13 selected
1574:../Libraries/STM32F30x_StdPeriph_Driver/src/stm32f30x_adc.c ****   *     @arg ADC_Channel_14: ADC Channel14 selected
1575:../Libraries/STM32F30x_StdPeriph_Driver/src/stm32f30x_adc.c ****   *     @arg ADC_Channel_15: ADC Channel15 selected
1576:../Libraries/STM32F30x_StdPeriph_Driver/src/stm32f30x_adc.c ****   *     @arg ADC_Channel_16: ADC Channel16 selected
1577:../Libraries/STM32F30x_StdPeriph_Driver/src/stm32f30x_adc.c ****   *     @arg ADC_Channel_17: ADC Channel17 selected
1578:../Libraries/STM32F30x_StdPeriph_Driver/src/stm32f30x_adc.c ****   *     @arg ADC_Channel_18: ADC Channel18 selected
1579:../Libraries/STM32F30x_StdPeriph_Driver/src/stm32f30x_adc.c ****   * @param  Offset: the offset value for the selected ADC Channel
1580:../Libraries/STM32F30x_StdPeriph_Driver/src/stm32f30x_adc.c ****   *   This parameter must be a 12bit value.
1581:../Libraries/STM32F30x_StdPeriph_Driver/src/stm32f30x_adc.c ****   * @retval None
1582:../Libraries/STM32F30x_StdPeriph_Driver/src/stm32f30x_adc.c ****   */
1583:../Libraries/STM32F30x_StdPeriph_Driver/src/stm32f30x_adc.c **** void ADC_SetChannelOffset3(ADC_TypeDef* ADCx, uint8_t ADC_Channel, uint16_t Offset)
1584:../Libraries/STM32F30x_StdPeriph_Driver/src/stm32f30x_adc.c **** {
 2329              		.loc 1 1584 0
 2330              		.cfi_startproc
 2331              		@ args = 0, pretend = 0, frame = 8
 2332              		@ frame_needed = 0, uses_anonymous_args = 0
 2333              		@ link register save eliminated.
 2334 0cf0 82B0     		sub	sp, sp, #8
 2335              	.LCFI42:
 2336              		.cfi_def_cfa_offset 8
 2337 0cf2 0190     		str	r0, [sp, #4]
 2338 0cf4 1346     		mov	r3, r2
 2339 0cf6 0A46     		mov	r2, r1
 2340 0cf8 8DF80320 		strb	r2, [sp, #3]
 2341 0cfc ADF80030 		strh	r3, [sp, #0]	@ movhi
1585:../Libraries/STM32F30x_StdPeriph_Driver/src/stm32f30x_adc.c ****   /* Check the parameters */
1586:../Libraries/STM32F30x_StdPeriph_Driver/src/stm32f30x_adc.c ****   assert_param(IS_ADC_ALL_PERIPH(ADCx));
1587:../Libraries/STM32F30x_StdPeriph_Driver/src/stm32f30x_adc.c ****   assert_param(IS_ADC_CHANNEL(ADC_Channel));
1588:../Libraries/STM32F30x_StdPeriph_Driver/src/stm32f30x_adc.c ****   assert_param(IS_ADC_OFFSET(Offset));
1589:../Libraries/STM32F30x_StdPeriph_Driver/src/stm32f30x_adc.c ****     
1590:../Libraries/STM32F30x_StdPeriph_Driver/src/stm32f30x_adc.c ****   /* Select the Channel */
1591:../Libraries/STM32F30x_StdPeriph_Driver/src/stm32f30x_adc.c ****   ADCx->OFR3 &= ~ (uint32_t) ADC_OFR3_OFFSET3_CH;
 2342              		.loc 1 1591 0
 2343 0d00 019B     		ldr	r3, [sp, #4]
 2344 0d02 9B6E     		ldr	r3, [r3, #104]
 2345 0d04 23F0F842 		bic	r2, r3, #2080374784
 2346 0d08 019B     		ldr	r3, [sp, #4]
 2347 0d0a 9A66     		str	r2, [r3, #104]
1592:../Libraries/STM32F30x_StdPeriph_Driver/src/stm32f30x_adc.c ****   ADCx->OFR3 |=	(uint32_t)((uint32_t)ADC_Channel << 26);
 2348              		.loc 1 1592 0
 2349 0d0c 019B     		ldr	r3, [sp, #4]
 2350 0d0e 9A6E     		ldr	r2, [r3, #104]
 2351 0d10 9DF80330 		ldrb	r3, [sp, #3]	@ zero_extendqisi2
 2352 0d14 4FEA8363 		lsl	r3, r3, #26
 2353 0d18 1A43     		orrs	r2, r2, r3
 2354 0d1a 019B     		ldr	r3, [sp, #4]
 2355 0d1c 9A66     		str	r2, [r3, #104]
1593:../Libraries/STM32F30x_StdPeriph_Driver/src/stm32f30x_adc.c **** 
1594:../Libraries/STM32F30x_StdPeriph_Driver/src/stm32f30x_adc.c ****   /* Set the data offset */
1595:../Libraries/STM32F30x_StdPeriph_Driver/src/stm32f30x_adc.c ****   ADCx->OFR3 &= ~ (uint32_t) ADC_OFR3_OFFSET3;
 2356              		.loc 1 1595 0
 2357 0d1e 019B     		ldr	r3, [sp, #4]
 2358 0d20 9B6E     		ldr	r3, [r3, #104]
 2359 0d22 23F47E63 		bic	r3, r3, #4064
 2360 0d26 23F01F03 		bic	r3, r3, #31
 2361 0d2a 019A     		ldr	r2, [sp, #4]
 2362 0d2c 9366     		str	r3, [r2, #104]
1596:../Libraries/STM32F30x_StdPeriph_Driver/src/stm32f30x_adc.c ****   ADCx->OFR3 |= (uint32_t)Offset;
 2363              		.loc 1 1596 0
 2364 0d2e 019B     		ldr	r3, [sp, #4]
 2365 0d30 9A6E     		ldr	r2, [r3, #104]
 2366 0d32 BDF80030 		ldrh	r3, [sp, #0]
 2367 0d36 1A43     		orrs	r2, r2, r3
 2368 0d38 019B     		ldr	r3, [sp, #4]
 2369 0d3a 9A66     		str	r2, [r3, #104]
1597:../Libraries/STM32F30x_StdPeriph_Driver/src/stm32f30x_adc.c **** }
 2370              		.loc 1 1597 0
 2371 0d3c 02B0     		add	sp, sp, #8
 2372 0d3e 7047     		bx	lr
 2373              		.cfi_endproc
 2374              	.LFE152:
 2376              		.align	2
 2377              		.global	ADC_SetChannelOffset4
 2378              		.thumb
 2379              		.thumb_func
 2381              	ADC_SetChannelOffset4:
 2382              	.LFB153:
1598:../Libraries/STM32F30x_StdPeriph_Driver/src/stm32f30x_adc.c **** 
1599:../Libraries/STM32F30x_StdPeriph_Driver/src/stm32f30x_adc.c **** /**
1600:../Libraries/STM32F30x_StdPeriph_Driver/src/stm32f30x_adc.c ****   * @brief  Set the ADC channels conversion value offset4
1601:../Libraries/STM32F30x_StdPeriph_Driver/src/stm32f30x_adc.c ****   * @param  ADCx: where x can be 1, 2, 3 or 4 to select the ADC peripheral.
1602:../Libraries/STM32F30x_StdPeriph_Driver/src/stm32f30x_adc.c ****   * @param  ADC_Channel: the ADC channel to configure. 
1603:../Libraries/STM32F30x_StdPeriph_Driver/src/stm32f30x_adc.c ****   *   This parameter can be one of the following values:
1604:../Libraries/STM32F30x_StdPeriph_Driver/src/stm32f30x_adc.c ****   *     @arg ADC_Channel_1: ADC Channel1 selected
1605:../Libraries/STM32F30x_StdPeriph_Driver/src/stm32f30x_adc.c ****   *     @arg ADC_Channel_2: ADC Channel2 selected
1606:../Libraries/STM32F30x_StdPeriph_Driver/src/stm32f30x_adc.c ****   *     @arg ADC_Channel_3: ADC Channel3 selected
1607:../Libraries/STM32F30x_StdPeriph_Driver/src/stm32f30x_adc.c ****   *     @arg ADC_Channel_4: ADC Channel4 selected
1608:../Libraries/STM32F30x_StdPeriph_Driver/src/stm32f30x_adc.c ****   *     @arg ADC_Channel_5: ADC Channel5 selected
1609:../Libraries/STM32F30x_StdPeriph_Driver/src/stm32f30x_adc.c ****   *     @arg ADC_Channel_6: ADC Channel6 selected
1610:../Libraries/STM32F30x_StdPeriph_Driver/src/stm32f30x_adc.c ****   *     @arg ADC_Channel_7: ADC Channel7 selected
1611:../Libraries/STM32F30x_StdPeriph_Driver/src/stm32f30x_adc.c ****   *     @arg ADC_Channel_8: ADC Channel8 selected
1612:../Libraries/STM32F30x_StdPeriph_Driver/src/stm32f30x_adc.c ****   *     @arg ADC_Channel_9: ADC Channel9 selected
1613:../Libraries/STM32F30x_StdPeriph_Driver/src/stm32f30x_adc.c ****   *     @arg ADC_Channel_10: ADC Channel10 selected
1614:../Libraries/STM32F30x_StdPeriph_Driver/src/stm32f30x_adc.c ****   *     @arg ADC_Channel_11: ADC Channel11 selected
1615:../Libraries/STM32F30x_StdPeriph_Driver/src/stm32f30x_adc.c ****   *     @arg ADC_Channel_12: ADC Channel12 selected
1616:../Libraries/STM32F30x_StdPeriph_Driver/src/stm32f30x_adc.c ****   *     @arg ADC_Channel_13: ADC Channel13 selected
1617:../Libraries/STM32F30x_StdPeriph_Driver/src/stm32f30x_adc.c ****   *     @arg ADC_Channel_14: ADC Channel14 selected
1618:../Libraries/STM32F30x_StdPeriph_Driver/src/stm32f30x_adc.c ****   *     @arg ADC_Channel_15: ADC Channel15 selected
1619:../Libraries/STM32F30x_StdPeriph_Driver/src/stm32f30x_adc.c ****   *     @arg ADC_Channel_16: ADC Channel16 selected
1620:../Libraries/STM32F30x_StdPeriph_Driver/src/stm32f30x_adc.c ****   *     @arg ADC_Channel_17: ADC Channel17 selected
1621:../Libraries/STM32F30x_StdPeriph_Driver/src/stm32f30x_adc.c ****   *     @arg ADC_Channel_18: ADC Channel18 selected
1622:../Libraries/STM32F30x_StdPeriph_Driver/src/stm32f30x_adc.c ****   * @param  Offset: the offset value for the selected ADC Channel
1623:../Libraries/STM32F30x_StdPeriph_Driver/src/stm32f30x_adc.c ****   *   This parameter must be a 12bit value.
1624:../Libraries/STM32F30x_StdPeriph_Driver/src/stm32f30x_adc.c ****   * @retval None
1625:../Libraries/STM32F30x_StdPeriph_Driver/src/stm32f30x_adc.c ****   */
1626:../Libraries/STM32F30x_StdPeriph_Driver/src/stm32f30x_adc.c **** void ADC_SetChannelOffset4(ADC_TypeDef* ADCx, uint8_t ADC_Channel, uint16_t Offset)
1627:../Libraries/STM32F30x_StdPeriph_Driver/src/stm32f30x_adc.c **** {
 2383              		.loc 1 1627 0
 2384              		.cfi_startproc
 2385              		@ args = 0, pretend = 0, frame = 8
 2386              		@ frame_needed = 0, uses_anonymous_args = 0
 2387              		@ link register save eliminated.
 2388 0d40 82B0     		sub	sp, sp, #8
 2389              	.LCFI43:
 2390              		.cfi_def_cfa_offset 8
 2391 0d42 0190     		str	r0, [sp, #4]
 2392 0d44 1346     		mov	r3, r2
 2393 0d46 0A46     		mov	r2, r1
 2394 0d48 8DF80320 		strb	r2, [sp, #3]
 2395 0d4c ADF80030 		strh	r3, [sp, #0]	@ movhi
1628:../Libraries/STM32F30x_StdPeriph_Driver/src/stm32f30x_adc.c ****   /* Check the parameters */
1629:../Libraries/STM32F30x_StdPeriph_Driver/src/stm32f30x_adc.c ****   assert_param(IS_ADC_ALL_PERIPH(ADCx));
1630:../Libraries/STM32F30x_StdPeriph_Driver/src/stm32f30x_adc.c ****   assert_param(IS_ADC_CHANNEL(ADC_Channel));
1631:../Libraries/STM32F30x_StdPeriph_Driver/src/stm32f30x_adc.c ****   assert_param(IS_ADC_OFFSET(Offset));
1632:../Libraries/STM32F30x_StdPeriph_Driver/src/stm32f30x_adc.c ****     
1633:../Libraries/STM32F30x_StdPeriph_Driver/src/stm32f30x_adc.c ****   /* Select the Channel */
1634:../Libraries/STM32F30x_StdPeriph_Driver/src/stm32f30x_adc.c ****   ADCx->OFR4 &= ~ (uint32_t) ADC_OFR4_OFFSET4_CH;
 2396              		.loc 1 1634 0
 2397 0d50 019B     		ldr	r3, [sp, #4]
 2398 0d52 DB6E     		ldr	r3, [r3, #108]
 2399 0d54 23F0F842 		bic	r2, r3, #2080374784
 2400 0d58 019B     		ldr	r3, [sp, #4]
 2401 0d5a DA66     		str	r2, [r3, #108]
1635:../Libraries/STM32F30x_StdPeriph_Driver/src/stm32f30x_adc.c ****   ADCx->OFR4 |=	(uint32_t)((uint32_t)ADC_Channel << 26);
 2402              		.loc 1 1635 0
 2403 0d5c 019B     		ldr	r3, [sp, #4]
 2404 0d5e DA6E     		ldr	r2, [r3, #108]
 2405 0d60 9DF80330 		ldrb	r3, [sp, #3]	@ zero_extendqisi2
 2406 0d64 4FEA8363 		lsl	r3, r3, #26
 2407 0d68 1A43     		orrs	r2, r2, r3
 2408 0d6a 019B     		ldr	r3, [sp, #4]
 2409 0d6c DA66     		str	r2, [r3, #108]
1636:../Libraries/STM32F30x_StdPeriph_Driver/src/stm32f30x_adc.c **** 
1637:../Libraries/STM32F30x_StdPeriph_Driver/src/stm32f30x_adc.c ****   /* Set the data offset */
1638:../Libraries/STM32F30x_StdPeriph_Driver/src/stm32f30x_adc.c ****   ADCx->OFR4 &= ~ (uint32_t) ADC_OFR4_OFFSET4;
 2410              		.loc 1 1638 0
 2411 0d6e 019B     		ldr	r3, [sp, #4]
 2412 0d70 DB6E     		ldr	r3, [r3, #108]
 2413 0d72 23F47E63 		bic	r3, r3, #4064
 2414 0d76 23F01F03 		bic	r3, r3, #31
 2415 0d7a 019A     		ldr	r2, [sp, #4]
 2416 0d7c D366     		str	r3, [r2, #108]
1639:../Libraries/STM32F30x_StdPeriph_Driver/src/stm32f30x_adc.c ****   ADCx->OFR4 |= (uint32_t)Offset;
 2417              		.loc 1 1639 0
 2418 0d7e 019B     		ldr	r3, [sp, #4]
 2419 0d80 DA6E     		ldr	r2, [r3, #108]
 2420 0d82 BDF80030 		ldrh	r3, [sp, #0]
 2421 0d86 1A43     		orrs	r2, r2, r3
 2422 0d88 019B     		ldr	r3, [sp, #4]
 2423 0d8a DA66     		str	r2, [r3, #108]
1640:../Libraries/STM32F30x_StdPeriph_Driver/src/stm32f30x_adc.c **** }
 2424              		.loc 1 1640 0
 2425 0d8c 02B0     		add	sp, sp, #8
 2426 0d8e 7047     		bx	lr
 2427              		.cfi_endproc
 2428              	.LFE153:
 2430              		.align	2
 2431              		.global	ADC_ChannelOffset1Cmd
 2432              		.thumb
 2433              		.thumb_func
 2435              	ADC_ChannelOffset1Cmd:
 2436              	.LFB154:
1641:../Libraries/STM32F30x_StdPeriph_Driver/src/stm32f30x_adc.c **** 
1642:../Libraries/STM32F30x_StdPeriph_Driver/src/stm32f30x_adc.c **** /**
1643:../Libraries/STM32F30x_StdPeriph_Driver/src/stm32f30x_adc.c ****   * @brief  Enables or disables the Offset1.
1644:../Libraries/STM32F30x_StdPeriph_Driver/src/stm32f30x_adc.c ****   * @param  ADCx: where x can be 1, 2, 3 or 4 to select the ADC peripheral.
1645:../Libraries/STM32F30x_StdPeriph_Driver/src/stm32f30x_adc.c ****   * @param  NewState: new state of the ADCx offset1.
1646:../Libraries/STM32F30x_StdPeriph_Driver/src/stm32f30x_adc.c ****   *   This parameter can be: ENABLE or DISABLE.
1647:../Libraries/STM32F30x_StdPeriph_Driver/src/stm32f30x_adc.c ****   * @retval None
1648:../Libraries/STM32F30x_StdPeriph_Driver/src/stm32f30x_adc.c ****   */
1649:../Libraries/STM32F30x_StdPeriph_Driver/src/stm32f30x_adc.c **** void ADC_ChannelOffset1Cmd(ADC_TypeDef* ADCx, FunctionalState NewState)
1650:../Libraries/STM32F30x_StdPeriph_Driver/src/stm32f30x_adc.c **** {
 2437              		.loc 1 1650 0
 2438              		.cfi_startproc
 2439              		@ args = 0, pretend = 0, frame = 8
 2440              		@ frame_needed = 0, uses_anonymous_args = 0
 2441              		@ link register save eliminated.
 2442 0d90 82B0     		sub	sp, sp, #8
 2443              	.LCFI44:
 2444              		.cfi_def_cfa_offset 8
 2445 0d92 0190     		str	r0, [sp, #4]
 2446 0d94 0B46     		mov	r3, r1
 2447 0d96 8DF80330 		strb	r3, [sp, #3]
1651:../Libraries/STM32F30x_StdPeriph_Driver/src/stm32f30x_adc.c ****   /* Check the parameters */
1652:../Libraries/STM32F30x_StdPeriph_Driver/src/stm32f30x_adc.c ****   assert_param(IS_ADC_ALL_PERIPH(ADCx));
1653:../Libraries/STM32F30x_StdPeriph_Driver/src/stm32f30x_adc.c ****   assert_param(IS_FUNCTIONAL_STATE(NewState));
1654:../Libraries/STM32F30x_StdPeriph_Driver/src/stm32f30x_adc.c **** 
1655:../Libraries/STM32F30x_StdPeriph_Driver/src/stm32f30x_adc.c ****   if (NewState != DISABLE)
 2448              		.loc 1 1655 0
 2449 0d9a 9DF80330 		ldrb	r3, [sp, #3]	@ zero_extendqisi2
 2450 0d9e 002B     		cmp	r3, #0
 2451 0da0 06D0     		beq	.L100
1656:../Libraries/STM32F30x_StdPeriph_Driver/src/stm32f30x_adc.c ****   {
1657:../Libraries/STM32F30x_StdPeriph_Driver/src/stm32f30x_adc.c ****     /* Set the OFFSET1_EN bit */
1658:../Libraries/STM32F30x_StdPeriph_Driver/src/stm32f30x_adc.c ****     ADCx->OFR1 |= ADC_OFR1_OFFSET1_EN;
 2452              		.loc 1 1658 0
 2453 0da2 019B     		ldr	r3, [sp, #4]
 2454 0da4 1B6E     		ldr	r3, [r3, #96]
 2455 0da6 43F00042 		orr	r2, r3, #-2147483648
 2456 0daa 019B     		ldr	r3, [sp, #4]
 2457 0dac 1A66     		str	r2, [r3, #96]
 2458 0dae 05E0     		b	.L99
 2459              	.L100:
1659:../Libraries/STM32F30x_StdPeriph_Driver/src/stm32f30x_adc.c ****   }
1660:../Libraries/STM32F30x_StdPeriph_Driver/src/stm32f30x_adc.c ****   else
1661:../Libraries/STM32F30x_StdPeriph_Driver/src/stm32f30x_adc.c ****   {
1662:../Libraries/STM32F30x_StdPeriph_Driver/src/stm32f30x_adc.c ****     /* Reset the OFFSET1_EN bit */
1663:../Libraries/STM32F30x_StdPeriph_Driver/src/stm32f30x_adc.c ****     ADCx->OFR1 &= ~(ADC_OFR1_OFFSET1_EN);
 2460              		.loc 1 1663 0
 2461 0db0 019B     		ldr	r3, [sp, #4]
 2462 0db2 1B6E     		ldr	r3, [r3, #96]
 2463 0db4 23F00042 		bic	r2, r3, #-2147483648
 2464 0db8 019B     		ldr	r3, [sp, #4]
 2465 0dba 1A66     		str	r2, [r3, #96]
 2466              	.L99:
1664:../Libraries/STM32F30x_StdPeriph_Driver/src/stm32f30x_adc.c ****   }
1665:../Libraries/STM32F30x_StdPeriph_Driver/src/stm32f30x_adc.c **** }
 2467              		.loc 1 1665 0
 2468 0dbc 02B0     		add	sp, sp, #8
 2469 0dbe 7047     		bx	lr
 2470              		.cfi_endproc
 2471              	.LFE154:
 2473              		.align	2
 2474              		.global	ADC_ChannelOffset2Cmd
 2475              		.thumb
 2476              		.thumb_func
 2478              	ADC_ChannelOffset2Cmd:
 2479              	.LFB155:
1666:../Libraries/STM32F30x_StdPeriph_Driver/src/stm32f30x_adc.c **** 
1667:../Libraries/STM32F30x_StdPeriph_Driver/src/stm32f30x_adc.c **** /**
1668:../Libraries/STM32F30x_StdPeriph_Driver/src/stm32f30x_adc.c ****   * @brief  Enables or disables the Offset2.
1669:../Libraries/STM32F30x_StdPeriph_Driver/src/stm32f30x_adc.c ****   * @param  ADCx: where x can be 1, 2, 3 or 4 to select the ADC peripheral.
1670:../Libraries/STM32F30x_StdPeriph_Driver/src/stm32f30x_adc.c ****   * @param  NewState: new state of the ADCx offset2.
1671:../Libraries/STM32F30x_StdPeriph_Driver/src/stm32f30x_adc.c ****   *   This parameter can be: ENABLE or DISABLE.
1672:../Libraries/STM32F30x_StdPeriph_Driver/src/stm32f30x_adc.c ****   * @retval None
1673:../Libraries/STM32F30x_StdPeriph_Driver/src/stm32f30x_adc.c ****   */
1674:../Libraries/STM32F30x_StdPeriph_Driver/src/stm32f30x_adc.c **** void ADC_ChannelOffset2Cmd(ADC_TypeDef* ADCx, FunctionalState NewState)
1675:../Libraries/STM32F30x_StdPeriph_Driver/src/stm32f30x_adc.c **** {
 2480              		.loc 1 1675 0
 2481              		.cfi_startproc
 2482              		@ args = 0, pretend = 0, frame = 8
 2483              		@ frame_needed = 0, uses_anonymous_args = 0
 2484              		@ link register save eliminated.
 2485 0dc0 82B0     		sub	sp, sp, #8
 2486              	.LCFI45:
 2487              		.cfi_def_cfa_offset 8
 2488 0dc2 0190     		str	r0, [sp, #4]
 2489 0dc4 0B46     		mov	r3, r1
 2490 0dc6 8DF80330 		strb	r3, [sp, #3]
1676:../Libraries/STM32F30x_StdPeriph_Driver/src/stm32f30x_adc.c ****   /* Check the parameters */
1677:../Libraries/STM32F30x_StdPeriph_Driver/src/stm32f30x_adc.c ****   assert_param(IS_ADC_ALL_PERIPH(ADCx));
1678:../Libraries/STM32F30x_StdPeriph_Driver/src/stm32f30x_adc.c ****   assert_param(IS_FUNCTIONAL_STATE(NewState));
1679:../Libraries/STM32F30x_StdPeriph_Driver/src/stm32f30x_adc.c **** 
1680:../Libraries/STM32F30x_StdPeriph_Driver/src/stm32f30x_adc.c ****   if (NewState != DISABLE)
 2491              		.loc 1 1680 0
 2492 0dca 9DF80330 		ldrb	r3, [sp, #3]	@ zero_extendqisi2
 2493 0dce 002B     		cmp	r3, #0
 2494 0dd0 06D0     		beq	.L103
1681:../Libraries/STM32F30x_StdPeriph_Driver/src/stm32f30x_adc.c ****   {
1682:../Libraries/STM32F30x_StdPeriph_Driver/src/stm32f30x_adc.c ****     /* Set the OFFSET1_EN bit */
1683:../Libraries/STM32F30x_StdPeriph_Driver/src/stm32f30x_adc.c ****     ADCx->OFR2 |= ADC_OFR2_OFFSET2_EN;
 2495              		.loc 1 1683 0
 2496 0dd2 019B     		ldr	r3, [sp, #4]
 2497 0dd4 5B6E     		ldr	r3, [r3, #100]
 2498 0dd6 43F00042 		orr	r2, r3, #-2147483648
 2499 0dda 019B     		ldr	r3, [sp, #4]
 2500 0ddc 5A66     		str	r2, [r3, #100]
 2501 0dde 05E0     		b	.L102
 2502              	.L103:
1684:../Libraries/STM32F30x_StdPeriph_Driver/src/stm32f30x_adc.c ****   }
1685:../Libraries/STM32F30x_StdPeriph_Driver/src/stm32f30x_adc.c ****   else
1686:../Libraries/STM32F30x_StdPeriph_Driver/src/stm32f30x_adc.c ****   {
1687:../Libraries/STM32F30x_StdPeriph_Driver/src/stm32f30x_adc.c ****     /* Reset the OFFSET1_EN bit */
1688:../Libraries/STM32F30x_StdPeriph_Driver/src/stm32f30x_adc.c ****     ADCx->OFR2 &= ~(ADC_OFR2_OFFSET2_EN);
 2503              		.loc 1 1688 0
 2504 0de0 019B     		ldr	r3, [sp, #4]
 2505 0de2 5B6E     		ldr	r3, [r3, #100]
 2506 0de4 23F00042 		bic	r2, r3, #-2147483648
 2507 0de8 019B     		ldr	r3, [sp, #4]
 2508 0dea 5A66     		str	r2, [r3, #100]
 2509              	.L102:
1689:../Libraries/STM32F30x_StdPeriph_Driver/src/stm32f30x_adc.c ****   }
1690:../Libraries/STM32F30x_StdPeriph_Driver/src/stm32f30x_adc.c **** }
 2510              		.loc 1 1690 0
 2511 0dec 02B0     		add	sp, sp, #8
 2512 0dee 7047     		bx	lr
 2513              		.cfi_endproc
 2514              	.LFE155:
 2516              		.align	2
 2517              		.global	ADC_ChannelOffset3Cmd
 2518              		.thumb
 2519              		.thumb_func
 2521              	ADC_ChannelOffset3Cmd:
 2522              	.LFB156:
1691:../Libraries/STM32F30x_StdPeriph_Driver/src/stm32f30x_adc.c **** 
1692:../Libraries/STM32F30x_StdPeriph_Driver/src/stm32f30x_adc.c **** /**
1693:../Libraries/STM32F30x_StdPeriph_Driver/src/stm32f30x_adc.c ****   * @brief  Enables or disables the Offset3.
1694:../Libraries/STM32F30x_StdPeriph_Driver/src/stm32f30x_adc.c ****   * @param  ADCx: where x can be 1, 2, 3 or 4 to select the ADC peripheral.
1695:../Libraries/STM32F30x_StdPeriph_Driver/src/stm32f30x_adc.c ****   * @param  NewState: new state of the ADCx offset3.
1696:../Libraries/STM32F30x_StdPeriph_Driver/src/stm32f30x_adc.c ****   *   This parameter can be: ENABLE or DISABLE.
1697:../Libraries/STM32F30x_StdPeriph_Driver/src/stm32f30x_adc.c ****   * @retval None
1698:../Libraries/STM32F30x_StdPeriph_Driver/src/stm32f30x_adc.c ****   */
1699:../Libraries/STM32F30x_StdPeriph_Driver/src/stm32f30x_adc.c **** void ADC_ChannelOffset3Cmd(ADC_TypeDef* ADCx, FunctionalState NewState)
1700:../Libraries/STM32F30x_StdPeriph_Driver/src/stm32f30x_adc.c **** {
 2523              		.loc 1 1700 0
 2524              		.cfi_startproc
 2525              		@ args = 0, pretend = 0, frame = 8
 2526              		@ frame_needed = 0, uses_anonymous_args = 0
 2527              		@ link register save eliminated.
 2528 0df0 82B0     		sub	sp, sp, #8
 2529              	.LCFI46:
 2530              		.cfi_def_cfa_offset 8
 2531 0df2 0190     		str	r0, [sp, #4]
 2532 0df4 0B46     		mov	r3, r1
 2533 0df6 8DF80330 		strb	r3, [sp, #3]
1701:../Libraries/STM32F30x_StdPeriph_Driver/src/stm32f30x_adc.c ****   /* Check the parameters */
1702:../Libraries/STM32F30x_StdPeriph_Driver/src/stm32f30x_adc.c ****   assert_param(IS_ADC_ALL_PERIPH(ADCx));
1703:../Libraries/STM32F30x_StdPeriph_Driver/src/stm32f30x_adc.c ****   assert_param(IS_FUNCTIONAL_STATE(NewState));
1704:../Libraries/STM32F30x_StdPeriph_Driver/src/stm32f30x_adc.c **** 
1705:../Libraries/STM32F30x_StdPeriph_Driver/src/stm32f30x_adc.c ****   if (NewState != DISABLE)
 2534              		.loc 1 1705 0
 2535 0dfa 9DF80330 		ldrb	r3, [sp, #3]	@ zero_extendqisi2
 2536 0dfe 002B     		cmp	r3, #0
 2537 0e00 06D0     		beq	.L106
1706:../Libraries/STM32F30x_StdPeriph_Driver/src/stm32f30x_adc.c ****   {
1707:../Libraries/STM32F30x_StdPeriph_Driver/src/stm32f30x_adc.c ****     /* Set the OFFSET1_EN bit */
1708:../Libraries/STM32F30x_StdPeriph_Driver/src/stm32f30x_adc.c ****     ADCx->OFR3 |= ADC_OFR3_OFFSET3_EN;
 2538              		.loc 1 1708 0
 2539 0e02 019B     		ldr	r3, [sp, #4]
 2540 0e04 9B6E     		ldr	r3, [r3, #104]
 2541 0e06 43F00042 		orr	r2, r3, #-2147483648
 2542 0e0a 019B     		ldr	r3, [sp, #4]
 2543 0e0c 9A66     		str	r2, [r3, #104]
 2544 0e0e 05E0     		b	.L105
 2545              	.L106:
1709:../Libraries/STM32F30x_StdPeriph_Driver/src/stm32f30x_adc.c ****   }
1710:../Libraries/STM32F30x_StdPeriph_Driver/src/stm32f30x_adc.c ****   else
1711:../Libraries/STM32F30x_StdPeriph_Driver/src/stm32f30x_adc.c ****   {
1712:../Libraries/STM32F30x_StdPeriph_Driver/src/stm32f30x_adc.c ****     /* Reset the OFFSET1_EN bit */
1713:../Libraries/STM32F30x_StdPeriph_Driver/src/stm32f30x_adc.c ****     ADCx->OFR3 &= ~(ADC_OFR3_OFFSET3_EN);
 2546              		.loc 1 1713 0
 2547 0e10 019B     		ldr	r3, [sp, #4]
 2548 0e12 9B6E     		ldr	r3, [r3, #104]
 2549 0e14 23F00042 		bic	r2, r3, #-2147483648
 2550 0e18 019B     		ldr	r3, [sp, #4]
 2551 0e1a 9A66     		str	r2, [r3, #104]
 2552              	.L105:
1714:../Libraries/STM32F30x_StdPeriph_Driver/src/stm32f30x_adc.c ****   }
1715:../Libraries/STM32F30x_StdPeriph_Driver/src/stm32f30x_adc.c **** }
 2553              		.loc 1 1715 0
 2554 0e1c 02B0     		add	sp, sp, #8
 2555 0e1e 7047     		bx	lr
 2556              		.cfi_endproc
 2557              	.LFE156:
 2559              		.align	2
 2560              		.global	ADC_ChannelOffset4Cmd
 2561              		.thumb
 2562              		.thumb_func
 2564              	ADC_ChannelOffset4Cmd:
 2565              	.LFB157:
1716:../Libraries/STM32F30x_StdPeriph_Driver/src/stm32f30x_adc.c **** 
1717:../Libraries/STM32F30x_StdPeriph_Driver/src/stm32f30x_adc.c **** /**
1718:../Libraries/STM32F30x_StdPeriph_Driver/src/stm32f30x_adc.c ****   * @brief  Enables or disables the Offset4.
1719:../Libraries/STM32F30x_StdPeriph_Driver/src/stm32f30x_adc.c ****   * @param  ADCx: where x can be 1, 2, 3 or 4 to select the ADC peripheral.
1720:../Libraries/STM32F30x_StdPeriph_Driver/src/stm32f30x_adc.c ****   * @param  NewState: new state of the ADCx offset4.
1721:../Libraries/STM32F30x_StdPeriph_Driver/src/stm32f30x_adc.c ****   *   This parameter can be: ENABLE or DISABLE.
1722:../Libraries/STM32F30x_StdPeriph_Driver/src/stm32f30x_adc.c ****   * @retval None
1723:../Libraries/STM32F30x_StdPeriph_Driver/src/stm32f30x_adc.c ****   */
1724:../Libraries/STM32F30x_StdPeriph_Driver/src/stm32f30x_adc.c **** void ADC_ChannelOffset4Cmd(ADC_TypeDef* ADCx, FunctionalState NewState)
1725:../Libraries/STM32F30x_StdPeriph_Driver/src/stm32f30x_adc.c **** {
 2566              		.loc 1 1725 0
 2567              		.cfi_startproc
 2568              		@ args = 0, pretend = 0, frame = 8
 2569              		@ frame_needed = 0, uses_anonymous_args = 0
 2570              		@ link register save eliminated.
 2571 0e20 82B0     		sub	sp, sp, #8
 2572              	.LCFI47:
 2573              		.cfi_def_cfa_offset 8
 2574 0e22 0190     		str	r0, [sp, #4]
 2575 0e24 0B46     		mov	r3, r1
 2576 0e26 8DF80330 		strb	r3, [sp, #3]
1726:../Libraries/STM32F30x_StdPeriph_Driver/src/stm32f30x_adc.c ****   /* Check the parameters */
1727:../Libraries/STM32F30x_StdPeriph_Driver/src/stm32f30x_adc.c ****   assert_param(IS_ADC_ALL_PERIPH(ADCx));
1728:../Libraries/STM32F30x_StdPeriph_Driver/src/stm32f30x_adc.c ****   assert_param(IS_FUNCTIONAL_STATE(NewState));
1729:../Libraries/STM32F30x_StdPeriph_Driver/src/stm32f30x_adc.c **** 
1730:../Libraries/STM32F30x_StdPeriph_Driver/src/stm32f30x_adc.c ****   if (NewState != DISABLE)
 2577              		.loc 1 1730 0
 2578 0e2a 9DF80330 		ldrb	r3, [sp, #3]	@ zero_extendqisi2
 2579 0e2e 002B     		cmp	r3, #0
 2580 0e30 06D0     		beq	.L109
1731:../Libraries/STM32F30x_StdPeriph_Driver/src/stm32f30x_adc.c ****   {
1732:../Libraries/STM32F30x_StdPeriph_Driver/src/stm32f30x_adc.c ****     /* Set the OFFSET1_EN bit */
1733:../Libraries/STM32F30x_StdPeriph_Driver/src/stm32f30x_adc.c ****     ADCx->OFR4 |= ADC_OFR4_OFFSET4_EN;
 2581              		.loc 1 1733 0
 2582 0e32 019B     		ldr	r3, [sp, #4]
 2583 0e34 DB6E     		ldr	r3, [r3, #108]
 2584 0e36 43F00042 		orr	r2, r3, #-2147483648
 2585 0e3a 019B     		ldr	r3, [sp, #4]
 2586 0e3c DA66     		str	r2, [r3, #108]
 2587 0e3e 05E0     		b	.L108
 2588              	.L109:
1734:../Libraries/STM32F30x_StdPeriph_Driver/src/stm32f30x_adc.c ****   }
1735:../Libraries/STM32F30x_StdPeriph_Driver/src/stm32f30x_adc.c ****   else
1736:../Libraries/STM32F30x_StdPeriph_Driver/src/stm32f30x_adc.c ****   {
1737:../Libraries/STM32F30x_StdPeriph_Driver/src/stm32f30x_adc.c ****     /* Reset the OFFSET1_EN bit */
1738:../Libraries/STM32F30x_StdPeriph_Driver/src/stm32f30x_adc.c ****     ADCx->OFR4 &= ~(ADC_OFR4_OFFSET4_EN);
 2589              		.loc 1 1738 0
 2590 0e40 019B     		ldr	r3, [sp, #4]
 2591 0e42 DB6E     		ldr	r3, [r3, #108]
 2592 0e44 23F00042 		bic	r2, r3, #-2147483648
 2593 0e48 019B     		ldr	r3, [sp, #4]
 2594 0e4a DA66     		str	r2, [r3, #108]
 2595              	.L108:
1739:../Libraries/STM32F30x_StdPeriph_Driver/src/stm32f30x_adc.c ****   }
1740:../Libraries/STM32F30x_StdPeriph_Driver/src/stm32f30x_adc.c **** }
 2596              		.loc 1 1740 0
 2597 0e4c 02B0     		add	sp, sp, #8
 2598 0e4e 7047     		bx	lr
 2599              		.cfi_endproc
 2600              	.LFE157:
 2602              		.align	2
 2603              		.global	ADC_DMACmd
 2604              		.thumb
 2605              		.thumb_func
 2607              	ADC_DMACmd:
 2608              	.LFB158:
1741:../Libraries/STM32F30x_StdPeriph_Driver/src/stm32f30x_adc.c **** 
1742:../Libraries/STM32F30x_StdPeriph_Driver/src/stm32f30x_adc.c **** /**
1743:../Libraries/STM32F30x_StdPeriph_Driver/src/stm32f30x_adc.c ****   * @}
1744:../Libraries/STM32F30x_StdPeriph_Driver/src/stm32f30x_adc.c ****   */
1745:../Libraries/STM32F30x_StdPeriph_Driver/src/stm32f30x_adc.c **** 
1746:../Libraries/STM32F30x_StdPeriph_Driver/src/stm32f30x_adc.c **** /** @defgroup ADC_Group5 Regular Channels DMA Configuration functions
1747:../Libraries/STM32F30x_StdPeriph_Driver/src/stm32f30x_adc.c ****  *  @brief   Regular Channels DMA Configuration functions 
1748:../Libraries/STM32F30x_StdPeriph_Driver/src/stm32f30x_adc.c ****  *
1749:../Libraries/STM32F30x_StdPeriph_Driver/src/stm32f30x_adc.c **** @verbatim   
1750:../Libraries/STM32F30x_StdPeriph_Driver/src/stm32f30x_adc.c ****  ===============================================================================
1751:../Libraries/STM32F30x_StdPeriph_Driver/src/stm32f30x_adc.c ****                    ##### Regular Channels DMA Configuration functions #####
1752:../Libraries/STM32F30x_StdPeriph_Driver/src/stm32f30x_adc.c ****  ===============================================================================  
1753:../Libraries/STM32F30x_StdPeriph_Driver/src/stm32f30x_adc.c **** 
1754:../Libraries/STM32F30x_StdPeriph_Driver/src/stm32f30x_adc.c ****   [..] This section provides functions allowing to configure the DMA for ADC regular 
1755:../Libraries/STM32F30x_StdPeriph_Driver/src/stm32f30x_adc.c ****   channels. Since converted regular channel values are stored into a unique data register, 
1756:../Libraries/STM32F30x_StdPeriph_Driver/src/stm32f30x_adc.c ****   it is useful to use DMA for conversion of more than one regular channel. This 
1757:../Libraries/STM32F30x_StdPeriph_Driver/src/stm32f30x_adc.c ****   avoids the loss of the data already stored in the ADC Data register. 
1758:../Libraries/STM32F30x_StdPeriph_Driver/src/stm32f30x_adc.c ****   
1759:../Libraries/STM32F30x_StdPeriph_Driver/src/stm32f30x_adc.c ****   (#) ADC_DMACmd() function is used to enable the ADC DMA mode, after each
1760:../Libraries/STM32F30x_StdPeriph_Driver/src/stm32f30x_adc.c ****       conversion of a regular channel, a DMA request is generated.
1761:../Libraries/STM32F30x_StdPeriph_Driver/src/stm32f30x_adc.c ****   (#) ADC_DMAConfig() function is used to select between the oneshot DMA mode 
1762:../Libraries/STM32F30x_StdPeriph_Driver/src/stm32f30x_adc.c ****       or the circular DMA mode
1763:../Libraries/STM32F30x_StdPeriph_Driver/src/stm32f30x_adc.c **** 
1764:../Libraries/STM32F30x_StdPeriph_Driver/src/stm32f30x_adc.c **** @endverbatim
1765:../Libraries/STM32F30x_StdPeriph_Driver/src/stm32f30x_adc.c ****   * @{
1766:../Libraries/STM32F30x_StdPeriph_Driver/src/stm32f30x_adc.c ****   */
1767:../Libraries/STM32F30x_StdPeriph_Driver/src/stm32f30x_adc.c **** 
1768:../Libraries/STM32F30x_StdPeriph_Driver/src/stm32f30x_adc.c **** /**
1769:../Libraries/STM32F30x_StdPeriph_Driver/src/stm32f30x_adc.c ****   * @brief  Enables or disables the specified ADC DMA request.
1770:../Libraries/STM32F30x_StdPeriph_Driver/src/stm32f30x_adc.c ****   * @param  ADCx: where x can be 1, 2, 3 or 4 to select the ADC peripheral.
1771:../Libraries/STM32F30x_StdPeriph_Driver/src/stm32f30x_adc.c ****   * @param  NewState: new state of the selected ADC DMA transfer.
1772:../Libraries/STM32F30x_StdPeriph_Driver/src/stm32f30x_adc.c ****   *   This parameter can be: ENABLE or DISABLE.
1773:../Libraries/STM32F30x_StdPeriph_Driver/src/stm32f30x_adc.c ****   * @retval None
1774:../Libraries/STM32F30x_StdPeriph_Driver/src/stm32f30x_adc.c ****   */
1775:../Libraries/STM32F30x_StdPeriph_Driver/src/stm32f30x_adc.c **** void ADC_DMACmd(ADC_TypeDef* ADCx, FunctionalState NewState)
1776:../Libraries/STM32F30x_StdPeriph_Driver/src/stm32f30x_adc.c **** {
 2609              		.loc 1 1776 0
 2610              		.cfi_startproc
 2611              		@ args = 0, pretend = 0, frame = 8
 2612              		@ frame_needed = 0, uses_anonymous_args = 0
 2613              		@ link register save eliminated.
 2614 0e50 82B0     		sub	sp, sp, #8
 2615              	.LCFI48:
 2616              		.cfi_def_cfa_offset 8
 2617 0e52 0190     		str	r0, [sp, #4]
 2618 0e54 0B46     		mov	r3, r1
 2619 0e56 8DF80330 		strb	r3, [sp, #3]
1777:../Libraries/STM32F30x_StdPeriph_Driver/src/stm32f30x_adc.c ****   /* Check the parameters */
1778:../Libraries/STM32F30x_StdPeriph_Driver/src/stm32f30x_adc.c ****   assert_param(IS_ADC_DMA_PERIPH(ADCx));
1779:../Libraries/STM32F30x_StdPeriph_Driver/src/stm32f30x_adc.c ****   assert_param(IS_FUNCTIONAL_STATE(NewState));
1780:../Libraries/STM32F30x_StdPeriph_Driver/src/stm32f30x_adc.c ****   if (NewState != DISABLE)
 2620              		.loc 1 1780 0
 2621 0e5a 9DF80330 		ldrb	r3, [sp, #3]	@ zero_extendqisi2
 2622 0e5e 002B     		cmp	r3, #0
 2623 0e60 06D0     		beq	.L112
1781:../Libraries/STM32F30x_StdPeriph_Driver/src/stm32f30x_adc.c ****   {
1782:../Libraries/STM32F30x_StdPeriph_Driver/src/stm32f30x_adc.c ****     /* Enable the selected ADC DMA request */
1783:../Libraries/STM32F30x_StdPeriph_Driver/src/stm32f30x_adc.c ****     ADCx->CFGR |= ADC_CFGR_DMAEN;
 2624              		.loc 1 1783 0
 2625 0e62 019B     		ldr	r3, [sp, #4]
 2626 0e64 DB68     		ldr	r3, [r3, #12]
 2627 0e66 43F00102 		orr	r2, r3, #1
 2628 0e6a 019B     		ldr	r3, [sp, #4]
 2629 0e6c DA60     		str	r2, [r3, #12]
 2630 0e6e 05E0     		b	.L111
 2631              	.L112:
1784:../Libraries/STM32F30x_StdPeriph_Driver/src/stm32f30x_adc.c ****   }
1785:../Libraries/STM32F30x_StdPeriph_Driver/src/stm32f30x_adc.c ****   else
1786:../Libraries/STM32F30x_StdPeriph_Driver/src/stm32f30x_adc.c ****   {
1787:../Libraries/STM32F30x_StdPeriph_Driver/src/stm32f30x_adc.c ****     /* Disable the selected ADC DMA request */
1788:../Libraries/STM32F30x_StdPeriph_Driver/src/stm32f30x_adc.c ****     ADCx->CFGR &= ~(uint32_t)ADC_CFGR_DMAEN;
 2632              		.loc 1 1788 0
 2633 0e70 019B     		ldr	r3, [sp, #4]
 2634 0e72 DB68     		ldr	r3, [r3, #12]
 2635 0e74 23F00102 		bic	r2, r3, #1
 2636 0e78 019B     		ldr	r3, [sp, #4]
 2637 0e7a DA60     		str	r2, [r3, #12]
 2638              	.L111:
1789:../Libraries/STM32F30x_StdPeriph_Driver/src/stm32f30x_adc.c ****   }
1790:../Libraries/STM32F30x_StdPeriph_Driver/src/stm32f30x_adc.c **** }
 2639              		.loc 1 1790 0
 2640 0e7c 02B0     		add	sp, sp, #8
 2641 0e7e 7047     		bx	lr
 2642              		.cfi_endproc
 2643              	.LFE158:
 2645              		.align	2
 2646              		.global	ADC_DMAConfig
 2647              		.thumb
 2648              		.thumb_func
 2650              	ADC_DMAConfig:
 2651              	.LFB159:
1791:../Libraries/STM32F30x_StdPeriph_Driver/src/stm32f30x_adc.c **** 
1792:../Libraries/STM32F30x_StdPeriph_Driver/src/stm32f30x_adc.c **** /**
1793:../Libraries/STM32F30x_StdPeriph_Driver/src/stm32f30x_adc.c ****   * @brief  Enables or disables the specified ADC DMA request.
1794:../Libraries/STM32F30x_StdPeriph_Driver/src/stm32f30x_adc.c ****   * @param  ADCx: where x can be 1, 2, 3 or 4 to select the ADC peripheral.
1795:../Libraries/STM32F30x_StdPeriph_Driver/src/stm32f30x_adc.c ****   * @param  NewState: new state of the selected ADC DMA transfer.
1796:../Libraries/STM32F30x_StdPeriph_Driver/src/stm32f30x_adc.c ****   *   This parameter can be: ENABLE or DISABLE.
1797:../Libraries/STM32F30x_StdPeriph_Driver/src/stm32f30x_adc.c ****   * @retval None
1798:../Libraries/STM32F30x_StdPeriph_Driver/src/stm32f30x_adc.c ****   */
1799:../Libraries/STM32F30x_StdPeriph_Driver/src/stm32f30x_adc.c **** void ADC_DMAConfig(ADC_TypeDef* ADCx, uint32_t ADC_DMAMode)
1800:../Libraries/STM32F30x_StdPeriph_Driver/src/stm32f30x_adc.c **** {
 2652              		.loc 1 1800 0
 2653              		.cfi_startproc
 2654              		@ args = 0, pretend = 0, frame = 8
 2655              		@ frame_needed = 0, uses_anonymous_args = 0
 2656              		@ link register save eliminated.
 2657 0e80 82B0     		sub	sp, sp, #8
 2658              	.LCFI49:
 2659              		.cfi_def_cfa_offset 8
 2660 0e82 0190     		str	r0, [sp, #4]
 2661 0e84 0091     		str	r1, [sp, #0]
1801:../Libraries/STM32F30x_StdPeriph_Driver/src/stm32f30x_adc.c ****   /* Check the parameters */
1802:../Libraries/STM32F30x_StdPeriph_Driver/src/stm32f30x_adc.c ****   assert_param(IS_ADC_DMA_PERIPH(ADCx));
1803:../Libraries/STM32F30x_StdPeriph_Driver/src/stm32f30x_adc.c ****   assert_param(IS_ADC_DMA_MODE(ADC_DMAMode));
1804:../Libraries/STM32F30x_StdPeriph_Driver/src/stm32f30x_adc.c **** 
1805:../Libraries/STM32F30x_StdPeriph_Driver/src/stm32f30x_adc.c ****   /* Set or reset the DMACFG bit */
1806:../Libraries/STM32F30x_StdPeriph_Driver/src/stm32f30x_adc.c ****    ADCx->CFGR &= ~(uint32_t)ADC_CFGR_DMACFG;
 2662              		.loc 1 1806 0
 2663 0e86 019B     		ldr	r3, [sp, #4]
 2664 0e88 DB68     		ldr	r3, [r3, #12]
 2665 0e8a 23F00202 		bic	r2, r3, #2
 2666 0e8e 019B     		ldr	r3, [sp, #4]
 2667 0e90 DA60     		str	r2, [r3, #12]
1807:../Libraries/STM32F30x_StdPeriph_Driver/src/stm32f30x_adc.c ****    ADCx->CFGR |= ADC_DMAMode;
 2668              		.loc 1 1807 0
 2669 0e92 019B     		ldr	r3, [sp, #4]
 2670 0e94 DA68     		ldr	r2, [r3, #12]
 2671 0e96 009B     		ldr	r3, [sp, #0]
 2672 0e98 1A43     		orrs	r2, r2, r3
 2673 0e9a 019B     		ldr	r3, [sp, #4]
 2674 0e9c DA60     		str	r2, [r3, #12]
1808:../Libraries/STM32F30x_StdPeriph_Driver/src/stm32f30x_adc.c **** }
 2675              		.loc 1 1808 0
 2676 0e9e 02B0     		add	sp, sp, #8
 2677 0ea0 7047     		bx	lr
 2678              		.cfi_endproc
 2679              	.LFE159:
 2681 0ea2 00BF     		.align	2
 2682              		.global	ADC_InjectedChannelSampleTimeConfig
 2683              		.thumb
 2684              		.thumb_func
 2686              	ADC_InjectedChannelSampleTimeConfig:
 2687              	.LFB160:
1809:../Libraries/STM32F30x_StdPeriph_Driver/src/stm32f30x_adc.c **** 
1810:../Libraries/STM32F30x_StdPeriph_Driver/src/stm32f30x_adc.c **** /**
1811:../Libraries/STM32F30x_StdPeriph_Driver/src/stm32f30x_adc.c ****   * @}
1812:../Libraries/STM32F30x_StdPeriph_Driver/src/stm32f30x_adc.c ****   */
1813:../Libraries/STM32F30x_StdPeriph_Driver/src/stm32f30x_adc.c **** 
1814:../Libraries/STM32F30x_StdPeriph_Driver/src/stm32f30x_adc.c **** /** @defgroup ADC_Group6 Injected channels Configuration functions
1815:../Libraries/STM32F30x_StdPeriph_Driver/src/stm32f30x_adc.c ****  *  @brief   Injected channels Configuration functions 
1816:../Libraries/STM32F30x_StdPeriph_Driver/src/stm32f30x_adc.c ****  *
1817:../Libraries/STM32F30x_StdPeriph_Driver/src/stm32f30x_adc.c **** @verbatim   
1818:../Libraries/STM32F30x_StdPeriph_Driver/src/stm32f30x_adc.c ****  ===============================================================================
1819:../Libraries/STM32F30x_StdPeriph_Driver/src/stm32f30x_adc.c ****                      ##### Injected channels Configuration functions #####
1820:../Libraries/STM32F30x_StdPeriph_Driver/src/stm32f30x_adc.c ****  ===============================================================================  
1821:../Libraries/STM32F30x_StdPeriph_Driver/src/stm32f30x_adc.c **** 
1822:../Libraries/STM32F30x_StdPeriph_Driver/src/stm32f30x_adc.c ****   [..] This section provide functions allowing to manage the ADC Injected channels,
1823:../Libraries/STM32F30x_StdPeriph_Driver/src/stm32f30x_adc.c ****   it is composed of : 
1824:../Libraries/STM32F30x_StdPeriph_Driver/src/stm32f30x_adc.c ****     
1825:../Libraries/STM32F30x_StdPeriph_Driver/src/stm32f30x_adc.c ****    (#) Configuration functions for Injected channels sample time
1826:../Libraries/STM32F30x_StdPeriph_Driver/src/stm32f30x_adc.c ****    (#) Functions to start and stop the injected conversion
1827:../Libraries/STM32F30x_StdPeriph_Driver/src/stm32f30x_adc.c ****    (#) unction to select the discontinuous mode    
1828:../Libraries/STM32F30x_StdPeriph_Driver/src/stm32f30x_adc.c ****    (#) Function to get the Specified Injected channel conversion data: This subsection 
1829:../Libraries/STM32F30x_StdPeriph_Driver/src/stm32f30x_adc.c ****       provides an important function in the ADC peripheral since it returns the 
1830:../Libraries/STM32F30x_StdPeriph_Driver/src/stm32f30x_adc.c ****       converted data of the specific injected channel.
1831:../Libraries/STM32F30x_StdPeriph_Driver/src/stm32f30x_adc.c **** 
1832:../Libraries/STM32F30x_StdPeriph_Driver/src/stm32f30x_adc.c **** @endverbatim
1833:../Libraries/STM32F30x_StdPeriph_Driver/src/stm32f30x_adc.c ****   * @{
1834:../Libraries/STM32F30x_StdPeriph_Driver/src/stm32f30x_adc.c ****   */ 
1835:../Libraries/STM32F30x_StdPeriph_Driver/src/stm32f30x_adc.c **** 
1836:../Libraries/STM32F30x_StdPeriph_Driver/src/stm32f30x_adc.c **** /**
1837:../Libraries/STM32F30x_StdPeriph_Driver/src/stm32f30x_adc.c ****   * @brief  Configures for the selected ADC injected channel its corresponding
1838:../Libraries/STM32F30x_StdPeriph_Driver/src/stm32f30x_adc.c ****   *         sample time.
1839:../Libraries/STM32F30x_StdPeriph_Driver/src/stm32f30x_adc.c ****   * @param  ADCx: where x can be 1, 2, 3 or 4 to select the ADC peripheral.
1840:../Libraries/STM32F30x_StdPeriph_Driver/src/stm32f30x_adc.c ****   * @param  ADC_Channel: the ADC channel to configure. 
1841:../Libraries/STM32F30x_StdPeriph_Driver/src/stm32f30x_adc.c ****   *   This parameter can be one of the following values:
1842:../Libraries/STM32F30x_StdPeriph_Driver/src/stm32f30x_adc.c ****   *     @arg ADC_InjectedChannel_1: ADC Channel1 selected
1843:../Libraries/STM32F30x_StdPeriph_Driver/src/stm32f30x_adc.c ****   *     @arg ADC_InjectedChannel_2: ADC Channel2 selected
1844:../Libraries/STM32F30x_StdPeriph_Driver/src/stm32f30x_adc.c ****   *     @arg ADC_InjectedChannel_3: ADC Channel3 selected
1845:../Libraries/STM32F30x_StdPeriph_Driver/src/stm32f30x_adc.c ****   *     @arg ADC_InjectedChannel_4: ADC Channel4 selected
1846:../Libraries/STM32F30x_StdPeriph_Driver/src/stm32f30x_adc.c ****   *     @arg ADC_InjectedChannel_5: ADC Channel5 selected
1847:../Libraries/STM32F30x_StdPeriph_Driver/src/stm32f30x_adc.c ****   *     @arg ADC_InjectedChannel_6: ADC Channel6 selected
1848:../Libraries/STM32F30x_StdPeriph_Driver/src/stm32f30x_adc.c ****   *     @arg ADC_InjectedChannel_7: ADC Channel7 selected
1849:../Libraries/STM32F30x_StdPeriph_Driver/src/stm32f30x_adc.c ****   *     @arg ADC_InjectedChannel_8: ADC Channel8 selected
1850:../Libraries/STM32F30x_StdPeriph_Driver/src/stm32f30x_adc.c ****   *     @arg ADC_InjectedChannel_9: ADC Channel9 selected
1851:../Libraries/STM32F30x_StdPeriph_Driver/src/stm32f30x_adc.c ****   *     @arg ADC_InjectedChannel_10: ADC Channel10 selected
1852:../Libraries/STM32F30x_StdPeriph_Driver/src/stm32f30x_adc.c ****   *     @arg ADC_InjectedChannel_11: ADC Channel11 selected
1853:../Libraries/STM32F30x_StdPeriph_Driver/src/stm32f30x_adc.c ****   *     @arg ADC_InjectedChannel_12: ADC Channel12 selected
1854:../Libraries/STM32F30x_StdPeriph_Driver/src/stm32f30x_adc.c ****   *     @arg ADC_InjectedChannel_13: ADC Channel13 selected
1855:../Libraries/STM32F30x_StdPeriph_Driver/src/stm32f30x_adc.c ****   *     @arg ADC_InjectedChannel_14: ADC Channel14 selected
1856:../Libraries/STM32F30x_StdPeriph_Driver/src/stm32f30x_adc.c ****   *     @arg ADC_InjectedChannel_15: ADC Channel15 selected
1857:../Libraries/STM32F30x_StdPeriph_Driver/src/stm32f30x_adc.c ****   *     @arg ADC_InjectedChannel_16: ADC Channel16 selected
1858:../Libraries/STM32F30x_StdPeriph_Driver/src/stm32f30x_adc.c ****   *     @arg ADC_InjectedChannel_17: ADC Channel17 selected
1859:../Libraries/STM32F30x_StdPeriph_Driver/src/stm32f30x_adc.c ****   *     @arg ADC_InjectedChannel_18: ADC Channel18 selected
1860:../Libraries/STM32F30x_StdPeriph_Driver/src/stm32f30x_adc.c ****   * @param  ADC_SampleTime: The sample time value to be set for the selected channel. 
1861:../Libraries/STM32F30x_StdPeriph_Driver/src/stm32f30x_adc.c ****   *   This parameter can be one of the following values:
1862:../Libraries/STM32F30x_StdPeriph_Driver/src/stm32f30x_adc.c ****   *     @arg ADC_SampleTime_1Cycles5: Sample time equal to 1.5 cycles
1863:../Libraries/STM32F30x_StdPeriph_Driver/src/stm32f30x_adc.c ****   *     @arg ADC_SampleTime_2Cycles5: Sample time equal to 2.5 cycles
1864:../Libraries/STM32F30x_StdPeriph_Driver/src/stm32f30x_adc.c ****   *     @arg ADC_SampleTime_4Cycles5: Sample time equal to 4.5 cycles
1865:../Libraries/STM32F30x_StdPeriph_Driver/src/stm32f30x_adc.c ****   *     @arg ADC_SampleTime_7Cycles5: Sample time equal to 7.5 cycles	
1866:../Libraries/STM32F30x_StdPeriph_Driver/src/stm32f30x_adc.c ****   *     @arg ADC_SampleTime_19Cycles5: Sample time equal to 19.5 cycles	
1867:../Libraries/STM32F30x_StdPeriph_Driver/src/stm32f30x_adc.c ****   *     @arg ADC_SampleTime_61Cycles5: Sample time equal to 61.5 cycles	
1868:../Libraries/STM32F30x_StdPeriph_Driver/src/stm32f30x_adc.c ****   *     @arg ADC_SampleTime_181Cycles5: Sample time equal to 181.5 cycles	
1869:../Libraries/STM32F30x_StdPeriph_Driver/src/stm32f30x_adc.c ****   *     @arg ADC_SampleTime_601Cycles5: Sample time equal to 601.5 cycles	
1870:../Libraries/STM32F30x_StdPeriph_Driver/src/stm32f30x_adc.c ****   * @retval None
1871:../Libraries/STM32F30x_StdPeriph_Driver/src/stm32f30x_adc.c ****   */
1872:../Libraries/STM32F30x_StdPeriph_Driver/src/stm32f30x_adc.c **** void ADC_InjectedChannelSampleTimeConfig(ADC_TypeDef* ADCx, uint8_t ADC_InjectedChannel, uint8_t AD
1873:../Libraries/STM32F30x_StdPeriph_Driver/src/stm32f30x_adc.c **** {
 2688              		.loc 1 1873 0
 2689              		.cfi_startproc
 2690              		@ args = 0, pretend = 0, frame = 16
 2691              		@ frame_needed = 0, uses_anonymous_args = 0
 2692              		@ link register save eliminated.
 2693 0ea4 84B0     		sub	sp, sp, #16
 2694              	.LCFI50:
 2695              		.cfi_def_cfa_offset 16
 2696 0ea6 0190     		str	r0, [sp, #4]
 2697 0ea8 1346     		mov	r3, r2
 2698 0eaa 0A46     		mov	r2, r1
 2699 0eac 8DF80320 		strb	r2, [sp, #3]
 2700 0eb0 8DF80230 		strb	r3, [sp, #2]
1874:../Libraries/STM32F30x_StdPeriph_Driver/src/stm32f30x_adc.c ****   uint32_t tmpreg1 = 0;
 2701              		.loc 1 1874 0
 2702 0eb4 4FF00003 		mov	r3, #0
 2703 0eb8 0393     		str	r3, [sp, #12]
1875:../Libraries/STM32F30x_StdPeriph_Driver/src/stm32f30x_adc.c ****   /* Check the parameters */
1876:../Libraries/STM32F30x_StdPeriph_Driver/src/stm32f30x_adc.c ****   assert_param(IS_ADC_ALL_PERIPH(ADCx));
1877:../Libraries/STM32F30x_StdPeriph_Driver/src/stm32f30x_adc.c ****   assert_param(IS_ADC_INJECTED_CHANNEL(ADC_InjectedChannel));
1878:../Libraries/STM32F30x_StdPeriph_Driver/src/stm32f30x_adc.c ****   assert_param(IS_ADC_SAMPLE_TIME(ADC_SampleTime));
1879:../Libraries/STM32F30x_StdPeriph_Driver/src/stm32f30x_adc.c **** 
1880:../Libraries/STM32F30x_StdPeriph_Driver/src/stm32f30x_adc.c ****   /* Channel sampling configuration */
1881:../Libraries/STM32F30x_StdPeriph_Driver/src/stm32f30x_adc.c ****   /* if ADC_InjectedChannel_10 ... ADC_InjectedChannel_18 is selected */
1882:../Libraries/STM32F30x_StdPeriph_Driver/src/stm32f30x_adc.c ****   if (ADC_InjectedChannel > ADC_InjectedChannel_9)
 2704              		.loc 1 1882 0
 2705 0eba 9DF80330 		ldrb	r3, [sp, #3]	@ zero_extendqisi2
 2706 0ebe 092B     		cmp	r3, #9
 2707 0ec0 27D9     		bls	.L116
1883:../Libraries/STM32F30x_StdPeriph_Driver/src/stm32f30x_adc.c ****   {
1884:../Libraries/STM32F30x_StdPeriph_Driver/src/stm32f30x_adc.c ****     /* Calculate the mask to clear */
1885:../Libraries/STM32F30x_StdPeriph_Driver/src/stm32f30x_adc.c ****     tmpreg1 = ADC_SMPR2_SMP10 << (3 * (ADC_InjectedChannel - 10));
 2708              		.loc 1 1885 0
 2709 0ec2 9DF80320 		ldrb	r2, [sp, #3]	@ zero_extendqisi2
 2710 0ec6 1346     		mov	r3, r2
 2711 0ec8 4FEA4303 		lsl	r3, r3, #1
 2712 0ecc 9B18     		adds	r3, r3, r2
 2713 0ece A3F11E03 		sub	r3, r3, #30
 2714 0ed2 4FF00702 		mov	r2, #7
 2715 0ed6 02FA03F3 		lsl	r3, r2, r3
 2716 0eda 0393     		str	r3, [sp, #12]
1886:../Libraries/STM32F30x_StdPeriph_Driver/src/stm32f30x_adc.c ****     /* Clear the old channel sample time */
1887:../Libraries/STM32F30x_StdPeriph_Driver/src/stm32f30x_adc.c **** 	ADCx->SMPR2 &= ~tmpreg1;
 2717              		.loc 1 1887 0
 2718 0edc 019B     		ldr	r3, [sp, #4]
 2719 0ede 9A69     		ldr	r2, [r3, #24]
 2720 0ee0 039B     		ldr	r3, [sp, #12]
 2721 0ee2 6FEA0303 		mvn	r3, r3
 2722 0ee6 1A40     		ands	r2, r2, r3
 2723 0ee8 019B     		ldr	r3, [sp, #4]
 2724 0eea 9A61     		str	r2, [r3, #24]
1888:../Libraries/STM32F30x_StdPeriph_Driver/src/stm32f30x_adc.c ****     /* Calculate the mask to set */
1889:../Libraries/STM32F30x_StdPeriph_Driver/src/stm32f30x_adc.c **** 	ADCx->SMPR2 |= (uint32_t)ADC_SampleTime << (3 * (ADC_InjectedChannel - 10));
 2725              		.loc 1 1889 0
 2726 0eec 019B     		ldr	r3, [sp, #4]
 2727 0eee 9969     		ldr	r1, [r3, #24]
 2728 0ef0 9DF80200 		ldrb	r0, [sp, #2]	@ zero_extendqisi2
 2729 0ef4 9DF80320 		ldrb	r2, [sp, #3]	@ zero_extendqisi2
 2730 0ef8 1346     		mov	r3, r2
 2731 0efa 4FEA4303 		lsl	r3, r3, #1
 2732 0efe 9B18     		adds	r3, r3, r2
 2733 0f00 A3F11E03 		sub	r3, r3, #30
 2734 0f04 00FA03F3 		lsl	r3, r0, r3
 2735 0f08 41EA0302 		orr	r2, r1, r3
 2736 0f0c 019B     		ldr	r3, [sp, #4]
 2737 0f0e 9A61     		str	r2, [r3, #24]
 2738 0f10 24E0     		b	.L115
 2739              	.L116:
1890:../Libraries/STM32F30x_StdPeriph_Driver/src/stm32f30x_adc.c **** 
1891:../Libraries/STM32F30x_StdPeriph_Driver/src/stm32f30x_adc.c ****   }
1892:../Libraries/STM32F30x_StdPeriph_Driver/src/stm32f30x_adc.c ****   else /* ADC_InjectedChannel include in ADC_InjectedChannel_[0..9] */
1893:../Libraries/STM32F30x_StdPeriph_Driver/src/stm32f30x_adc.c ****   {
1894:../Libraries/STM32F30x_StdPeriph_Driver/src/stm32f30x_adc.c ****     /* Calculate the mask to clear */
1895:../Libraries/STM32F30x_StdPeriph_Driver/src/stm32f30x_adc.c ****     tmpreg1 = ADC_SMPR1_SMP1 << (3 * (ADC_InjectedChannel - 1));
 2740              		.loc 1 1895 0
 2741 0f12 9DF80330 		ldrb	r3, [sp, #3]	@ zero_extendqisi2
 2742 0f16 03F1FF32 		add	r2, r3, #-1
 2743 0f1a 1346     		mov	r3, r2
 2744 0f1c 4FEA4303 		lsl	r3, r3, #1
 2745 0f20 9B18     		adds	r3, r3, r2
 2746 0f22 4FF03802 		mov	r2, #56
 2747 0f26 02FA03F3 		lsl	r3, r2, r3
 2748 0f2a 0393     		str	r3, [sp, #12]
1896:../Libraries/STM32F30x_StdPeriph_Driver/src/stm32f30x_adc.c ****     /* Clear the old channel sample time */
1897:../Libraries/STM32F30x_StdPeriph_Driver/src/stm32f30x_adc.c **** 	ADCx->SMPR1 &= ~tmpreg1;
 2749              		.loc 1 1897 0
 2750 0f2c 019B     		ldr	r3, [sp, #4]
 2751 0f2e 5A69     		ldr	r2, [r3, #20]
 2752 0f30 039B     		ldr	r3, [sp, #12]
 2753 0f32 6FEA0303 		mvn	r3, r3
 2754 0f36 1A40     		ands	r2, r2, r3
 2755 0f38 019B     		ldr	r3, [sp, #4]
 2756 0f3a 5A61     		str	r2, [r3, #20]
1898:../Libraries/STM32F30x_StdPeriph_Driver/src/stm32f30x_adc.c ****     /* Calculate the mask to set */
1899:../Libraries/STM32F30x_StdPeriph_Driver/src/stm32f30x_adc.c **** 	ADCx->SMPR1 |= (uint32_t)ADC_SampleTime << (3 * (ADC_InjectedChannel));
 2757              		.loc 1 1899 0
 2758 0f3c 019B     		ldr	r3, [sp, #4]
 2759 0f3e 5969     		ldr	r1, [r3, #20]
 2760 0f40 9DF80200 		ldrb	r0, [sp, #2]	@ zero_extendqisi2
 2761 0f44 9DF80320 		ldrb	r2, [sp, #3]	@ zero_extendqisi2
 2762 0f48 1346     		mov	r3, r2
 2763 0f4a 4FEA4303 		lsl	r3, r3, #1
 2764 0f4e 9B18     		adds	r3, r3, r2
 2765 0f50 00FA03F3 		lsl	r3, r0, r3
 2766 0f54 41EA0302 		orr	r2, r1, r3
 2767 0f58 019B     		ldr	r3, [sp, #4]
 2768 0f5a 5A61     		str	r2, [r3, #20]
 2769              	.L115:
1900:../Libraries/STM32F30x_StdPeriph_Driver/src/stm32f30x_adc.c ****   }  
1901:../Libraries/STM32F30x_StdPeriph_Driver/src/stm32f30x_adc.c **** }
 2770              		.loc 1 1901 0
 2771 0f5c 04B0     		add	sp, sp, #16
 2772 0f5e 7047     		bx	lr
 2773              		.cfi_endproc
 2774              	.LFE160:
 2776              		.align	2
 2777              		.global	ADC_StartInjectedConversion
 2778              		.thumb
 2779              		.thumb_func
 2781              	ADC_StartInjectedConversion:
 2782              	.LFB161:
1902:../Libraries/STM32F30x_StdPeriph_Driver/src/stm32f30x_adc.c **** 
1903:../Libraries/STM32F30x_StdPeriph_Driver/src/stm32f30x_adc.c **** /**
1904:../Libraries/STM32F30x_StdPeriph_Driver/src/stm32f30x_adc.c ****   * @brief  Enables or disables the selected ADC start of the injected 
1905:../Libraries/STM32F30x_StdPeriph_Driver/src/stm32f30x_adc.c ****   *         channels conversion.
1906:../Libraries/STM32F30x_StdPeriph_Driver/src/stm32f30x_adc.c ****   * @param  ADCx: where x can be 1, 2, 3 or 4 to select the ADC peripheral.
1907:../Libraries/STM32F30x_StdPeriph_Driver/src/stm32f30x_adc.c ****   * @param  NewState: new state of the selected ADC software start injected conversion.
1908:../Libraries/STM32F30x_StdPeriph_Driver/src/stm32f30x_adc.c ****   *   This parameter can be: ENABLE or DISABLE.
1909:../Libraries/STM32F30x_StdPeriph_Driver/src/stm32f30x_adc.c ****   * @retval None
1910:../Libraries/STM32F30x_StdPeriph_Driver/src/stm32f30x_adc.c ****   */
1911:../Libraries/STM32F30x_StdPeriph_Driver/src/stm32f30x_adc.c **** void ADC_StartInjectedConversion(ADC_TypeDef* ADCx)
1912:../Libraries/STM32F30x_StdPeriph_Driver/src/stm32f30x_adc.c **** {
 2783              		.loc 1 1912 0
 2784              		.cfi_startproc
 2785              		@ args = 0, pretend = 0, frame = 8
 2786              		@ frame_needed = 0, uses_anonymous_args = 0
 2787              		@ link register save eliminated.
 2788 0f60 82B0     		sub	sp, sp, #8
 2789              	.LCFI51:
 2790              		.cfi_def_cfa_offset 8
 2791 0f62 0190     		str	r0, [sp, #4]
1913:../Libraries/STM32F30x_StdPeriph_Driver/src/stm32f30x_adc.c ****   /* Check the parameters */
1914:../Libraries/STM32F30x_StdPeriph_Driver/src/stm32f30x_adc.c ****   assert_param(IS_ADC_ALL_PERIPH(ADCx));
1915:../Libraries/STM32F30x_StdPeriph_Driver/src/stm32f30x_adc.c **** 
1916:../Libraries/STM32F30x_StdPeriph_Driver/src/stm32f30x_adc.c ****   /* Enable the selected ADC conversion for injected group on external event and start the selected
1917:../Libraries/STM32F30x_StdPeriph_Driver/src/stm32f30x_adc.c ****      ADC injected conversion */
1918:../Libraries/STM32F30x_StdPeriph_Driver/src/stm32f30x_adc.c ****   ADCx->CR |= ADC_CR_JADSTART;
 2792              		.loc 1 1918 0
 2793 0f64 019B     		ldr	r3, [sp, #4]
 2794 0f66 9B68     		ldr	r3, [r3, #8]
 2795 0f68 43F00802 		orr	r2, r3, #8
 2796 0f6c 019B     		ldr	r3, [sp, #4]
 2797 0f6e 9A60     		str	r2, [r3, #8]
1919:../Libraries/STM32F30x_StdPeriph_Driver/src/stm32f30x_adc.c **** }
 2798              		.loc 1 1919 0
 2799 0f70 02B0     		add	sp, sp, #8
 2800 0f72 7047     		bx	lr
 2801              		.cfi_endproc
 2802              	.LFE161:
 2804              		.align	2
 2805              		.global	ADC_StopInjectedConversion
 2806              		.thumb
 2807              		.thumb_func
 2809              	ADC_StopInjectedConversion:
 2810              	.LFB162:
1920:../Libraries/STM32F30x_StdPeriph_Driver/src/stm32f30x_adc.c **** 
1921:../Libraries/STM32F30x_StdPeriph_Driver/src/stm32f30x_adc.c **** /**
1922:../Libraries/STM32F30x_StdPeriph_Driver/src/stm32f30x_adc.c ****   * @brief  Stops the selected ADC ongoing injected conversion.
1923:../Libraries/STM32F30x_StdPeriph_Driver/src/stm32f30x_adc.c ****   * @param  ADCx: where x can be 1, 2, 3 or 4 to select the ADC peripheral.
1924:../Libraries/STM32F30x_StdPeriph_Driver/src/stm32f30x_adc.c ****   * @retval None
1925:../Libraries/STM32F30x_StdPeriph_Driver/src/stm32f30x_adc.c ****   */
1926:../Libraries/STM32F30x_StdPeriph_Driver/src/stm32f30x_adc.c **** void ADC_StopInjectedConversion(ADC_TypeDef* ADCx)
1927:../Libraries/STM32F30x_StdPeriph_Driver/src/stm32f30x_adc.c **** {
 2811              		.loc 1 1927 0
 2812              		.cfi_startproc
 2813              		@ args = 0, pretend = 0, frame = 8
 2814              		@ frame_needed = 0, uses_anonymous_args = 0
 2815              		@ link register save eliminated.
 2816 0f74 82B0     		sub	sp, sp, #8
 2817              	.LCFI52:
 2818              		.cfi_def_cfa_offset 8
 2819 0f76 0190     		str	r0, [sp, #4]
1928:../Libraries/STM32F30x_StdPeriph_Driver/src/stm32f30x_adc.c ****   /* Check the parameters */
1929:../Libraries/STM32F30x_StdPeriph_Driver/src/stm32f30x_adc.c ****   assert_param(IS_ADC_ALL_PERIPH(ADCx));
1930:../Libraries/STM32F30x_StdPeriph_Driver/src/stm32f30x_adc.c **** 
1931:../Libraries/STM32F30x_StdPeriph_Driver/src/stm32f30x_adc.c ****   /* Set the JADSTP bit */
1932:../Libraries/STM32F30x_StdPeriph_Driver/src/stm32f30x_adc.c ****    ADCx->CR |= ADC_CR_JADSTP;
 2820              		.loc 1 1932 0
 2821 0f78 019B     		ldr	r3, [sp, #4]
 2822 0f7a 9B68     		ldr	r3, [r3, #8]
 2823 0f7c 43F02002 		orr	r2, r3, #32
 2824 0f80 019B     		ldr	r3, [sp, #4]
 2825 0f82 9A60     		str	r2, [r3, #8]
1933:../Libraries/STM32F30x_StdPeriph_Driver/src/stm32f30x_adc.c **** }
 2826              		.loc 1 1933 0
 2827 0f84 02B0     		add	sp, sp, #8
 2828 0f86 7047     		bx	lr
 2829              		.cfi_endproc
 2830              	.LFE162:
 2832              		.align	2
 2833              		.global	ADC_GetStartInjectedConversionStatus
 2834              		.thumb
 2835              		.thumb_func
 2837              	ADC_GetStartInjectedConversionStatus:
 2838              	.LFB163:
1934:../Libraries/STM32F30x_StdPeriph_Driver/src/stm32f30x_adc.c **** 
1935:../Libraries/STM32F30x_StdPeriph_Driver/src/stm32f30x_adc.c **** /**
1936:../Libraries/STM32F30x_StdPeriph_Driver/src/stm32f30x_adc.c ****   * @brief  Gets the selected ADC Software start injected conversion Status.
1937:../Libraries/STM32F30x_StdPeriph_Driver/src/stm32f30x_adc.c ****   * @param  ADCx: where x can be 1, 2, 3 or 4 to select the ADC peripheral.
1938:../Libraries/STM32F30x_StdPeriph_Driver/src/stm32f30x_adc.c ****   * @retval The new state of ADC start injected conversion (SET or RESET).
1939:../Libraries/STM32F30x_StdPeriph_Driver/src/stm32f30x_adc.c ****   */
1940:../Libraries/STM32F30x_StdPeriph_Driver/src/stm32f30x_adc.c **** FlagStatus ADC_GetStartInjectedConversionStatus(ADC_TypeDef* ADCx)
1941:../Libraries/STM32F30x_StdPeriph_Driver/src/stm32f30x_adc.c **** {
 2839              		.loc 1 1941 0
 2840              		.cfi_startproc
 2841              		@ args = 0, pretend = 0, frame = 16
 2842              		@ frame_needed = 0, uses_anonymous_args = 0
 2843              		@ link register save eliminated.
 2844 0f88 84B0     		sub	sp, sp, #16
 2845              	.LCFI53:
 2846              		.cfi_def_cfa_offset 16
 2847 0f8a 0190     		str	r0, [sp, #4]
1942:../Libraries/STM32F30x_StdPeriph_Driver/src/stm32f30x_adc.c ****   FlagStatus bitstatus = RESET;
 2848              		.loc 1 1942 0
 2849 0f8c 4FF00003 		mov	r3, #0
 2850 0f90 8DF80F30 		strb	r3, [sp, #15]
1943:../Libraries/STM32F30x_StdPeriph_Driver/src/stm32f30x_adc.c ****   /* Check the parameters */
1944:../Libraries/STM32F30x_StdPeriph_Driver/src/stm32f30x_adc.c ****   assert_param(IS_ADC_ALL_PERIPH(ADCx));
1945:../Libraries/STM32F30x_StdPeriph_Driver/src/stm32f30x_adc.c **** 
1946:../Libraries/STM32F30x_StdPeriph_Driver/src/stm32f30x_adc.c ****   /* Check the status of JADSTART bit */
1947:../Libraries/STM32F30x_StdPeriph_Driver/src/stm32f30x_adc.c ****   if ((ADCx->CR & ADC_CR_JADSTART) != (uint32_t)RESET)
 2851              		.loc 1 1947 0
 2852 0f94 019B     		ldr	r3, [sp, #4]
 2853 0f96 9B68     		ldr	r3, [r3, #8]
 2854 0f98 03F00803 		and	r3, r3, #8
 2855 0f9c 002B     		cmp	r3, #0
 2856 0f9e 04D0     		beq	.L121
1948:../Libraries/STM32F30x_StdPeriph_Driver/src/stm32f30x_adc.c ****   {
1949:../Libraries/STM32F30x_StdPeriph_Driver/src/stm32f30x_adc.c ****     /* JADSTART bit is set */
1950:../Libraries/STM32F30x_StdPeriph_Driver/src/stm32f30x_adc.c ****     bitstatus = SET;
 2857              		.loc 1 1950 0
 2858 0fa0 4FF00103 		mov	r3, #1
 2859 0fa4 8DF80F30 		strb	r3, [sp, #15]
 2860 0fa8 03E0     		b	.L122
 2861              	.L121:
1951:../Libraries/STM32F30x_StdPeriph_Driver/src/stm32f30x_adc.c ****   }
1952:../Libraries/STM32F30x_StdPeriph_Driver/src/stm32f30x_adc.c ****   else
1953:../Libraries/STM32F30x_StdPeriph_Driver/src/stm32f30x_adc.c ****   {
1954:../Libraries/STM32F30x_StdPeriph_Driver/src/stm32f30x_adc.c ****     /* JADSTART bit is reset */
1955:../Libraries/STM32F30x_StdPeriph_Driver/src/stm32f30x_adc.c ****     bitstatus = RESET;
 2862              		.loc 1 1955 0
 2863 0faa 4FF00003 		mov	r3, #0
 2864 0fae 8DF80F30 		strb	r3, [sp, #15]
 2865              	.L122:
1956:../Libraries/STM32F30x_StdPeriph_Driver/src/stm32f30x_adc.c ****   }
1957:../Libraries/STM32F30x_StdPeriph_Driver/src/stm32f30x_adc.c ****   /* Return the JADSTART bit status */
1958:../Libraries/STM32F30x_StdPeriph_Driver/src/stm32f30x_adc.c ****   return  bitstatus;
 2866              		.loc 1 1958 0
 2867 0fb2 9DF80F30 		ldrb	r3, [sp, #15]	@ zero_extendqisi2
1959:../Libraries/STM32F30x_StdPeriph_Driver/src/stm32f30x_adc.c **** }
 2868              		.loc 1 1959 0
 2869 0fb6 1846     		mov	r0, r3
 2870 0fb8 04B0     		add	sp, sp, #16
 2871 0fba 7047     		bx	lr
 2872              		.cfi_endproc
 2873              	.LFE163:
 2875              		.align	2
 2876              		.global	ADC_AutoInjectedConvCmd
 2877              		.thumb
 2878              		.thumb_func
 2880              	ADC_AutoInjectedConvCmd:
 2881              	.LFB164:
1960:../Libraries/STM32F30x_StdPeriph_Driver/src/stm32f30x_adc.c **** 
1961:../Libraries/STM32F30x_StdPeriph_Driver/src/stm32f30x_adc.c **** /**
1962:../Libraries/STM32F30x_StdPeriph_Driver/src/stm32f30x_adc.c ****   * @brief  Enables or disables the selected ADC automatic injected group
1963:../Libraries/STM32F30x_StdPeriph_Driver/src/stm32f30x_adc.c ****   *         conversion after regular one.
1964:../Libraries/STM32F30x_StdPeriph_Driver/src/stm32f30x_adc.c ****   * @param  ADCx: where x can be 1, 2, 3 or 4 to select the ADC peripheral.
1965:../Libraries/STM32F30x_StdPeriph_Driver/src/stm32f30x_adc.c ****   * @param  NewState: new state of the selected ADC auto injected conversion
1966:../Libraries/STM32F30x_StdPeriph_Driver/src/stm32f30x_adc.c ****   *   This parameter can be: ENABLE or DISABLE.
1967:../Libraries/STM32F30x_StdPeriph_Driver/src/stm32f30x_adc.c ****   * @retval None
1968:../Libraries/STM32F30x_StdPeriph_Driver/src/stm32f30x_adc.c ****   */
1969:../Libraries/STM32F30x_StdPeriph_Driver/src/stm32f30x_adc.c **** void ADC_AutoInjectedConvCmd(ADC_TypeDef* ADCx, FunctionalState NewState)
1970:../Libraries/STM32F30x_StdPeriph_Driver/src/stm32f30x_adc.c **** {
 2882              		.loc 1 1970 0
 2883              		.cfi_startproc
 2884              		@ args = 0, pretend = 0, frame = 8
 2885              		@ frame_needed = 0, uses_anonymous_args = 0
 2886              		@ link register save eliminated.
 2887 0fbc 82B0     		sub	sp, sp, #8
 2888              	.LCFI54:
 2889              		.cfi_def_cfa_offset 8
 2890 0fbe 0190     		str	r0, [sp, #4]
 2891 0fc0 0B46     		mov	r3, r1
 2892 0fc2 8DF80330 		strb	r3, [sp, #3]
1971:../Libraries/STM32F30x_StdPeriph_Driver/src/stm32f30x_adc.c ****   /* Check the parameters */
1972:../Libraries/STM32F30x_StdPeriph_Driver/src/stm32f30x_adc.c ****   assert_param(IS_ADC_ALL_PERIPH(ADCx));
1973:../Libraries/STM32F30x_StdPeriph_Driver/src/stm32f30x_adc.c ****   assert_param(IS_FUNCTIONAL_STATE(NewState));
1974:../Libraries/STM32F30x_StdPeriph_Driver/src/stm32f30x_adc.c ****   if (NewState != DISABLE)
 2893              		.loc 1 1974 0
 2894 0fc6 9DF80330 		ldrb	r3, [sp, #3]	@ zero_extendqisi2
 2895 0fca 002B     		cmp	r3, #0
 2896 0fcc 06D0     		beq	.L124
1975:../Libraries/STM32F30x_StdPeriph_Driver/src/stm32f30x_adc.c ****   {
1976:../Libraries/STM32F30x_StdPeriph_Driver/src/stm32f30x_adc.c ****     /* Enable the selected ADC automatic injected group conversion */
1977:../Libraries/STM32F30x_StdPeriph_Driver/src/stm32f30x_adc.c ****     ADCx->CFGR |= ADC_CFGR_JAUTO;
 2897              		.loc 1 1977 0
 2898 0fce 019B     		ldr	r3, [sp, #4]
 2899 0fd0 DB68     		ldr	r3, [r3, #12]
 2900 0fd2 43F00072 		orr	r2, r3, #33554432
 2901 0fd6 019B     		ldr	r3, [sp, #4]
 2902 0fd8 DA60     		str	r2, [r3, #12]
 2903 0fda 05E0     		b	.L123
 2904              	.L124:
1978:../Libraries/STM32F30x_StdPeriph_Driver/src/stm32f30x_adc.c ****   }
1979:../Libraries/STM32F30x_StdPeriph_Driver/src/stm32f30x_adc.c ****   else
1980:../Libraries/STM32F30x_StdPeriph_Driver/src/stm32f30x_adc.c ****   {
1981:../Libraries/STM32F30x_StdPeriph_Driver/src/stm32f30x_adc.c ****     /* Disable the selected ADC automatic injected group conversion */
1982:../Libraries/STM32F30x_StdPeriph_Driver/src/stm32f30x_adc.c ****     ADCx->CFGR &= ~ADC_CFGR_JAUTO;
 2905              		.loc 1 1982 0
 2906 0fdc 019B     		ldr	r3, [sp, #4]
 2907 0fde DB68     		ldr	r3, [r3, #12]
 2908 0fe0 23F00072 		bic	r2, r3, #33554432
 2909 0fe4 019B     		ldr	r3, [sp, #4]
 2910 0fe6 DA60     		str	r2, [r3, #12]
 2911              	.L123:
1983:../Libraries/STM32F30x_StdPeriph_Driver/src/stm32f30x_adc.c ****   }
1984:../Libraries/STM32F30x_StdPeriph_Driver/src/stm32f30x_adc.c **** }
 2912              		.loc 1 1984 0
 2913 0fe8 02B0     		add	sp, sp, #8
 2914 0fea 7047     		bx	lr
 2915              		.cfi_endproc
 2916              	.LFE164:
 2918              		.align	2
 2919              		.global	ADC_InjectedDiscModeCmd
 2920              		.thumb
 2921              		.thumb_func
 2923              	ADC_InjectedDiscModeCmd:
 2924              	.LFB165:
1985:../Libraries/STM32F30x_StdPeriph_Driver/src/stm32f30x_adc.c **** 
1986:../Libraries/STM32F30x_StdPeriph_Driver/src/stm32f30x_adc.c **** /**
1987:../Libraries/STM32F30x_StdPeriph_Driver/src/stm32f30x_adc.c ****   * @brief  Enables or disables the discontinuous mode for injected group
1988:../Libraries/STM32F30x_StdPeriph_Driver/src/stm32f30x_adc.c ****   *         channel for the specified ADC
1989:../Libraries/STM32F30x_StdPeriph_Driver/src/stm32f30x_adc.c ****   * @param  ADCx: where x can be 1, 2, 3 or 4 to select the ADC peripheral.
1990:../Libraries/STM32F30x_StdPeriph_Driver/src/stm32f30x_adc.c ****   * @param  NewState: new state of the selected ADC discontinuous mode
1991:../Libraries/STM32F30x_StdPeriph_Driver/src/stm32f30x_adc.c ****   *         on injected group channel.
1992:../Libraries/STM32F30x_StdPeriph_Driver/src/stm32f30x_adc.c ****   *   This parameter can be: ENABLE or DISABLE.
1993:../Libraries/STM32F30x_StdPeriph_Driver/src/stm32f30x_adc.c ****   * @retval None
1994:../Libraries/STM32F30x_StdPeriph_Driver/src/stm32f30x_adc.c ****   */
1995:../Libraries/STM32F30x_StdPeriph_Driver/src/stm32f30x_adc.c **** void ADC_InjectedDiscModeCmd(ADC_TypeDef* ADCx, FunctionalState NewState)
1996:../Libraries/STM32F30x_StdPeriph_Driver/src/stm32f30x_adc.c **** {
 2925              		.loc 1 1996 0
 2926              		.cfi_startproc
 2927              		@ args = 0, pretend = 0, frame = 8
 2928              		@ frame_needed = 0, uses_anonymous_args = 0
 2929              		@ link register save eliminated.
 2930 0fec 82B0     		sub	sp, sp, #8
 2931              	.LCFI55:
 2932              		.cfi_def_cfa_offset 8
 2933 0fee 0190     		str	r0, [sp, #4]
 2934 0ff0 0B46     		mov	r3, r1
 2935 0ff2 8DF80330 		strb	r3, [sp, #3]
1997:../Libraries/STM32F30x_StdPeriph_Driver/src/stm32f30x_adc.c ****   /* Check the parameters */
1998:../Libraries/STM32F30x_StdPeriph_Driver/src/stm32f30x_adc.c ****   assert_param(IS_ADC_ALL_PERIPH(ADCx));
1999:../Libraries/STM32F30x_StdPeriph_Driver/src/stm32f30x_adc.c ****   assert_param(IS_FUNCTIONAL_STATE(NewState));
2000:../Libraries/STM32F30x_StdPeriph_Driver/src/stm32f30x_adc.c ****   if (NewState != DISABLE)
 2936              		.loc 1 2000 0
 2937 0ff6 9DF80330 		ldrb	r3, [sp, #3]	@ zero_extendqisi2
 2938 0ffa 002B     		cmp	r3, #0
 2939 0ffc 06D0     		beq	.L127
2001:../Libraries/STM32F30x_StdPeriph_Driver/src/stm32f30x_adc.c ****   {
2002:../Libraries/STM32F30x_StdPeriph_Driver/src/stm32f30x_adc.c ****     /* Enable the selected ADC injected discontinuous mode */
2003:../Libraries/STM32F30x_StdPeriph_Driver/src/stm32f30x_adc.c ****     ADCx->CFGR |= ADC_CFGR_JDISCEN;
 2940              		.loc 1 2003 0
 2941 0ffe 019B     		ldr	r3, [sp, #4]
 2942 1000 DB68     		ldr	r3, [r3, #12]
 2943 1002 43F48012 		orr	r2, r3, #1048576
 2944 1006 019B     		ldr	r3, [sp, #4]
 2945 1008 DA60     		str	r2, [r3, #12]
 2946 100a 05E0     		b	.L126
 2947              	.L127:
2004:../Libraries/STM32F30x_StdPeriph_Driver/src/stm32f30x_adc.c ****   }
2005:../Libraries/STM32F30x_StdPeriph_Driver/src/stm32f30x_adc.c ****   else
2006:../Libraries/STM32F30x_StdPeriph_Driver/src/stm32f30x_adc.c ****   {
2007:../Libraries/STM32F30x_StdPeriph_Driver/src/stm32f30x_adc.c ****     /* Disable the selected ADC injected discontinuous mode */
2008:../Libraries/STM32F30x_StdPeriph_Driver/src/stm32f30x_adc.c ****     ADCx->CFGR &= ~ADC_CFGR_JDISCEN;
 2948              		.loc 1 2008 0
 2949 100c 019B     		ldr	r3, [sp, #4]
 2950 100e DB68     		ldr	r3, [r3, #12]
 2951 1010 23F48012 		bic	r2, r3, #1048576
 2952 1014 019B     		ldr	r3, [sp, #4]
 2953 1016 DA60     		str	r2, [r3, #12]
 2954              	.L126:
2009:../Libraries/STM32F30x_StdPeriph_Driver/src/stm32f30x_adc.c ****   }
2010:../Libraries/STM32F30x_StdPeriph_Driver/src/stm32f30x_adc.c **** }
 2955              		.loc 1 2010 0
 2956 1018 02B0     		add	sp, sp, #8
 2957 101a 7047     		bx	lr
 2958              		.cfi_endproc
 2959              	.LFE165:
 2961              		.align	2
 2962              		.global	ADC_GetInjectedConversionValue
 2963              		.thumb
 2964              		.thumb_func
 2966              	ADC_GetInjectedConversionValue:
 2967              	.LFB166:
2011:../Libraries/STM32F30x_StdPeriph_Driver/src/stm32f30x_adc.c **** 
2012:../Libraries/STM32F30x_StdPeriph_Driver/src/stm32f30x_adc.c **** /**
2013:../Libraries/STM32F30x_StdPeriph_Driver/src/stm32f30x_adc.c ****   * @brief  Returns the ADC injected channel conversion result
2014:../Libraries/STM32F30x_StdPeriph_Driver/src/stm32f30x_adc.c ****   * @param  ADCx: where x can be 1, 2, 3 or 4 to select the ADC peripheral.
2015:../Libraries/STM32F30x_StdPeriph_Driver/src/stm32f30x_adc.c ****   * @param  ADC_InjectedSequence: the converted ADC injected sequence.
2016:../Libraries/STM32F30x_StdPeriph_Driver/src/stm32f30x_adc.c ****   *   This parameter can be one of the following values:
2017:../Libraries/STM32F30x_StdPeriph_Driver/src/stm32f30x_adc.c ****   *     @arg ADC_InjectedSequence_1: Injected Sequence1 selected
2018:../Libraries/STM32F30x_StdPeriph_Driver/src/stm32f30x_adc.c ****   *     @arg ADC_InjectedSequence_2: Injected Sequence2 selected
2019:../Libraries/STM32F30x_StdPeriph_Driver/src/stm32f30x_adc.c ****   *     @arg ADC_InjectedSequence_3: Injected Sequence3 selected
2020:../Libraries/STM32F30x_StdPeriph_Driver/src/stm32f30x_adc.c ****   *     @arg ADC_InjectedSequence_4: Injected Sequence4 selected
2021:../Libraries/STM32F30x_StdPeriph_Driver/src/stm32f30x_adc.c ****   * @retval The Data conversion value.
2022:../Libraries/STM32F30x_StdPeriph_Driver/src/stm32f30x_adc.c ****   */
2023:../Libraries/STM32F30x_StdPeriph_Driver/src/stm32f30x_adc.c **** uint16_t ADC_GetInjectedConversionValue(ADC_TypeDef* ADCx, uint8_t ADC_InjectedSequence)
2024:../Libraries/STM32F30x_StdPeriph_Driver/src/stm32f30x_adc.c **** {
 2968              		.loc 1 2024 0
 2969              		.cfi_startproc
 2970              		@ args = 0, pretend = 0, frame = 16
 2971              		@ frame_needed = 0, uses_anonymous_args = 0
 2972              		@ link register save eliminated.
 2973 101c 84B0     		sub	sp, sp, #16
 2974              	.LCFI56:
 2975              		.cfi_def_cfa_offset 16
 2976 101e 0190     		str	r0, [sp, #4]
 2977 1020 0B46     		mov	r3, r1
 2978 1022 8DF80330 		strb	r3, [sp, #3]
2025:../Libraries/STM32F30x_StdPeriph_Driver/src/stm32f30x_adc.c ****   __IO uint32_t tmp = 0;
 2979              		.loc 1 2025 0
 2980 1026 4FF00003 		mov	r3, #0
 2981 102a 0393     		str	r3, [sp, #12]
2026:../Libraries/STM32F30x_StdPeriph_Driver/src/stm32f30x_adc.c ****   
2027:../Libraries/STM32F30x_StdPeriph_Driver/src/stm32f30x_adc.c ****   /* Check the parameters */
2028:../Libraries/STM32F30x_StdPeriph_Driver/src/stm32f30x_adc.c ****   assert_param(IS_ADC_ALL_PERIPH(ADCx));
2029:../Libraries/STM32F30x_StdPeriph_Driver/src/stm32f30x_adc.c ****   assert_param(IS_ADC_INJECTED_SEQUENCE(ADC_InjectedSequence));
2030:../Libraries/STM32F30x_StdPeriph_Driver/src/stm32f30x_adc.c **** 
2031:../Libraries/STM32F30x_StdPeriph_Driver/src/stm32f30x_adc.c ****   tmp = (uint32_t)ADCx;
 2982              		.loc 1 2031 0
 2983 102c 019B     		ldr	r3, [sp, #4]
 2984 102e 0393     		str	r3, [sp, #12]
2032:../Libraries/STM32F30x_StdPeriph_Driver/src/stm32f30x_adc.c ****   tmp += ((ADC_InjectedSequence - 1 )<< 2) + JDR_Offset;
 2985              		.loc 1 2032 0
 2986 1030 9DF80330 		ldrb	r3, [sp, #3]	@ zero_extendqisi2
 2987 1034 03F1FF33 		add	r3, r3, #-1
 2988 1038 4FEA8303 		lsl	r3, r3, #2
 2989 103c 1A46     		mov	r2, r3
 2990 103e 039B     		ldr	r3, [sp, #12]
 2991 1040 D318     		adds	r3, r2, r3
 2992 1042 03F18003 		add	r3, r3, #128
 2993 1046 0393     		str	r3, [sp, #12]
2033:../Libraries/STM32F30x_StdPeriph_Driver/src/stm32f30x_adc.c ****   
2034:../Libraries/STM32F30x_StdPeriph_Driver/src/stm32f30x_adc.c ****   /* Returns the selected injected channel conversion data value */
2035:../Libraries/STM32F30x_StdPeriph_Driver/src/stm32f30x_adc.c ****   return (uint16_t) (*(__IO uint32_t*)  tmp);   
 2994              		.loc 1 2035 0
 2995 1048 039B     		ldr	r3, [sp, #12]
 2996 104a 1B68     		ldr	r3, [r3, #0]
 2997 104c 9BB2     		uxth	r3, r3
2036:../Libraries/STM32F30x_StdPeriph_Driver/src/stm32f30x_adc.c **** }
 2998              		.loc 1 2036 0
 2999 104e 1846     		mov	r0, r3
 3000 1050 04B0     		add	sp, sp, #16
 3001 1052 7047     		bx	lr
 3002              		.cfi_endproc
 3003              	.LFE166:
 3005              		.align	2
 3006              		.global	ADC_ITConfig
 3007              		.thumb
 3008              		.thumb_func
 3010              	ADC_ITConfig:
 3011              	.LFB167:
2037:../Libraries/STM32F30x_StdPeriph_Driver/src/stm32f30x_adc.c **** 
2038:../Libraries/STM32F30x_StdPeriph_Driver/src/stm32f30x_adc.c **** /**
2039:../Libraries/STM32F30x_StdPeriph_Driver/src/stm32f30x_adc.c ****   * @}
2040:../Libraries/STM32F30x_StdPeriph_Driver/src/stm32f30x_adc.c ****   */
2041:../Libraries/STM32F30x_StdPeriph_Driver/src/stm32f30x_adc.c **** 
2042:../Libraries/STM32F30x_StdPeriph_Driver/src/stm32f30x_adc.c **** /** @defgroup ADC_Group7 Interrupts and flags management functions
2043:../Libraries/STM32F30x_StdPeriph_Driver/src/stm32f30x_adc.c ****  *  @brief   Interrupts and flags management functions
2044:../Libraries/STM32F30x_StdPeriph_Driver/src/stm32f30x_adc.c ****  *
2045:../Libraries/STM32F30x_StdPeriph_Driver/src/stm32f30x_adc.c **** @verbatim   
2046:../Libraries/STM32F30x_StdPeriph_Driver/src/stm32f30x_adc.c ****  ===============================================================================
2047:../Libraries/STM32F30x_StdPeriph_Driver/src/stm32f30x_adc.c ****                    ##### Interrupts and flags management functions #####
2048:../Libraries/STM32F30x_StdPeriph_Driver/src/stm32f30x_adc.c ****  ===============================================================================  
2049:../Libraries/STM32F30x_StdPeriph_Driver/src/stm32f30x_adc.c **** 
2050:../Libraries/STM32F30x_StdPeriph_Driver/src/stm32f30x_adc.c ****   [..] This section provides functions allowing to configure the ADC Interrupts, get 
2051:../Libraries/STM32F30x_StdPeriph_Driver/src/stm32f30x_adc.c ****         the status and clear flags and Interrupts pending bits.
2052:../Libraries/STM32F30x_StdPeriph_Driver/src/stm32f30x_adc.c ****   
2053:../Libraries/STM32F30x_StdPeriph_Driver/src/stm32f30x_adc.c ****   [..] The ADC provide 11 Interrupts sources and 11 Flags which can be divided into 3 groups:
2054:../Libraries/STM32F30x_StdPeriph_Driver/src/stm32f30x_adc.c ****   
2055:../Libraries/STM32F30x_StdPeriph_Driver/src/stm32f30x_adc.c ****   (#) Flags and Interrupts for ADC regular channels
2056:../Libraries/STM32F30x_StdPeriph_Driver/src/stm32f30x_adc.c ****   (##)Flags
2057:../Libraries/STM32F30x_StdPeriph_Driver/src/stm32f30x_adc.c ****       (+) ADC_FLAG_RDY: ADC Ready flag
2058:../Libraries/STM32F30x_StdPeriph_Driver/src/stm32f30x_adc.c ****       (+) ADC_FLAG_EOSMP: ADC End of Sampling flag
2059:../Libraries/STM32F30x_StdPeriph_Driver/src/stm32f30x_adc.c ****       (+) ADC_FLAG_EOC: ADC End of Regular Conversion flag.
2060:../Libraries/STM32F30x_StdPeriph_Driver/src/stm32f30x_adc.c ****       (+) ADC_FLAG_EOS: ADC End of Regular sequence of Conversions flag
2061:../Libraries/STM32F30x_StdPeriph_Driver/src/stm32f30x_adc.c ****       (+) ADC_FLAG_OVR: ADC overrun flag
2062:../Libraries/STM32F30x_StdPeriph_Driver/src/stm32f30x_adc.c ****      
2063:../Libraries/STM32F30x_StdPeriph_Driver/src/stm32f30x_adc.c ****   (##) Interrupts
2064:../Libraries/STM32F30x_StdPeriph_Driver/src/stm32f30x_adc.c ****       (+) ADC_IT_RDY: ADC Ready interrupt source 
2065:../Libraries/STM32F30x_StdPeriph_Driver/src/stm32f30x_adc.c ****       (+) ADC_IT_EOSMP: ADC End of Sampling interrupt source
2066:../Libraries/STM32F30x_StdPeriph_Driver/src/stm32f30x_adc.c ****       (+) ADC_IT_EOC: ADC End of Regular Conversion interrupt source
2067:../Libraries/STM32F30x_StdPeriph_Driver/src/stm32f30x_adc.c ****       (+) ADC_IT_EOS: ADC End of Regular sequence of Conversions interrupt
2068:../Libraries/STM32F30x_StdPeriph_Driver/src/stm32f30x_adc.c ****       (+) ADC_IT_OVR: ADC overrun interrupt source
2069:../Libraries/STM32F30x_StdPeriph_Driver/src/stm32f30x_adc.c ****   
2070:../Libraries/STM32F30x_StdPeriph_Driver/src/stm32f30x_adc.c ****   
2071:../Libraries/STM32F30x_StdPeriph_Driver/src/stm32f30x_adc.c ****   (#) Flags and Interrupts for ADC regular channels
2072:../Libraries/STM32F30x_StdPeriph_Driver/src/stm32f30x_adc.c ****   (##)Flags
2073:../Libraries/STM32F30x_StdPeriph_Driver/src/stm32f30x_adc.c ****       (+) ADC_FLAG_JEOC: ADC Ready flag
2074:../Libraries/STM32F30x_StdPeriph_Driver/src/stm32f30x_adc.c ****       (+) ADC_FLAG_JEOS: ADC End of Sampling flag
2075:../Libraries/STM32F30x_StdPeriph_Driver/src/stm32f30x_adc.c ****       (+) ADC_FLAG_JQOVF: ADC End of Regular Conversion flag.
2076:../Libraries/STM32F30x_StdPeriph_Driver/src/stm32f30x_adc.c ****      
2077:../Libraries/STM32F30x_StdPeriph_Driver/src/stm32f30x_adc.c ****   (##) Interrupts
2078:../Libraries/STM32F30x_StdPeriph_Driver/src/stm32f30x_adc.c ****       (+) ADC_IT_JEOC: ADC End of Injected Conversion interrupt source 
2079:../Libraries/STM32F30x_StdPeriph_Driver/src/stm32f30x_adc.c ****       (+) ADC_IT_JEOS: ADC End of Injected sequence of Conversions interrupt source
2080:../Libraries/STM32F30x_StdPeriph_Driver/src/stm32f30x_adc.c ****       (+) ADC_IT_JQOVF: ADC Injected Context Queue Overflow interrupt source   
2081:../Libraries/STM32F30x_StdPeriph_Driver/src/stm32f30x_adc.c **** 
2082:../Libraries/STM32F30x_StdPeriph_Driver/src/stm32f30x_adc.c ****   (#) General Flags and Interrupts for the ADC
2083:../Libraries/STM32F30x_StdPeriph_Driver/src/stm32f30x_adc.c ****   (##)Flags 
2084:../Libraries/STM32F30x_StdPeriph_Driver/src/stm32f30x_adc.c ****      (+)  ADC_FLAG_AWD1: ADC Analog watchdog 1 flag
2085:../Libraries/STM32F30x_StdPeriph_Driver/src/stm32f30x_adc.c ****      (+) ADC_FLAG_AWD2: ADC Analog watchdog 2 flag
2086:../Libraries/STM32F30x_StdPeriph_Driver/src/stm32f30x_adc.c ****      (+) ADC_FLAG_AWD3: ADC Analog watchdog 3 flag
2087:../Libraries/STM32F30x_StdPeriph_Driver/src/stm32f30x_adc.c ****     
2088:../Libraries/STM32F30x_StdPeriph_Driver/src/stm32f30x_adc.c ****   (##)Flags 
2089:../Libraries/STM32F30x_StdPeriph_Driver/src/stm32f30x_adc.c ****      (+)  ADC_IT_AWD1: ADC Analog watchdog 1 interrupt source
2090:../Libraries/STM32F30x_StdPeriph_Driver/src/stm32f30x_adc.c ****      (+) ADC_IT_AWD2: ADC Analog watchdog 2 interrupt source
2091:../Libraries/STM32F30x_StdPeriph_Driver/src/stm32f30x_adc.c ****      (+) ADC_IT_AWD3: ADC Analog watchdog 3 interrupt source
2092:../Libraries/STM32F30x_StdPeriph_Driver/src/stm32f30x_adc.c ****      
2093:../Libraries/STM32F30x_StdPeriph_Driver/src/stm32f30x_adc.c ****   (#) Flags  for ADC dual mode
2094:../Libraries/STM32F30x_StdPeriph_Driver/src/stm32f30x_adc.c ****   (##)Flags for Master
2095:../Libraries/STM32F30x_StdPeriph_Driver/src/stm32f30x_adc.c ****      (+) ADC_FLAG_MSTRDY: ADC master Ready (ADRDY) flag 
2096:../Libraries/STM32F30x_StdPeriph_Driver/src/stm32f30x_adc.c ****      (+) ADC_FLAG_MSTEOSMP: ADC master End of Sampling flag 
2097:../Libraries/STM32F30x_StdPeriph_Driver/src/stm32f30x_adc.c ****      (+) ADC_FLAG_MSTEOC: ADC master End of Regular Conversion flag 
2098:../Libraries/STM32F30x_StdPeriph_Driver/src/stm32f30x_adc.c ****      (+) ADC_FLAG_MSTEOS: ADC master End of Regular sequence of Conversions flag 
2099:../Libraries/STM32F30x_StdPeriph_Driver/src/stm32f30x_adc.c ****      (+) ADC_FLAG_MSTOVR: ADC master overrun flag 
2100:../Libraries/STM32F30x_StdPeriph_Driver/src/stm32f30x_adc.c ****      (+) ADC_FLAG_MSTJEOC: ADC master End of Injected Conversion flag 
2101:../Libraries/STM32F30x_StdPeriph_Driver/src/stm32f30x_adc.c ****      (+) ADC_FLAG_MSTJEOS: ADC master End of Injected sequence of Conversions flag 
2102:../Libraries/STM32F30x_StdPeriph_Driver/src/stm32f30x_adc.c ****      (+) ADC_FLAG_MSTAWD1: ADC master Analog watchdog 1 flag 
2103:../Libraries/STM32F30x_StdPeriph_Driver/src/stm32f30x_adc.c ****      (+) ADC_FLAG_MSTAWD2: ADC master Analog watchdog 2 flag 
2104:../Libraries/STM32F30x_StdPeriph_Driver/src/stm32f30x_adc.c ****      (+) ADC_FLAG_MSTAWD3: ADC master Analog watchdog 3 flag 
2105:../Libraries/STM32F30x_StdPeriph_Driver/src/stm32f30x_adc.c ****      (+) ADC_FLAG_MSTJQOVF: ADC master Injected Context Queue Overflow flag       
2106:../Libraries/STM32F30x_StdPeriph_Driver/src/stm32f30x_adc.c ****      
2107:../Libraries/STM32F30x_StdPeriph_Driver/src/stm32f30x_adc.c ****   (##) Flags for Slave
2108:../Libraries/STM32F30x_StdPeriph_Driver/src/stm32f30x_adc.c ****      (+) ADC_FLAG_SLVRDY: ADC slave Ready (ADRDY) flag 
2109:../Libraries/STM32F30x_StdPeriph_Driver/src/stm32f30x_adc.c ****      (+) ADC_FLAG_SLVEOSMP: ADC slave End of Sampling flag 
2110:../Libraries/STM32F30x_StdPeriph_Driver/src/stm32f30x_adc.c ****      (+) ADC_FLAG_SLVEOC: ADC slave End of Regular Conversion flag 
2111:../Libraries/STM32F30x_StdPeriph_Driver/src/stm32f30x_adc.c ****      (+) ADC_FLAG_SLVEOS: ADC slave End of Regular sequence of Conversions flag 
2112:../Libraries/STM32F30x_StdPeriph_Driver/src/stm32f30x_adc.c ****      (+) ADC_FLAG_SLVOVR: ADC slave overrun flag 
2113:../Libraries/STM32F30x_StdPeriph_Driver/src/stm32f30x_adc.c ****      (+) ADC_FLAG_SLVJEOC: ADC slave End of Injected Conversion flag 
2114:../Libraries/STM32F30x_StdPeriph_Driver/src/stm32f30x_adc.c ****      (+) ADC_FLAG_SLVJEOS: ADC slave End of Injected sequence of Conversions flag 
2115:../Libraries/STM32F30x_StdPeriph_Driver/src/stm32f30x_adc.c ****      (+) ADC_FLAG_SLVAWD1: ADC slave Analog watchdog 1 flag 
2116:../Libraries/STM32F30x_StdPeriph_Driver/src/stm32f30x_adc.c ****      (+) ADC_FLAG_SLVAWD2: ADC slave Analog watchdog 2 flag 
2117:../Libraries/STM32F30x_StdPeriph_Driver/src/stm32f30x_adc.c ****      (+) ADC_FLAG_SLVAWD3: ADC slave Analog watchdog 3 flag 
2118:../Libraries/STM32F30x_StdPeriph_Driver/src/stm32f30x_adc.c ****      (+) ADC_FLAG_SLVJQOVF: ADC slave Injected Context Queue Overflow flag 
2119:../Libraries/STM32F30x_StdPeriph_Driver/src/stm32f30x_adc.c ****      
2120:../Libraries/STM32F30x_StdPeriph_Driver/src/stm32f30x_adc.c ****   The user should identify which mode will be used in his application to manage   
2121:../Libraries/STM32F30x_StdPeriph_Driver/src/stm32f30x_adc.c ****   the ADC controller events: Polling mode or Interrupt mode.
2122:../Libraries/STM32F30x_StdPeriph_Driver/src/stm32f30x_adc.c ****   
2123:../Libraries/STM32F30x_StdPeriph_Driver/src/stm32f30x_adc.c ****   In the Polling Mode it is advised to use the following functions:
2124:../Libraries/STM32F30x_StdPeriph_Driver/src/stm32f30x_adc.c ****       - ADC_GetFlagStatus() : to check if flags events occur. 
2125:../Libraries/STM32F30x_StdPeriph_Driver/src/stm32f30x_adc.c ****       - ADC_ClearFlag()     : to clear the flags events.
2126:../Libraries/STM32F30x_StdPeriph_Driver/src/stm32f30x_adc.c ****       
2127:../Libraries/STM32F30x_StdPeriph_Driver/src/stm32f30x_adc.c ****   In the Interrupt Mode it is advised to use the following functions:
2128:../Libraries/STM32F30x_StdPeriph_Driver/src/stm32f30x_adc.c ****      - ADC_ITConfig()       : to enable or disable the interrupt source.
2129:../Libraries/STM32F30x_StdPeriph_Driver/src/stm32f30x_adc.c ****      - ADC_GetITStatus()    : to check if Interrupt occurs.
2130:../Libraries/STM32F30x_StdPeriph_Driver/src/stm32f30x_adc.c ****      - ADC_ClearITPendingBit() : to clear the Interrupt pending Bit 
2131:../Libraries/STM32F30x_StdPeriph_Driver/src/stm32f30x_adc.c ****                                 (corresponding Flag). 
2132:../Libraries/STM32F30x_StdPeriph_Driver/src/stm32f30x_adc.c **** @endverbatim
2133:../Libraries/STM32F30x_StdPeriph_Driver/src/stm32f30x_adc.c ****   * @{
2134:../Libraries/STM32F30x_StdPeriph_Driver/src/stm32f30x_adc.c ****   */ 
2135:../Libraries/STM32F30x_StdPeriph_Driver/src/stm32f30x_adc.c **** 
2136:../Libraries/STM32F30x_StdPeriph_Driver/src/stm32f30x_adc.c **** /**
2137:../Libraries/STM32F30x_StdPeriph_Driver/src/stm32f30x_adc.c ****   * @brief  Enables or disables the specified ADC interrupts.
2138:../Libraries/STM32F30x_StdPeriph_Driver/src/stm32f30x_adc.c ****   * @param  ADCx: where x can be 1, 2 or 3 to select the ADC peripheral.
2139:../Libraries/STM32F30x_StdPeriph_Driver/src/stm32f30x_adc.c ****   * @param  ADC_IT: specifies the ADC interrupt sources to be enabled or disabled. 
2140:../Libraries/STM32F30x_StdPeriph_Driver/src/stm32f30x_adc.c ****   *   This parameter can be any combination of the following values:
2141:../Libraries/STM32F30x_StdPeriph_Driver/src/stm32f30x_adc.c ****   *     @arg ADC_IT_RDY: ADC Ready (ADRDY) interrupt source 
2142:../Libraries/STM32F30x_StdPeriph_Driver/src/stm32f30x_adc.c ****   *     @arg ADC_IT_EOSMP: ADC End of Sampling interrupt source 
2143:../Libraries/STM32F30x_StdPeriph_Driver/src/stm32f30x_adc.c ****   *     @arg ADC_IT_EOC: ADC End of Regular Conversion interrupt source 
2144:../Libraries/STM32F30x_StdPeriph_Driver/src/stm32f30x_adc.c ****   *     @arg ADC_IT_EOS: ADC End of Regular sequence of Conversions interrupt source 
2145:../Libraries/STM32F30x_StdPeriph_Driver/src/stm32f30x_adc.c ****   *     @arg ADC_IT_OVR: ADC overrun interrupt source 
2146:../Libraries/STM32F30x_StdPeriph_Driver/src/stm32f30x_adc.c ****   *     @arg ADC_IT_JEOC: ADC End of Injected Conversion interrupt source 
2147:../Libraries/STM32F30x_StdPeriph_Driver/src/stm32f30x_adc.c ****   *     @arg ADC_IT_JEOS: ADC End of Injected sequence of Conversions interrupt source 
2148:../Libraries/STM32F30x_StdPeriph_Driver/src/stm32f30x_adc.c ****   *     @arg ADC_IT_AWD1: ADC Analog watchdog 1 interrupt source 
2149:../Libraries/STM32F30x_StdPeriph_Driver/src/stm32f30x_adc.c ****   *     @arg ADC_IT_AWD2: ADC Analog watchdog 2 interrupt source 
2150:../Libraries/STM32F30x_StdPeriph_Driver/src/stm32f30x_adc.c ****   *     @arg ADC_IT_AWD3: ADC Analog watchdog 3 interrupt source 
2151:../Libraries/STM32F30x_StdPeriph_Driver/src/stm32f30x_adc.c ****   *     @arg ADC_IT_JQOVF: ADC Injected Context Queue Overflow interrupt source 
2152:../Libraries/STM32F30x_StdPeriph_Driver/src/stm32f30x_adc.c ****   * @param  NewState: new state of the specified ADC interrupts.
2153:../Libraries/STM32F30x_StdPeriph_Driver/src/stm32f30x_adc.c ****   *   This parameter can be: ENABLE or DISABLE.
2154:../Libraries/STM32F30x_StdPeriph_Driver/src/stm32f30x_adc.c ****   * @retval None
2155:../Libraries/STM32F30x_StdPeriph_Driver/src/stm32f30x_adc.c ****   */
2156:../Libraries/STM32F30x_StdPeriph_Driver/src/stm32f30x_adc.c **** void ADC_ITConfig(ADC_TypeDef* ADCx, uint32_t ADC_IT, FunctionalState NewState)
2157:../Libraries/STM32F30x_StdPeriph_Driver/src/stm32f30x_adc.c **** {
 3012              		.loc 1 2157 0
 3013              		.cfi_startproc
 3014              		@ args = 0, pretend = 0, frame = 16
 3015              		@ frame_needed = 0, uses_anonymous_args = 0
 3016              		@ link register save eliminated.
 3017 1054 84B0     		sub	sp, sp, #16
 3018              	.LCFI57:
 3019              		.cfi_def_cfa_offset 16
 3020 1056 0390     		str	r0, [sp, #12]
 3021 1058 0291     		str	r1, [sp, #8]
 3022 105a 1346     		mov	r3, r2
 3023 105c 8DF80730 		strb	r3, [sp, #7]
2158:../Libraries/STM32F30x_StdPeriph_Driver/src/stm32f30x_adc.c ****   /* Check the parameters */
2159:../Libraries/STM32F30x_StdPeriph_Driver/src/stm32f30x_adc.c ****   assert_param(IS_ADC_ALL_PERIPH(ADCx));
2160:../Libraries/STM32F30x_StdPeriph_Driver/src/stm32f30x_adc.c ****   assert_param(IS_FUNCTIONAL_STATE(NewState));
2161:../Libraries/STM32F30x_StdPeriph_Driver/src/stm32f30x_adc.c ****   assert_param(IS_ADC_IT(ADC_IT));
2162:../Libraries/STM32F30x_StdPeriph_Driver/src/stm32f30x_adc.c **** 
2163:../Libraries/STM32F30x_StdPeriph_Driver/src/stm32f30x_adc.c ****   if (NewState != DISABLE)
 3024              		.loc 1 2163 0
 3025 1060 9DF80730 		ldrb	r3, [sp, #7]	@ zero_extendqisi2
 3026 1064 002B     		cmp	r3, #0
 3027 1066 06D0     		beq	.L131
2164:../Libraries/STM32F30x_StdPeriph_Driver/src/stm32f30x_adc.c ****   {
2165:../Libraries/STM32F30x_StdPeriph_Driver/src/stm32f30x_adc.c ****     /* Enable the selected ADC interrupts */
2166:../Libraries/STM32F30x_StdPeriph_Driver/src/stm32f30x_adc.c ****     ADCx->IER |= ADC_IT;
 3028              		.loc 1 2166 0
 3029 1068 039B     		ldr	r3, [sp, #12]
 3030 106a 5A68     		ldr	r2, [r3, #4]
 3031 106c 029B     		ldr	r3, [sp, #8]
 3032 106e 1A43     		orrs	r2, r2, r3
 3033 1070 039B     		ldr	r3, [sp, #12]
 3034 1072 5A60     		str	r2, [r3, #4]
 3035 1074 07E0     		b	.L130
 3036              	.L131:
2167:../Libraries/STM32F30x_StdPeriph_Driver/src/stm32f30x_adc.c ****   }
2168:../Libraries/STM32F30x_StdPeriph_Driver/src/stm32f30x_adc.c ****   else
2169:../Libraries/STM32F30x_StdPeriph_Driver/src/stm32f30x_adc.c ****   {
2170:../Libraries/STM32F30x_StdPeriph_Driver/src/stm32f30x_adc.c ****     /* Disable the selected ADC interrupts */
2171:../Libraries/STM32F30x_StdPeriph_Driver/src/stm32f30x_adc.c ****     ADCx->IER &= (~(uint32_t)ADC_IT);
 3037              		.loc 1 2171 0
 3038 1076 039B     		ldr	r3, [sp, #12]
 3039 1078 5A68     		ldr	r2, [r3, #4]
 3040 107a 029B     		ldr	r3, [sp, #8]
 3041 107c 6FEA0303 		mvn	r3, r3
 3042 1080 1A40     		ands	r2, r2, r3
 3043 1082 039B     		ldr	r3, [sp, #12]
 3044 1084 5A60     		str	r2, [r3, #4]
 3045              	.L130:
2172:../Libraries/STM32F30x_StdPeriph_Driver/src/stm32f30x_adc.c ****   }
2173:../Libraries/STM32F30x_StdPeriph_Driver/src/stm32f30x_adc.c **** }
 3046              		.loc 1 2173 0
 3047 1086 04B0     		add	sp, sp, #16
 3048 1088 7047     		bx	lr
 3049              		.cfi_endproc
 3050              	.LFE167:
 3052 108a 00BF     		.align	2
 3053              		.global	ADC_GetFlagStatus
 3054              		.thumb
 3055              		.thumb_func
 3057              	ADC_GetFlagStatus:
 3058              	.LFB168:
2174:../Libraries/STM32F30x_StdPeriph_Driver/src/stm32f30x_adc.c **** 
2175:../Libraries/STM32F30x_StdPeriph_Driver/src/stm32f30x_adc.c **** /**
2176:../Libraries/STM32F30x_StdPeriph_Driver/src/stm32f30x_adc.c ****   * @brief  Checks whether the specified ADC flag is set or not.
2177:../Libraries/STM32F30x_StdPeriph_Driver/src/stm32f30x_adc.c ****   * @param  ADCx: where x can be 1, 2, 3 or 4 to select the ADC peripheral.
2178:../Libraries/STM32F30x_StdPeriph_Driver/src/stm32f30x_adc.c ****   * @param  ADC_FLAG: specifies the flag to check. 
2179:../Libraries/STM32F30x_StdPeriph_Driver/src/stm32f30x_adc.c ****   *   This parameter can be one of the following values:
2180:../Libraries/STM32F30x_StdPeriph_Driver/src/stm32f30x_adc.c ****   *     @arg ADC_FLAG_RDY: ADC Ready (ADRDY) flag 
2181:../Libraries/STM32F30x_StdPeriph_Driver/src/stm32f30x_adc.c ****   *     @arg ADC_FLAG_EOSMP: ADC End of Sampling flag 
2182:../Libraries/STM32F30x_StdPeriph_Driver/src/stm32f30x_adc.c ****   *     @arg ADC_FLAG_EOC: ADC End of Regular Conversion flag 
2183:../Libraries/STM32F30x_StdPeriph_Driver/src/stm32f30x_adc.c ****   *     @arg ADC_FLAG_EOS: ADC End of Regular sequence of Conversions flag 
2184:../Libraries/STM32F30x_StdPeriph_Driver/src/stm32f30x_adc.c ****   *     @arg ADC_FLAG_OVR: ADC overrun flag 
2185:../Libraries/STM32F30x_StdPeriph_Driver/src/stm32f30x_adc.c ****   *     @arg ADC_FLAG_JEOC: ADC End of Injected Conversion flag 
2186:../Libraries/STM32F30x_StdPeriph_Driver/src/stm32f30x_adc.c ****   *     @arg ADC_FLAG_JEOS: ADC End of Injected sequence of Conversions flag 
2187:../Libraries/STM32F30x_StdPeriph_Driver/src/stm32f30x_adc.c ****   *     @arg ADC_FLAG_AWD1: ADC Analog watchdog 1 flag 
2188:../Libraries/STM32F30x_StdPeriph_Driver/src/stm32f30x_adc.c ****   *     @arg ADC_FLAG_AWD2: ADC Analog watchdog 2 flag 
2189:../Libraries/STM32F30x_StdPeriph_Driver/src/stm32f30x_adc.c ****   *     @arg ADC_FLAG_AWD3: ADC Analog watchdog 3 flag 
2190:../Libraries/STM32F30x_StdPeriph_Driver/src/stm32f30x_adc.c ****   *     @arg ADC_FLAG_JQOVF: ADC Injected Context Queue Overflow flag 
2191:../Libraries/STM32F30x_StdPeriph_Driver/src/stm32f30x_adc.c ****   * @retval The new state of ADC_FLAG (SET or RESET).
2192:../Libraries/STM32F30x_StdPeriph_Driver/src/stm32f30x_adc.c ****   */
2193:../Libraries/STM32F30x_StdPeriph_Driver/src/stm32f30x_adc.c **** FlagStatus ADC_GetFlagStatus(ADC_TypeDef* ADCx, uint32_t ADC_FLAG)
2194:../Libraries/STM32F30x_StdPeriph_Driver/src/stm32f30x_adc.c **** {
 3059              		.loc 1 2194 0
 3060              		.cfi_startproc
 3061              		@ args = 0, pretend = 0, frame = 16
 3062              		@ frame_needed = 0, uses_anonymous_args = 0
 3063              		@ link register save eliminated.
 3064 108c 84B0     		sub	sp, sp, #16
 3065              	.LCFI58:
 3066              		.cfi_def_cfa_offset 16
 3067 108e 0190     		str	r0, [sp, #4]
 3068 1090 0091     		str	r1, [sp, #0]
2195:../Libraries/STM32F30x_StdPeriph_Driver/src/stm32f30x_adc.c ****   FlagStatus bitstatus = RESET;
 3069              		.loc 1 2195 0
 3070 1092 4FF00003 		mov	r3, #0
 3071 1096 8DF80F30 		strb	r3, [sp, #15]
2196:../Libraries/STM32F30x_StdPeriph_Driver/src/stm32f30x_adc.c ****   /* Check the parameters */
2197:../Libraries/STM32F30x_StdPeriph_Driver/src/stm32f30x_adc.c ****   assert_param(IS_ADC_ALL_PERIPH(ADCx));
2198:../Libraries/STM32F30x_StdPeriph_Driver/src/stm32f30x_adc.c ****   assert_param(IS_ADC_GET_FLAG(ADC_FLAG));
2199:../Libraries/STM32F30x_StdPeriph_Driver/src/stm32f30x_adc.c **** 
2200:../Libraries/STM32F30x_StdPeriph_Driver/src/stm32f30x_adc.c ****   /* Check the status of the specified ADC flag */
2201:../Libraries/STM32F30x_StdPeriph_Driver/src/stm32f30x_adc.c ****   if ((ADCx->ISR & ADC_FLAG) != (uint32_t)RESET)
 3072              		.loc 1 2201 0
 3073 109a 019B     		ldr	r3, [sp, #4]
 3074 109c 1A68     		ldr	r2, [r3, #0]
 3075 109e 009B     		ldr	r3, [sp, #0]
 3076 10a0 1340     		ands	r3, r3, r2
 3077 10a2 002B     		cmp	r3, #0
 3078 10a4 04D0     		beq	.L134
2202:../Libraries/STM32F30x_StdPeriph_Driver/src/stm32f30x_adc.c ****   {
2203:../Libraries/STM32F30x_StdPeriph_Driver/src/stm32f30x_adc.c ****     /* ADC_FLAG is set */
2204:../Libraries/STM32F30x_StdPeriph_Driver/src/stm32f30x_adc.c ****     bitstatus = SET;
 3079              		.loc 1 2204 0
 3080 10a6 4FF00103 		mov	r3, #1
 3081 10aa 8DF80F30 		strb	r3, [sp, #15]
 3082 10ae 03E0     		b	.L135
 3083              	.L134:
2205:../Libraries/STM32F30x_StdPeriph_Driver/src/stm32f30x_adc.c ****   }
2206:../Libraries/STM32F30x_StdPeriph_Driver/src/stm32f30x_adc.c ****   else
2207:../Libraries/STM32F30x_StdPeriph_Driver/src/stm32f30x_adc.c ****   {
2208:../Libraries/STM32F30x_StdPeriph_Driver/src/stm32f30x_adc.c ****     /* ADC_FLAG is reset */
2209:../Libraries/STM32F30x_StdPeriph_Driver/src/stm32f30x_adc.c ****     bitstatus = RESET;
 3084              		.loc 1 2209 0
 3085 10b0 4FF00003 		mov	r3, #0
 3086 10b4 8DF80F30 		strb	r3, [sp, #15]
 3087              	.L135:
2210:../Libraries/STM32F30x_StdPeriph_Driver/src/stm32f30x_adc.c ****   }
2211:../Libraries/STM32F30x_StdPeriph_Driver/src/stm32f30x_adc.c ****   /* Return the ADC_FLAG status */
2212:../Libraries/STM32F30x_StdPeriph_Driver/src/stm32f30x_adc.c ****   return  bitstatus;
 3088              		.loc 1 2212 0
 3089 10b8 9DF80F30 		ldrb	r3, [sp, #15]	@ zero_extendqisi2
2213:../Libraries/STM32F30x_StdPeriph_Driver/src/stm32f30x_adc.c **** }
 3090              		.loc 1 2213 0
 3091 10bc 1846     		mov	r0, r3
 3092 10be 04B0     		add	sp, sp, #16
 3093 10c0 7047     		bx	lr
 3094              		.cfi_endproc
 3095              	.LFE168:
 3097 10c2 00BF     		.align	2
 3098              		.global	ADC_ClearFlag
 3099              		.thumb
 3100              		.thumb_func
 3102              	ADC_ClearFlag:
 3103              	.LFB169:
2214:../Libraries/STM32F30x_StdPeriph_Driver/src/stm32f30x_adc.c **** 
2215:../Libraries/STM32F30x_StdPeriph_Driver/src/stm32f30x_adc.c **** /**
2216:../Libraries/STM32F30x_StdPeriph_Driver/src/stm32f30x_adc.c ****   * @brief  Clears the ADCx's pending flags.
2217:../Libraries/STM32F30x_StdPeriph_Driver/src/stm32f30x_adc.c ****   * @param  ADCx: where x can be 1, 2, 3 or 4 to select the ADC peripheral.
2218:../Libraries/STM32F30x_StdPeriph_Driver/src/stm32f30x_adc.c ****   * @param  ADC_FLAG: specifies the flag to clear. 
2219:../Libraries/STM32F30x_StdPeriph_Driver/src/stm32f30x_adc.c ****   *   This parameter can be any combination of the following values:
2220:../Libraries/STM32F30x_StdPeriph_Driver/src/stm32f30x_adc.c ****   *     @arg ADC_FLAG_RDY: ADC Ready (ADRDY) flag 
2221:../Libraries/STM32F30x_StdPeriph_Driver/src/stm32f30x_adc.c ****   *     @arg ADC_FLAG_EOSMP: ADC End of Sampling flag 
2222:../Libraries/STM32F30x_StdPeriph_Driver/src/stm32f30x_adc.c ****   *     @arg ADC_FLAG_EOC: ADC End of Regular Conversion flag 
2223:../Libraries/STM32F30x_StdPeriph_Driver/src/stm32f30x_adc.c ****   *     @arg ADC_FLAG_EOS: ADC End of Regular sequence of Conversions flag 
2224:../Libraries/STM32F30x_StdPeriph_Driver/src/stm32f30x_adc.c ****   *     @arg ADC_FLAG_OVR: ADC overrun flag 
2225:../Libraries/STM32F30x_StdPeriph_Driver/src/stm32f30x_adc.c ****   *     @arg ADC_FLAG_JEOC: ADC End of Injected Conversion flag 
2226:../Libraries/STM32F30x_StdPeriph_Driver/src/stm32f30x_adc.c ****   *     @arg ADC_FLAG_JEOS: ADC End of Injected sequence of Conversions flag 
2227:../Libraries/STM32F30x_StdPeriph_Driver/src/stm32f30x_adc.c ****   *     @arg ADC_FLAG_AWD1: ADC Analog watchdog 1 flag 
2228:../Libraries/STM32F30x_StdPeriph_Driver/src/stm32f30x_adc.c ****   *     @arg ADC_FLAG_AWD2: ADC Analog watchdog 2 flag 
2229:../Libraries/STM32F30x_StdPeriph_Driver/src/stm32f30x_adc.c ****   *     @arg ADC_FLAG_AWD3: ADC Analog watchdog 3 flag 
2230:../Libraries/STM32F30x_StdPeriph_Driver/src/stm32f30x_adc.c ****   *     @arg ADC_FLAG_JQOVF: ADC Injected Context Queue Overflow flag 
2231:../Libraries/STM32F30x_StdPeriph_Driver/src/stm32f30x_adc.c ****   * @retval None
2232:../Libraries/STM32F30x_StdPeriph_Driver/src/stm32f30x_adc.c ****   */
2233:../Libraries/STM32F30x_StdPeriph_Driver/src/stm32f30x_adc.c **** void ADC_ClearFlag(ADC_TypeDef* ADCx, uint32_t ADC_FLAG)
2234:../Libraries/STM32F30x_StdPeriph_Driver/src/stm32f30x_adc.c **** {
 3104              		.loc 1 2234 0
 3105              		.cfi_startproc
 3106              		@ args = 0, pretend = 0, frame = 8
 3107              		@ frame_needed = 0, uses_anonymous_args = 0
 3108              		@ link register save eliminated.
 3109 10c4 82B0     		sub	sp, sp, #8
 3110              	.LCFI59:
 3111              		.cfi_def_cfa_offset 8
 3112 10c6 0190     		str	r0, [sp, #4]
 3113 10c8 0091     		str	r1, [sp, #0]
2235:../Libraries/STM32F30x_StdPeriph_Driver/src/stm32f30x_adc.c ****   /* Check the parameters */
2236:../Libraries/STM32F30x_StdPeriph_Driver/src/stm32f30x_adc.c ****   assert_param(IS_ADC_ALL_PERIPH(ADCx));
2237:../Libraries/STM32F30x_StdPeriph_Driver/src/stm32f30x_adc.c ****   assert_param(IS_ADC_CLEAR_FLAG(ADC_FLAG));
2238:../Libraries/STM32F30x_StdPeriph_Driver/src/stm32f30x_adc.c ****   /* Clear the selected ADC flags */
2239:../Libraries/STM32F30x_StdPeriph_Driver/src/stm32f30x_adc.c ****   ADCx->ISR = (uint32_t)ADC_FLAG;
 3114              		.loc 1 2239 0
 3115 10ca 019B     		ldr	r3, [sp, #4]
 3116 10cc 009A     		ldr	r2, [sp, #0]
 3117 10ce 1A60     		str	r2, [r3, #0]
2240:../Libraries/STM32F30x_StdPeriph_Driver/src/stm32f30x_adc.c **** }
 3118              		.loc 1 2240 0
 3119 10d0 02B0     		add	sp, sp, #8
 3120 10d2 7047     		bx	lr
 3121              		.cfi_endproc
 3122              	.LFE169:
 3124              		.align	2
 3125              		.global	ADC_GetCommonFlagStatus
 3126              		.thumb
 3127              		.thumb_func
 3129              	ADC_GetCommonFlagStatus:
 3130              	.LFB170:
2241:../Libraries/STM32F30x_StdPeriph_Driver/src/stm32f30x_adc.c **** 
2242:../Libraries/STM32F30x_StdPeriph_Driver/src/stm32f30x_adc.c **** /**
2243:../Libraries/STM32F30x_StdPeriph_Driver/src/stm32f30x_adc.c ****   * @brief  Checks whether the specified ADC flag is set or not.
2244:../Libraries/STM32F30x_StdPeriph_Driver/src/stm32f30x_adc.c ****   * @param  ADCx: where x can be 1, 2, 3 or 4 to select the ADC peripheral.
2245:../Libraries/STM32F30x_StdPeriph_Driver/src/stm32f30x_adc.c ****   * @param  ADC_FLAG: specifies the master or slave flag to check. 
2246:../Libraries/STM32F30x_StdPeriph_Driver/src/stm32f30x_adc.c ****   *   This parameter can be one of the following values:
2247:../Libraries/STM32F30x_StdPeriph_Driver/src/stm32f30x_adc.c ****   *     @arg ADC_FLAG_MSTRDY: ADC master Ready (ADRDY) flag 
2248:../Libraries/STM32F30x_StdPeriph_Driver/src/stm32f30x_adc.c ****   *     @arg ADC_FLAG_MSTEOSMP: ADC master End of Sampling flag 
2249:../Libraries/STM32F30x_StdPeriph_Driver/src/stm32f30x_adc.c ****   *     @arg ADC_FLAG_MSTEOC: ADC master End of Regular Conversion flag 
2250:../Libraries/STM32F30x_StdPeriph_Driver/src/stm32f30x_adc.c ****   *     @arg ADC_FLAG_MSTEOS: ADC master End of Regular sequence of Conversions flag 
2251:../Libraries/STM32F30x_StdPeriph_Driver/src/stm32f30x_adc.c ****   *     @arg ADC_FLAG_MSTOVR: ADC master overrun flag 
2252:../Libraries/STM32F30x_StdPeriph_Driver/src/stm32f30x_adc.c ****   *     @arg ADC_FLAG_MSTJEOC: ADC master End of Injected Conversion flag 
2253:../Libraries/STM32F30x_StdPeriph_Driver/src/stm32f30x_adc.c ****   *     @arg ADC_FLAG_MSTJEOS: ADC master End of Injected sequence of Conversions flag 
2254:../Libraries/STM32F30x_StdPeriph_Driver/src/stm32f30x_adc.c ****   *     @arg ADC_FLAG_MSTAWD1: ADC master Analog watchdog 1 flag 
2255:../Libraries/STM32F30x_StdPeriph_Driver/src/stm32f30x_adc.c ****   *     @arg ADC_FLAG_MSTAWD2: ADC master Analog watchdog 2 flag 
2256:../Libraries/STM32F30x_StdPeriph_Driver/src/stm32f30x_adc.c ****   *     @arg ADC_FLAG_MSTAWD3: ADC master Analog watchdog 3 flag 
2257:../Libraries/STM32F30x_StdPeriph_Driver/src/stm32f30x_adc.c ****   *     @arg ADC_FLAG_MSTJQOVF: ADC master Injected Context Queue Overflow flag 
2258:../Libraries/STM32F30x_StdPeriph_Driver/src/stm32f30x_adc.c ****   *     @arg ADC_FLAG_SLVRDY: ADC slave Ready (ADRDY) flag 
2259:../Libraries/STM32F30x_StdPeriph_Driver/src/stm32f30x_adc.c ****   *     @arg ADC_FLAG_SLVEOSMP: ADC slave End of Sampling flag 
2260:../Libraries/STM32F30x_StdPeriph_Driver/src/stm32f30x_adc.c ****   *     @arg ADC_FLAG_SLVEOC: ADC slave End of Regular Conversion flag 
2261:../Libraries/STM32F30x_StdPeriph_Driver/src/stm32f30x_adc.c ****   *     @arg ADC_FLAG_SLVEOS: ADC slave End of Regular sequence of Conversions flag 
2262:../Libraries/STM32F30x_StdPeriph_Driver/src/stm32f30x_adc.c ****   *     @arg ADC_FLAG_SLVOVR: ADC slave overrun flag 
2263:../Libraries/STM32F30x_StdPeriph_Driver/src/stm32f30x_adc.c ****   *     @arg ADC_FLAG_SLVJEOC: ADC slave End of Injected Conversion flag 
2264:../Libraries/STM32F30x_StdPeriph_Driver/src/stm32f30x_adc.c ****   *     @arg ADC_FLAG_SLVJEOS: ADC slave End of Injected sequence of Conversions flag 
2265:../Libraries/STM32F30x_StdPeriph_Driver/src/stm32f30x_adc.c ****   *     @arg ADC_FLAG_SLVAWD1: ADC slave Analog watchdog 1 flag 
2266:../Libraries/STM32F30x_StdPeriph_Driver/src/stm32f30x_adc.c ****   *     @arg ADC_FLAG_SLVAWD2: ADC slave Analog watchdog 2 flag 
2267:../Libraries/STM32F30x_StdPeriph_Driver/src/stm32f30x_adc.c ****   *     @arg ADC_FLAG_SLVAWD3: ADC slave Analog watchdog 3 flag 
2268:../Libraries/STM32F30x_StdPeriph_Driver/src/stm32f30x_adc.c ****   *     @arg ADC_FLAG_SLVJQOVF: ADC slave Injected Context Queue Overflow flag 
2269:../Libraries/STM32F30x_StdPeriph_Driver/src/stm32f30x_adc.c ****   * @retval The new state of ADC_FLAG (SET or RESET).
2270:../Libraries/STM32F30x_StdPeriph_Driver/src/stm32f30x_adc.c ****   */
2271:../Libraries/STM32F30x_StdPeriph_Driver/src/stm32f30x_adc.c **** FlagStatus ADC_GetCommonFlagStatus(ADC_TypeDef* ADCx, uint32_t ADC_FLAG)
2272:../Libraries/STM32F30x_StdPeriph_Driver/src/stm32f30x_adc.c **** {
 3131              		.loc 1 2272 0
 3132              		.cfi_startproc
 3133              		@ args = 0, pretend = 0, frame = 16
 3134              		@ frame_needed = 0, uses_anonymous_args = 0
 3135              		@ link register save eliminated.
 3136 10d4 84B0     		sub	sp, sp, #16
 3137              	.LCFI60:
 3138              		.cfi_def_cfa_offset 16
 3139 10d6 0190     		str	r0, [sp, #4]
 3140 10d8 0091     		str	r1, [sp, #0]
2273:../Libraries/STM32F30x_StdPeriph_Driver/src/stm32f30x_adc.c ****   uint32_t tmpreg1 = 0;
 3141              		.loc 1 2273 0
 3142 10da 4FF00003 		mov	r3, #0
 3143 10de 0393     		str	r3, [sp, #12]
2274:../Libraries/STM32F30x_StdPeriph_Driver/src/stm32f30x_adc.c ****   FlagStatus bitstatus = RESET;
 3144              		.loc 1 2274 0
 3145 10e0 4FF00003 		mov	r3, #0
 3146 10e4 8DF80B30 		strb	r3, [sp, #11]
2275:../Libraries/STM32F30x_StdPeriph_Driver/src/stm32f30x_adc.c **** 
2276:../Libraries/STM32F30x_StdPeriph_Driver/src/stm32f30x_adc.c ****   /* Check the parameters */
2277:../Libraries/STM32F30x_StdPeriph_Driver/src/stm32f30x_adc.c ****   assert_param(IS_ADC_ALL_PERIPH(ADCx));
2278:../Libraries/STM32F30x_StdPeriph_Driver/src/stm32f30x_adc.c ****   assert_param(IS_ADC_GET_COMMONFLAG(ADC_FLAG));
2279:../Libraries/STM32F30x_StdPeriph_Driver/src/stm32f30x_adc.c **** 
2280:../Libraries/STM32F30x_StdPeriph_Driver/src/stm32f30x_adc.c ****   if((ADCx == ADC1) || (ADCx == ADC2))
 3147              		.loc 1 2280 0
 3148 10e8 019B     		ldr	r3, [sp, #4]
 3149 10ea B3F1A04F 		cmp	r3, #1342177280
 3150 10ee 06D0     		beq	.L138
 3151              		.loc 1 2280 0 is_stmt 0 discriminator 1
 3152 10f0 019A     		ldr	r2, [sp, #4]
 3153 10f2 4FF48073 		mov	r3, #256
 3154 10f6 C5F20003 		movt	r3, 20480
 3155 10fa 9A42     		cmp	r2, r3
 3156 10fc 06D1     		bne	.L139
 3157              	.L138:
2281:../Libraries/STM32F30x_StdPeriph_Driver/src/stm32f30x_adc.c ****   {
2282:../Libraries/STM32F30x_StdPeriph_Driver/src/stm32f30x_adc.c ****     tmpreg1 = ADC1_2->CSR;
 3158              		.loc 1 2282 0 is_stmt 1
 3159 10fe 4FF44073 		mov	r3, #768
 3160 1102 C5F20003 		movt	r3, 20480
 3161 1106 1B68     		ldr	r3, [r3, #0]
 3162 1108 0393     		str	r3, [sp, #12]
 3163 110a 05E0     		b	.L140
 3164              	.L139:
2283:../Libraries/STM32F30x_StdPeriph_Driver/src/stm32f30x_adc.c ****   }
2284:../Libraries/STM32F30x_StdPeriph_Driver/src/stm32f30x_adc.c ****   else
2285:../Libraries/STM32F30x_StdPeriph_Driver/src/stm32f30x_adc.c ****   {
2286:../Libraries/STM32F30x_StdPeriph_Driver/src/stm32f30x_adc.c ****     tmpreg1 = ADC3_4->CSR;
 3165              		.loc 1 2286 0
 3166 110c 4FF4E063 		mov	r3, #1792
 3167 1110 C5F20003 		movt	r3, 20480
 3168 1114 1B68     		ldr	r3, [r3, #0]
 3169 1116 0393     		str	r3, [sp, #12]
 3170              	.L140:
2287:../Libraries/STM32F30x_StdPeriph_Driver/src/stm32f30x_adc.c ****   }  
2288:../Libraries/STM32F30x_StdPeriph_Driver/src/stm32f30x_adc.c ****   /* Check the status of the specified ADC flag */
2289:../Libraries/STM32F30x_StdPeriph_Driver/src/stm32f30x_adc.c ****   if ((tmpreg1 & ADC_FLAG) != (uint32_t)RESET)
 3171              		.loc 1 2289 0
 3172 1118 039A     		ldr	r2, [sp, #12]
 3173 111a 009B     		ldr	r3, [sp, #0]
 3174 111c 1340     		ands	r3, r3, r2
 3175 111e 002B     		cmp	r3, #0
 3176 1120 04D0     		beq	.L141
2290:../Libraries/STM32F30x_StdPeriph_Driver/src/stm32f30x_adc.c ****   {
2291:../Libraries/STM32F30x_StdPeriph_Driver/src/stm32f30x_adc.c ****     /* ADC_FLAG is set */
2292:../Libraries/STM32F30x_StdPeriph_Driver/src/stm32f30x_adc.c ****     bitstatus = SET;
 3177              		.loc 1 2292 0
 3178 1122 4FF00103 		mov	r3, #1
 3179 1126 8DF80B30 		strb	r3, [sp, #11]
 3180 112a 03E0     		b	.L142
 3181              	.L141:
2293:../Libraries/STM32F30x_StdPeriph_Driver/src/stm32f30x_adc.c ****   }
2294:../Libraries/STM32F30x_StdPeriph_Driver/src/stm32f30x_adc.c ****   else
2295:../Libraries/STM32F30x_StdPeriph_Driver/src/stm32f30x_adc.c ****   {
2296:../Libraries/STM32F30x_StdPeriph_Driver/src/stm32f30x_adc.c ****     /* ADC_FLAG is reset */
2297:../Libraries/STM32F30x_StdPeriph_Driver/src/stm32f30x_adc.c ****     bitstatus = RESET;
 3182              		.loc 1 2297 0
 3183 112c 4FF00003 		mov	r3, #0
 3184 1130 8DF80B30 		strb	r3, [sp, #11]
 3185              	.L142:
2298:../Libraries/STM32F30x_StdPeriph_Driver/src/stm32f30x_adc.c ****   }
2299:../Libraries/STM32F30x_StdPeriph_Driver/src/stm32f30x_adc.c ****   /* Return the ADC_FLAG status */
2300:../Libraries/STM32F30x_StdPeriph_Driver/src/stm32f30x_adc.c ****   return  bitstatus;
 3186              		.loc 1 2300 0
 3187 1134 9DF80B30 		ldrb	r3, [sp, #11]	@ zero_extendqisi2
2301:../Libraries/STM32F30x_StdPeriph_Driver/src/stm32f30x_adc.c **** }
 3188              		.loc 1 2301 0
 3189 1138 1846     		mov	r0, r3
 3190 113a 04B0     		add	sp, sp, #16
 3191 113c 7047     		bx	lr
 3192              		.cfi_endproc
 3193              	.LFE170:
 3195 113e 00BF     		.align	2
 3196              		.global	ADC_ClearCommonFlag
 3197              		.thumb
 3198              		.thumb_func
 3200              	ADC_ClearCommonFlag:
 3201              	.LFB171:
2302:../Libraries/STM32F30x_StdPeriph_Driver/src/stm32f30x_adc.c **** 
2303:../Libraries/STM32F30x_StdPeriph_Driver/src/stm32f30x_adc.c **** /**
2304:../Libraries/STM32F30x_StdPeriph_Driver/src/stm32f30x_adc.c ****   * @brief  Clears the ADCx's pending flags.
2305:../Libraries/STM32F30x_StdPeriph_Driver/src/stm32f30x_adc.c ****   * @param  ADCx: where x can be 1, 2, 3 or 4 to select the ADC peripheral.
2306:../Libraries/STM32F30x_StdPeriph_Driver/src/stm32f30x_adc.c ****   * @param  ADC_FLAG: specifies the master or slave flag to clear. 
2307:../Libraries/STM32F30x_StdPeriph_Driver/src/stm32f30x_adc.c ****   *   This parameter can be one of the following values:
2308:../Libraries/STM32F30x_StdPeriph_Driver/src/stm32f30x_adc.c ****   *     @arg ADC_FLAG_MSTRDY: ADC master Ready (ADRDY) flag 
2309:../Libraries/STM32F30x_StdPeriph_Driver/src/stm32f30x_adc.c ****   *     @arg ADC_FLAG_MSTEOSMP: ADC master End of Sampling flag 
2310:../Libraries/STM32F30x_StdPeriph_Driver/src/stm32f30x_adc.c ****   *     @arg ADC_FLAG_MSTEOC: ADC master End of Regular Conversion flag 
2311:../Libraries/STM32F30x_StdPeriph_Driver/src/stm32f30x_adc.c ****   *     @arg ADC_FLAG_MSTEOS: ADC master End of Regular sequence of Conversions flag 
2312:../Libraries/STM32F30x_StdPeriph_Driver/src/stm32f30x_adc.c ****   *     @arg ADC_FLAG_MSTOVR: ADC master overrun flag 
2313:../Libraries/STM32F30x_StdPeriph_Driver/src/stm32f30x_adc.c ****   *     @arg ADC_FLAG_MSTJEOC: ADC master End of Injected Conversion flag 
2314:../Libraries/STM32F30x_StdPeriph_Driver/src/stm32f30x_adc.c ****   *     @arg ADC_FLAG_MSTJEOS: ADC master End of Injected sequence of Conversions flag 
2315:../Libraries/STM32F30x_StdPeriph_Driver/src/stm32f30x_adc.c ****   *     @arg ADC_FLAG_MSTAWD1: ADC master Analog watchdog 1 flag 
2316:../Libraries/STM32F30x_StdPeriph_Driver/src/stm32f30x_adc.c ****   *     @arg ADC_FLAG_MSTAWD2: ADC master Analog watchdog 2 flag 
2317:../Libraries/STM32F30x_StdPeriph_Driver/src/stm32f30x_adc.c ****   *     @arg ADC_FLAG_MSTAWD3: ADC master Analog watchdog 3 flag 
2318:../Libraries/STM32F30x_StdPeriph_Driver/src/stm32f30x_adc.c ****   *     @arg ADC_FLAG_MSTJQOVF: ADC master Injected Context Queue Overflow flag 
2319:../Libraries/STM32F30x_StdPeriph_Driver/src/stm32f30x_adc.c ****   *     @arg ADC_FLAG_SLVRDY: ADC slave Ready (ADRDY) flag 
2320:../Libraries/STM32F30x_StdPeriph_Driver/src/stm32f30x_adc.c ****   *     @arg ADC_FLAG_SLVEOSMP: ADC slave End of Sampling flag 
2321:../Libraries/STM32F30x_StdPeriph_Driver/src/stm32f30x_adc.c ****   *     @arg ADC_FLAG_SLVEOC: ADC slave End of Regular Conversion flag 
2322:../Libraries/STM32F30x_StdPeriph_Driver/src/stm32f30x_adc.c ****   *     @arg ADC_FLAG_SLVEOS: ADC slave End of Regular sequence of Conversions flag 
2323:../Libraries/STM32F30x_StdPeriph_Driver/src/stm32f30x_adc.c ****   *     @arg ADC_FLAG_SLVOVR: ADC slave overrun flag 
2324:../Libraries/STM32F30x_StdPeriph_Driver/src/stm32f30x_adc.c ****   *     @arg ADC_FLAG_SLVJEOC: ADC slave End of Injected Conversion flag 
2325:../Libraries/STM32F30x_StdPeriph_Driver/src/stm32f30x_adc.c ****   *     @arg ADC_FLAG_SLVJEOS: ADC slave End of Injected sequence of Conversions flag 
2326:../Libraries/STM32F30x_StdPeriph_Driver/src/stm32f30x_adc.c ****   *     @arg ADC_FLAG_SLVAWD1: ADC slave Analog watchdog 1 flag 
2327:../Libraries/STM32F30x_StdPeriph_Driver/src/stm32f30x_adc.c ****   *     @arg ADC_FLAG_SLVAWD2: ADC slave Analog watchdog 2 flag 
2328:../Libraries/STM32F30x_StdPeriph_Driver/src/stm32f30x_adc.c ****   *     @arg ADC_FLAG_SLVAWD3: ADC slave Analog watchdog 3 flag 
2329:../Libraries/STM32F30x_StdPeriph_Driver/src/stm32f30x_adc.c ****   *     @arg ADC_FLAG_SLVJQOVF: ADC slave Injected Context Queue Overflow flag 
2330:../Libraries/STM32F30x_StdPeriph_Driver/src/stm32f30x_adc.c ****   * @retval None
2331:../Libraries/STM32F30x_StdPeriph_Driver/src/stm32f30x_adc.c ****   */
2332:../Libraries/STM32F30x_StdPeriph_Driver/src/stm32f30x_adc.c **** void ADC_ClearCommonFlag(ADC_TypeDef* ADCx, uint32_t ADC_FLAG)
2333:../Libraries/STM32F30x_StdPeriph_Driver/src/stm32f30x_adc.c **** {
 3202              		.loc 1 2333 0
 3203              		.cfi_startproc
 3204              		@ args = 0, pretend = 0, frame = 8
 3205              		@ frame_needed = 0, uses_anonymous_args = 0
 3206              		@ link register save eliminated.
 3207 1140 82B0     		sub	sp, sp, #8
 3208              	.LCFI61:
 3209              		.cfi_def_cfa_offset 8
 3210 1142 0190     		str	r0, [sp, #4]
 3211 1144 0091     		str	r1, [sp, #0]
2334:../Libraries/STM32F30x_StdPeriph_Driver/src/stm32f30x_adc.c ****   /* Check the parameters */
2335:../Libraries/STM32F30x_StdPeriph_Driver/src/stm32f30x_adc.c ****   assert_param(IS_ADC_ALL_PERIPH(ADCx));
2336:../Libraries/STM32F30x_StdPeriph_Driver/src/stm32f30x_adc.c ****   assert_param(IS_ADC_CLEAR_COMMONFLAG(ADC_FLAG));
2337:../Libraries/STM32F30x_StdPeriph_Driver/src/stm32f30x_adc.c **** 
2338:../Libraries/STM32F30x_StdPeriph_Driver/src/stm32f30x_adc.c ****   if((ADCx == ADC1) || (ADCx == ADC2))
 3212              		.loc 1 2338 0
 3213 1146 019B     		ldr	r3, [sp, #4]
 3214 1148 B3F1A04F 		cmp	r3, #1342177280
 3215 114c 06D0     		beq	.L144
 3216              		.loc 1 2338 0 is_stmt 0 discriminator 1
 3217 114e 019A     		ldr	r2, [sp, #4]
 3218 1150 4FF48073 		mov	r3, #256
 3219 1154 C5F20003 		movt	r3, 20480
 3220 1158 9A42     		cmp	r2, r3
 3221 115a 0CD1     		bne	.L145
 3222              	.L144:
2339:../Libraries/STM32F30x_StdPeriph_Driver/src/stm32f30x_adc.c ****   {
2340:../Libraries/STM32F30x_StdPeriph_Driver/src/stm32f30x_adc.c ****     /* Clear the selected ADC flags */
2341:../Libraries/STM32F30x_StdPeriph_Driver/src/stm32f30x_adc.c ****     ADC1_2->CSR |= (uint32_t)ADC_FLAG;
 3223              		.loc 1 2341 0 is_stmt 1
 3224 115c 4FF44073 		mov	r3, #768
 3225 1160 C5F20003 		movt	r3, 20480
 3226 1164 4FF44072 		mov	r2, #768
 3227 1168 C5F20002 		movt	r2, 20480
 3228 116c 1168     		ldr	r1, [r2, #0]
 3229 116e 009A     		ldr	r2, [sp, #0]
 3230 1170 0A43     		orrs	r2, r2, r1
 3231 1172 1A60     		str	r2, [r3, #0]
 3232 1174 0BE0     		b	.L143
 3233              	.L145:
2342:../Libraries/STM32F30x_StdPeriph_Driver/src/stm32f30x_adc.c ****   }
2343:../Libraries/STM32F30x_StdPeriph_Driver/src/stm32f30x_adc.c ****   else
2344:../Libraries/STM32F30x_StdPeriph_Driver/src/stm32f30x_adc.c ****   {
2345:../Libraries/STM32F30x_StdPeriph_Driver/src/stm32f30x_adc.c ****     /* Clear the selected ADC flags */
2346:../Libraries/STM32F30x_StdPeriph_Driver/src/stm32f30x_adc.c ****     ADC3_4->CSR |= (uint32_t)ADC_FLAG;
 3234              		.loc 1 2346 0
 3235 1176 4FF4E063 		mov	r3, #1792
 3236 117a C5F20003 		movt	r3, 20480
 3237 117e 4FF4E062 		mov	r2, #1792
 3238 1182 C5F20002 		movt	r2, 20480
 3239 1186 1168     		ldr	r1, [r2, #0]
 3240 1188 009A     		ldr	r2, [sp, #0]
 3241 118a 0A43     		orrs	r2, r2, r1
 3242 118c 1A60     		str	r2, [r3, #0]
 3243              	.L143:
2347:../Libraries/STM32F30x_StdPeriph_Driver/src/stm32f30x_adc.c ****   }  
2348:../Libraries/STM32F30x_StdPeriph_Driver/src/stm32f30x_adc.c **** }
 3244              		.loc 1 2348 0
 3245 118e 02B0     		add	sp, sp, #8
 3246 1190 7047     		bx	lr
 3247              		.cfi_endproc
 3248              	.LFE171:
 3250 1192 00BF     		.align	2
 3251              		.global	ADC_GetITStatus
 3252              		.thumb
 3253              		.thumb_func
 3255              	ADC_GetITStatus:
 3256              	.LFB172:
2349:../Libraries/STM32F30x_StdPeriph_Driver/src/stm32f30x_adc.c **** 
2350:../Libraries/STM32F30x_StdPeriph_Driver/src/stm32f30x_adc.c **** /**
2351:../Libraries/STM32F30x_StdPeriph_Driver/src/stm32f30x_adc.c ****   * @brief  Checks whether the specified ADC interrupt has occurred or not.
2352:../Libraries/STM32F30x_StdPeriph_Driver/src/stm32f30x_adc.c ****   * @param  ADCx: where x can be 1, 2 or 3 to select the ADC peripheral.
2353:../Libraries/STM32F30x_StdPeriph_Driver/src/stm32f30x_adc.c ****   * @param  ADC_IT: specifies the ADC interrupt source to check. 
2354:../Libraries/STM32F30x_StdPeriph_Driver/src/stm32f30x_adc.c ****   *   This parameter can be one of the following values:
2355:../Libraries/STM32F30x_StdPeriph_Driver/src/stm32f30x_adc.c ****   *     @arg ADC_IT_RDY: ADC Ready (ADRDY) interrupt source 
2356:../Libraries/STM32F30x_StdPeriph_Driver/src/stm32f30x_adc.c ****   *     @arg ADC_IT_EOSMP: ADC End of Sampling interrupt source 
2357:../Libraries/STM32F30x_StdPeriph_Driver/src/stm32f30x_adc.c ****   *     @arg ADC_IT_EOC: ADC End of Regular Conversion interrupt source 
2358:../Libraries/STM32F30x_StdPeriph_Driver/src/stm32f30x_adc.c ****   *     @arg ADC_IT_EOS: ADC End of Regular sequence of Conversions interrupt source 
2359:../Libraries/STM32F30x_StdPeriph_Driver/src/stm32f30x_adc.c ****   *     @arg ADC_IT_OVR: ADC overrun interrupt source 
2360:../Libraries/STM32F30x_StdPeriph_Driver/src/stm32f30x_adc.c ****   *     @arg ADC_IT_JEOC: ADC End of Injected Conversion interrupt source 
2361:../Libraries/STM32F30x_StdPeriph_Driver/src/stm32f30x_adc.c ****   *     @arg ADC_IT_JEOS: ADC End of Injected sequence of Conversions interrupt source 
2362:../Libraries/STM32F30x_StdPeriph_Driver/src/stm32f30x_adc.c ****   *     @arg ADC_IT_AWD1: ADC Analog watchdog 1 interrupt source 
2363:../Libraries/STM32F30x_StdPeriph_Driver/src/stm32f30x_adc.c ****   *     @arg ADC_IT_AWD2: ADC Analog watchdog 2 interrupt source 
2364:../Libraries/STM32F30x_StdPeriph_Driver/src/stm32f30x_adc.c ****   *     @arg ADC_IT_AWD3: ADC Analog watchdog 3 interrupt source 
2365:../Libraries/STM32F30x_StdPeriph_Driver/src/stm32f30x_adc.c ****   *     @arg ADC_IT_JQOVF: ADC Injected Context Queue Overflow interrupt source 
2366:../Libraries/STM32F30x_StdPeriph_Driver/src/stm32f30x_adc.c ****   * @retval The new state of ADC_IT (SET or RESET).
2367:../Libraries/STM32F30x_StdPeriph_Driver/src/stm32f30x_adc.c ****   */
2368:../Libraries/STM32F30x_StdPeriph_Driver/src/stm32f30x_adc.c **** ITStatus ADC_GetITStatus(ADC_TypeDef* ADCx, uint32_t ADC_IT)
2369:../Libraries/STM32F30x_StdPeriph_Driver/src/stm32f30x_adc.c **** {
 3257              		.loc 1 2369 0
 3258              		.cfi_startproc
 3259              		@ args = 0, pretend = 0, frame = 16
 3260              		@ frame_needed = 0, uses_anonymous_args = 0
 3261              		@ link register save eliminated.
 3262 1194 84B0     		sub	sp, sp, #16
 3263              	.LCFI62:
 3264              		.cfi_def_cfa_offset 16
 3265 1196 0190     		str	r0, [sp, #4]
 3266 1198 0091     		str	r1, [sp, #0]
2370:../Libraries/STM32F30x_StdPeriph_Driver/src/stm32f30x_adc.c ****   ITStatus bitstatus = RESET;  
 3267              		.loc 1 2370 0
 3268 119a 4FF00003 		mov	r3, #0
 3269 119e 8DF80F30 		strb	r3, [sp, #15]
2371:../Libraries/STM32F30x_StdPeriph_Driver/src/stm32f30x_adc.c ****   uint16_t itstatus = 0x0, itenable = 0x0;
 3270              		.loc 1 2371 0
 3271 11a2 4FF00003 		mov	r3, #0
 3272 11a6 ADF80C30 		strh	r3, [sp, #12]	@ movhi
 3273 11aa 4FF00003 		mov	r3, #0
 3274 11ae ADF80A30 		strh	r3, [sp, #10]	@ movhi
2372:../Libraries/STM32F30x_StdPeriph_Driver/src/stm32f30x_adc.c ****   /* Check the parameters */
2373:../Libraries/STM32F30x_StdPeriph_Driver/src/stm32f30x_adc.c ****   assert_param(IS_ADC_ALL_PERIPH(ADCx));
2374:../Libraries/STM32F30x_StdPeriph_Driver/src/stm32f30x_adc.c ****   assert_param(IS_ADC_GET_IT(ADC_IT));
2375:../Libraries/STM32F30x_StdPeriph_Driver/src/stm32f30x_adc.c ****    
2376:../Libraries/STM32F30x_StdPeriph_Driver/src/stm32f30x_adc.c ****   itstatus = ADCx->ISR & ADC_IT;
 3275              		.loc 1 2376 0
 3276 11b2 019B     		ldr	r3, [sp, #4]
 3277 11b4 1B68     		ldr	r3, [r3, #0]
 3278 11b6 9AB2     		uxth	r2, r3
 3279 11b8 009B     		ldr	r3, [sp, #0]
 3280 11ba 9BB2     		uxth	r3, r3
 3281 11bc 1340     		ands	r3, r3, r2
 3282 11be ADF80C30 		strh	r3, [sp, #12]	@ movhi
2377:../Libraries/STM32F30x_StdPeriph_Driver/src/stm32f30x_adc.c ****   
2378:../Libraries/STM32F30x_StdPeriph_Driver/src/stm32f30x_adc.c ****   itenable = ADCx->IER & ADC_IT;
 3283              		.loc 1 2378 0
 3284 11c2 019B     		ldr	r3, [sp, #4]
 3285 11c4 5B68     		ldr	r3, [r3, #4]
 3286 11c6 9AB2     		uxth	r2, r3
 3287 11c8 009B     		ldr	r3, [sp, #0]
 3288 11ca 9BB2     		uxth	r3, r3
 3289 11cc 1340     		ands	r3, r3, r2
 3290 11ce ADF80A30 		strh	r3, [sp, #10]	@ movhi
2379:../Libraries/STM32F30x_StdPeriph_Driver/src/stm32f30x_adc.c ****   if ((itstatus != (uint32_t)RESET) && (itenable != (uint32_t)RESET))
 3291              		.loc 1 2379 0
 3292 11d2 BDF80C30 		ldrh	r3, [sp, #12]
 3293 11d6 002B     		cmp	r3, #0
 3294 11d8 08D0     		beq	.L148
 3295              		.loc 1 2379 0 is_stmt 0 discriminator 1
 3296 11da BDF80A30 		ldrh	r3, [sp, #10]
 3297 11de 002B     		cmp	r3, #0
 3298 11e0 04D0     		beq	.L148
2380:../Libraries/STM32F30x_StdPeriph_Driver/src/stm32f30x_adc.c ****   {
2381:../Libraries/STM32F30x_StdPeriph_Driver/src/stm32f30x_adc.c ****     bitstatus = SET;
 3299              		.loc 1 2381 0 is_stmt 1
 3300 11e2 4FF00103 		mov	r3, #1
 3301 11e6 8DF80F30 		strb	r3, [sp, #15]
 3302 11ea 03E0     		b	.L149
 3303              	.L148:
2382:../Libraries/STM32F30x_StdPeriph_Driver/src/stm32f30x_adc.c ****   }
2383:../Libraries/STM32F30x_StdPeriph_Driver/src/stm32f30x_adc.c ****   else
2384:../Libraries/STM32F30x_StdPeriph_Driver/src/stm32f30x_adc.c ****   {
2385:../Libraries/STM32F30x_StdPeriph_Driver/src/stm32f30x_adc.c ****     bitstatus = RESET;
 3304              		.loc 1 2385 0
 3305 11ec 4FF00003 		mov	r3, #0
 3306 11f0 8DF80F30 		strb	r3, [sp, #15]
 3307              	.L149:
2386:../Libraries/STM32F30x_StdPeriph_Driver/src/stm32f30x_adc.c ****   }
2387:../Libraries/STM32F30x_StdPeriph_Driver/src/stm32f30x_adc.c ****   return bitstatus;
 3308              		.loc 1 2387 0
 3309 11f4 9DF80F30 		ldrb	r3, [sp, #15]	@ zero_extendqisi2
2388:../Libraries/STM32F30x_StdPeriph_Driver/src/stm32f30x_adc.c **** }
 3310              		.loc 1 2388 0
 3311 11f8 1846     		mov	r0, r3
 3312 11fa 04B0     		add	sp, sp, #16
 3313 11fc 7047     		bx	lr
 3314              		.cfi_endproc
 3315              	.LFE172:
 3317 11fe 00BF     		.align	2
 3318              		.global	ADC_ClearITPendingBit
 3319              		.thumb
 3320              		.thumb_func
 3322              	ADC_ClearITPendingBit:
 3323              	.LFB173:
2389:../Libraries/STM32F30x_StdPeriph_Driver/src/stm32f30x_adc.c **** 
2390:../Libraries/STM32F30x_StdPeriph_Driver/src/stm32f30x_adc.c **** /**
2391:../Libraries/STM32F30x_StdPeriph_Driver/src/stm32f30x_adc.c ****   * @brief  Clears the ADCx's interrupt pending bits.
2392:../Libraries/STM32F30x_StdPeriph_Driver/src/stm32f30x_adc.c ****   * @param  ADCx: where x can be 1, 2 or 3 to select the ADC peripheral.
2393:../Libraries/STM32F30x_StdPeriph_Driver/src/stm32f30x_adc.c ****   * @param  ADC_IT: specifies the ADC interrupt pending bit to clear.
2394:../Libraries/STM32F30x_StdPeriph_Driver/src/stm32f30x_adc.c ****   *   This parameter can be any combination of the following values:
2395:../Libraries/STM32F30x_StdPeriph_Driver/src/stm32f30x_adc.c ****   *     @arg ADC_IT_RDY: ADC Ready (ADRDY) interrupt source 
2396:../Libraries/STM32F30x_StdPeriph_Driver/src/stm32f30x_adc.c ****   *     @arg ADC_IT_EOSMP: ADC End of Sampling interrupt source 
2397:../Libraries/STM32F30x_StdPeriph_Driver/src/stm32f30x_adc.c ****   *     @arg ADC_IT_EOC: ADC End of Regular Conversion interrupt source 
2398:../Libraries/STM32F30x_StdPeriph_Driver/src/stm32f30x_adc.c ****   *     @arg ADC_IT_EOS: ADC End of Regular sequence of Conversions interrupt source 
2399:../Libraries/STM32F30x_StdPeriph_Driver/src/stm32f30x_adc.c ****   *     @arg ADC_IT_OVR: ADC overrun interrupt source 
2400:../Libraries/STM32F30x_StdPeriph_Driver/src/stm32f30x_adc.c ****   *     @arg ADC_IT_JEOC: ADC End of Injected Conversion interrupt source 
2401:../Libraries/STM32F30x_StdPeriph_Driver/src/stm32f30x_adc.c ****   *     @arg ADC_IT_JEOS: ADC End of Injected sequence of Conversions interrupt source 
2402:../Libraries/STM32F30x_StdPeriph_Driver/src/stm32f30x_adc.c ****   *     @arg ADC_IT_AWD1: ADC Analog watchdog 1 interrupt source 
2403:../Libraries/STM32F30x_StdPeriph_Driver/src/stm32f30x_adc.c ****   *     @arg ADC_IT_AWD2: ADC Analog watchdog 2 interrupt source 
2404:../Libraries/STM32F30x_StdPeriph_Driver/src/stm32f30x_adc.c ****   *     @arg ADC_IT_AWD3: ADC Analog watchdog 3 interrupt source 
2405:../Libraries/STM32F30x_StdPeriph_Driver/src/stm32f30x_adc.c ****   *     @arg ADC_IT_JQOVF: ADC Injected Context Queue Overflow interrupt source
2406:../Libraries/STM32F30x_StdPeriph_Driver/src/stm32f30x_adc.c ****   * @retval None
2407:../Libraries/STM32F30x_StdPeriph_Driver/src/stm32f30x_adc.c ****   */
2408:../Libraries/STM32F30x_StdPeriph_Driver/src/stm32f30x_adc.c **** void ADC_ClearITPendingBit(ADC_TypeDef* ADCx, uint32_t ADC_IT)
2409:../Libraries/STM32F30x_StdPeriph_Driver/src/stm32f30x_adc.c **** {
 3324              		.loc 1 2409 0
 3325              		.cfi_startproc
 3326              		@ args = 0, pretend = 0, frame = 8
 3327              		@ frame_needed = 0, uses_anonymous_args = 0
 3328              		@ link register save eliminated.
 3329 1200 82B0     		sub	sp, sp, #8
 3330              	.LCFI63:
 3331              		.cfi_def_cfa_offset 8
 3332 1202 0190     		str	r0, [sp, #4]
 3333 1204 0091     		str	r1, [sp, #0]
2410:../Libraries/STM32F30x_StdPeriph_Driver/src/stm32f30x_adc.c ****   /* Check the parameters */
2411:../Libraries/STM32F30x_StdPeriph_Driver/src/stm32f30x_adc.c ****   assert_param(IS_ADC_ALL_PERIPH(ADCx));
2412:../Libraries/STM32F30x_StdPeriph_Driver/src/stm32f30x_adc.c ****   assert_param(IS_ADC_IT(ADC_IT));
2413:../Libraries/STM32F30x_StdPeriph_Driver/src/stm32f30x_adc.c ****   /* Clear the selected ADC interrupt pending bit */
2414:../Libraries/STM32F30x_StdPeriph_Driver/src/stm32f30x_adc.c ****   ADCx->ISR |= (uint32_t)ADC_IT;
 3334              		.loc 1 2414 0
 3335 1206 019B     		ldr	r3, [sp, #4]
 3336 1208 1A68     		ldr	r2, [r3, #0]
 3337 120a 009B     		ldr	r3, [sp, #0]
 3338 120c 1A43     		orrs	r2, r2, r3
 3339 120e 019B     		ldr	r3, [sp, #4]
 3340 1210 1A60     		str	r2, [r3, #0]
2415:../Libraries/STM32F30x_StdPeriph_Driver/src/stm32f30x_adc.c **** }
 3341              		.loc 1 2415 0
 3342 1212 02B0     		add	sp, sp, #8
 3343 1214 7047     		bx	lr
 3344              		.cfi_endproc
 3345              	.LFE173:
 3347              	.Letext0:
 3348              		.file 2 "c:\\program files\\codesourcery\\sourcery_codebench_lite_for_arm_eabi\\bin\\../lib/gcc/ar
 3349              		.file 3 "D:\\Documents and Settings\\e722209\\Desktop\\workspace\\aq32Plus_F3\\Libraries\\Device\\
 3350              		.file 4 "D:\\Documents and Settings\\e722209\\Desktop\\workspace\\aq32Plus_F3\\Libraries\\STM32F30
 3351              		.file 5 "D:\\Documents and Settings\\e722209\\Desktop\\workspace\\aq32Plus_F3\\Libraries\\CMSIS\\I
DEFINED SYMBOLS
                            *ABS*:00000000 stm32f30x_adc.c
D:\DOCUME~1\e722209\LOCALS~1\Temp\ccdB1zod.s:19     .text:00000000 $t
D:\DOCUME~1\e722209\LOCALS~1\Temp\ccdB1zod.s:24     .text:00000000 ADC_DeInit
D:\DOCUME~1\e722209\LOCALS~1\Temp\ccdB1zod.s:93     .text:00000070 ADC_Init
D:\DOCUME~1\e722209\LOCALS~1\Temp\ccdB1zod.s:189    .text:000000ec ADC_StructInit
D:\DOCUME~1\e722209\LOCALS~1\Temp\ccdB1zod.s:243    .text:00000134 ADC_InjectedInit
D:\DOCUME~1\e722209\LOCALS~1\Temp\ccdB1zod.s:320    .text:00000198 ADC_InjectedStructInit
D:\DOCUME~1\e722209\LOCALS~1\Temp\ccdB1zod.s:370    .text:000001d8 ADC_CommonInit
D:\DOCUME~1\e722209\LOCALS~1\Temp\ccdB1zod.s:484    .text:00000290 ADC_CommonStructInit
D:\DOCUME~1\e722209\LOCALS~1\Temp\ccdB1zod.s:526    .text:000002c0 ADC_Cmd
D:\DOCUME~1\e722209\LOCALS~1\Temp\ccdB1zod.s:569    .text:000002f0 ADC_StartCalibration
D:\DOCUME~1\e722209\LOCALS~1\Temp\ccdB1zod.s:597    .text:00000304 ADC_GetCalibrationValue
D:\DOCUME~1\e722209\LOCALS~1\Temp\ccdB1zod.s:623    .text:00000314 ADC_SetCalibrationValue
D:\DOCUME~1\e722209\LOCALS~1\Temp\ccdB1zod.s:650    .text:00000328 ADC_SelectCalibrationMode
D:\DOCUME~1\e722209\LOCALS~1\Temp\ccdB1zod.s:686    .text:0000034c ADC_GetCalibrationStatus
D:\DOCUME~1\e722209\LOCALS~1\Temp\ccdB1zod.s:728    .text:0000037c ADC_DisableCmd
D:\DOCUME~1\e722209\LOCALS~1\Temp\ccdB1zod.s:756    .text:00000390 ADC_GetDisableCmdStatus
D:\DOCUME~1\e722209\LOCALS~1\Temp\ccdB1zod.s:799    .text:000003c4 ADC_VoltageRegulatorCmd
D:\DOCUME~1\e722209\LOCALS~1\Temp\ccdB1zod.s:848    .text:00000400 ADC_SelectDifferentialMode
D:\DOCUME~1\e722209\LOCALS~1\Temp\ccdB1zod.s:900    .text:00000458 ADC_SelectQueueOfContextMode
D:\DOCUME~1\e722209\LOCALS~1\Temp\ccdB1zod.s:943    .text:00000488 ADC_AutoDelayCmd
D:\DOCUME~1\e722209\LOCALS~1\Temp\ccdB1zod.s:986    .text:000004b8 ADC_AnalogWatchdogCmd
D:\DOCUME~1\e722209\LOCALS~1\Temp\ccdB1zod.s:1029   .text:000004e4 ADC_AnalogWatchdog1ThresholdsConfig
D:\DOCUME~1\e722209\LOCALS~1\Temp\ccdB1zod.s:1084   .text:00000538 ADC_AnalogWatchdog2ThresholdsConfig
D:\DOCUME~1\e722209\LOCALS~1\Temp\ccdB1zod.s:1137   .text:00000584 ADC_AnalogWatchdog3ThresholdsConfig
D:\DOCUME~1\e722209\LOCALS~1\Temp\ccdB1zod.s:1190   .text:000005d0 ADC_AnalogWatchdog1SingleChannelConfig
D:\DOCUME~1\e722209\LOCALS~1\Temp\ccdB1zod.s:1235   .text:00000608 ADC_AnalogWatchdog2SingleChannelConfig
D:\DOCUME~1\e722209\LOCALS~1\Temp\ccdB1zod.s:1286   .text:00000654 ADC_AnalogWatchdog3SingleChannelConfig
D:\DOCUME~1\e722209\LOCALS~1\Temp\ccdB1zod.s:1337   .text:000006a0 ADC_TempSensorCmd
D:\DOCUME~1\e722209\LOCALS~1\Temp\ccdB1zod.s:1421   .text:0000073c ADC_VrefintCmd
D:\DOCUME~1\e722209\LOCALS~1\Temp\ccdB1zod.s:1505   .text:000007d8 ADC_VbatCmd
D:\DOCUME~1\e722209\LOCALS~1\Temp\ccdB1zod.s:1589   .text:00000874 ADC_RegularChannelConfig
D:\DOCUME~1\e722209\LOCALS~1\Temp\ccdB1zod.s:1866   .text:00000ac8 ADC_RegularChannelSequencerLengthConfig
D:\DOCUME~1\e722209\LOCALS~1\Temp\ccdB1zod.s:1904   .text:00000af4 ADC_ExternalTriggerConfig
D:\DOCUME~1\e722209\LOCALS~1\Temp\ccdB1zod.s:1946   .text:00000b2c ADC_StartConversion
D:\DOCUME~1\e722209\LOCALS~1\Temp\ccdB1zod.s:1974   .text:00000b40 ADC_GetStartConversionStatus
D:\DOCUME~1\e722209\LOCALS~1\Temp\ccdB1zod.s:2017   .text:00000b74 ADC_StopConversion
D:\DOCUME~1\e722209\LOCALS~1\Temp\ccdB1zod.s:2045   .text:00000b88 ADC_DiscModeChannelCountConfig
D:\DOCUME~1\e722209\LOCALS~1\Temp\ccdB1zod.s:2097   .text:00000bcc ADC_DiscModeCmd
D:\DOCUME~1\e722209\LOCALS~1\Temp\ccdB1zod.s:2140   .text:00000bfc ADC_GetConversionValue
D:\DOCUME~1\e722209\LOCALS~1\Temp\ccdB1zod.s:2167   .text:00000c0c ADC_GetDualModeConversionValue
D:\DOCUME~1\e722209\LOCALS~1\Temp\ccdB1zod.s:2219   .text:00000c50 ADC_SetChannelOffset1
D:\DOCUME~1\e722209\LOCALS~1\Temp\ccdB1zod.s:2273   .text:00000ca0 ADC_SetChannelOffset2
D:\DOCUME~1\e722209\LOCALS~1\Temp\ccdB1zod.s:2327   .text:00000cf0 ADC_SetChannelOffset3
D:\DOCUME~1\e722209\LOCALS~1\Temp\ccdB1zod.s:2381   .text:00000d40 ADC_SetChannelOffset4
D:\DOCUME~1\e722209\LOCALS~1\Temp\ccdB1zod.s:2435   .text:00000d90 ADC_ChannelOffset1Cmd
D:\DOCUME~1\e722209\LOCALS~1\Temp\ccdB1zod.s:2478   .text:00000dc0 ADC_ChannelOffset2Cmd
D:\DOCUME~1\e722209\LOCALS~1\Temp\ccdB1zod.s:2521   .text:00000df0 ADC_ChannelOffset3Cmd
D:\DOCUME~1\e722209\LOCALS~1\Temp\ccdB1zod.s:2564   .text:00000e20 ADC_ChannelOffset4Cmd
D:\DOCUME~1\e722209\LOCALS~1\Temp\ccdB1zod.s:2607   .text:00000e50 ADC_DMACmd
D:\DOCUME~1\e722209\LOCALS~1\Temp\ccdB1zod.s:2650   .text:00000e80 ADC_DMAConfig
D:\DOCUME~1\e722209\LOCALS~1\Temp\ccdB1zod.s:2686   .text:00000ea4 ADC_InjectedChannelSampleTimeConfig
D:\DOCUME~1\e722209\LOCALS~1\Temp\ccdB1zod.s:2781   .text:00000f60 ADC_StartInjectedConversion
D:\DOCUME~1\e722209\LOCALS~1\Temp\ccdB1zod.s:2809   .text:00000f74 ADC_StopInjectedConversion
D:\DOCUME~1\e722209\LOCALS~1\Temp\ccdB1zod.s:2837   .text:00000f88 ADC_GetStartInjectedConversionStatus
D:\DOCUME~1\e722209\LOCALS~1\Temp\ccdB1zod.s:2880   .text:00000fbc ADC_AutoInjectedConvCmd
D:\DOCUME~1\e722209\LOCALS~1\Temp\ccdB1zod.s:2923   .text:00000fec ADC_InjectedDiscModeCmd
D:\DOCUME~1\e722209\LOCALS~1\Temp\ccdB1zod.s:2966   .text:0000101c ADC_GetInjectedConversionValue
D:\DOCUME~1\e722209\LOCALS~1\Temp\ccdB1zod.s:3010   .text:00001054 ADC_ITConfig
D:\DOCUME~1\e722209\LOCALS~1\Temp\ccdB1zod.s:3057   .text:0000108c ADC_GetFlagStatus
D:\DOCUME~1\e722209\LOCALS~1\Temp\ccdB1zod.s:3102   .text:000010c4 ADC_ClearFlag
D:\DOCUME~1\e722209\LOCALS~1\Temp\ccdB1zod.s:3129   .text:000010d4 ADC_GetCommonFlagStatus
D:\DOCUME~1\e722209\LOCALS~1\Temp\ccdB1zod.s:3200   .text:00001140 ADC_ClearCommonFlag
D:\DOCUME~1\e722209\LOCALS~1\Temp\ccdB1zod.s:3255   .text:00001194 ADC_GetITStatus
D:\DOCUME~1\e722209\LOCALS~1\Temp\ccdB1zod.s:3322   .text:00001200 ADC_ClearITPendingBit
                     .debug_frame:00000010 $d

UNDEFINED SYMBOLS
RCC_AHBPeriphResetCmd
