   1              		.syntax unified
   2              		.cpu cortex-m4
   3              		.eabi_attribute 27, 3
   4              		.fpu fpv4-sp-d16
   5              		.eabi_attribute 20, 1
   6              		.eabi_attribute 21, 1
   7              		.eabi_attribute 23, 3
   8              		.eabi_attribute 24, 1
   9              		.eabi_attribute 25, 1
  10              		.eabi_attribute 26, 1
  11              		.eabi_attribute 30, 6
  12              		.eabi_attribute 34, 1
  13              		.eabi_attribute 18, 4
  14              		.thumb
  15              		.file	"stm32f30x_tim.c"
  16              		.text
  17              	.Ltext0:
  18              		.cfi_sections	.debug_frame
  19              		.align	2
  20              		.global	TIM_DeInit
  21              		.thumb
  22              		.thumb_func
  24              	TIM_DeInit:
  25              	.LFB111:
  26              		.file 1 "../Libraries/STM32F30x_StdPeriph_Driver/src/stm32f30x_tim.c"
   1:../Libraries/STM32F30x_StdPeriph_Driver/src/stm32f30x_tim.c **** /**
   2:../Libraries/STM32F30x_StdPeriph_Driver/src/stm32f30x_tim.c ****   ******************************************************************************
   3:../Libraries/STM32F30x_StdPeriph_Driver/src/stm32f30x_tim.c ****   * @file    stm32f30x_tim.c
   4:../Libraries/STM32F30x_StdPeriph_Driver/src/stm32f30x_tim.c ****   * @author  MCD Application Team
   5:../Libraries/STM32F30x_StdPeriph_Driver/src/stm32f30x_tim.c ****   * @version V1.0.1
   6:../Libraries/STM32F30x_StdPeriph_Driver/src/stm32f30x_tim.c ****   * @date    23-October-2012
   7:../Libraries/STM32F30x_StdPeriph_Driver/src/stm32f30x_tim.c ****   * @brief   This file provides firmware functions to manage the following 
   8:../Libraries/STM32F30x_StdPeriph_Driver/src/stm32f30x_tim.c ****   *          functionalities of the TIM peripheral:
   9:../Libraries/STM32F30x_StdPeriph_Driver/src/stm32f30x_tim.c ****   *            + TimeBase management
  10:../Libraries/STM32F30x_StdPeriph_Driver/src/stm32f30x_tim.c ****   *            + Output Compare management
  11:../Libraries/STM32F30x_StdPeriph_Driver/src/stm32f30x_tim.c ****   *            + Input Capture management
  12:../Libraries/STM32F30x_StdPeriph_Driver/src/stm32f30x_tim.c ****   *            + Advanced-control timers (TIM1 and TIM8) specific features  
  13:../Libraries/STM32F30x_StdPeriph_Driver/src/stm32f30x_tim.c ****   *            + Interrupts, DMA and flags management
  14:../Libraries/STM32F30x_StdPeriph_Driver/src/stm32f30x_tim.c ****   *            + Clocks management
  15:../Libraries/STM32F30x_StdPeriph_Driver/src/stm32f30x_tim.c ****   *            + Synchronization management
  16:../Libraries/STM32F30x_StdPeriph_Driver/src/stm32f30x_tim.c ****   *            + Specific interface management
  17:../Libraries/STM32F30x_StdPeriph_Driver/src/stm32f30x_tim.c ****   *            + Specific remapping management      
  18:../Libraries/STM32F30x_StdPeriph_Driver/src/stm32f30x_tim.c ****   *              
  19:../Libraries/STM32F30x_StdPeriph_Driver/src/stm32f30x_tim.c ****   @verbatim
  20:../Libraries/STM32F30x_StdPeriph_Driver/src/stm32f30x_tim.c ****     
  21:../Libraries/STM32F30x_StdPeriph_Driver/src/stm32f30x_tim.c ****   ==============================================================================
  22:../Libraries/STM32F30x_StdPeriph_Driver/src/stm32f30x_tim.c ****                        ##### How to use this driver #####
  23:../Libraries/STM32F30x_StdPeriph_Driver/src/stm32f30x_tim.c ****   ==============================================================================
  24:../Libraries/STM32F30x_StdPeriph_Driver/src/stm32f30x_tim.c ****    [..] This driver provides functions to configure and program the TIM 
  25:../Libraries/STM32F30x_StdPeriph_Driver/src/stm32f30x_tim.c ****         of all stm32f30x devices.
  26:../Libraries/STM32F30x_StdPeriph_Driver/src/stm32f30x_tim.c ****         These functions are split in 9 groups: 
  27:../Libraries/STM32F30x_StdPeriph_Driver/src/stm32f30x_tim.c ****      
  28:../Libraries/STM32F30x_StdPeriph_Driver/src/stm32f30x_tim.c ****         (#) TIM TimeBase management: this group includes all needed functions 
  29:../Libraries/STM32F30x_StdPeriph_Driver/src/stm32f30x_tim.c ****             to configure the TM Timebase unit:
  30:../Libraries/STM32F30x_StdPeriph_Driver/src/stm32f30x_tim.c ****                  (++) Set/Get Prescaler
  31:../Libraries/STM32F30x_StdPeriph_Driver/src/stm32f30x_tim.c ****                  (++) Set/Get Autoreload  
  32:../Libraries/STM32F30x_StdPeriph_Driver/src/stm32f30x_tim.c ****                  (++) Counter modes configuration
  33:../Libraries/STM32F30x_StdPeriph_Driver/src/stm32f30x_tim.c ****                  (++) Set Clock division  
  34:../Libraries/STM32F30x_StdPeriph_Driver/src/stm32f30x_tim.c ****                  (++) Select the One Pulse mode
  35:../Libraries/STM32F30x_StdPeriph_Driver/src/stm32f30x_tim.c ****                  (++) Update Request Configuration
  36:../Libraries/STM32F30x_StdPeriph_Driver/src/stm32f30x_tim.c ****                  (++) Update Disable Configuration
  37:../Libraries/STM32F30x_StdPeriph_Driver/src/stm32f30x_tim.c ****                  (++) Auto-Preload Configuration 
  38:../Libraries/STM32F30x_StdPeriph_Driver/src/stm32f30x_tim.c ****                  (++) Enable/Disable the counter     
  39:../Libraries/STM32F30x_StdPeriph_Driver/src/stm32f30x_tim.c ****                    
  40:../Libraries/STM32F30x_StdPeriph_Driver/src/stm32f30x_tim.c ****        (#) TIM Output Compare management: this group includes all needed 
  41:../Libraries/STM32F30x_StdPeriph_Driver/src/stm32f30x_tim.c ****            functions to configure the Capture/Compare unit used in Output 
  42:../Libraries/STM32F30x_StdPeriph_Driver/src/stm32f30x_tim.c ****            compare mode: 
  43:../Libraries/STM32F30x_StdPeriph_Driver/src/stm32f30x_tim.c ****                  (++) Configure each channel, independently, in Output Compare mode
  44:../Libraries/STM32F30x_StdPeriph_Driver/src/stm32f30x_tim.c ****                  (++) Select the output compare modes
  45:../Libraries/STM32F30x_StdPeriph_Driver/src/stm32f30x_tim.c ****                  (++) Select the Polarities of each channel
  46:../Libraries/STM32F30x_StdPeriph_Driver/src/stm32f30x_tim.c ****                  (++) Set/Get the Capture/Compare register values
  47:../Libraries/STM32F30x_StdPeriph_Driver/src/stm32f30x_tim.c ****                  (++) Select the Output Compare Fast mode 
  48:../Libraries/STM32F30x_StdPeriph_Driver/src/stm32f30x_tim.c ****                  (++) Select the Output Compare Forced mode  
  49:../Libraries/STM32F30x_StdPeriph_Driver/src/stm32f30x_tim.c ****                  (++) Output Compare-Preload Configuration 
  50:../Libraries/STM32F30x_StdPeriph_Driver/src/stm32f30x_tim.c ****                  (++) Clear Output Compare Reference
  51:../Libraries/STM32F30x_StdPeriph_Driver/src/stm32f30x_tim.c ****                  (++) Select the OCREF Clear signal
  52:../Libraries/STM32F30x_StdPeriph_Driver/src/stm32f30x_tim.c ****                  (++) Enable/Disable the Capture/Compare Channels    
  53:../Libraries/STM32F30x_StdPeriph_Driver/src/stm32f30x_tim.c ****                     
  54:../Libraries/STM32F30x_StdPeriph_Driver/src/stm32f30x_tim.c ****         (#) TIM Input Capture management: this group includes all needed 
  55:../Libraries/STM32F30x_StdPeriph_Driver/src/stm32f30x_tim.c ****             functions to configure the Capture/Compare unit used in 
  56:../Libraries/STM32F30x_StdPeriph_Driver/src/stm32f30x_tim.c ****             Input Capture mode:
  57:../Libraries/STM32F30x_StdPeriph_Driver/src/stm32f30x_tim.c ****                  (++) Configure each channel in input capture mode
  58:../Libraries/STM32F30x_StdPeriph_Driver/src/stm32f30x_tim.c ****                  (++) Configure Channel1/2 in PWM Input mode
  59:../Libraries/STM32F30x_StdPeriph_Driver/src/stm32f30x_tim.c ****                  (++) Set the Input Capture Prescaler
  60:../Libraries/STM32F30x_StdPeriph_Driver/src/stm32f30x_tim.c ****                  (++) Get the Capture/Compare values      
  61:../Libraries/STM32F30x_StdPeriph_Driver/src/stm32f30x_tim.c ****                      
  62:../Libraries/STM32F30x_StdPeriph_Driver/src/stm32f30x_tim.c ****         (#) Advanced-control timers (TIM1 and TIM8) specific features
  63:../Libraries/STM32F30x_StdPeriph_Driver/src/stm32f30x_tim.c ****                  (++) Configures the Break input, dead time, Lock level, the OSSI,
  64:../Libraries/STM32F30x_StdPeriph_Driver/src/stm32f30x_tim.c ****                       the OSSR State and the AOE(automatic output enable)
  65:../Libraries/STM32F30x_StdPeriph_Driver/src/stm32f30x_tim.c ****                  (++) Enable/Disable the TIM peripheral Main Outputs
  66:../Libraries/STM32F30x_StdPeriph_Driver/src/stm32f30x_tim.c ****                  (++) Select the Commutation event
  67:../Libraries/STM32F30x_StdPeriph_Driver/src/stm32f30x_tim.c ****                  (++) Set/Reset the Capture Compare Preload Control bit
  68:../Libraries/STM32F30x_StdPeriph_Driver/src/stm32f30x_tim.c ****                                
  69:../Libraries/STM32F30x_StdPeriph_Driver/src/stm32f30x_tim.c ****         (#) TIM interrupts, DMA and flags management
  70:../Libraries/STM32F30x_StdPeriph_Driver/src/stm32f30x_tim.c ****                  (++) Enable/Disable interrupt sources
  71:../Libraries/STM32F30x_StdPeriph_Driver/src/stm32f30x_tim.c ****                  (++) Get flags status
  72:../Libraries/STM32F30x_StdPeriph_Driver/src/stm32f30x_tim.c ****                  (++) Clear flags/ Pending bits
  73:../Libraries/STM32F30x_StdPeriph_Driver/src/stm32f30x_tim.c ****                  (++) Enable/Disable DMA requests 
  74:../Libraries/STM32F30x_StdPeriph_Driver/src/stm32f30x_tim.c ****                  (++) Configure DMA burst mode
  75:../Libraries/STM32F30x_StdPeriph_Driver/src/stm32f30x_tim.c ****                  (++) Select CaptureCompare DMA request  
  76:../Libraries/STM32F30x_StdPeriph_Driver/src/stm32f30x_tim.c ****                 
  77:../Libraries/STM32F30x_StdPeriph_Driver/src/stm32f30x_tim.c ****         (#) TIM clocks management: this group includes all needed functions 
  78:../Libraries/STM32F30x_StdPeriph_Driver/src/stm32f30x_tim.c ****             to configure the clock controller unit:
  79:../Libraries/STM32F30x_StdPeriph_Driver/src/stm32f30x_tim.c ****                  (++) Select internal/External clock
  80:../Libraries/STM32F30x_StdPeriph_Driver/src/stm32f30x_tim.c ****                  (++) Select the external clock mode: ETR(Mode1/Mode2), TIx or ITRx
  81:../Libraries/STM32F30x_StdPeriph_Driver/src/stm32f30x_tim.c ****          
  82:../Libraries/STM32F30x_StdPeriph_Driver/src/stm32f30x_tim.c ****         (#) TIM synchronization management: this group includes all needed 
  83:../Libraries/STM32F30x_StdPeriph_Driver/src/stm32f30x_tim.c ****             functions to configure the Synchronization unit:
  84:../Libraries/STM32F30x_StdPeriph_Driver/src/stm32f30x_tim.c ****                  (++) Select Input Trigger  
  85:../Libraries/STM32F30x_StdPeriph_Driver/src/stm32f30x_tim.c ****                  (++) Select Output Trigger  
  86:../Libraries/STM32F30x_StdPeriph_Driver/src/stm32f30x_tim.c ****                  (++) Select Master Slave Mode 
  87:../Libraries/STM32F30x_StdPeriph_Driver/src/stm32f30x_tim.c ****                  (++) ETR Configuration when used as external trigger   
  88:../Libraries/STM32F30x_StdPeriph_Driver/src/stm32f30x_tim.c ****        
  89:../Libraries/STM32F30x_StdPeriph_Driver/src/stm32f30x_tim.c ****         (#) TIM specific interface management, this group includes all 
  90:../Libraries/STM32F30x_StdPeriph_Driver/src/stm32f30x_tim.c ****             needed functions to use the specific TIM interface:
  91:../Libraries/STM32F30x_StdPeriph_Driver/src/stm32f30x_tim.c ****                  (++) Encoder Interface Configuration
  92:../Libraries/STM32F30x_StdPeriph_Driver/src/stm32f30x_tim.c ****                  (++) Select Hall Sensor   
  93:../Libraries/STM32F30x_StdPeriph_Driver/src/stm32f30x_tim.c ****            
  94:../Libraries/STM32F30x_StdPeriph_Driver/src/stm32f30x_tim.c ****         (#) TIM specific remapping management includes the Remapping 
  95:../Libraries/STM32F30x_StdPeriph_Driver/src/stm32f30x_tim.c ****             configuration of specific timers               
  96:../Libraries/STM32F30x_StdPeriph_Driver/src/stm32f30x_tim.c ****      
  97:../Libraries/STM32F30x_StdPeriph_Driver/src/stm32f30x_tim.c ****   @endverbatim
  98:../Libraries/STM32F30x_StdPeriph_Driver/src/stm32f30x_tim.c ****       
  99:../Libraries/STM32F30x_StdPeriph_Driver/src/stm32f30x_tim.c ****   ******************************************************************************
 100:../Libraries/STM32F30x_StdPeriph_Driver/src/stm32f30x_tim.c ****   * @attention
 101:../Libraries/STM32F30x_StdPeriph_Driver/src/stm32f30x_tim.c ****   *
 102:../Libraries/STM32F30x_StdPeriph_Driver/src/stm32f30x_tim.c ****   * <h2><center>&copy; COPYRIGHT 2012 STMicroelectronics</center></h2>
 103:../Libraries/STM32F30x_StdPeriph_Driver/src/stm32f30x_tim.c ****   *
 104:../Libraries/STM32F30x_StdPeriph_Driver/src/stm32f30x_tim.c ****   * Licensed under MCD-ST Liberty SW License Agreement V2, (the "License");
 105:../Libraries/STM32F30x_StdPeriph_Driver/src/stm32f30x_tim.c ****   * You may not use this file except in compliance with the License.
 106:../Libraries/STM32F30x_StdPeriph_Driver/src/stm32f30x_tim.c ****   * You may obtain a copy of the License at:
 107:../Libraries/STM32F30x_StdPeriph_Driver/src/stm32f30x_tim.c ****   *
 108:../Libraries/STM32F30x_StdPeriph_Driver/src/stm32f30x_tim.c ****   *        http://www.st.com/software_license_agreement_liberty_v2
 109:../Libraries/STM32F30x_StdPeriph_Driver/src/stm32f30x_tim.c ****   *
 110:../Libraries/STM32F30x_StdPeriph_Driver/src/stm32f30x_tim.c ****   * Unless required by applicable law or agreed to in writing, software 
 111:../Libraries/STM32F30x_StdPeriph_Driver/src/stm32f30x_tim.c ****   * distributed under the License is distributed on an "AS IS" BASIS, 
 112:../Libraries/STM32F30x_StdPeriph_Driver/src/stm32f30x_tim.c ****   * WITHOUT WARRANTIES OR CONDITIONS OF ANY KIND, either express or implied.
 113:../Libraries/STM32F30x_StdPeriph_Driver/src/stm32f30x_tim.c ****   * See the License for the specific language governing permissions and
 114:../Libraries/STM32F30x_StdPeriph_Driver/src/stm32f30x_tim.c ****   * limitations under the License.
 115:../Libraries/STM32F30x_StdPeriph_Driver/src/stm32f30x_tim.c ****   *
 116:../Libraries/STM32F30x_StdPeriph_Driver/src/stm32f30x_tim.c ****   ******************************************************************************
 117:../Libraries/STM32F30x_StdPeriph_Driver/src/stm32f30x_tim.c ****   */
 118:../Libraries/STM32F30x_StdPeriph_Driver/src/stm32f30x_tim.c **** 
 119:../Libraries/STM32F30x_StdPeriph_Driver/src/stm32f30x_tim.c **** /* Includes ------------------------------------------------------------------*/
 120:../Libraries/STM32F30x_StdPeriph_Driver/src/stm32f30x_tim.c **** #include "stm32f30x_tim.h"
 121:../Libraries/STM32F30x_StdPeriph_Driver/src/stm32f30x_tim.c **** #include "stm32f30x_rcc.h"
 122:../Libraries/STM32F30x_StdPeriph_Driver/src/stm32f30x_tim.c **** 
 123:../Libraries/STM32F30x_StdPeriph_Driver/src/stm32f30x_tim.c **** /** @addtogroup STM32F30x_StdPeriph_Driver
 124:../Libraries/STM32F30x_StdPeriph_Driver/src/stm32f30x_tim.c ****   * @{
 125:../Libraries/STM32F30x_StdPeriph_Driver/src/stm32f30x_tim.c ****   */
 126:../Libraries/STM32F30x_StdPeriph_Driver/src/stm32f30x_tim.c **** 
 127:../Libraries/STM32F30x_StdPeriph_Driver/src/stm32f30x_tim.c **** /** @defgroup TIM 
 128:../Libraries/STM32F30x_StdPeriph_Driver/src/stm32f30x_tim.c ****   * @brief TIM driver modules
 129:../Libraries/STM32F30x_StdPeriph_Driver/src/stm32f30x_tim.c ****   * @{
 130:../Libraries/STM32F30x_StdPeriph_Driver/src/stm32f30x_tim.c ****   */
 131:../Libraries/STM32F30x_StdPeriph_Driver/src/stm32f30x_tim.c **** 
 132:../Libraries/STM32F30x_StdPeriph_Driver/src/stm32f30x_tim.c **** /* Private typedef -----------------------------------------------------------*/
 133:../Libraries/STM32F30x_StdPeriph_Driver/src/stm32f30x_tim.c **** /* Private define ------------------------------------------------------------*/
 134:../Libraries/STM32F30x_StdPeriph_Driver/src/stm32f30x_tim.c **** 
 135:../Libraries/STM32F30x_StdPeriph_Driver/src/stm32f30x_tim.c **** /* ---------------------- TIM registers bit mask ------------------------ */
 136:../Libraries/STM32F30x_StdPeriph_Driver/src/stm32f30x_tim.c **** #define SMCR_ETR_MASK      ((uint16_t)0x00FF) 
 137:../Libraries/STM32F30x_StdPeriph_Driver/src/stm32f30x_tim.c **** #define CCMR_OFFSET        ((uint16_t)0x0018)
 138:../Libraries/STM32F30x_StdPeriph_Driver/src/stm32f30x_tim.c **** #define CCER_CCE_SET       ((uint16_t)0x0001)  
 139:../Libraries/STM32F30x_StdPeriph_Driver/src/stm32f30x_tim.c **** #define	CCER_CCNE_SET      ((uint16_t)0x0004) 
 140:../Libraries/STM32F30x_StdPeriph_Driver/src/stm32f30x_tim.c **** #define CCMR_OC13M_MASK    ((uint32_t)0xFFFEFF8F)
 141:../Libraries/STM32F30x_StdPeriph_Driver/src/stm32f30x_tim.c **** #define CCMR_OC24M_MASK    ((uint32_t)0xFEFF8FFF) 
 142:../Libraries/STM32F30x_StdPeriph_Driver/src/stm32f30x_tim.c **** 
 143:../Libraries/STM32F30x_StdPeriph_Driver/src/stm32f30x_tim.c **** /* Private macro -------------------------------------------------------------*/
 144:../Libraries/STM32F30x_StdPeriph_Driver/src/stm32f30x_tim.c **** /* Private variables ---------------------------------------------------------*/
 145:../Libraries/STM32F30x_StdPeriph_Driver/src/stm32f30x_tim.c **** /* Private function prototypes -----------------------------------------------*/
 146:../Libraries/STM32F30x_StdPeriph_Driver/src/stm32f30x_tim.c **** static void TI1_Config(TIM_TypeDef* TIMx, uint16_t TIM_ICPolarity, uint16_t TIM_ICSelection,
 147:../Libraries/STM32F30x_StdPeriph_Driver/src/stm32f30x_tim.c ****                        uint16_t TIM_ICFilter);
 148:../Libraries/STM32F30x_StdPeriph_Driver/src/stm32f30x_tim.c **** static void TI2_Config(TIM_TypeDef* TIMx, uint16_t TIM_ICPolarity, uint16_t TIM_ICSelection,
 149:../Libraries/STM32F30x_StdPeriph_Driver/src/stm32f30x_tim.c ****                        uint16_t TIM_ICFilter);
 150:../Libraries/STM32F30x_StdPeriph_Driver/src/stm32f30x_tim.c **** static void TI3_Config(TIM_TypeDef* TIMx, uint16_t TIM_ICPolarity, uint16_t TIM_ICSelection,
 151:../Libraries/STM32F30x_StdPeriph_Driver/src/stm32f30x_tim.c ****                        uint16_t TIM_ICFilter);
 152:../Libraries/STM32F30x_StdPeriph_Driver/src/stm32f30x_tim.c **** static void TI4_Config(TIM_TypeDef* TIMx, uint16_t TIM_ICPolarity, uint16_t TIM_ICSelection,
 153:../Libraries/STM32F30x_StdPeriph_Driver/src/stm32f30x_tim.c ****                        uint16_t TIM_ICFilter);
 154:../Libraries/STM32F30x_StdPeriph_Driver/src/stm32f30x_tim.c **** 
 155:../Libraries/STM32F30x_StdPeriph_Driver/src/stm32f30x_tim.c **** /* Private functions ---------------------------------------------------------*/
 156:../Libraries/STM32F30x_StdPeriph_Driver/src/stm32f30x_tim.c **** 
 157:../Libraries/STM32F30x_StdPeriph_Driver/src/stm32f30x_tim.c **** /** @defgroup TIM_Private_Functions
 158:../Libraries/STM32F30x_StdPeriph_Driver/src/stm32f30x_tim.c ****   * @{
 159:../Libraries/STM32F30x_StdPeriph_Driver/src/stm32f30x_tim.c ****   */
 160:../Libraries/STM32F30x_StdPeriph_Driver/src/stm32f30x_tim.c **** 
 161:../Libraries/STM32F30x_StdPeriph_Driver/src/stm32f30x_tim.c **** /** @defgroup TIM_Group1 TimeBase management functions
 162:../Libraries/STM32F30x_StdPeriph_Driver/src/stm32f30x_tim.c ****  *  @brief   TimeBase management functions 
 163:../Libraries/STM32F30x_StdPeriph_Driver/src/stm32f30x_tim.c ****  *
 164:../Libraries/STM32F30x_StdPeriph_Driver/src/stm32f30x_tim.c **** @verbatim   
 165:../Libraries/STM32F30x_StdPeriph_Driver/src/stm32f30x_tim.c ****  ===============================================================================
 166:../Libraries/STM32F30x_StdPeriph_Driver/src/stm32f30x_tim.c ****                    ##### TimeBase management functions #####
 167:../Libraries/STM32F30x_StdPeriph_Driver/src/stm32f30x_tim.c ****  ===============================================================================  
 168:../Libraries/STM32F30x_StdPeriph_Driver/src/stm32f30x_tim.c ****   
 169:../Libraries/STM32F30x_StdPeriph_Driver/src/stm32f30x_tim.c ****              
 170:../Libraries/STM32F30x_StdPeriph_Driver/src/stm32f30x_tim.c ****     *** TIM Driver: how to use it in Timing(Time base) Mode ***
 171:../Libraries/STM32F30x_StdPeriph_Driver/src/stm32f30x_tim.c ****     ============================================================ 
 172:../Libraries/STM32F30x_StdPeriph_Driver/src/stm32f30x_tim.c ****     [..]
 173:../Libraries/STM32F30x_StdPeriph_Driver/src/stm32f30x_tim.c ****     To use the Timer in Timing(Time base) mode, the following steps are mandatory:
 174:../Libraries/STM32F30x_StdPeriph_Driver/src/stm32f30x_tim.c ****        
 175:../Libraries/STM32F30x_StdPeriph_Driver/src/stm32f30x_tim.c ****     (#) Enable TIM clock using 
 176:../Libraries/STM32F30x_StdPeriph_Driver/src/stm32f30x_tim.c ****         RCC_APBxPeriphClockCmd(RCC_APBxPeriph_TIMx, ENABLE) function               
 177:../Libraries/STM32F30x_StdPeriph_Driver/src/stm32f30x_tim.c ****     (#) Fill the TIM_TimeBaseInitStruct with the desired parameters.   
 178:../Libraries/STM32F30x_StdPeriph_Driver/src/stm32f30x_tim.c ****     (#) Call TIM_TimeBaseInit(TIMx, &TIM_TimeBaseInitStruct) to configure 
 179:../Libraries/STM32F30x_StdPeriph_Driver/src/stm32f30x_tim.c ****         the Time Base unit
 180:../Libraries/STM32F30x_StdPeriph_Driver/src/stm32f30x_tim.c ****         with the corresponding configuration        
 181:../Libraries/STM32F30x_StdPeriph_Driver/src/stm32f30x_tim.c ****     (#) Enable the NVIC if you need to generate the update interrupt.        
 182:../Libraries/STM32F30x_StdPeriph_Driver/src/stm32f30x_tim.c ****     (#) Enable the corresponding interrupt using the function 
 183:../Libraries/STM32F30x_StdPeriph_Driver/src/stm32f30x_tim.c ****         TIM_ITConfig(TIMx, TIM_IT_Update)      
 184:../Libraries/STM32F30x_StdPeriph_Driver/src/stm32f30x_tim.c ****     (#) Call the TIM_Cmd(ENABLE) function to enable the TIM counter.
 185:../Libraries/STM32F30x_StdPeriph_Driver/src/stm32f30x_tim.c ****     [..]                  
 186:../Libraries/STM32F30x_StdPeriph_Driver/src/stm32f30x_tim.c ****     (@) All other functions can be used separately to modify, if needed,
 187:../Libraries/STM32F30x_StdPeriph_Driver/src/stm32f30x_tim.c ****         a specific feature of the Timer. 
 188:../Libraries/STM32F30x_StdPeriph_Driver/src/stm32f30x_tim.c **** 
 189:../Libraries/STM32F30x_StdPeriph_Driver/src/stm32f30x_tim.c **** @endverbatim
 190:../Libraries/STM32F30x_StdPeriph_Driver/src/stm32f30x_tim.c ****   * @{
 191:../Libraries/STM32F30x_StdPeriph_Driver/src/stm32f30x_tim.c ****   */
 192:../Libraries/STM32F30x_StdPeriph_Driver/src/stm32f30x_tim.c ****   
 193:../Libraries/STM32F30x_StdPeriph_Driver/src/stm32f30x_tim.c **** /**
 194:../Libraries/STM32F30x_StdPeriph_Driver/src/stm32f30x_tim.c ****   * @brief  Deinitializes the TIMx peripheral registers to their default reset values.
 195:../Libraries/STM32F30x_StdPeriph_Driver/src/stm32f30x_tim.c ****   * @param  TIMx: where x can be 1, 2, 3, 4, 6 ,7 ,8, 15, 16 or 17 to select the TIM peripheral.
 196:../Libraries/STM32F30x_StdPeriph_Driver/src/stm32f30x_tim.c ****   * @retval None
 197:../Libraries/STM32F30x_StdPeriph_Driver/src/stm32f30x_tim.c **** 
 198:../Libraries/STM32F30x_StdPeriph_Driver/src/stm32f30x_tim.c ****   */
 199:../Libraries/STM32F30x_StdPeriph_Driver/src/stm32f30x_tim.c **** void TIM_DeInit(TIM_TypeDef* TIMx)
 200:../Libraries/STM32F30x_StdPeriph_Driver/src/stm32f30x_tim.c **** {
  27              		.loc 1 200 0
  28              		.cfi_startproc
  29              		@ args = 0, pretend = 0, frame = 8
  30              		@ frame_needed = 0, uses_anonymous_args = 0
  31 0000 00B5     		push	{lr}
  32              	.LCFI0:
  33              		.cfi_def_cfa_offset 4
  34              		.cfi_offset 14, -4
  35 0002 83B0     		sub	sp, sp, #12
  36              	.LCFI1:
  37              		.cfi_def_cfa_offset 16
  38 0004 0190     		str	r0, [sp, #4]
 201:../Libraries/STM32F30x_StdPeriph_Driver/src/stm32f30x_tim.c ****   /* Check the parameters */
 202:../Libraries/STM32F30x_StdPeriph_Driver/src/stm32f30x_tim.c ****   assert_param(IS_TIM_ALL_PERIPH(TIMx)); 
 203:../Libraries/STM32F30x_StdPeriph_Driver/src/stm32f30x_tim.c ****  
 204:../Libraries/STM32F30x_StdPeriph_Driver/src/stm32f30x_tim.c ****   if (TIMx == TIM1)
  39              		.loc 1 204 0
  40 0006 019A     		ldr	r2, [sp, #4]
  41 0008 4FF43053 		mov	r3, #11264
  42 000c C4F20103 		movt	r3, 16385
  43 0010 9A42     		cmp	r2, r3
  44 0012 0CD1     		bne	.L2
 205:../Libraries/STM32F30x_StdPeriph_Driver/src/stm32f30x_tim.c ****   {
 206:../Libraries/STM32F30x_StdPeriph_Driver/src/stm32f30x_tim.c ****     RCC_APB2PeriphResetCmd(RCC_APB2Periph_TIM1, ENABLE);
  45              		.loc 1 206 0
  46 0014 4FF40060 		mov	r0, #2048
  47 0018 4FF00101 		mov	r1, #1
  48 001c FFF7FEFF 		bl	RCC_APB2PeriphResetCmd
 207:../Libraries/STM32F30x_StdPeriph_Driver/src/stm32f30x_tim.c ****     RCC_APB2PeriphResetCmd(RCC_APB2Periph_TIM1, DISABLE);  
  49              		.loc 1 207 0
  50 0020 4FF40060 		mov	r0, #2048
  51 0024 4FF00001 		mov	r1, #0
  52 0028 FFF7FEFF 		bl	RCC_APB2PeriphResetCmd
  53 002c AFE0     		b	.L1
  54              	.L2:
 208:../Libraries/STM32F30x_StdPeriph_Driver/src/stm32f30x_tim.c ****   } 
 209:../Libraries/STM32F30x_StdPeriph_Driver/src/stm32f30x_tim.c ****   else if (TIMx == TIM2) 
  55              		.loc 1 209 0
  56 002e 019B     		ldr	r3, [sp, #4]
  57 0030 B3F1804F 		cmp	r3, #1073741824
  58 0034 0CD1     		bne	.L4
 210:../Libraries/STM32F30x_StdPeriph_Driver/src/stm32f30x_tim.c ****   {     
 211:../Libraries/STM32F30x_StdPeriph_Driver/src/stm32f30x_tim.c ****     RCC_APB1PeriphResetCmd(RCC_APB1Periph_TIM2, ENABLE);
  59              		.loc 1 211 0
  60 0036 4FF00100 		mov	r0, #1
  61 003a 4FF00101 		mov	r1, #1
  62 003e FFF7FEFF 		bl	RCC_APB1PeriphResetCmd
 212:../Libraries/STM32F30x_StdPeriph_Driver/src/stm32f30x_tim.c ****     RCC_APB1PeriphResetCmd(RCC_APB1Periph_TIM2, DISABLE);
  63              		.loc 1 212 0
  64 0042 4FF00100 		mov	r0, #1
  65 0046 4FF00001 		mov	r1, #0
  66 004a FFF7FEFF 		bl	RCC_APB1PeriphResetCmd
  67 004e 9EE0     		b	.L1
  68              	.L4:
 213:../Libraries/STM32F30x_StdPeriph_Driver/src/stm32f30x_tim.c ****   }  
 214:../Libraries/STM32F30x_StdPeriph_Driver/src/stm32f30x_tim.c ****   else if (TIMx == TIM3)
  69              		.loc 1 214 0
  70 0050 019A     		ldr	r2, [sp, #4]
  71 0052 4FF48063 		mov	r3, #1024
  72 0056 C4F20003 		movt	r3, 16384
  73 005a 9A42     		cmp	r2, r3
  74 005c 0CD1     		bne	.L5
 215:../Libraries/STM32F30x_StdPeriph_Driver/src/stm32f30x_tim.c ****   { 
 216:../Libraries/STM32F30x_StdPeriph_Driver/src/stm32f30x_tim.c ****     RCC_APB1PeriphResetCmd(RCC_APB1Periph_TIM3, ENABLE);
  75              		.loc 1 216 0
  76 005e 4FF00200 		mov	r0, #2
  77 0062 4FF00101 		mov	r1, #1
  78 0066 FFF7FEFF 		bl	RCC_APB1PeriphResetCmd
 217:../Libraries/STM32F30x_StdPeriph_Driver/src/stm32f30x_tim.c ****     RCC_APB1PeriphResetCmd(RCC_APB1Periph_TIM3, DISABLE);
  79              		.loc 1 217 0
  80 006a 4FF00200 		mov	r0, #2
  81 006e 4FF00001 		mov	r1, #0
  82 0072 FFF7FEFF 		bl	RCC_APB1PeriphResetCmd
  83 0076 8AE0     		b	.L1
  84              	.L5:
 218:../Libraries/STM32F30x_StdPeriph_Driver/src/stm32f30x_tim.c ****   }  
 219:../Libraries/STM32F30x_StdPeriph_Driver/src/stm32f30x_tim.c ****   else if (TIMx == TIM4)
  85              		.loc 1 219 0
  86 0078 019A     		ldr	r2, [sp, #4]
  87 007a 4FF40063 		mov	r3, #2048
  88 007e C4F20003 		movt	r3, 16384
  89 0082 9A42     		cmp	r2, r3
  90 0084 0CD1     		bne	.L6
 220:../Libraries/STM32F30x_StdPeriph_Driver/src/stm32f30x_tim.c ****   { 
 221:../Libraries/STM32F30x_StdPeriph_Driver/src/stm32f30x_tim.c ****     RCC_APB1PeriphResetCmd(RCC_APB1Periph_TIM4, ENABLE);
  91              		.loc 1 221 0
  92 0086 4FF00400 		mov	r0, #4
  93 008a 4FF00101 		mov	r1, #1
  94 008e FFF7FEFF 		bl	RCC_APB1PeriphResetCmd
 222:../Libraries/STM32F30x_StdPeriph_Driver/src/stm32f30x_tim.c ****     RCC_APB1PeriphResetCmd(RCC_APB1Periph_TIM4, DISABLE);
  95              		.loc 1 222 0
  96 0092 4FF00400 		mov	r0, #4
  97 0096 4FF00001 		mov	r1, #0
  98 009a FFF7FEFF 		bl	RCC_APB1PeriphResetCmd
  99 009e 76E0     		b	.L1
 100              	.L6:
 223:../Libraries/STM32F30x_StdPeriph_Driver/src/stm32f30x_tim.c ****   }   
 224:../Libraries/STM32F30x_StdPeriph_Driver/src/stm32f30x_tim.c ****   else if (TIMx == TIM6)  
 101              		.loc 1 224 0
 102 00a0 019A     		ldr	r2, [sp, #4]
 103 00a2 4FF48053 		mov	r3, #4096
 104 00a6 C4F20003 		movt	r3, 16384
 105 00aa 9A42     		cmp	r2, r3
 106 00ac 0CD1     		bne	.L7
 225:../Libraries/STM32F30x_StdPeriph_Driver/src/stm32f30x_tim.c ****   {    
 226:../Libraries/STM32F30x_StdPeriph_Driver/src/stm32f30x_tim.c ****     RCC_APB1PeriphResetCmd(RCC_APB1Periph_TIM6, ENABLE);
 107              		.loc 1 226 0
 108 00ae 4FF01000 		mov	r0, #16
 109 00b2 4FF00101 		mov	r1, #1
 110 00b6 FFF7FEFF 		bl	RCC_APB1PeriphResetCmd
 227:../Libraries/STM32F30x_StdPeriph_Driver/src/stm32f30x_tim.c ****     RCC_APB1PeriphResetCmd(RCC_APB1Periph_TIM6, DISABLE);
 111              		.loc 1 227 0
 112 00ba 4FF01000 		mov	r0, #16
 113 00be 4FF00001 		mov	r1, #0
 114 00c2 FFF7FEFF 		bl	RCC_APB1PeriphResetCmd
 115 00c6 62E0     		b	.L1
 116              	.L7:
 228:../Libraries/STM32F30x_StdPeriph_Driver/src/stm32f30x_tim.c ****   }  
 229:../Libraries/STM32F30x_StdPeriph_Driver/src/stm32f30x_tim.c ****   else if (TIMx == TIM7)
 117              		.loc 1 229 0
 118 00c8 019A     		ldr	r2, [sp, #4]
 119 00ca 4FF4A053 		mov	r3, #5120
 120 00ce C4F20003 		movt	r3, 16384
 121 00d2 9A42     		cmp	r2, r3
 122 00d4 0CD1     		bne	.L8
 230:../Libraries/STM32F30x_StdPeriph_Driver/src/stm32f30x_tim.c ****   {      
 231:../Libraries/STM32F30x_StdPeriph_Driver/src/stm32f30x_tim.c ****     RCC_APB1PeriphResetCmd(RCC_APB1Periph_TIM7, ENABLE);
 123              		.loc 1 231 0
 124 00d6 4FF02000 		mov	r0, #32
 125 00da 4FF00101 		mov	r1, #1
 126 00de FFF7FEFF 		bl	RCC_APB1PeriphResetCmd
 232:../Libraries/STM32F30x_StdPeriph_Driver/src/stm32f30x_tim.c ****     RCC_APB1PeriphResetCmd(RCC_APB1Periph_TIM7, DISABLE);
 127              		.loc 1 232 0
 128 00e2 4FF02000 		mov	r0, #32
 129 00e6 4FF00001 		mov	r1, #0
 130 00ea FFF7FEFF 		bl	RCC_APB1PeriphResetCmd
 131 00ee 4EE0     		b	.L1
 132              	.L8:
 233:../Libraries/STM32F30x_StdPeriph_Driver/src/stm32f30x_tim.c ****   }  
 234:../Libraries/STM32F30x_StdPeriph_Driver/src/stm32f30x_tim.c ****   else if (TIMx == TIM8)
 133              		.loc 1 234 0
 134 00f0 019A     		ldr	r2, [sp, #4]
 135 00f2 4FF45053 		mov	r3, #13312
 136 00f6 C4F20103 		movt	r3, 16385
 137 00fa 9A42     		cmp	r2, r3
 138 00fc 0CD1     		bne	.L9
 235:../Libraries/STM32F30x_StdPeriph_Driver/src/stm32f30x_tim.c ****   {      
 236:../Libraries/STM32F30x_StdPeriph_Driver/src/stm32f30x_tim.c ****     RCC_APB2PeriphResetCmd(RCC_APB2Periph_TIM8, ENABLE);
 139              		.loc 1 236 0
 140 00fe 4FF40050 		mov	r0, #8192
 141 0102 4FF00101 		mov	r1, #1
 142 0106 FFF7FEFF 		bl	RCC_APB2PeriphResetCmd
 237:../Libraries/STM32F30x_StdPeriph_Driver/src/stm32f30x_tim.c ****     RCC_APB2PeriphResetCmd(RCC_APB2Periph_TIM8, DISABLE);  
 143              		.loc 1 237 0
 144 010a 4FF40050 		mov	r0, #8192
 145 010e 4FF00001 		mov	r1, #0
 146 0112 FFF7FEFF 		bl	RCC_APB2PeriphResetCmd
 147 0116 3AE0     		b	.L1
 148              	.L9:
 238:../Libraries/STM32F30x_StdPeriph_Driver/src/stm32f30x_tim.c ****   }    
 239:../Libraries/STM32F30x_StdPeriph_Driver/src/stm32f30x_tim.c ****   else if (TIMx == TIM15)
 149              		.loc 1 239 0
 150 0118 019A     		ldr	r2, [sp, #4]
 151 011a 4FF48043 		mov	r3, #16384
 152 011e C4F20103 		movt	r3, 16385
 153 0122 9A42     		cmp	r2, r3
 154 0124 0CD1     		bne	.L10
 240:../Libraries/STM32F30x_StdPeriph_Driver/src/stm32f30x_tim.c ****   {      
 241:../Libraries/STM32F30x_StdPeriph_Driver/src/stm32f30x_tim.c ****     RCC_APB2PeriphResetCmd(RCC_APB2Periph_TIM15, ENABLE);
 155              		.loc 1 241 0
 156 0126 4FF48030 		mov	r0, #65536
 157 012a 4FF00101 		mov	r1, #1
 158 012e FFF7FEFF 		bl	RCC_APB2PeriphResetCmd
 242:../Libraries/STM32F30x_StdPeriph_Driver/src/stm32f30x_tim.c ****     RCC_APB2PeriphResetCmd(RCC_APB2Periph_TIM15, DISABLE);  
 159              		.loc 1 242 0
 160 0132 4FF48030 		mov	r0, #65536
 161 0136 4FF00001 		mov	r1, #0
 162 013a FFF7FEFF 		bl	RCC_APB2PeriphResetCmd
 163 013e 26E0     		b	.L1
 164              	.L10:
 243:../Libraries/STM32F30x_StdPeriph_Driver/src/stm32f30x_tim.c ****   }  
 244:../Libraries/STM32F30x_StdPeriph_Driver/src/stm32f30x_tim.c ****   else if (TIMx == TIM16) 
 165              		.loc 1 244 0
 166 0140 019A     		ldr	r2, [sp, #4]
 167 0142 4FF48843 		mov	r3, #17408
 168 0146 C4F20103 		movt	r3, 16385
 169 014a 9A42     		cmp	r2, r3
 170 014c 0CD1     		bne	.L11
 245:../Libraries/STM32F30x_StdPeriph_Driver/src/stm32f30x_tim.c ****   {       
 246:../Libraries/STM32F30x_StdPeriph_Driver/src/stm32f30x_tim.c ****     RCC_APB2PeriphResetCmd(RCC_APB2Periph_TIM16, ENABLE);
 171              		.loc 1 246 0
 172 014e 4FF40030 		mov	r0, #131072
 173 0152 4FF00101 		mov	r1, #1
 174 0156 FFF7FEFF 		bl	RCC_APB2PeriphResetCmd
 247:../Libraries/STM32F30x_StdPeriph_Driver/src/stm32f30x_tim.c ****     RCC_APB2PeriphResetCmd(RCC_APB2Periph_TIM16, DISABLE);  
 175              		.loc 1 247 0
 176 015a 4FF40030 		mov	r0, #131072
 177 015e 4FF00001 		mov	r1, #0
 178 0162 FFF7FEFF 		bl	RCC_APB2PeriphResetCmd
 179 0166 12E0     		b	.L1
 180              	.L11:
 248:../Libraries/STM32F30x_StdPeriph_Driver/src/stm32f30x_tim.c ****   }  
 249:../Libraries/STM32F30x_StdPeriph_Driver/src/stm32f30x_tim.c ****   else
 250:../Libraries/STM32F30x_StdPeriph_Driver/src/stm32f30x_tim.c ****   { 
 251:../Libraries/STM32F30x_StdPeriph_Driver/src/stm32f30x_tim.c ****     if (TIMx == TIM17) 
 181              		.loc 1 251 0
 182 0168 019A     		ldr	r2, [sp, #4]
 183 016a 4FF49043 		mov	r3, #18432
 184 016e C4F20103 		movt	r3, 16385
 185 0172 9A42     		cmp	r2, r3
 186 0174 0BD1     		bne	.L1
 252:../Libraries/STM32F30x_StdPeriph_Driver/src/stm32f30x_tim.c ****     {     
 253:../Libraries/STM32F30x_StdPeriph_Driver/src/stm32f30x_tim.c ****       RCC_APB2PeriphResetCmd(RCC_APB2Periph_TIM17, ENABLE);
 187              		.loc 1 253 0
 188 0176 4FF48020 		mov	r0, #262144
 189 017a 4FF00101 		mov	r1, #1
 190 017e FFF7FEFF 		bl	RCC_APB2PeriphResetCmd
 254:../Libraries/STM32F30x_StdPeriph_Driver/src/stm32f30x_tim.c ****       RCC_APB2PeriphResetCmd(RCC_APB2Periph_TIM17, DISABLE); 
 191              		.loc 1 254 0
 192 0182 4FF48020 		mov	r0, #262144
 193 0186 4FF00001 		mov	r1, #0
 194 018a FFF7FEFF 		bl	RCC_APB2PeriphResetCmd
 195              	.L1:
 255:../Libraries/STM32F30x_StdPeriph_Driver/src/stm32f30x_tim.c ****     }   
 256:../Libraries/STM32F30x_StdPeriph_Driver/src/stm32f30x_tim.c ****   }
 257:../Libraries/STM32F30x_StdPeriph_Driver/src/stm32f30x_tim.c **** }
 196              		.loc 1 257 0
 197 018e 03B0     		add	sp, sp, #12
 198 0190 00BD     		pop	{pc}
 199              		.cfi_endproc
 200              	.LFE111:
 202 0192 00BF     		.align	2
 203              		.global	TIM_TimeBaseInit
 204              		.thumb
 205              		.thumb_func
 207              	TIM_TimeBaseInit:
 208              	.LFB112:
 258:../Libraries/STM32F30x_StdPeriph_Driver/src/stm32f30x_tim.c **** 
 259:../Libraries/STM32F30x_StdPeriph_Driver/src/stm32f30x_tim.c **** /**
 260:../Libraries/STM32F30x_StdPeriph_Driver/src/stm32f30x_tim.c ****   * @brief  Initializes the TIMx Time Base Unit peripheral according to 
 261:../Libraries/STM32F30x_StdPeriph_Driver/src/stm32f30x_tim.c ****   *         the specified parameters in the TIM_TimeBaseInitStruct.
 262:../Libraries/STM32F30x_StdPeriph_Driver/src/stm32f30x_tim.c ****   * @param  TIMx: where x can be  1, 2, 3, 4, 6 ,7 ,8, 15, 16 or 17 to select the TIM peripheral.
 263:../Libraries/STM32F30x_StdPeriph_Driver/src/stm32f30x_tim.c ****   * @param  TIM_TimeBaseInitStruct: pointer to a TIM_TimeBaseInitTypeDef structure
 264:../Libraries/STM32F30x_StdPeriph_Driver/src/stm32f30x_tim.c ****   *         that contains the configuration information for the specified TIM peripheral.
 265:../Libraries/STM32F30x_StdPeriph_Driver/src/stm32f30x_tim.c ****   * @retval None
 266:../Libraries/STM32F30x_StdPeriph_Driver/src/stm32f30x_tim.c ****   */
 267:../Libraries/STM32F30x_StdPeriph_Driver/src/stm32f30x_tim.c **** void TIM_TimeBaseInit(TIM_TypeDef* TIMx, TIM_TimeBaseInitTypeDef* TIM_TimeBaseInitStruct)
 268:../Libraries/STM32F30x_StdPeriph_Driver/src/stm32f30x_tim.c **** {
 209              		.loc 1 268 0
 210              		.cfi_startproc
 211              		@ args = 0, pretend = 0, frame = 16
 212              		@ frame_needed = 0, uses_anonymous_args = 0
 213              		@ link register save eliminated.
 214 0194 84B0     		sub	sp, sp, #16
 215              	.LCFI2:
 216              		.cfi_def_cfa_offset 16
 217 0196 0190     		str	r0, [sp, #4]
 218 0198 0091     		str	r1, [sp, #0]
 269:../Libraries/STM32F30x_StdPeriph_Driver/src/stm32f30x_tim.c ****   uint16_t tmpcr1 = 0;
 219              		.loc 1 269 0
 220 019a 4FF00003 		mov	r3, #0
 221 019e ADF80E30 		strh	r3, [sp, #14]	@ movhi
 270:../Libraries/STM32F30x_StdPeriph_Driver/src/stm32f30x_tim.c **** 
 271:../Libraries/STM32F30x_StdPeriph_Driver/src/stm32f30x_tim.c ****   /* Check the parameters */
 272:../Libraries/STM32F30x_StdPeriph_Driver/src/stm32f30x_tim.c ****   assert_param(IS_TIM_ALL_PERIPH(TIMx)); 
 273:../Libraries/STM32F30x_StdPeriph_Driver/src/stm32f30x_tim.c ****   assert_param(IS_TIM_COUNTER_MODE(TIM_TimeBaseInitStruct->TIM_CounterMode));
 274:../Libraries/STM32F30x_StdPeriph_Driver/src/stm32f30x_tim.c ****   assert_param(IS_TIM_CKD_DIV(TIM_TimeBaseInitStruct->TIM_ClockDivision));
 275:../Libraries/STM32F30x_StdPeriph_Driver/src/stm32f30x_tim.c **** 
 276:../Libraries/STM32F30x_StdPeriph_Driver/src/stm32f30x_tim.c ****   tmpcr1 = TIMx->CR1;  
 222              		.loc 1 276 0
 223 01a2 019B     		ldr	r3, [sp, #4]
 224 01a4 1B88     		ldrh	r3, [r3, #0]	@ movhi
 225 01a6 ADF80E30 		strh	r3, [sp, #14]	@ movhi
 277:../Libraries/STM32F30x_StdPeriph_Driver/src/stm32f30x_tim.c **** 
 278:../Libraries/STM32F30x_StdPeriph_Driver/src/stm32f30x_tim.c ****   if((TIMx == TIM1) || (TIMx == TIM8)|| (TIMx == TIM2) || 
 226              		.loc 1 278 0
 227 01aa 019A     		ldr	r2, [sp, #4]
 228 01ac 4FF43053 		mov	r3, #11264
 229 01b0 C4F20103 		movt	r3, 16385
 230 01b4 9A42     		cmp	r2, r3
 231 01b6 18D0     		beq	.L13
 232              		.loc 1 278 0 is_stmt 0 discriminator 1
 233 01b8 019A     		ldr	r2, [sp, #4]
 234 01ba 4FF45053 		mov	r3, #13312
 235 01be C4F20103 		movt	r3, 16385
 236 01c2 9A42     		cmp	r2, r3
 237 01c4 11D0     		beq	.L13
 238 01c6 019B     		ldr	r3, [sp, #4]
 239 01c8 B3F1804F 		cmp	r3, #1073741824
 240 01cc 0DD0     		beq	.L13
 241 01ce 019A     		ldr	r2, [sp, #4]
 242 01d0 4FF48063 		mov	r3, #1024
 243 01d4 C4F20003 		movt	r3, 16384
 244 01d8 9A42     		cmp	r2, r3
 245 01da 06D0     		beq	.L13
 279:../Libraries/STM32F30x_StdPeriph_Driver/src/stm32f30x_tim.c ****      (TIMx == TIM3)|| (TIMx == TIM4)) 
 246              		.loc 1 279 0 is_stmt 1
 247 01dc 019A     		ldr	r2, [sp, #4]
 248 01de 4FF40063 		mov	r3, #2048
 249 01e2 C4F20003 		movt	r3, 16384
 250 01e6 9A42     		cmp	r2, r3
 251 01e8 0CD1     		bne	.L14
 252              	.L13:
 280:../Libraries/STM32F30x_StdPeriph_Driver/src/stm32f30x_tim.c ****   {
 281:../Libraries/STM32F30x_StdPeriph_Driver/src/stm32f30x_tim.c ****     /* Select the Counter Mode */
 282:../Libraries/STM32F30x_StdPeriph_Driver/src/stm32f30x_tim.c ****     tmpcr1 &= (uint16_t)(~(TIM_CR1_DIR | TIM_CR1_CMS));
 253              		.loc 1 282 0
 254 01ea BDF80E30 		ldrh	r3, [sp, #14]	@ movhi
 255 01ee 23F07003 		bic	r3, r3, #112
 256 01f2 ADF80E30 		strh	r3, [sp, #14]	@ movhi
 283:../Libraries/STM32F30x_StdPeriph_Driver/src/stm32f30x_tim.c ****     tmpcr1 |= (uint32_t)TIM_TimeBaseInitStruct->TIM_CounterMode;
 257              		.loc 1 283 0
 258 01f6 009B     		ldr	r3, [sp, #0]
 259 01f8 5A88     		ldrh	r2, [r3, #2]
 260 01fa BDF80E30 		ldrh	r3, [sp, #14]	@ movhi
 261 01fe 1343     		orrs	r3, r3, r2
 262 0200 ADF80E30 		strh	r3, [sp, #14]	@ movhi
 263              	.L14:
 284:../Libraries/STM32F30x_StdPeriph_Driver/src/stm32f30x_tim.c ****   }
 285:../Libraries/STM32F30x_StdPeriph_Driver/src/stm32f30x_tim.c ****  
 286:../Libraries/STM32F30x_StdPeriph_Driver/src/stm32f30x_tim.c ****   if((TIMx != TIM6) && (TIMx != TIM7))
 264              		.loc 1 286 0
 265 0204 019A     		ldr	r2, [sp, #4]
 266 0206 4FF48053 		mov	r3, #4096
 267 020a C4F20003 		movt	r3, 16384
 268 020e 9A42     		cmp	r2, r3
 269 0210 13D0     		beq	.L15
 270              		.loc 1 286 0 is_stmt 0 discriminator 1
 271 0212 019A     		ldr	r2, [sp, #4]
 272 0214 4FF4A053 		mov	r3, #5120
 273 0218 C4F20003 		movt	r3, 16384
 274 021c 9A42     		cmp	r2, r3
 275 021e 0CD0     		beq	.L15
 287:../Libraries/STM32F30x_StdPeriph_Driver/src/stm32f30x_tim.c ****   {
 288:../Libraries/STM32F30x_StdPeriph_Driver/src/stm32f30x_tim.c ****     /* Set the clock division */
 289:../Libraries/STM32F30x_StdPeriph_Driver/src/stm32f30x_tim.c ****     tmpcr1 &=  (uint16_t)(~TIM_CR1_CKD);
 276              		.loc 1 289 0 is_stmt 1
 277 0220 BDF80E30 		ldrh	r3, [sp, #14]	@ movhi
 278 0224 23F44073 		bic	r3, r3, #768
 279 0228 ADF80E30 		strh	r3, [sp, #14]	@ movhi
 290:../Libraries/STM32F30x_StdPeriph_Driver/src/stm32f30x_tim.c ****     tmpcr1 |= (uint32_t)TIM_TimeBaseInitStruct->TIM_ClockDivision;
 280              		.loc 1 290 0
 281 022c 009B     		ldr	r3, [sp, #0]
 282 022e 1A89     		ldrh	r2, [r3, #8]
 283 0230 BDF80E30 		ldrh	r3, [sp, #14]	@ movhi
 284 0234 1343     		orrs	r3, r3, r2
 285 0236 ADF80E30 		strh	r3, [sp, #14]	@ movhi
 286              	.L15:
 291:../Libraries/STM32F30x_StdPeriph_Driver/src/stm32f30x_tim.c ****   }
 292:../Libraries/STM32F30x_StdPeriph_Driver/src/stm32f30x_tim.c **** 
 293:../Libraries/STM32F30x_StdPeriph_Driver/src/stm32f30x_tim.c ****   TIMx->CR1 = tmpcr1;
 287              		.loc 1 293 0
 288 023a 019B     		ldr	r3, [sp, #4]
 289 023c BDF80E20 		ldrh	r2, [sp, #14]	@ movhi
 290 0240 1A80     		strh	r2, [r3, #0]	@ movhi
 294:../Libraries/STM32F30x_StdPeriph_Driver/src/stm32f30x_tim.c **** 
 295:../Libraries/STM32F30x_StdPeriph_Driver/src/stm32f30x_tim.c ****   /* Set the Autoreload value */
 296:../Libraries/STM32F30x_StdPeriph_Driver/src/stm32f30x_tim.c ****   TIMx->ARR = TIM_TimeBaseInitStruct->TIM_Period ;
 291              		.loc 1 296 0
 292 0242 009B     		ldr	r3, [sp, #0]
 293 0244 5A68     		ldr	r2, [r3, #4]
 294 0246 019B     		ldr	r3, [sp, #4]
 295 0248 DA62     		str	r2, [r3, #44]
 297:../Libraries/STM32F30x_StdPeriph_Driver/src/stm32f30x_tim.c ****  
 298:../Libraries/STM32F30x_StdPeriph_Driver/src/stm32f30x_tim.c ****   /* Set the Prescaler value */
 299:../Libraries/STM32F30x_StdPeriph_Driver/src/stm32f30x_tim.c ****   TIMx->PSC = TIM_TimeBaseInitStruct->TIM_Prescaler;
 296              		.loc 1 299 0
 297 024a 009B     		ldr	r3, [sp, #0]
 298 024c 1A88     		ldrh	r2, [r3, #0]
 299 024e 019B     		ldr	r3, [sp, #4]
 300 0250 1A85     		strh	r2, [r3, #40]	@ movhi
 300:../Libraries/STM32F30x_StdPeriph_Driver/src/stm32f30x_tim.c ****     
 301:../Libraries/STM32F30x_StdPeriph_Driver/src/stm32f30x_tim.c ****   if ((TIMx == TIM1) || (TIMx == TIM8)|| (TIMx == TIM15) || 
 301              		.loc 1 301 0
 302 0252 019A     		ldr	r2, [sp, #4]
 303 0254 4FF43053 		mov	r3, #11264
 304 0258 C4F20103 		movt	r3, 16385
 305 025c 9A42     		cmp	r2, r3
 306 025e 1BD0     		beq	.L16
 307              		.loc 1 301 0 is_stmt 0 discriminator 1
 308 0260 019A     		ldr	r2, [sp, #4]
 309 0262 4FF45053 		mov	r3, #13312
 310 0266 C4F20103 		movt	r3, 16385
 311 026a 9A42     		cmp	r2, r3
 312 026c 14D0     		beq	.L16
 313 026e 019A     		ldr	r2, [sp, #4]
 314 0270 4FF48043 		mov	r3, #16384
 315 0274 C4F20103 		movt	r3, 16385
 316 0278 9A42     		cmp	r2, r3
 317 027a 0DD0     		beq	.L16
 318 027c 019A     		ldr	r2, [sp, #4]
 319 027e 4FF48843 		mov	r3, #17408
 320 0282 C4F20103 		movt	r3, 16385
 321 0286 9A42     		cmp	r2, r3
 322 0288 06D0     		beq	.L16
 302:../Libraries/STM32F30x_StdPeriph_Driver/src/stm32f30x_tim.c ****       (TIMx == TIM16) || (TIMx == TIM17))  
 323              		.loc 1 302 0 is_stmt 1
 324 028a 019A     		ldr	r2, [sp, #4]
 325 028c 4FF49043 		mov	r3, #18432
 326 0290 C4F20103 		movt	r3, 16385
 327 0294 9A42     		cmp	r2, r3
 328 0296 04D1     		bne	.L17
 329              	.L16:
 303:../Libraries/STM32F30x_StdPeriph_Driver/src/stm32f30x_tim.c ****   {
 304:../Libraries/STM32F30x_StdPeriph_Driver/src/stm32f30x_tim.c ****     /* Set the Repetition Counter value */
 305:../Libraries/STM32F30x_StdPeriph_Driver/src/stm32f30x_tim.c ****     TIMx->RCR = TIM_TimeBaseInitStruct->TIM_RepetitionCounter;
 330              		.loc 1 305 0
 331 0298 009B     		ldr	r3, [sp, #0]
 332 029a 9B7A     		ldrb	r3, [r3, #10]	@ zero_extendqisi2
 333 029c 1A46     		mov	r2, r3
 334 029e 019B     		ldr	r3, [sp, #4]
 335 02a0 1A86     		strh	r2, [r3, #48]	@ movhi
 336              	.L17:
 306:../Libraries/STM32F30x_StdPeriph_Driver/src/stm32f30x_tim.c ****   }
 307:../Libraries/STM32F30x_StdPeriph_Driver/src/stm32f30x_tim.c **** 
 308:../Libraries/STM32F30x_StdPeriph_Driver/src/stm32f30x_tim.c ****   /* Generate an update event to reload the Prescaler 
 309:../Libraries/STM32F30x_StdPeriph_Driver/src/stm32f30x_tim.c ****      and the repetition counter(only for TIM1 and TIM8) value immediatly */
 310:../Libraries/STM32F30x_StdPeriph_Driver/src/stm32f30x_tim.c ****   TIMx->EGR = TIM_PSCReloadMode_Immediate;          
 337              		.loc 1 310 0
 338 02a2 019B     		ldr	r3, [sp, #4]
 339 02a4 4FF00102 		mov	r2, #1
 340 02a8 5A61     		str	r2, [r3, #20]
 311:../Libraries/STM32F30x_StdPeriph_Driver/src/stm32f30x_tim.c **** }
 341              		.loc 1 311 0
 342 02aa 04B0     		add	sp, sp, #16
 343 02ac 7047     		bx	lr
 344              		.cfi_endproc
 345              	.LFE112:
 347 02ae 00BF     		.align	2
 348              		.global	TIM_TimeBaseStructInit
 349              		.thumb
 350              		.thumb_func
 352              	TIM_TimeBaseStructInit:
 353              	.LFB113:
 312:../Libraries/STM32F30x_StdPeriph_Driver/src/stm32f30x_tim.c **** 
 313:../Libraries/STM32F30x_StdPeriph_Driver/src/stm32f30x_tim.c **** /**
 314:../Libraries/STM32F30x_StdPeriph_Driver/src/stm32f30x_tim.c ****   * @brief  Fills each TIM_TimeBaseInitStruct member with its default value.
 315:../Libraries/STM32F30x_StdPeriph_Driver/src/stm32f30x_tim.c ****   * @param  TIM_TimeBaseInitStruct : pointer to a TIM_TimeBaseInitTypeDef
 316:../Libraries/STM32F30x_StdPeriph_Driver/src/stm32f30x_tim.c ****   *         structure which will be initialized.
 317:../Libraries/STM32F30x_StdPeriph_Driver/src/stm32f30x_tim.c ****   * @retval None
 318:../Libraries/STM32F30x_StdPeriph_Driver/src/stm32f30x_tim.c ****   */
 319:../Libraries/STM32F30x_StdPeriph_Driver/src/stm32f30x_tim.c **** void TIM_TimeBaseStructInit(TIM_TimeBaseInitTypeDef* TIM_TimeBaseInitStruct)
 320:../Libraries/STM32F30x_StdPeriph_Driver/src/stm32f30x_tim.c **** {
 354              		.loc 1 320 0
 355              		.cfi_startproc
 356              		@ args = 0, pretend = 0, frame = 8
 357              		@ frame_needed = 0, uses_anonymous_args = 0
 358              		@ link register save eliminated.
 359 02b0 82B0     		sub	sp, sp, #8
 360              	.LCFI3:
 361              		.cfi_def_cfa_offset 8
 362 02b2 0190     		str	r0, [sp, #4]
 321:../Libraries/STM32F30x_StdPeriph_Driver/src/stm32f30x_tim.c ****   /* Set the default configuration */
 322:../Libraries/STM32F30x_StdPeriph_Driver/src/stm32f30x_tim.c ****   TIM_TimeBaseInitStruct->TIM_Period = 0xFFFFFFFF;
 363              		.loc 1 322 0
 364 02b4 019B     		ldr	r3, [sp, #4]
 365 02b6 4FF0FF32 		mov	r2, #-1
 366 02ba 5A60     		str	r2, [r3, #4]
 323:../Libraries/STM32F30x_StdPeriph_Driver/src/stm32f30x_tim.c ****   TIM_TimeBaseInitStruct->TIM_Prescaler = 0x0000;
 367              		.loc 1 323 0
 368 02bc 019B     		ldr	r3, [sp, #4]
 369 02be 4FF00002 		mov	r2, #0
 370 02c2 1A80     		strh	r2, [r3, #0]	@ movhi
 324:../Libraries/STM32F30x_StdPeriph_Driver/src/stm32f30x_tim.c ****   TIM_TimeBaseInitStruct->TIM_ClockDivision = TIM_CKD_DIV1;
 371              		.loc 1 324 0
 372 02c4 019B     		ldr	r3, [sp, #4]
 373 02c6 4FF00002 		mov	r2, #0
 374 02ca 1A81     		strh	r2, [r3, #8]	@ movhi
 325:../Libraries/STM32F30x_StdPeriph_Driver/src/stm32f30x_tim.c ****   TIM_TimeBaseInitStruct->TIM_CounterMode = TIM_CounterMode_Up;
 375              		.loc 1 325 0
 376 02cc 019B     		ldr	r3, [sp, #4]
 377 02ce 4FF00002 		mov	r2, #0
 378 02d2 5A80     		strh	r2, [r3, #2]	@ movhi
 326:../Libraries/STM32F30x_StdPeriph_Driver/src/stm32f30x_tim.c ****   TIM_TimeBaseInitStruct->TIM_RepetitionCounter = 0x0000;
 379              		.loc 1 326 0
 380 02d4 019B     		ldr	r3, [sp, #4]
 381 02d6 4FF00002 		mov	r2, #0
 382 02da 9A72     		strb	r2, [r3, #10]
 327:../Libraries/STM32F30x_StdPeriph_Driver/src/stm32f30x_tim.c **** }
 383              		.loc 1 327 0
 384 02dc 02B0     		add	sp, sp, #8
 385 02de 7047     		bx	lr
 386              		.cfi_endproc
 387              	.LFE113:
 389              		.align	2
 390              		.global	TIM_PrescalerConfig
 391              		.thumb
 392              		.thumb_func
 394              	TIM_PrescalerConfig:
 395              	.LFB114:
 328:../Libraries/STM32F30x_StdPeriph_Driver/src/stm32f30x_tim.c **** 
 329:../Libraries/STM32F30x_StdPeriph_Driver/src/stm32f30x_tim.c **** /**
 330:../Libraries/STM32F30x_StdPeriph_Driver/src/stm32f30x_tim.c ****   * @brief  Configures the TIMx Prescaler.
 331:../Libraries/STM32F30x_StdPeriph_Driver/src/stm32f30x_tim.c ****   * @param  TIMx: where x can be  1, 2, 3, 4, 8, 15, 16 or 17 to select the TIM peripheral.
 332:../Libraries/STM32F30x_StdPeriph_Driver/src/stm32f30x_tim.c ****   * @param  Prescaler: specifies the Prescaler Register value
 333:../Libraries/STM32F30x_StdPeriph_Driver/src/stm32f30x_tim.c ****   * @param  TIM_PSCReloadMode: specifies the TIM Prescaler Reload mode
 334:../Libraries/STM32F30x_StdPeriph_Driver/src/stm32f30x_tim.c ****   *          This parameter can be one of the following values:
 335:../Libraries/STM32F30x_StdPeriph_Driver/src/stm32f30x_tim.c ****   *            @arg TIM_PSCReloadMode_Update: The Prescaler is loaded at the update event.
 336:../Libraries/STM32F30x_StdPeriph_Driver/src/stm32f30x_tim.c ****   *            @arg TIM_PSCReloadMode_Immediate: The Prescaler is loaded immediatly.
 337:../Libraries/STM32F30x_StdPeriph_Driver/src/stm32f30x_tim.c ****   * @retval None
 338:../Libraries/STM32F30x_StdPeriph_Driver/src/stm32f30x_tim.c ****   */
 339:../Libraries/STM32F30x_StdPeriph_Driver/src/stm32f30x_tim.c **** void TIM_PrescalerConfig(TIM_TypeDef* TIMx, uint16_t Prescaler, uint16_t TIM_PSCReloadMode)
 340:../Libraries/STM32F30x_StdPeriph_Driver/src/stm32f30x_tim.c **** {
 396              		.loc 1 340 0
 397              		.cfi_startproc
 398              		@ args = 0, pretend = 0, frame = 8
 399              		@ frame_needed = 0, uses_anonymous_args = 0
 400              		@ link register save eliminated.
 401 02e0 82B0     		sub	sp, sp, #8
 402              	.LCFI4:
 403              		.cfi_def_cfa_offset 8
 404 02e2 0190     		str	r0, [sp, #4]
 405 02e4 1346     		mov	r3, r2
 406 02e6 0A46     		mov	r2, r1	@ movhi
 407 02e8 ADF80220 		strh	r2, [sp, #2]	@ movhi
 408 02ec ADF80030 		strh	r3, [sp, #0]	@ movhi
 341:../Libraries/STM32F30x_StdPeriph_Driver/src/stm32f30x_tim.c ****   /* Check the parameters */
 342:../Libraries/STM32F30x_StdPeriph_Driver/src/stm32f30x_tim.c ****   assert_param(IS_TIM_ALL_PERIPH(TIMx));
 343:../Libraries/STM32F30x_StdPeriph_Driver/src/stm32f30x_tim.c ****   assert_param(IS_TIM_PRESCALER_RELOAD(TIM_PSCReloadMode));
 344:../Libraries/STM32F30x_StdPeriph_Driver/src/stm32f30x_tim.c ****   /* Set the Prescaler value */
 345:../Libraries/STM32F30x_StdPeriph_Driver/src/stm32f30x_tim.c ****   TIMx->PSC = Prescaler;
 409              		.loc 1 345 0
 410 02f0 019B     		ldr	r3, [sp, #4]
 411 02f2 BDF80220 		ldrh	r2, [sp, #2]	@ movhi
 412 02f6 1A85     		strh	r2, [r3, #40]	@ movhi
 346:../Libraries/STM32F30x_StdPeriph_Driver/src/stm32f30x_tim.c ****   /* Set or reset the UG Bit */
 347:../Libraries/STM32F30x_StdPeriph_Driver/src/stm32f30x_tim.c ****   TIMx->EGR = TIM_PSCReloadMode;
 413              		.loc 1 347 0
 414 02f8 BDF80020 		ldrh	r2, [sp, #0]
 415 02fc 019B     		ldr	r3, [sp, #4]
 416 02fe 5A61     		str	r2, [r3, #20]
 348:../Libraries/STM32F30x_StdPeriph_Driver/src/stm32f30x_tim.c **** }
 417              		.loc 1 348 0
 418 0300 02B0     		add	sp, sp, #8
 419 0302 7047     		bx	lr
 420              		.cfi_endproc
 421              	.LFE114:
 423              		.align	2
 424              		.global	TIM_CounterModeConfig
 425              		.thumb
 426              		.thumb_func
 428              	TIM_CounterModeConfig:
 429              	.LFB115:
 349:../Libraries/STM32F30x_StdPeriph_Driver/src/stm32f30x_tim.c **** 
 350:../Libraries/STM32F30x_StdPeriph_Driver/src/stm32f30x_tim.c **** /**
 351:../Libraries/STM32F30x_StdPeriph_Driver/src/stm32f30x_tim.c ****   * @brief  Specifies the TIMx Counter Mode to be used.
 352:../Libraries/STM32F30x_StdPeriph_Driver/src/stm32f30x_tim.c ****   * @param  TIMx: where x can be  1, 2, 3, 4 or 8 to select the TIM peripheral.
 353:../Libraries/STM32F30x_StdPeriph_Driver/src/stm32f30x_tim.c ****   * @param  TIM_CounterMode: specifies the Counter Mode to be used
 354:../Libraries/STM32F30x_StdPeriph_Driver/src/stm32f30x_tim.c ****   *          This parameter can be one of the following values:
 355:../Libraries/STM32F30x_StdPeriph_Driver/src/stm32f30x_tim.c ****   *            @arg TIM_CounterMode_Up: TIM Up Counting Mode
 356:../Libraries/STM32F30x_StdPeriph_Driver/src/stm32f30x_tim.c ****   *            @arg TIM_CounterMode_Down: TIM Down Counting Mode
 357:../Libraries/STM32F30x_StdPeriph_Driver/src/stm32f30x_tim.c ****   *            @arg TIM_CounterMode_CenterAligned1: TIM Center Aligned Mode1
 358:../Libraries/STM32F30x_StdPeriph_Driver/src/stm32f30x_tim.c ****   *            @arg TIM_CounterMode_CenterAligned2: TIM Center Aligned Mode2
 359:../Libraries/STM32F30x_StdPeriph_Driver/src/stm32f30x_tim.c ****   *            @arg TIM_CounterMode_CenterAligned3: TIM Center Aligned Mode3
 360:../Libraries/STM32F30x_StdPeriph_Driver/src/stm32f30x_tim.c ****   * @retval None
 361:../Libraries/STM32F30x_StdPeriph_Driver/src/stm32f30x_tim.c ****   */
 362:../Libraries/STM32F30x_StdPeriph_Driver/src/stm32f30x_tim.c **** void TIM_CounterModeConfig(TIM_TypeDef* TIMx, uint16_t TIM_CounterMode)
 363:../Libraries/STM32F30x_StdPeriph_Driver/src/stm32f30x_tim.c **** {
 430              		.loc 1 363 0
 431              		.cfi_startproc
 432              		@ args = 0, pretend = 0, frame = 16
 433              		@ frame_needed = 0, uses_anonymous_args = 0
 434              		@ link register save eliminated.
 435 0304 84B0     		sub	sp, sp, #16
 436              	.LCFI5:
 437              		.cfi_def_cfa_offset 16
 438 0306 0190     		str	r0, [sp, #4]
 439 0308 0B46     		mov	r3, r1
 440 030a ADF80230 		strh	r3, [sp, #2]	@ movhi
 364:../Libraries/STM32F30x_StdPeriph_Driver/src/stm32f30x_tim.c ****   uint16_t tmpcr1 = 0;
 441              		.loc 1 364 0
 442 030e 4FF00003 		mov	r3, #0
 443 0312 ADF80E30 		strh	r3, [sp, #14]	@ movhi
 365:../Libraries/STM32F30x_StdPeriph_Driver/src/stm32f30x_tim.c **** 
 366:../Libraries/STM32F30x_StdPeriph_Driver/src/stm32f30x_tim.c ****   /* Check the parameters */
 367:../Libraries/STM32F30x_StdPeriph_Driver/src/stm32f30x_tim.c ****   assert_param(IS_TIM_LIST3_PERIPH(TIMx));
 368:../Libraries/STM32F30x_StdPeriph_Driver/src/stm32f30x_tim.c ****   assert_param(IS_TIM_COUNTER_MODE(TIM_CounterMode));
 369:../Libraries/STM32F30x_StdPeriph_Driver/src/stm32f30x_tim.c **** 
 370:../Libraries/STM32F30x_StdPeriph_Driver/src/stm32f30x_tim.c ****   tmpcr1 = TIMx->CR1;
 444              		.loc 1 370 0
 445 0316 019B     		ldr	r3, [sp, #4]
 446 0318 1B88     		ldrh	r3, [r3, #0]	@ movhi
 447 031a ADF80E30 		strh	r3, [sp, #14]	@ movhi
 371:../Libraries/STM32F30x_StdPeriph_Driver/src/stm32f30x_tim.c **** 
 372:../Libraries/STM32F30x_StdPeriph_Driver/src/stm32f30x_tim.c ****   /* Reset the CMS and DIR Bits */
 373:../Libraries/STM32F30x_StdPeriph_Driver/src/stm32f30x_tim.c ****   tmpcr1 &= (uint16_t)~(TIM_CR1_DIR | TIM_CR1_CMS);
 448              		.loc 1 373 0
 449 031e BDF80E30 		ldrh	r3, [sp, #14]	@ movhi
 450 0322 23F07003 		bic	r3, r3, #112
 451 0326 ADF80E30 		strh	r3, [sp, #14]	@ movhi
 374:../Libraries/STM32F30x_StdPeriph_Driver/src/stm32f30x_tim.c **** 
 375:../Libraries/STM32F30x_StdPeriph_Driver/src/stm32f30x_tim.c ****   /* Set the Counter Mode */
 376:../Libraries/STM32F30x_StdPeriph_Driver/src/stm32f30x_tim.c ****   tmpcr1 |= TIM_CounterMode;
 452              		.loc 1 376 0
 453 032a BDF80E20 		ldrh	r2, [sp, #14]	@ movhi
 454 032e BDF80230 		ldrh	r3, [sp, #2]	@ movhi
 455 0332 1343     		orrs	r3, r3, r2
 456 0334 ADF80E30 		strh	r3, [sp, #14]	@ movhi
 377:../Libraries/STM32F30x_StdPeriph_Driver/src/stm32f30x_tim.c **** 
 378:../Libraries/STM32F30x_StdPeriph_Driver/src/stm32f30x_tim.c ****   /* Write to TIMx CR1 register */
 379:../Libraries/STM32F30x_StdPeriph_Driver/src/stm32f30x_tim.c ****   TIMx->CR1 = tmpcr1;
 457              		.loc 1 379 0
 458 0338 019B     		ldr	r3, [sp, #4]
 459 033a BDF80E20 		ldrh	r2, [sp, #14]	@ movhi
 460 033e 1A80     		strh	r2, [r3, #0]	@ movhi
 380:../Libraries/STM32F30x_StdPeriph_Driver/src/stm32f30x_tim.c **** }
 461              		.loc 1 380 0
 462 0340 04B0     		add	sp, sp, #16
 463 0342 7047     		bx	lr
 464              		.cfi_endproc
 465              	.LFE115:
 467              		.align	2
 468              		.global	TIM_SetCounter
 469              		.thumb
 470              		.thumb_func
 472              	TIM_SetCounter:
 473              	.LFB116:
 381:../Libraries/STM32F30x_StdPeriph_Driver/src/stm32f30x_tim.c **** 
 382:../Libraries/STM32F30x_StdPeriph_Driver/src/stm32f30x_tim.c **** /**
 383:../Libraries/STM32F30x_StdPeriph_Driver/src/stm32f30x_tim.c ****   * @brief  Sets the TIMx Counter Register value
 384:../Libraries/STM32F30x_StdPeriph_Driver/src/stm32f30x_tim.c ****   * @param  TIMx: where x can be 1, 2, 3, 4, 6 ,7 ,8, 15, 16 or 17 to select the TIM peripheral.
 385:../Libraries/STM32F30x_StdPeriph_Driver/src/stm32f30x_tim.c ****   * @param  Counter: specifies the Counter register new value.
 386:../Libraries/STM32F30x_StdPeriph_Driver/src/stm32f30x_tim.c ****   * @retval None
 387:../Libraries/STM32F30x_StdPeriph_Driver/src/stm32f30x_tim.c ****   */
 388:../Libraries/STM32F30x_StdPeriph_Driver/src/stm32f30x_tim.c **** void TIM_SetCounter(TIM_TypeDef* TIMx, uint32_t Counter)
 389:../Libraries/STM32F30x_StdPeriph_Driver/src/stm32f30x_tim.c **** {
 474              		.loc 1 389 0
 475              		.cfi_startproc
 476              		@ args = 0, pretend = 0, frame = 8
 477              		@ frame_needed = 0, uses_anonymous_args = 0
 478              		@ link register save eliminated.
 479 0344 82B0     		sub	sp, sp, #8
 480              	.LCFI6:
 481              		.cfi_def_cfa_offset 8
 482 0346 0190     		str	r0, [sp, #4]
 483 0348 0091     		str	r1, [sp, #0]
 390:../Libraries/STM32F30x_StdPeriph_Driver/src/stm32f30x_tim.c ****   /* Check the parameters */
 391:../Libraries/STM32F30x_StdPeriph_Driver/src/stm32f30x_tim.c ****    assert_param(IS_TIM_ALL_PERIPH(TIMx));
 392:../Libraries/STM32F30x_StdPeriph_Driver/src/stm32f30x_tim.c **** 
 393:../Libraries/STM32F30x_StdPeriph_Driver/src/stm32f30x_tim.c ****   /* Set the Counter Register value */
 394:../Libraries/STM32F30x_StdPeriph_Driver/src/stm32f30x_tim.c ****   TIMx->CNT = Counter;
 484              		.loc 1 394 0
 485 034a 019B     		ldr	r3, [sp, #4]
 486 034c 009A     		ldr	r2, [sp, #0]
 487 034e 5A62     		str	r2, [r3, #36]
 395:../Libraries/STM32F30x_StdPeriph_Driver/src/stm32f30x_tim.c **** }
 488              		.loc 1 395 0
 489 0350 02B0     		add	sp, sp, #8
 490 0352 7047     		bx	lr
 491              		.cfi_endproc
 492              	.LFE116:
 494              		.align	2
 495              		.global	TIM_SetAutoreload
 496              		.thumb
 497              		.thumb_func
 499              	TIM_SetAutoreload:
 500              	.LFB117:
 396:../Libraries/STM32F30x_StdPeriph_Driver/src/stm32f30x_tim.c **** 
 397:../Libraries/STM32F30x_StdPeriph_Driver/src/stm32f30x_tim.c **** /**
 398:../Libraries/STM32F30x_StdPeriph_Driver/src/stm32f30x_tim.c ****   * @brief  Sets the TIMx Autoreload Register value
 399:../Libraries/STM32F30x_StdPeriph_Driver/src/stm32f30x_tim.c ****   * @param  TIMx: where x can be 1, 2, 3, 4, 6 ,7 ,8, 15, 16 or 17 to select the TIM peripheral.
 400:../Libraries/STM32F30x_StdPeriph_Driver/src/stm32f30x_tim.c ****   * @param  Autoreload: specifies the Autoreload register new value.
 401:../Libraries/STM32F30x_StdPeriph_Driver/src/stm32f30x_tim.c ****   * @retval None
 402:../Libraries/STM32F30x_StdPeriph_Driver/src/stm32f30x_tim.c ****   */
 403:../Libraries/STM32F30x_StdPeriph_Driver/src/stm32f30x_tim.c **** void TIM_SetAutoreload(TIM_TypeDef* TIMx, uint32_t Autoreload)
 404:../Libraries/STM32F30x_StdPeriph_Driver/src/stm32f30x_tim.c **** {
 501              		.loc 1 404 0
 502              		.cfi_startproc
 503              		@ args = 0, pretend = 0, frame = 8
 504              		@ frame_needed = 0, uses_anonymous_args = 0
 505              		@ link register save eliminated.
 506 0354 82B0     		sub	sp, sp, #8
 507              	.LCFI7:
 508              		.cfi_def_cfa_offset 8
 509 0356 0190     		str	r0, [sp, #4]
 510 0358 0091     		str	r1, [sp, #0]
 405:../Libraries/STM32F30x_StdPeriph_Driver/src/stm32f30x_tim.c ****   /* Check the parameters */
 406:../Libraries/STM32F30x_StdPeriph_Driver/src/stm32f30x_tim.c ****   assert_param(IS_TIM_ALL_PERIPH(TIMx));
 407:../Libraries/STM32F30x_StdPeriph_Driver/src/stm32f30x_tim.c ****   
 408:../Libraries/STM32F30x_StdPeriph_Driver/src/stm32f30x_tim.c ****   /* Set the Autoreload Register value */
 409:../Libraries/STM32F30x_StdPeriph_Driver/src/stm32f30x_tim.c ****   TIMx->ARR = Autoreload;
 511              		.loc 1 409 0
 512 035a 019B     		ldr	r3, [sp, #4]
 513 035c 009A     		ldr	r2, [sp, #0]
 514 035e DA62     		str	r2, [r3, #44]
 410:../Libraries/STM32F30x_StdPeriph_Driver/src/stm32f30x_tim.c **** }
 515              		.loc 1 410 0
 516 0360 02B0     		add	sp, sp, #8
 517 0362 7047     		bx	lr
 518              		.cfi_endproc
 519              	.LFE117:
 521              		.align	2
 522              		.global	TIM_GetCounter
 523              		.thumb
 524              		.thumb_func
 526              	TIM_GetCounter:
 527              	.LFB118:
 411:../Libraries/STM32F30x_StdPeriph_Driver/src/stm32f30x_tim.c **** 
 412:../Libraries/STM32F30x_StdPeriph_Driver/src/stm32f30x_tim.c **** /**
 413:../Libraries/STM32F30x_StdPeriph_Driver/src/stm32f30x_tim.c ****   * @brief  Gets the TIMx Counter value.
 414:../Libraries/STM32F30x_StdPeriph_Driver/src/stm32f30x_tim.c ****   * @param  TIMx: where x can be 1, 2, 3, 4, 6 ,7 ,8, 15, 16 or 17 to select the TIM peripheral.
 415:../Libraries/STM32F30x_StdPeriph_Driver/src/stm32f30x_tim.c ****   * @retval Counter Register value
 416:../Libraries/STM32F30x_StdPeriph_Driver/src/stm32f30x_tim.c ****   */
 417:../Libraries/STM32F30x_StdPeriph_Driver/src/stm32f30x_tim.c **** uint32_t TIM_GetCounter(TIM_TypeDef* TIMx)
 418:../Libraries/STM32F30x_StdPeriph_Driver/src/stm32f30x_tim.c **** {
 528              		.loc 1 418 0
 529              		.cfi_startproc
 530              		@ args = 0, pretend = 0, frame = 8
 531              		@ frame_needed = 0, uses_anonymous_args = 0
 532              		@ link register save eliminated.
 533 0364 82B0     		sub	sp, sp, #8
 534              	.LCFI8:
 535              		.cfi_def_cfa_offset 8
 536 0366 0190     		str	r0, [sp, #4]
 419:../Libraries/STM32F30x_StdPeriph_Driver/src/stm32f30x_tim.c ****   /* Check the parameters */
 420:../Libraries/STM32F30x_StdPeriph_Driver/src/stm32f30x_tim.c ****   assert_param(IS_TIM_ALL_PERIPH(TIMx));
 421:../Libraries/STM32F30x_StdPeriph_Driver/src/stm32f30x_tim.c **** 
 422:../Libraries/STM32F30x_StdPeriph_Driver/src/stm32f30x_tim.c ****   /* Get the Counter Register value */
 423:../Libraries/STM32F30x_StdPeriph_Driver/src/stm32f30x_tim.c ****   return TIMx->CNT;
 537              		.loc 1 423 0
 538 0368 019B     		ldr	r3, [sp, #4]
 539 036a 5B6A     		ldr	r3, [r3, #36]
 424:../Libraries/STM32F30x_StdPeriph_Driver/src/stm32f30x_tim.c **** }
 540              		.loc 1 424 0
 541 036c 1846     		mov	r0, r3
 542 036e 02B0     		add	sp, sp, #8
 543 0370 7047     		bx	lr
 544              		.cfi_endproc
 545              	.LFE118:
 547 0372 00BF     		.align	2
 548              		.global	TIM_GetPrescaler
 549              		.thumb
 550              		.thumb_func
 552              	TIM_GetPrescaler:
 553              	.LFB119:
 425:../Libraries/STM32F30x_StdPeriph_Driver/src/stm32f30x_tim.c **** 
 426:../Libraries/STM32F30x_StdPeriph_Driver/src/stm32f30x_tim.c **** /**
 427:../Libraries/STM32F30x_StdPeriph_Driver/src/stm32f30x_tim.c ****   * @brief  Gets the TIMx Prescaler value.
 428:../Libraries/STM32F30x_StdPeriph_Driver/src/stm32f30x_tim.c ****   * @param  TIMx: where x can be 1, 2, 3, 4, 6 ,7 ,8, 15, 16 or 17 to select the TIM peripheral.
 429:../Libraries/STM32F30x_StdPeriph_Driver/src/stm32f30x_tim.c ****   * @retval Prescaler Register value.
 430:../Libraries/STM32F30x_StdPeriph_Driver/src/stm32f30x_tim.c ****   */
 431:../Libraries/STM32F30x_StdPeriph_Driver/src/stm32f30x_tim.c **** uint16_t TIM_GetPrescaler(TIM_TypeDef* TIMx)
 432:../Libraries/STM32F30x_StdPeriph_Driver/src/stm32f30x_tim.c **** {
 554              		.loc 1 432 0
 555              		.cfi_startproc
 556              		@ args = 0, pretend = 0, frame = 8
 557              		@ frame_needed = 0, uses_anonymous_args = 0
 558              		@ link register save eliminated.
 559 0374 82B0     		sub	sp, sp, #8
 560              	.LCFI9:
 561              		.cfi_def_cfa_offset 8
 562 0376 0190     		str	r0, [sp, #4]
 433:../Libraries/STM32F30x_StdPeriph_Driver/src/stm32f30x_tim.c ****   /* Check the parameters */
 434:../Libraries/STM32F30x_StdPeriph_Driver/src/stm32f30x_tim.c ****   assert_param(IS_TIM_ALL_PERIPH(TIMx));
 435:../Libraries/STM32F30x_StdPeriph_Driver/src/stm32f30x_tim.c **** 
 436:../Libraries/STM32F30x_StdPeriph_Driver/src/stm32f30x_tim.c ****   /* Get the Prescaler Register value */
 437:../Libraries/STM32F30x_StdPeriph_Driver/src/stm32f30x_tim.c ****   return TIMx->PSC;
 563              		.loc 1 437 0
 564 0378 019B     		ldr	r3, [sp, #4]
 565 037a 1B8D     		ldrh	r3, [r3, #40]	@ movhi
 566 037c 9BB2     		uxth	r3, r3
 438:../Libraries/STM32F30x_StdPeriph_Driver/src/stm32f30x_tim.c **** }
 567              		.loc 1 438 0
 568 037e 1846     		mov	r0, r3
 569 0380 02B0     		add	sp, sp, #8
 570 0382 7047     		bx	lr
 571              		.cfi_endproc
 572              	.LFE119:
 574              		.align	2
 575              		.global	TIM_UpdateDisableConfig
 576              		.thumb
 577              		.thumb_func
 579              	TIM_UpdateDisableConfig:
 580              	.LFB120:
 439:../Libraries/STM32F30x_StdPeriph_Driver/src/stm32f30x_tim.c **** 
 440:../Libraries/STM32F30x_StdPeriph_Driver/src/stm32f30x_tim.c **** /**
 441:../Libraries/STM32F30x_StdPeriph_Driver/src/stm32f30x_tim.c ****   * @brief  Enables or Disables the TIMx Update event.
 442:../Libraries/STM32F30x_StdPeriph_Driver/src/stm32f30x_tim.c ****   * @param  TIMx: where x can be 1, 2, 3, 4, 6 ,7 ,8, 15, 16 or 17 to select the TIM peripheral.
 443:../Libraries/STM32F30x_StdPeriph_Driver/src/stm32f30x_tim.c ****   * @param  NewState: new state of the TIMx UDIS bit
 444:../Libraries/STM32F30x_StdPeriph_Driver/src/stm32f30x_tim.c ****   *          This parameter can be: ENABLE or DISABLE.
 445:../Libraries/STM32F30x_StdPeriph_Driver/src/stm32f30x_tim.c ****   * @retval None
 446:../Libraries/STM32F30x_StdPeriph_Driver/src/stm32f30x_tim.c ****   */
 447:../Libraries/STM32F30x_StdPeriph_Driver/src/stm32f30x_tim.c **** void TIM_UpdateDisableConfig(TIM_TypeDef* TIMx, FunctionalState NewState)
 448:../Libraries/STM32F30x_StdPeriph_Driver/src/stm32f30x_tim.c **** {
 581              		.loc 1 448 0
 582              		.cfi_startproc
 583              		@ args = 0, pretend = 0, frame = 8
 584              		@ frame_needed = 0, uses_anonymous_args = 0
 585              		@ link register save eliminated.
 586 0384 82B0     		sub	sp, sp, #8
 587              	.LCFI10:
 588              		.cfi_def_cfa_offset 8
 589 0386 0190     		str	r0, [sp, #4]
 590 0388 0B46     		mov	r3, r1
 591 038a 8DF80330 		strb	r3, [sp, #3]
 449:../Libraries/STM32F30x_StdPeriph_Driver/src/stm32f30x_tim.c ****   /* Check the parameters */
 450:../Libraries/STM32F30x_StdPeriph_Driver/src/stm32f30x_tim.c ****   assert_param(IS_TIM_ALL_PERIPH(TIMx));
 451:../Libraries/STM32F30x_StdPeriph_Driver/src/stm32f30x_tim.c ****   assert_param(IS_FUNCTIONAL_STATE(NewState));
 452:../Libraries/STM32F30x_StdPeriph_Driver/src/stm32f30x_tim.c **** 
 453:../Libraries/STM32F30x_StdPeriph_Driver/src/stm32f30x_tim.c ****   if (NewState != DISABLE)
 592              		.loc 1 453 0
 593 038e 9DF80330 		ldrb	r3, [sp, #3]	@ zero_extendqisi2
 594 0392 002B     		cmp	r3, #0
 595 0394 08D0     		beq	.L26
 454:../Libraries/STM32F30x_StdPeriph_Driver/src/stm32f30x_tim.c ****   {
 455:../Libraries/STM32F30x_StdPeriph_Driver/src/stm32f30x_tim.c ****     /* Set the Update Disable Bit */
 456:../Libraries/STM32F30x_StdPeriph_Driver/src/stm32f30x_tim.c ****     TIMx->CR1 |= TIM_CR1_UDIS;
 596              		.loc 1 456 0
 597 0396 019B     		ldr	r3, [sp, #4]
 598 0398 1B88     		ldrh	r3, [r3, #0]	@ movhi
 599 039a 9BB2     		uxth	r3, r3
 600 039c 43F00203 		orr	r3, r3, #2
 601 03a0 9AB2     		uxth	r2, r3
 602 03a2 019B     		ldr	r3, [sp, #4]
 603 03a4 1A80     		strh	r2, [r3, #0]	@ movhi
 604 03a6 07E0     		b	.L25
 605              	.L26:
 457:../Libraries/STM32F30x_StdPeriph_Driver/src/stm32f30x_tim.c ****   }
 458:../Libraries/STM32F30x_StdPeriph_Driver/src/stm32f30x_tim.c ****   else
 459:../Libraries/STM32F30x_StdPeriph_Driver/src/stm32f30x_tim.c ****   {
 460:../Libraries/STM32F30x_StdPeriph_Driver/src/stm32f30x_tim.c ****     /* Reset the Update Disable Bit */
 461:../Libraries/STM32F30x_StdPeriph_Driver/src/stm32f30x_tim.c ****     TIMx->CR1 &= (uint16_t)~TIM_CR1_UDIS;
 606              		.loc 1 461 0
 607 03a8 019B     		ldr	r3, [sp, #4]
 608 03aa 1B88     		ldrh	r3, [r3, #0]	@ movhi
 609 03ac 9BB2     		uxth	r3, r3
 610 03ae 23F00203 		bic	r3, r3, #2
 611 03b2 9AB2     		uxth	r2, r3
 612 03b4 019B     		ldr	r3, [sp, #4]
 613 03b6 1A80     		strh	r2, [r3, #0]	@ movhi
 614              	.L25:
 462:../Libraries/STM32F30x_StdPeriph_Driver/src/stm32f30x_tim.c ****   }
 463:../Libraries/STM32F30x_StdPeriph_Driver/src/stm32f30x_tim.c **** }
 615              		.loc 1 463 0
 616 03b8 02B0     		add	sp, sp, #8
 617 03ba 7047     		bx	lr
 618              		.cfi_endproc
 619              	.LFE120:
 621              		.align	2
 622              		.global	TIM_UpdateRequestConfig
 623              		.thumb
 624              		.thumb_func
 626              	TIM_UpdateRequestConfig:
 627              	.LFB121:
 464:../Libraries/STM32F30x_StdPeriph_Driver/src/stm32f30x_tim.c **** 
 465:../Libraries/STM32F30x_StdPeriph_Driver/src/stm32f30x_tim.c **** /**
 466:../Libraries/STM32F30x_StdPeriph_Driver/src/stm32f30x_tim.c ****   * @brief  Configures the TIMx Update Request Interrupt source.
 467:../Libraries/STM32F30x_StdPeriph_Driver/src/stm32f30x_tim.c ****   * @param  TIMx: where x can be 1, 2, 3, 4, 6 ,7 ,8, 15, 16 or 17 to select the TIM peripheral.
 468:../Libraries/STM32F30x_StdPeriph_Driver/src/stm32f30x_tim.c ****   * @param  TIM_UpdateSource: specifies the Update source.
 469:../Libraries/STM32F30x_StdPeriph_Driver/src/stm32f30x_tim.c ****   *          This parameter can be one of the following values:
 470:../Libraries/STM32F30x_StdPeriph_Driver/src/stm32f30x_tim.c ****   *            @arg TIM_UpdateSource_Regular: Source of update is the counter
 471:../Libraries/STM32F30x_StdPeriph_Driver/src/stm32f30x_tim.c ****   *                 overflow/underflow or the setting of UG bit, or an update
 472:../Libraries/STM32F30x_StdPeriph_Driver/src/stm32f30x_tim.c ****   *                 generation through the slave mode controller.
 473:../Libraries/STM32F30x_StdPeriph_Driver/src/stm32f30x_tim.c ****   *            @arg TIM_UpdateSource_Global: Source of update is counter overflow/underflow.
 474:../Libraries/STM32F30x_StdPeriph_Driver/src/stm32f30x_tim.c ****   * @retval None
 475:../Libraries/STM32F30x_StdPeriph_Driver/src/stm32f30x_tim.c ****   */
 476:../Libraries/STM32F30x_StdPeriph_Driver/src/stm32f30x_tim.c **** void TIM_UpdateRequestConfig(TIM_TypeDef* TIMx, uint16_t TIM_UpdateSource)
 477:../Libraries/STM32F30x_StdPeriph_Driver/src/stm32f30x_tim.c **** {
 628              		.loc 1 477 0
 629              		.cfi_startproc
 630              		@ args = 0, pretend = 0, frame = 8
 631              		@ frame_needed = 0, uses_anonymous_args = 0
 632              		@ link register save eliminated.
 633 03bc 82B0     		sub	sp, sp, #8
 634              	.LCFI11:
 635              		.cfi_def_cfa_offset 8
 636 03be 0190     		str	r0, [sp, #4]
 637 03c0 0B46     		mov	r3, r1
 638 03c2 ADF80230 		strh	r3, [sp, #2]	@ movhi
 478:../Libraries/STM32F30x_StdPeriph_Driver/src/stm32f30x_tim.c ****   /* Check the parameters */
 479:../Libraries/STM32F30x_StdPeriph_Driver/src/stm32f30x_tim.c ****   assert_param(IS_TIM_ALL_PERIPH(TIMx));
 480:../Libraries/STM32F30x_StdPeriph_Driver/src/stm32f30x_tim.c ****   assert_param(IS_TIM_UPDATE_SOURCE(TIM_UpdateSource));
 481:../Libraries/STM32F30x_StdPeriph_Driver/src/stm32f30x_tim.c **** 
 482:../Libraries/STM32F30x_StdPeriph_Driver/src/stm32f30x_tim.c ****   if (TIM_UpdateSource != TIM_UpdateSource_Global)
 639              		.loc 1 482 0
 640 03c6 BDF80230 		ldrh	r3, [sp, #2]
 641 03ca 002B     		cmp	r3, #0
 642 03cc 08D0     		beq	.L29
 483:../Libraries/STM32F30x_StdPeriph_Driver/src/stm32f30x_tim.c ****   {
 484:../Libraries/STM32F30x_StdPeriph_Driver/src/stm32f30x_tim.c ****     /* Set the URS Bit */
 485:../Libraries/STM32F30x_StdPeriph_Driver/src/stm32f30x_tim.c ****     TIMx->CR1 |= TIM_CR1_URS;
 643              		.loc 1 485 0
 644 03ce 019B     		ldr	r3, [sp, #4]
 645 03d0 1B88     		ldrh	r3, [r3, #0]	@ movhi
 646 03d2 9BB2     		uxth	r3, r3
 647 03d4 43F00403 		orr	r3, r3, #4
 648 03d8 9AB2     		uxth	r2, r3
 649 03da 019B     		ldr	r3, [sp, #4]
 650 03dc 1A80     		strh	r2, [r3, #0]	@ movhi
 651 03de 07E0     		b	.L28
 652              	.L29:
 486:../Libraries/STM32F30x_StdPeriph_Driver/src/stm32f30x_tim.c ****   }
 487:../Libraries/STM32F30x_StdPeriph_Driver/src/stm32f30x_tim.c ****   else
 488:../Libraries/STM32F30x_StdPeriph_Driver/src/stm32f30x_tim.c ****   {
 489:../Libraries/STM32F30x_StdPeriph_Driver/src/stm32f30x_tim.c ****     /* Reset the URS Bit */
 490:../Libraries/STM32F30x_StdPeriph_Driver/src/stm32f30x_tim.c ****     TIMx->CR1 &= (uint16_t)~TIM_CR1_URS;
 653              		.loc 1 490 0
 654 03e0 019B     		ldr	r3, [sp, #4]
 655 03e2 1B88     		ldrh	r3, [r3, #0]	@ movhi
 656 03e4 9BB2     		uxth	r3, r3
 657 03e6 23F00403 		bic	r3, r3, #4
 658 03ea 9AB2     		uxth	r2, r3
 659 03ec 019B     		ldr	r3, [sp, #4]
 660 03ee 1A80     		strh	r2, [r3, #0]	@ movhi
 661              	.L28:
 491:../Libraries/STM32F30x_StdPeriph_Driver/src/stm32f30x_tim.c ****   }
 492:../Libraries/STM32F30x_StdPeriph_Driver/src/stm32f30x_tim.c **** }
 662              		.loc 1 492 0
 663 03f0 02B0     		add	sp, sp, #8
 664 03f2 7047     		bx	lr
 665              		.cfi_endproc
 666              	.LFE121:
 668              		.align	2
 669              		.global	TIM_UIFRemap
 670              		.thumb
 671              		.thumb_func
 673              	TIM_UIFRemap:
 674              	.LFB122:
 493:../Libraries/STM32F30x_StdPeriph_Driver/src/stm32f30x_tim.c **** 
 494:../Libraries/STM32F30x_StdPeriph_Driver/src/stm32f30x_tim.c **** /**
 495:../Libraries/STM32F30x_StdPeriph_Driver/src/stm32f30x_tim.c ****   * @brief  Sets or resets the update interrupt flag (UIF)status bit Remapping.
 496:../Libraries/STM32F30x_StdPeriph_Driver/src/stm32f30x_tim.c ****   *         when sets, reading TIMx_CNT register returns UIF bit instead of CNT[31]  
 497:../Libraries/STM32F30x_StdPeriph_Driver/src/stm32f30x_tim.c ****   * @param  TIMx: where x can be 1, 2, 3, 4, 6 ,7 ,8, 15, 16 or 17 to select the TIM peripheral.
 498:../Libraries/STM32F30x_StdPeriph_Driver/src/stm32f30x_tim.c ****   * @param  NewState: new state of the UIFREMAP bit.
 499:../Libraries/STM32F30x_StdPeriph_Driver/src/stm32f30x_tim.c ****   *          This parameter can be: ENABLE or DISABLE.
 500:../Libraries/STM32F30x_StdPeriph_Driver/src/stm32f30x_tim.c ****   * @retval None
 501:../Libraries/STM32F30x_StdPeriph_Driver/src/stm32f30x_tim.c ****   */
 502:../Libraries/STM32F30x_StdPeriph_Driver/src/stm32f30x_tim.c **** void TIM_UIFRemap(TIM_TypeDef* TIMx, FunctionalState NewState)
 503:../Libraries/STM32F30x_StdPeriph_Driver/src/stm32f30x_tim.c **** {
 675              		.loc 1 503 0
 676              		.cfi_startproc
 677              		@ args = 0, pretend = 0, frame = 8
 678              		@ frame_needed = 0, uses_anonymous_args = 0
 679              		@ link register save eliminated.
 680 03f4 82B0     		sub	sp, sp, #8
 681              	.LCFI12:
 682              		.cfi_def_cfa_offset 8
 683 03f6 0190     		str	r0, [sp, #4]
 684 03f8 0B46     		mov	r3, r1
 685 03fa 8DF80330 		strb	r3, [sp, #3]
 504:../Libraries/STM32F30x_StdPeriph_Driver/src/stm32f30x_tim.c ****   /* Check the parameters */
 505:../Libraries/STM32F30x_StdPeriph_Driver/src/stm32f30x_tim.c ****   assert_param(IS_TIM_ALL_PERIPH(TIMx)); 
 506:../Libraries/STM32F30x_StdPeriph_Driver/src/stm32f30x_tim.c ****   assert_param(IS_FUNCTIONAL_STATE(NewState));
 507:../Libraries/STM32F30x_StdPeriph_Driver/src/stm32f30x_tim.c ****   
 508:../Libraries/STM32F30x_StdPeriph_Driver/src/stm32f30x_tim.c ****   if (NewState != DISABLE)
 686              		.loc 1 508 0
 687 03fe 9DF80330 		ldrb	r3, [sp, #3]	@ zero_extendqisi2
 688 0402 002B     		cmp	r3, #0
 689 0404 08D0     		beq	.L32
 509:../Libraries/STM32F30x_StdPeriph_Driver/src/stm32f30x_tim.c ****   {
 510:../Libraries/STM32F30x_StdPeriph_Driver/src/stm32f30x_tim.c ****     /* Enable the TIM Counter */
 511:../Libraries/STM32F30x_StdPeriph_Driver/src/stm32f30x_tim.c ****     TIMx->CR1 |= TIM_CR1_UIFREMAP;
 690              		.loc 1 511 0
 691 0406 019B     		ldr	r3, [sp, #4]
 692 0408 1B88     		ldrh	r3, [r3, #0]	@ movhi
 693 040a 9BB2     		uxth	r3, r3
 694 040c 43F40063 		orr	r3, r3, #2048
 695 0410 9AB2     		uxth	r2, r3
 696 0412 019B     		ldr	r3, [sp, #4]
 697 0414 1A80     		strh	r2, [r3, #0]	@ movhi
 698 0416 07E0     		b	.L31
 699              	.L32:
 512:../Libraries/STM32F30x_StdPeriph_Driver/src/stm32f30x_tim.c ****   }
 513:../Libraries/STM32F30x_StdPeriph_Driver/src/stm32f30x_tim.c ****   else
 514:../Libraries/STM32F30x_StdPeriph_Driver/src/stm32f30x_tim.c ****   {
 515:../Libraries/STM32F30x_StdPeriph_Driver/src/stm32f30x_tim.c ****     /* Disable the TIM Counter */
 516:../Libraries/STM32F30x_StdPeriph_Driver/src/stm32f30x_tim.c ****     TIMx->CR1 &= (uint16_t)~TIM_CR1_UIFREMAP;
 700              		.loc 1 516 0
 701 0418 019B     		ldr	r3, [sp, #4]
 702 041a 1B88     		ldrh	r3, [r3, #0]	@ movhi
 703 041c 9BB2     		uxth	r3, r3
 704 041e 23F40063 		bic	r3, r3, #2048
 705 0422 9AB2     		uxth	r2, r3
 706 0424 019B     		ldr	r3, [sp, #4]
 707 0426 1A80     		strh	r2, [r3, #0]	@ movhi
 708              	.L31:
 517:../Libraries/STM32F30x_StdPeriph_Driver/src/stm32f30x_tim.c ****   }  
 518:../Libraries/STM32F30x_StdPeriph_Driver/src/stm32f30x_tim.c **** }
 709              		.loc 1 518 0
 710 0428 02B0     		add	sp, sp, #8
 711 042a 7047     		bx	lr
 712              		.cfi_endproc
 713              	.LFE122:
 715              		.align	2
 716              		.global	TIM_ARRPreloadConfig
 717              		.thumb
 718              		.thumb_func
 720              	TIM_ARRPreloadConfig:
 721              	.LFB123:
 519:../Libraries/STM32F30x_StdPeriph_Driver/src/stm32f30x_tim.c **** 
 520:../Libraries/STM32F30x_StdPeriph_Driver/src/stm32f30x_tim.c **** /**
 521:../Libraries/STM32F30x_StdPeriph_Driver/src/stm32f30x_tim.c ****   * @brief  Enables or disables TIMx peripheral Preload register on ARR.
 522:../Libraries/STM32F30x_StdPeriph_Driver/src/stm32f30x_tim.c ****   * @param  TIMx: where x can be 1, 2, 3, 4, 6 ,7 ,8, 15, 16 or 17 to select the TIM peripheral.
 523:../Libraries/STM32F30x_StdPeriph_Driver/src/stm32f30x_tim.c ****   * @param  NewState: new state of the TIMx peripheral Preload register
 524:../Libraries/STM32F30x_StdPeriph_Driver/src/stm32f30x_tim.c ****   *          This parameter can be: ENABLE or DISABLE.
 525:../Libraries/STM32F30x_StdPeriph_Driver/src/stm32f30x_tim.c ****   * @retval None
 526:../Libraries/STM32F30x_StdPeriph_Driver/src/stm32f30x_tim.c ****   */
 527:../Libraries/STM32F30x_StdPeriph_Driver/src/stm32f30x_tim.c **** void TIM_ARRPreloadConfig(TIM_TypeDef* TIMx, FunctionalState NewState)
 528:../Libraries/STM32F30x_StdPeriph_Driver/src/stm32f30x_tim.c **** {
 722              		.loc 1 528 0
 723              		.cfi_startproc
 724              		@ args = 0, pretend = 0, frame = 8
 725              		@ frame_needed = 0, uses_anonymous_args = 0
 726              		@ link register save eliminated.
 727 042c 82B0     		sub	sp, sp, #8
 728              	.LCFI13:
 729              		.cfi_def_cfa_offset 8
 730 042e 0190     		str	r0, [sp, #4]
 731 0430 0B46     		mov	r3, r1
 732 0432 8DF80330 		strb	r3, [sp, #3]
 529:../Libraries/STM32F30x_StdPeriph_Driver/src/stm32f30x_tim.c ****   /* Check the parameters */
 530:../Libraries/STM32F30x_StdPeriph_Driver/src/stm32f30x_tim.c ****   assert_param(IS_TIM_ALL_PERIPH(TIMx));
 531:../Libraries/STM32F30x_StdPeriph_Driver/src/stm32f30x_tim.c ****   assert_param(IS_FUNCTIONAL_STATE(NewState));
 532:../Libraries/STM32F30x_StdPeriph_Driver/src/stm32f30x_tim.c **** 
 533:../Libraries/STM32F30x_StdPeriph_Driver/src/stm32f30x_tim.c ****   if (NewState != DISABLE)
 733              		.loc 1 533 0
 734 0436 9DF80330 		ldrb	r3, [sp, #3]	@ zero_extendqisi2
 735 043a 002B     		cmp	r3, #0
 736 043c 08D0     		beq	.L35
 534:../Libraries/STM32F30x_StdPeriph_Driver/src/stm32f30x_tim.c ****   {
 535:../Libraries/STM32F30x_StdPeriph_Driver/src/stm32f30x_tim.c ****     /* Set the ARR Preload Bit */
 536:../Libraries/STM32F30x_StdPeriph_Driver/src/stm32f30x_tim.c ****     TIMx->CR1 |= TIM_CR1_ARPE;
 737              		.loc 1 536 0
 738 043e 019B     		ldr	r3, [sp, #4]
 739 0440 1B88     		ldrh	r3, [r3, #0]	@ movhi
 740 0442 9BB2     		uxth	r3, r3
 741 0444 43F08003 		orr	r3, r3, #128
 742 0448 9AB2     		uxth	r2, r3
 743 044a 019B     		ldr	r3, [sp, #4]
 744 044c 1A80     		strh	r2, [r3, #0]	@ movhi
 745 044e 07E0     		b	.L34
 746              	.L35:
 537:../Libraries/STM32F30x_StdPeriph_Driver/src/stm32f30x_tim.c ****   }
 538:../Libraries/STM32F30x_StdPeriph_Driver/src/stm32f30x_tim.c ****   else
 539:../Libraries/STM32F30x_StdPeriph_Driver/src/stm32f30x_tim.c ****   {
 540:../Libraries/STM32F30x_StdPeriph_Driver/src/stm32f30x_tim.c ****     /* Reset the ARR Preload Bit */
 541:../Libraries/STM32F30x_StdPeriph_Driver/src/stm32f30x_tim.c ****     TIMx->CR1 &= (uint16_t)~TIM_CR1_ARPE;
 747              		.loc 1 541 0
 748 0450 019B     		ldr	r3, [sp, #4]
 749 0452 1B88     		ldrh	r3, [r3, #0]	@ movhi
 750 0454 9BB2     		uxth	r3, r3
 751 0456 23F08003 		bic	r3, r3, #128
 752 045a 9AB2     		uxth	r2, r3
 753 045c 019B     		ldr	r3, [sp, #4]
 754 045e 1A80     		strh	r2, [r3, #0]	@ movhi
 755              	.L34:
 542:../Libraries/STM32F30x_StdPeriph_Driver/src/stm32f30x_tim.c ****   }
 543:../Libraries/STM32F30x_StdPeriph_Driver/src/stm32f30x_tim.c **** }
 756              		.loc 1 543 0
 757 0460 02B0     		add	sp, sp, #8
 758 0462 7047     		bx	lr
 759              		.cfi_endproc
 760              	.LFE123:
 762              		.align	2
 763              		.global	TIM_SelectOnePulseMode
 764              		.thumb
 765              		.thumb_func
 767              	TIM_SelectOnePulseMode:
 768              	.LFB124:
 544:../Libraries/STM32F30x_StdPeriph_Driver/src/stm32f30x_tim.c **** 
 545:../Libraries/STM32F30x_StdPeriph_Driver/src/stm32f30x_tim.c **** /**
 546:../Libraries/STM32F30x_StdPeriph_Driver/src/stm32f30x_tim.c ****   * @brief  Selects the TIMx's One Pulse Mode.
 547:../Libraries/STM32F30x_StdPeriph_Driver/src/stm32f30x_tim.c ****   * @param  TIMx: where x can be 1, 2, 3, 4, 6 ,7 ,8, 15, 16 or 17 to select the TIM peripheral.
 548:../Libraries/STM32F30x_StdPeriph_Driver/src/stm32f30x_tim.c ****   * @param  TIM_OPMode: specifies the OPM Mode to be used.
 549:../Libraries/STM32F30x_StdPeriph_Driver/src/stm32f30x_tim.c ****   *          This parameter can be one of the following values:
 550:../Libraries/STM32F30x_StdPeriph_Driver/src/stm32f30x_tim.c ****   *            @arg TIM_OPMode_Single
 551:../Libraries/STM32F30x_StdPeriph_Driver/src/stm32f30x_tim.c ****   *            @arg TIM_OPMode_Repetitive
 552:../Libraries/STM32F30x_StdPeriph_Driver/src/stm32f30x_tim.c ****   * @retval None
 553:../Libraries/STM32F30x_StdPeriph_Driver/src/stm32f30x_tim.c ****   */
 554:../Libraries/STM32F30x_StdPeriph_Driver/src/stm32f30x_tim.c **** void TIM_SelectOnePulseMode(TIM_TypeDef* TIMx, uint16_t TIM_OPMode)
 555:../Libraries/STM32F30x_StdPeriph_Driver/src/stm32f30x_tim.c **** {
 769              		.loc 1 555 0
 770              		.cfi_startproc
 771              		@ args = 0, pretend = 0, frame = 8
 772              		@ frame_needed = 0, uses_anonymous_args = 0
 773              		@ link register save eliminated.
 774 0464 82B0     		sub	sp, sp, #8
 775              	.LCFI14:
 776              		.cfi_def_cfa_offset 8
 777 0466 0190     		str	r0, [sp, #4]
 778 0468 0B46     		mov	r3, r1
 779 046a ADF80230 		strh	r3, [sp, #2]	@ movhi
 556:../Libraries/STM32F30x_StdPeriph_Driver/src/stm32f30x_tim.c ****   /* Check the parameters */
 557:../Libraries/STM32F30x_StdPeriph_Driver/src/stm32f30x_tim.c ****   assert_param(IS_TIM_ALL_PERIPH(TIMx));
 558:../Libraries/STM32F30x_StdPeriph_Driver/src/stm32f30x_tim.c ****   assert_param(IS_TIM_OPM_MODE(TIM_OPMode));
 559:../Libraries/STM32F30x_StdPeriph_Driver/src/stm32f30x_tim.c **** 
 560:../Libraries/STM32F30x_StdPeriph_Driver/src/stm32f30x_tim.c ****   /* Reset the OPM Bit */
 561:../Libraries/STM32F30x_StdPeriph_Driver/src/stm32f30x_tim.c ****   TIMx->CR1 &= (uint16_t)~TIM_CR1_OPM;
 780              		.loc 1 561 0
 781 046e 019B     		ldr	r3, [sp, #4]
 782 0470 1B88     		ldrh	r3, [r3, #0]	@ movhi
 783 0472 9BB2     		uxth	r3, r3
 784 0474 23F00803 		bic	r3, r3, #8
 785 0478 9AB2     		uxth	r2, r3
 786 047a 019B     		ldr	r3, [sp, #4]
 787 047c 1A80     		strh	r2, [r3, #0]	@ movhi
 562:../Libraries/STM32F30x_StdPeriph_Driver/src/stm32f30x_tim.c **** 
 563:../Libraries/STM32F30x_StdPeriph_Driver/src/stm32f30x_tim.c ****   /* Configure the OPM Mode */
 564:../Libraries/STM32F30x_StdPeriph_Driver/src/stm32f30x_tim.c ****   TIMx->CR1 |= TIM_OPMode;
 788              		.loc 1 564 0
 789 047e 019B     		ldr	r3, [sp, #4]
 790 0480 1B88     		ldrh	r3, [r3, #0]	@ movhi
 791 0482 9AB2     		uxth	r2, r3
 792 0484 BDF80230 		ldrh	r3, [sp, #2]	@ movhi
 793 0488 1343     		orrs	r3, r3, r2
 794 048a 9AB2     		uxth	r2, r3
 795 048c 019B     		ldr	r3, [sp, #4]
 796 048e 1A80     		strh	r2, [r3, #0]	@ movhi
 565:../Libraries/STM32F30x_StdPeriph_Driver/src/stm32f30x_tim.c **** }
 797              		.loc 1 565 0
 798 0490 02B0     		add	sp, sp, #8
 799 0492 7047     		bx	lr
 800              		.cfi_endproc
 801              	.LFE124:
 803              		.align	2
 804              		.global	TIM_SetClockDivision
 805              		.thumb
 806              		.thumb_func
 808              	TIM_SetClockDivision:
 809              	.LFB125:
 566:../Libraries/STM32F30x_StdPeriph_Driver/src/stm32f30x_tim.c **** 
 567:../Libraries/STM32F30x_StdPeriph_Driver/src/stm32f30x_tim.c **** /**
 568:../Libraries/STM32F30x_StdPeriph_Driver/src/stm32f30x_tim.c ****   * @brief  Sets the TIMx Clock Division value.
 569:../Libraries/STM32F30x_StdPeriph_Driver/src/stm32f30x_tim.c ****   * @param  TIMx: where x can be 1, 2, 3, 4, 8, 15, 16 or 17, to select the TIM peripheral.
 570:../Libraries/STM32F30x_StdPeriph_Driver/src/stm32f30x_tim.c ****   * @param  TIM_CKD: specifies the clock division value.
 571:../Libraries/STM32F30x_StdPeriph_Driver/src/stm32f30x_tim.c ****   *          This parameter can be one of the following value:
 572:../Libraries/STM32F30x_StdPeriph_Driver/src/stm32f30x_tim.c ****   *            @arg TIM_CKD_DIV1: TDTS = Tck_tim
 573:../Libraries/STM32F30x_StdPeriph_Driver/src/stm32f30x_tim.c ****   *            @arg TIM_CKD_DIV2: TDTS = 2*Tck_tim
 574:../Libraries/STM32F30x_StdPeriph_Driver/src/stm32f30x_tim.c ****   *            @arg TIM_CKD_DIV4: TDTS = 4*Tck_tim
 575:../Libraries/STM32F30x_StdPeriph_Driver/src/stm32f30x_tim.c ****   * @retval None
 576:../Libraries/STM32F30x_StdPeriph_Driver/src/stm32f30x_tim.c ****   */
 577:../Libraries/STM32F30x_StdPeriph_Driver/src/stm32f30x_tim.c **** void TIM_SetClockDivision(TIM_TypeDef* TIMx, uint16_t TIM_CKD)
 578:../Libraries/STM32F30x_StdPeriph_Driver/src/stm32f30x_tim.c **** {
 810              		.loc 1 578 0
 811              		.cfi_startproc
 812              		@ args = 0, pretend = 0, frame = 8
 813              		@ frame_needed = 0, uses_anonymous_args = 0
 814              		@ link register save eliminated.
 815 0494 82B0     		sub	sp, sp, #8
 816              	.LCFI15:
 817              		.cfi_def_cfa_offset 8
 818 0496 0190     		str	r0, [sp, #4]
 819 0498 0B46     		mov	r3, r1
 820 049a ADF80230 		strh	r3, [sp, #2]	@ movhi
 579:../Libraries/STM32F30x_StdPeriph_Driver/src/stm32f30x_tim.c ****   /* Check the parameters */
 580:../Libraries/STM32F30x_StdPeriph_Driver/src/stm32f30x_tim.c ****   assert_param(IS_TIM_LIST1_PERIPH(TIMx));
 581:../Libraries/STM32F30x_StdPeriph_Driver/src/stm32f30x_tim.c ****   assert_param(IS_TIM_CKD_DIV(TIM_CKD));
 582:../Libraries/STM32F30x_StdPeriph_Driver/src/stm32f30x_tim.c **** 
 583:../Libraries/STM32F30x_StdPeriph_Driver/src/stm32f30x_tim.c ****   /* Reset the CKD Bits */
 584:../Libraries/STM32F30x_StdPeriph_Driver/src/stm32f30x_tim.c ****   TIMx->CR1 &= (uint16_t)(~TIM_CR1_CKD);
 821              		.loc 1 584 0
 822 049e 019B     		ldr	r3, [sp, #4]
 823 04a0 1B88     		ldrh	r3, [r3, #0]	@ movhi
 824 04a2 9BB2     		uxth	r3, r3
 825 04a4 23F44073 		bic	r3, r3, #768
 826 04a8 9AB2     		uxth	r2, r3
 827 04aa 019B     		ldr	r3, [sp, #4]
 828 04ac 1A80     		strh	r2, [r3, #0]	@ movhi
 585:../Libraries/STM32F30x_StdPeriph_Driver/src/stm32f30x_tim.c **** 
 586:../Libraries/STM32F30x_StdPeriph_Driver/src/stm32f30x_tim.c ****   /* Set the CKD value */
 587:../Libraries/STM32F30x_StdPeriph_Driver/src/stm32f30x_tim.c ****   TIMx->CR1 |= TIM_CKD;
 829              		.loc 1 587 0
 830 04ae 019B     		ldr	r3, [sp, #4]
 831 04b0 1B88     		ldrh	r3, [r3, #0]	@ movhi
 832 04b2 9AB2     		uxth	r2, r3
 833 04b4 BDF80230 		ldrh	r3, [sp, #2]	@ movhi
 834 04b8 1343     		orrs	r3, r3, r2
 835 04ba 9AB2     		uxth	r2, r3
 836 04bc 019B     		ldr	r3, [sp, #4]
 837 04be 1A80     		strh	r2, [r3, #0]	@ movhi
 588:../Libraries/STM32F30x_StdPeriph_Driver/src/stm32f30x_tim.c **** }
 838              		.loc 1 588 0
 839 04c0 02B0     		add	sp, sp, #8
 840 04c2 7047     		bx	lr
 841              		.cfi_endproc
 842              	.LFE125:
 844              		.align	2
 845              		.global	TIM_Cmd
 846              		.thumb
 847              		.thumb_func
 849              	TIM_Cmd:
 850              	.LFB126:
 589:../Libraries/STM32F30x_StdPeriph_Driver/src/stm32f30x_tim.c **** 
 590:../Libraries/STM32F30x_StdPeriph_Driver/src/stm32f30x_tim.c **** /**
 591:../Libraries/STM32F30x_StdPeriph_Driver/src/stm32f30x_tim.c ****   * @brief  Enables or disables the specified TIM peripheral.
 592:../Libraries/STM32F30x_StdPeriph_Driver/src/stm32f30x_tim.c ****   * @param  TIMx: where x can be 1, 2, 3, 4, 6, 7, 8, 15, 16 or 17 to select 
 593:../Libraries/STM32F30x_StdPeriph_Driver/src/stm32f30x_tim.c ****   *        the TIMx peripheral.
 594:../Libraries/STM32F30x_StdPeriph_Driver/src/stm32f30x_tim.c ****   * @param  NewState: new state of the TIMx peripheral.
 595:../Libraries/STM32F30x_StdPeriph_Driver/src/stm32f30x_tim.c ****   *          This parameter can be: ENABLE or DISABLE.
 596:../Libraries/STM32F30x_StdPeriph_Driver/src/stm32f30x_tim.c ****   * @retval None
 597:../Libraries/STM32F30x_StdPeriph_Driver/src/stm32f30x_tim.c ****   */
 598:../Libraries/STM32F30x_StdPeriph_Driver/src/stm32f30x_tim.c **** void TIM_Cmd(TIM_TypeDef* TIMx, FunctionalState NewState)
 599:../Libraries/STM32F30x_StdPeriph_Driver/src/stm32f30x_tim.c **** {
 851              		.loc 1 599 0
 852              		.cfi_startproc
 853              		@ args = 0, pretend = 0, frame = 8
 854              		@ frame_needed = 0, uses_anonymous_args = 0
 855              		@ link register save eliminated.
 856 04c4 82B0     		sub	sp, sp, #8
 857              	.LCFI16:
 858              		.cfi_def_cfa_offset 8
 859 04c6 0190     		str	r0, [sp, #4]
 860 04c8 0B46     		mov	r3, r1
 861 04ca 8DF80330 		strb	r3, [sp, #3]
 600:../Libraries/STM32F30x_StdPeriph_Driver/src/stm32f30x_tim.c ****   /* Check the parameters */
 601:../Libraries/STM32F30x_StdPeriph_Driver/src/stm32f30x_tim.c ****   assert_param(IS_TIM_ALL_PERIPH(TIMx)); 
 602:../Libraries/STM32F30x_StdPeriph_Driver/src/stm32f30x_tim.c ****   assert_param(IS_FUNCTIONAL_STATE(NewState));
 603:../Libraries/STM32F30x_StdPeriph_Driver/src/stm32f30x_tim.c ****   
 604:../Libraries/STM32F30x_StdPeriph_Driver/src/stm32f30x_tim.c ****   if (NewState != DISABLE)
 862              		.loc 1 604 0
 863 04ce 9DF80330 		ldrb	r3, [sp, #3]	@ zero_extendqisi2
 864 04d2 002B     		cmp	r3, #0
 865 04d4 08D0     		beq	.L40
 605:../Libraries/STM32F30x_StdPeriph_Driver/src/stm32f30x_tim.c ****   {
 606:../Libraries/STM32F30x_StdPeriph_Driver/src/stm32f30x_tim.c ****     /* Enable the TIM Counter */
 607:../Libraries/STM32F30x_StdPeriph_Driver/src/stm32f30x_tim.c ****     TIMx->CR1 |= TIM_CR1_CEN;
 866              		.loc 1 607 0
 867 04d6 019B     		ldr	r3, [sp, #4]
 868 04d8 1B88     		ldrh	r3, [r3, #0]	@ movhi
 869 04da 9BB2     		uxth	r3, r3
 870 04dc 43F00103 		orr	r3, r3, #1
 871 04e0 9AB2     		uxth	r2, r3
 872 04e2 019B     		ldr	r3, [sp, #4]
 873 04e4 1A80     		strh	r2, [r3, #0]	@ movhi
 874 04e6 07E0     		b	.L39
 875              	.L40:
 608:../Libraries/STM32F30x_StdPeriph_Driver/src/stm32f30x_tim.c ****   }
 609:../Libraries/STM32F30x_StdPeriph_Driver/src/stm32f30x_tim.c ****   else
 610:../Libraries/STM32F30x_StdPeriph_Driver/src/stm32f30x_tim.c ****   {
 611:../Libraries/STM32F30x_StdPeriph_Driver/src/stm32f30x_tim.c ****     /* Disable the TIM Counter */
 612:../Libraries/STM32F30x_StdPeriph_Driver/src/stm32f30x_tim.c ****     TIMx->CR1 &= (uint16_t)~TIM_CR1_CEN;
 876              		.loc 1 612 0
 877 04e8 019B     		ldr	r3, [sp, #4]
 878 04ea 1B88     		ldrh	r3, [r3, #0]	@ movhi
 879 04ec 9BB2     		uxth	r3, r3
 880 04ee 23F00103 		bic	r3, r3, #1
 881 04f2 9AB2     		uxth	r2, r3
 882 04f4 019B     		ldr	r3, [sp, #4]
 883 04f6 1A80     		strh	r2, [r3, #0]	@ movhi
 884              	.L39:
 613:../Libraries/STM32F30x_StdPeriph_Driver/src/stm32f30x_tim.c ****   }
 614:../Libraries/STM32F30x_StdPeriph_Driver/src/stm32f30x_tim.c **** }
 885              		.loc 1 614 0
 886 04f8 02B0     		add	sp, sp, #8
 887 04fa 7047     		bx	lr
 888              		.cfi_endproc
 889              	.LFE126:
 891              		.align	2
 892              		.global	TIM_OC1Init
 893              		.thumb
 894              		.thumb_func
 896              	TIM_OC1Init:
 897              	.LFB127:
 615:../Libraries/STM32F30x_StdPeriph_Driver/src/stm32f30x_tim.c **** /**
 616:../Libraries/STM32F30x_StdPeriph_Driver/src/stm32f30x_tim.c ****   * @}
 617:../Libraries/STM32F30x_StdPeriph_Driver/src/stm32f30x_tim.c ****   */
 618:../Libraries/STM32F30x_StdPeriph_Driver/src/stm32f30x_tim.c **** 
 619:../Libraries/STM32F30x_StdPeriph_Driver/src/stm32f30x_tim.c **** /** @defgroup TIM_Group2 Output Compare management functions
 620:../Libraries/STM32F30x_StdPeriph_Driver/src/stm32f30x_tim.c ****  *  @brief    Output Compare management functions 
 621:../Libraries/STM32F30x_StdPeriph_Driver/src/stm32f30x_tim.c ****  *
 622:../Libraries/STM32F30x_StdPeriph_Driver/src/stm32f30x_tim.c **** @verbatim   
 623:../Libraries/STM32F30x_StdPeriph_Driver/src/stm32f30x_tim.c ****  ===============================================================================
 624:../Libraries/STM32F30x_StdPeriph_Driver/src/stm32f30x_tim.c ****                 ##### Output Compare management functions #####
 625:../Libraries/STM32F30x_StdPeriph_Driver/src/stm32f30x_tim.c ****  ===============================================================================  
 626:../Libraries/STM32F30x_StdPeriph_Driver/src/stm32f30x_tim.c ****        
 627:../Libraries/STM32F30x_StdPeriph_Driver/src/stm32f30x_tim.c ****   *** TIM Driver: how to use it in Output Compare Mode ***
 628:../Libraries/STM32F30x_StdPeriph_Driver/src/stm32f30x_tim.c ****   ======================================================== 
 629:../Libraries/STM32F30x_StdPeriph_Driver/src/stm32f30x_tim.c ****   [..] 
 630:../Libraries/STM32F30x_StdPeriph_Driver/src/stm32f30x_tim.c ****   To use the Timer in Output Compare mode, the following steps are mandatory:
 631:../Libraries/STM32F30x_StdPeriph_Driver/src/stm32f30x_tim.c ****        
 632:../Libraries/STM32F30x_StdPeriph_Driver/src/stm32f30x_tim.c ****        (#) Enable TIM clock using RCC_APBxPeriphClockCmd(RCC_APBxPeriph_TIMx, ENABLE) function
 633:../Libraries/STM32F30x_StdPeriph_Driver/src/stm32f30x_tim.c ****        
 634:../Libraries/STM32F30x_StdPeriph_Driver/src/stm32f30x_tim.c ****        (#) Configure the TIM pins by configuring the corresponding GPIO pins
 635:../Libraries/STM32F30x_StdPeriph_Driver/src/stm32f30x_tim.c ****        
 636:../Libraries/STM32F30x_StdPeriph_Driver/src/stm32f30x_tim.c ****        (#) Configure the Time base unit as described in the first part of this driver, 
 637:../Libraries/STM32F30x_StdPeriph_Driver/src/stm32f30x_tim.c ****            if needed, else the Timer will run with the default configuration:
 638:../Libraries/STM32F30x_StdPeriph_Driver/src/stm32f30x_tim.c ****            (++) Autoreload value = 0xFFFF
 639:../Libraries/STM32F30x_StdPeriph_Driver/src/stm32f30x_tim.c ****            (++) Prescaler value = 0x0000
 640:../Libraries/STM32F30x_StdPeriph_Driver/src/stm32f30x_tim.c ****            (++) Counter mode = Up counting
 641:../Libraries/STM32F30x_StdPeriph_Driver/src/stm32f30x_tim.c ****            (++) Clock Division = TIM_CKD_DIV1   
 642:../Libraries/STM32F30x_StdPeriph_Driver/src/stm32f30x_tim.c ****        (#) Fill the TIM_OCInitStruct with the desired parameters including:
 643:../Libraries/STM32F30x_StdPeriph_Driver/src/stm32f30x_tim.c ****            (++) The TIM Output Compare mode: TIM_OCMode
 644:../Libraries/STM32F30x_StdPeriph_Driver/src/stm32f30x_tim.c ****            (++) TIM Output State: TIM_OutputState
 645:../Libraries/STM32F30x_StdPeriph_Driver/src/stm32f30x_tim.c ****            (++) TIM Pulse value: TIM_Pulse
 646:../Libraries/STM32F30x_StdPeriph_Driver/src/stm32f30x_tim.c ****            (++) TIM Output Compare Polarity : TIM_OCPolarity
 647:../Libraries/STM32F30x_StdPeriph_Driver/src/stm32f30x_tim.c ****        
 648:../Libraries/STM32F30x_StdPeriph_Driver/src/stm32f30x_tim.c ****        (#) Call TIM_OCxInit(TIMx, &TIM_OCInitStruct) to configure the desired channel with the 
 649:../Libraries/STM32F30x_StdPeriph_Driver/src/stm32f30x_tim.c ****            corresponding configuration
 650:../Libraries/STM32F30x_StdPeriph_Driver/src/stm32f30x_tim.c ****        
 651:../Libraries/STM32F30x_StdPeriph_Driver/src/stm32f30x_tim.c ****        (#) Call the TIM_Cmd(ENABLE) function to enable the TIM counter.
 652:../Libraries/STM32F30x_StdPeriph_Driver/src/stm32f30x_tim.c ****  [..]      
 653:../Libraries/STM32F30x_StdPeriph_Driver/src/stm32f30x_tim.c ****        (@) All other functions can be used separately to modify, if needed,
 654:../Libraries/STM32F30x_StdPeriph_Driver/src/stm32f30x_tim.c ****            a specific feature of the Timer. 
 655:../Libraries/STM32F30x_StdPeriph_Driver/src/stm32f30x_tim.c ****           
 656:../Libraries/STM32F30x_StdPeriph_Driver/src/stm32f30x_tim.c ****        (@) In case of PWM mode, this function is mandatory:
 657:../Libraries/STM32F30x_StdPeriph_Driver/src/stm32f30x_tim.c ****            TIM_OCxPreloadConfig(TIMx, TIM_OCPreload_ENABLE); 
 658:../Libraries/STM32F30x_StdPeriph_Driver/src/stm32f30x_tim.c ****               
 659:../Libraries/STM32F30x_StdPeriph_Driver/src/stm32f30x_tim.c ****        (@) If the corresponding interrupt or DMA request are needed, the user should:
 660:../Libraries/STM32F30x_StdPeriph_Driver/src/stm32f30x_tim.c ****                 (#@) Enable the NVIC (or the DMA) to use the TIM interrupts (or DMA requests). 
 661:../Libraries/STM32F30x_StdPeriph_Driver/src/stm32f30x_tim.c ****                 (#@) Enable the corresponding interrupt (or DMA request) using the function 
 662:../Libraries/STM32F30x_StdPeriph_Driver/src/stm32f30x_tim.c ****                      TIM_ITConfig(TIMx, TIM_IT_CCx) (or TIM_DMA_Cmd(TIMx, TIM_DMA_CCx))   
 663:../Libraries/STM32F30x_StdPeriph_Driver/src/stm32f30x_tim.c **** 
 664:../Libraries/STM32F30x_StdPeriph_Driver/src/stm32f30x_tim.c **** @endverbatim
 665:../Libraries/STM32F30x_StdPeriph_Driver/src/stm32f30x_tim.c ****   * @{
 666:../Libraries/STM32F30x_StdPeriph_Driver/src/stm32f30x_tim.c ****   */
 667:../Libraries/STM32F30x_StdPeriph_Driver/src/stm32f30x_tim.c **** 
 668:../Libraries/STM32F30x_StdPeriph_Driver/src/stm32f30x_tim.c **** /**
 669:../Libraries/STM32F30x_StdPeriph_Driver/src/stm32f30x_tim.c ****   * @brief  Initializes the TIMx Channel1 according to the specified parameters in
 670:../Libraries/STM32F30x_StdPeriph_Driver/src/stm32f30x_tim.c ****   *         the TIM_OCInitStruct.
 671:../Libraries/STM32F30x_StdPeriph_Driver/src/stm32f30x_tim.c ****   * @param  TIMx: where x can be 1, 2, 3, 4, 8, 15, 16 or 17, to select the TIM peripheral.
 672:../Libraries/STM32F30x_StdPeriph_Driver/src/stm32f30x_tim.c ****   * @param  TIM_OCInitStruct: pointer to a TIM_OCInitTypeDef structure that contains
 673:../Libraries/STM32F30x_StdPeriph_Driver/src/stm32f30x_tim.c ****   *         the configuration information for the specified TIM peripheral.
 674:../Libraries/STM32F30x_StdPeriph_Driver/src/stm32f30x_tim.c ****   * @retval None
 675:../Libraries/STM32F30x_StdPeriph_Driver/src/stm32f30x_tim.c ****   */
 676:../Libraries/STM32F30x_StdPeriph_Driver/src/stm32f30x_tim.c **** void TIM_OC1Init(TIM_TypeDef* TIMx, TIM_OCInitTypeDef* TIM_OCInitStruct)
 677:../Libraries/STM32F30x_StdPeriph_Driver/src/stm32f30x_tim.c **** {
 898              		.loc 1 677 0
 899              		.cfi_startproc
 900              		@ args = 0, pretend = 0, frame = 24
 901              		@ frame_needed = 0, uses_anonymous_args = 0
 902              		@ link register save eliminated.
 903 04fc 86B0     		sub	sp, sp, #24
 904              	.LCFI17:
 905              		.cfi_def_cfa_offset 24
 906 04fe 0190     		str	r0, [sp, #4]
 907 0500 0091     		str	r1, [sp, #0]
 678:../Libraries/STM32F30x_StdPeriph_Driver/src/stm32f30x_tim.c ****   uint32_t tmpccmrx = 0, tmpccer = 0, tmpcr2 = 0;
 908              		.loc 1 678 0
 909 0502 4FF00003 		mov	r3, #0
 910 0506 0393     		str	r3, [sp, #12]
 911 0508 4FF00003 		mov	r3, #0
 912 050c 0593     		str	r3, [sp, #20]
 913 050e 4FF00003 		mov	r3, #0
 914 0512 0493     		str	r3, [sp, #16]
 679:../Libraries/STM32F30x_StdPeriph_Driver/src/stm32f30x_tim.c ****    
 680:../Libraries/STM32F30x_StdPeriph_Driver/src/stm32f30x_tim.c ****   /* Check the parameters */
 681:../Libraries/STM32F30x_StdPeriph_Driver/src/stm32f30x_tim.c ****   assert_param(IS_TIM_LIST1_PERIPH(TIMx)); 
 682:../Libraries/STM32F30x_StdPeriph_Driver/src/stm32f30x_tim.c ****   assert_param(IS_TIM_OC_MODE(TIM_OCInitStruct->TIM_OCMode));
 683:../Libraries/STM32F30x_StdPeriph_Driver/src/stm32f30x_tim.c ****   assert_param(IS_TIM_OUTPUT_STATE(TIM_OCInitStruct->TIM_OutputState));
 684:../Libraries/STM32F30x_StdPeriph_Driver/src/stm32f30x_tim.c ****   assert_param(IS_TIM_OC_POLARITY(TIM_OCInitStruct->TIM_OCPolarity));   
 685:../Libraries/STM32F30x_StdPeriph_Driver/src/stm32f30x_tim.c **** 
 686:../Libraries/STM32F30x_StdPeriph_Driver/src/stm32f30x_tim.c ****   /* Disable the Channel 1: Reset the CC1E Bit */
 687:../Libraries/STM32F30x_StdPeriph_Driver/src/stm32f30x_tim.c ****   TIMx->CCER &= (uint32_t)~TIM_CCER_CC1E;
 915              		.loc 1 687 0
 916 0514 019B     		ldr	r3, [sp, #4]
 917 0516 1B6A     		ldr	r3, [r3, #32]
 918 0518 23F00102 		bic	r2, r3, #1
 919 051c 019B     		ldr	r3, [sp, #4]
 920 051e 1A62     		str	r2, [r3, #32]
 688:../Libraries/STM32F30x_StdPeriph_Driver/src/stm32f30x_tim.c ****   
 689:../Libraries/STM32F30x_StdPeriph_Driver/src/stm32f30x_tim.c ****   /* Get the TIMx CCER register value */
 690:../Libraries/STM32F30x_StdPeriph_Driver/src/stm32f30x_tim.c ****   tmpccer = TIMx->CCER;
 921              		.loc 1 690 0
 922 0520 019B     		ldr	r3, [sp, #4]
 923 0522 1B6A     		ldr	r3, [r3, #32]
 924 0524 0593     		str	r3, [sp, #20]
 691:../Libraries/STM32F30x_StdPeriph_Driver/src/stm32f30x_tim.c ****   /* Get the TIMx CR2 register value */
 692:../Libraries/STM32F30x_StdPeriph_Driver/src/stm32f30x_tim.c ****   tmpcr2 =  TIMx->CR2;
 925              		.loc 1 692 0
 926 0526 019B     		ldr	r3, [sp, #4]
 927 0528 5B68     		ldr	r3, [r3, #4]
 928 052a 0493     		str	r3, [sp, #16]
 693:../Libraries/STM32F30x_StdPeriph_Driver/src/stm32f30x_tim.c ****   
 694:../Libraries/STM32F30x_StdPeriph_Driver/src/stm32f30x_tim.c ****   /* Get the TIMx CCMR1 register value */
 695:../Libraries/STM32F30x_StdPeriph_Driver/src/stm32f30x_tim.c ****   tmpccmrx = TIMx->CCMR1;
 929              		.loc 1 695 0
 930 052c 019B     		ldr	r3, [sp, #4]
 931 052e 9B69     		ldr	r3, [r3, #24]
 932 0530 0393     		str	r3, [sp, #12]
 696:../Libraries/STM32F30x_StdPeriph_Driver/src/stm32f30x_tim.c ****     
 697:../Libraries/STM32F30x_StdPeriph_Driver/src/stm32f30x_tim.c ****   /* Reset the Output Compare Mode Bits */
 698:../Libraries/STM32F30x_StdPeriph_Driver/src/stm32f30x_tim.c ****   tmpccmrx &= (uint32_t)~TIM_CCMR1_OC1M;
 933              		.loc 1 698 0
 934 0532 039B     		ldr	r3, [sp, #12]
 935 0534 23F48033 		bic	r3, r3, #65536
 936 0538 23F07003 		bic	r3, r3, #112
 937 053c 0393     		str	r3, [sp, #12]
 699:../Libraries/STM32F30x_StdPeriph_Driver/src/stm32f30x_tim.c ****   tmpccmrx &= (uint32_t)~TIM_CCMR1_CC1S;
 938              		.loc 1 699 0
 939 053e 039B     		ldr	r3, [sp, #12]
 940 0540 23F00303 		bic	r3, r3, #3
 941 0544 0393     		str	r3, [sp, #12]
 700:../Libraries/STM32F30x_StdPeriph_Driver/src/stm32f30x_tim.c ****   /* Select the Output Compare Mode */
 701:../Libraries/STM32F30x_StdPeriph_Driver/src/stm32f30x_tim.c ****   tmpccmrx |= TIM_OCInitStruct->TIM_OCMode;
 942              		.loc 1 701 0
 943 0546 009B     		ldr	r3, [sp, #0]
 944 0548 1B68     		ldr	r3, [r3, #0]
 945 054a 039A     		ldr	r2, [sp, #12]
 946 054c 1343     		orrs	r3, r3, r2
 947 054e 0393     		str	r3, [sp, #12]
 702:../Libraries/STM32F30x_StdPeriph_Driver/src/stm32f30x_tim.c ****   
 703:../Libraries/STM32F30x_StdPeriph_Driver/src/stm32f30x_tim.c ****   /* Reset the Output Polarity level */
 704:../Libraries/STM32F30x_StdPeriph_Driver/src/stm32f30x_tim.c ****   tmpccer &= (uint32_t)~TIM_CCER_CC1P;
 948              		.loc 1 704 0
 949 0550 059B     		ldr	r3, [sp, #20]
 950 0552 23F00203 		bic	r3, r3, #2
 951 0556 0593     		str	r3, [sp, #20]
 705:../Libraries/STM32F30x_StdPeriph_Driver/src/stm32f30x_tim.c ****   /* Set the Output Compare Polarity */
 706:../Libraries/STM32F30x_StdPeriph_Driver/src/stm32f30x_tim.c ****   tmpccer |= TIM_OCInitStruct->TIM_OCPolarity;
 952              		.loc 1 706 0
 953 0558 009B     		ldr	r3, [sp, #0]
 954 055a 9B89     		ldrh	r3, [r3, #12]
 955 055c 059A     		ldr	r2, [sp, #20]
 956 055e 1343     		orrs	r3, r3, r2
 957 0560 0593     		str	r3, [sp, #20]
 707:../Libraries/STM32F30x_StdPeriph_Driver/src/stm32f30x_tim.c ****   
 708:../Libraries/STM32F30x_StdPeriph_Driver/src/stm32f30x_tim.c ****   /* Set the Output State */
 709:../Libraries/STM32F30x_StdPeriph_Driver/src/stm32f30x_tim.c ****   tmpccer |= TIM_OCInitStruct->TIM_OutputState;
 958              		.loc 1 709 0
 959 0562 009B     		ldr	r3, [sp, #0]
 960 0564 9B88     		ldrh	r3, [r3, #4]
 961 0566 059A     		ldr	r2, [sp, #20]
 962 0568 1343     		orrs	r3, r3, r2
 963 056a 0593     		str	r3, [sp, #20]
 710:../Libraries/STM32F30x_StdPeriph_Driver/src/stm32f30x_tim.c ****     
 711:../Libraries/STM32F30x_StdPeriph_Driver/src/stm32f30x_tim.c ****   if((TIMx == TIM1) || (TIMx == TIM8) || (TIMx == TIM15) || (TIMx == TIM16) || (TIMx == TIM17))
 964              		.loc 1 711 0
 965 056c 019A     		ldr	r2, [sp, #4]
 966 056e 4FF43053 		mov	r3, #11264
 967 0572 C4F20103 		movt	r3, 16385
 968 0576 9A42     		cmp	r2, r3
 969 0578 1BD0     		beq	.L43
 970              		.loc 1 711 0 is_stmt 0 discriminator 1
 971 057a 019A     		ldr	r2, [sp, #4]
 972 057c 4FF45053 		mov	r3, #13312
 973 0580 C4F20103 		movt	r3, 16385
 974 0584 9A42     		cmp	r2, r3
 975 0586 14D0     		beq	.L43
 976 0588 019A     		ldr	r2, [sp, #4]
 977 058a 4FF48043 		mov	r3, #16384
 978 058e C4F20103 		movt	r3, 16385
 979 0592 9A42     		cmp	r2, r3
 980 0594 0DD0     		beq	.L43
 981 0596 019A     		ldr	r2, [sp, #4]
 982 0598 4FF48843 		mov	r3, #17408
 983 059c C4F20103 		movt	r3, 16385
 984 05a0 9A42     		cmp	r2, r3
 985 05a2 06D0     		beq	.L43
 986 05a4 019A     		ldr	r2, [sp, #4]
 987 05a6 4FF49043 		mov	r3, #18432
 988 05aa C4F20103 		movt	r3, 16385
 989 05ae 9A42     		cmp	r2, r3
 990 05b0 23D1     		bne	.L44
 991              	.L43:
 712:../Libraries/STM32F30x_StdPeriph_Driver/src/stm32f30x_tim.c ****   {
 713:../Libraries/STM32F30x_StdPeriph_Driver/src/stm32f30x_tim.c ****     assert_param(IS_TIM_OUTPUTN_STATE(TIM_OCInitStruct->TIM_OutputNState));
 714:../Libraries/STM32F30x_StdPeriph_Driver/src/stm32f30x_tim.c ****     assert_param(IS_TIM_OCN_POLARITY(TIM_OCInitStruct->TIM_OCNPolarity));
 715:../Libraries/STM32F30x_StdPeriph_Driver/src/stm32f30x_tim.c ****     assert_param(IS_TIM_OCNIDLE_STATE(TIM_OCInitStruct->TIM_OCNIdleState));
 716:../Libraries/STM32F30x_StdPeriph_Driver/src/stm32f30x_tim.c ****     assert_param(IS_TIM_OCIDLE_STATE(TIM_OCInitStruct->TIM_OCIdleState));
 717:../Libraries/STM32F30x_StdPeriph_Driver/src/stm32f30x_tim.c ****     
 718:../Libraries/STM32F30x_StdPeriph_Driver/src/stm32f30x_tim.c ****     /* Reset the Output N Polarity level */
 719:../Libraries/STM32F30x_StdPeriph_Driver/src/stm32f30x_tim.c ****     tmpccer &= (uint32_t)~TIM_CCER_CC1NP;
 992              		.loc 1 719 0 is_stmt 1
 993 05b2 059B     		ldr	r3, [sp, #20]
 994 05b4 23F00803 		bic	r3, r3, #8
 995 05b8 0593     		str	r3, [sp, #20]
 720:../Libraries/STM32F30x_StdPeriph_Driver/src/stm32f30x_tim.c ****     /* Set the Output N Polarity */
 721:../Libraries/STM32F30x_StdPeriph_Driver/src/stm32f30x_tim.c ****     tmpccer |= TIM_OCInitStruct->TIM_OCNPolarity;
 996              		.loc 1 721 0
 997 05ba 009B     		ldr	r3, [sp, #0]
 998 05bc DB89     		ldrh	r3, [r3, #14]
 999 05be 059A     		ldr	r2, [sp, #20]
 1000 05c0 1343     		orrs	r3, r3, r2
 1001 05c2 0593     		str	r3, [sp, #20]
 722:../Libraries/STM32F30x_StdPeriph_Driver/src/stm32f30x_tim.c ****     /* Reset the Output N State */
 723:../Libraries/STM32F30x_StdPeriph_Driver/src/stm32f30x_tim.c ****     tmpccer &= (uint32_t)~TIM_CCER_CC1NE;
 1002              		.loc 1 723 0
 1003 05c4 059B     		ldr	r3, [sp, #20]
 1004 05c6 23F00403 		bic	r3, r3, #4
 1005 05ca 0593     		str	r3, [sp, #20]
 724:../Libraries/STM32F30x_StdPeriph_Driver/src/stm32f30x_tim.c ****     
 725:../Libraries/STM32F30x_StdPeriph_Driver/src/stm32f30x_tim.c ****     /* Set the Output N State */
 726:../Libraries/STM32F30x_StdPeriph_Driver/src/stm32f30x_tim.c ****     tmpccer |= TIM_OCInitStruct->TIM_OutputNState;
 1006              		.loc 1 726 0
 1007 05cc 009B     		ldr	r3, [sp, #0]
 1008 05ce DB88     		ldrh	r3, [r3, #6]
 1009 05d0 059A     		ldr	r2, [sp, #20]
 1010 05d2 1343     		orrs	r3, r3, r2
 1011 05d4 0593     		str	r3, [sp, #20]
 727:../Libraries/STM32F30x_StdPeriph_Driver/src/stm32f30x_tim.c ****     /* Reset the Output Compare and Output Compare N IDLE State */
 728:../Libraries/STM32F30x_StdPeriph_Driver/src/stm32f30x_tim.c ****     tmpcr2 &= (uint32_t)~TIM_CR2_OIS1;
 1012              		.loc 1 728 0
 1013 05d6 049B     		ldr	r3, [sp, #16]
 1014 05d8 23F48073 		bic	r3, r3, #256
 1015 05dc 0493     		str	r3, [sp, #16]
 729:../Libraries/STM32F30x_StdPeriph_Driver/src/stm32f30x_tim.c ****     tmpcr2 &= (uint32_t)~TIM_CR2_OIS1N;
 1016              		.loc 1 729 0
 1017 05de 049B     		ldr	r3, [sp, #16]
 1018 05e0 23F40073 		bic	r3, r3, #512
 1019 05e4 0493     		str	r3, [sp, #16]
 730:../Libraries/STM32F30x_StdPeriph_Driver/src/stm32f30x_tim.c ****     /* Set the Output Idle state */
 731:../Libraries/STM32F30x_StdPeriph_Driver/src/stm32f30x_tim.c ****     tmpcr2 |= TIM_OCInitStruct->TIM_OCIdleState;
 1020              		.loc 1 731 0
 1021 05e6 009B     		ldr	r3, [sp, #0]
 1022 05e8 1B8A     		ldrh	r3, [r3, #16]
 1023 05ea 049A     		ldr	r2, [sp, #16]
 1024 05ec 1343     		orrs	r3, r3, r2
 1025 05ee 0493     		str	r3, [sp, #16]
 732:../Libraries/STM32F30x_StdPeriph_Driver/src/stm32f30x_tim.c ****     /* Set the Output N Idle state */
 733:../Libraries/STM32F30x_StdPeriph_Driver/src/stm32f30x_tim.c ****     tmpcr2 |= TIM_OCInitStruct->TIM_OCNIdleState;
 1026              		.loc 1 733 0
 1027 05f0 009B     		ldr	r3, [sp, #0]
 1028 05f2 5B8A     		ldrh	r3, [r3, #18]
 1029 05f4 049A     		ldr	r2, [sp, #16]
 1030 05f6 1343     		orrs	r3, r3, r2
 1031 05f8 0493     		str	r3, [sp, #16]
 1032              	.L44:
 734:../Libraries/STM32F30x_StdPeriph_Driver/src/stm32f30x_tim.c ****   }
 735:../Libraries/STM32F30x_StdPeriph_Driver/src/stm32f30x_tim.c ****   /* Write to TIMx CR2 */
 736:../Libraries/STM32F30x_StdPeriph_Driver/src/stm32f30x_tim.c ****   TIMx->CR2 = tmpcr2;
 1033              		.loc 1 736 0
 1034 05fa 019B     		ldr	r3, [sp, #4]
 1035 05fc 049A     		ldr	r2, [sp, #16]
 1036 05fe 5A60     		str	r2, [r3, #4]
 737:../Libraries/STM32F30x_StdPeriph_Driver/src/stm32f30x_tim.c ****   
 738:../Libraries/STM32F30x_StdPeriph_Driver/src/stm32f30x_tim.c ****   /* Write to TIMx CCMR1 */
 739:../Libraries/STM32F30x_StdPeriph_Driver/src/stm32f30x_tim.c ****   TIMx->CCMR1 = tmpccmrx;
 1037              		.loc 1 739 0
 1038 0600 019B     		ldr	r3, [sp, #4]
 1039 0602 039A     		ldr	r2, [sp, #12]
 1040 0604 9A61     		str	r2, [r3, #24]
 740:../Libraries/STM32F30x_StdPeriph_Driver/src/stm32f30x_tim.c ****   
 741:../Libraries/STM32F30x_StdPeriph_Driver/src/stm32f30x_tim.c ****   /* Set the Capture Compare Register value */
 742:../Libraries/STM32F30x_StdPeriph_Driver/src/stm32f30x_tim.c ****   TIMx->CCR1 = TIM_OCInitStruct->TIM_Pulse;
 1041              		.loc 1 742 0
 1042 0606 009B     		ldr	r3, [sp, #0]
 1043 0608 9A68     		ldr	r2, [r3, #8]
 1044 060a 019B     		ldr	r3, [sp, #4]
 1045 060c 5A63     		str	r2, [r3, #52]
 743:../Libraries/STM32F30x_StdPeriph_Driver/src/stm32f30x_tim.c ****   
 744:../Libraries/STM32F30x_StdPeriph_Driver/src/stm32f30x_tim.c ****   /* Write to TIMx CCER */
 745:../Libraries/STM32F30x_StdPeriph_Driver/src/stm32f30x_tim.c ****   TIMx->CCER = tmpccer;
 1046              		.loc 1 745 0
 1047 060e 019B     		ldr	r3, [sp, #4]
 1048 0610 059A     		ldr	r2, [sp, #20]
 1049 0612 1A62     		str	r2, [r3, #32]
 746:../Libraries/STM32F30x_StdPeriph_Driver/src/stm32f30x_tim.c **** }
 1050              		.loc 1 746 0
 1051 0614 06B0     		add	sp, sp, #24
 1052 0616 7047     		bx	lr
 1053              		.cfi_endproc
 1054              	.LFE127:
 1056              		.align	2
 1057              		.global	TIM_OC2Init
 1058              		.thumb
 1059              		.thumb_func
 1061              	TIM_OC2Init:
 1062              	.LFB128:
 747:../Libraries/STM32F30x_StdPeriph_Driver/src/stm32f30x_tim.c **** 
 748:../Libraries/STM32F30x_StdPeriph_Driver/src/stm32f30x_tim.c **** /**
 749:../Libraries/STM32F30x_StdPeriph_Driver/src/stm32f30x_tim.c ****   * @brief  Initializes the TIMx Channel2 according to the specified parameters 
 750:../Libraries/STM32F30x_StdPeriph_Driver/src/stm32f30x_tim.c ****   *         in the TIM_OCInitStruct.
 751:../Libraries/STM32F30x_StdPeriph_Driver/src/stm32f30x_tim.c ****   * @param  TIMx: where x can be 1, 2, 3, 4, 8 or 15 to select the TIM peripheral.
 752:../Libraries/STM32F30x_StdPeriph_Driver/src/stm32f30x_tim.c ****   * @param  TIM_OCInitStruct: pointer to a TIM_OCInitTypeDef structure that contains
 753:../Libraries/STM32F30x_StdPeriph_Driver/src/stm32f30x_tim.c ****   *         the configuration information for the specified TIM peripheral.
 754:../Libraries/STM32F30x_StdPeriph_Driver/src/stm32f30x_tim.c ****   * @retval None
 755:../Libraries/STM32F30x_StdPeriph_Driver/src/stm32f30x_tim.c ****   */
 756:../Libraries/STM32F30x_StdPeriph_Driver/src/stm32f30x_tim.c **** void TIM_OC2Init(TIM_TypeDef* TIMx, TIM_OCInitTypeDef* TIM_OCInitStruct)
 757:../Libraries/STM32F30x_StdPeriph_Driver/src/stm32f30x_tim.c **** {
 1063              		.loc 1 757 0
 1064              		.cfi_startproc
 1065              		@ args = 0, pretend = 0, frame = 24
 1066              		@ frame_needed = 0, uses_anonymous_args = 0
 1067              		@ link register save eliminated.
 1068 0618 86B0     		sub	sp, sp, #24
 1069              	.LCFI18:
 1070              		.cfi_def_cfa_offset 24
 1071 061a 0190     		str	r0, [sp, #4]
 1072 061c 0091     		str	r1, [sp, #0]
 758:../Libraries/STM32F30x_StdPeriph_Driver/src/stm32f30x_tim.c ****   uint32_t tmpccmrx = 0, tmpccer = 0, tmpcr2 = 0;
 1073              		.loc 1 758 0
 1074 061e 4FF00003 		mov	r3, #0
 1075 0622 0393     		str	r3, [sp, #12]
 1076 0624 4FF00003 		mov	r3, #0
 1077 0628 0593     		str	r3, [sp, #20]
 1078 062a 4FF00003 		mov	r3, #0
 1079 062e 0493     		str	r3, [sp, #16]
 759:../Libraries/STM32F30x_StdPeriph_Driver/src/stm32f30x_tim.c ****    
 760:../Libraries/STM32F30x_StdPeriph_Driver/src/stm32f30x_tim.c ****   /* Check the parameters */
 761:../Libraries/STM32F30x_StdPeriph_Driver/src/stm32f30x_tim.c ****   assert_param(IS_TIM_LIST2_PERIPH(TIMx)); 
 762:../Libraries/STM32F30x_StdPeriph_Driver/src/stm32f30x_tim.c ****   assert_param(IS_TIM_OC_MODE(TIM_OCInitStruct->TIM_OCMode));
 763:../Libraries/STM32F30x_StdPeriph_Driver/src/stm32f30x_tim.c ****   assert_param(IS_TIM_OUTPUT_STATE(TIM_OCInitStruct->TIM_OutputState));
 764:../Libraries/STM32F30x_StdPeriph_Driver/src/stm32f30x_tim.c ****   assert_param(IS_TIM_OC_POLARITY(TIM_OCInitStruct->TIM_OCPolarity));   
 765:../Libraries/STM32F30x_StdPeriph_Driver/src/stm32f30x_tim.c **** 
 766:../Libraries/STM32F30x_StdPeriph_Driver/src/stm32f30x_tim.c ****   /* Disable the Channel 2: Reset the CC2E Bit */
 767:../Libraries/STM32F30x_StdPeriph_Driver/src/stm32f30x_tim.c ****   TIMx->CCER &= (uint32_t)~TIM_CCER_CC2E;
 1080              		.loc 1 767 0
 1081 0630 019B     		ldr	r3, [sp, #4]
 1082 0632 1B6A     		ldr	r3, [r3, #32]
 1083 0634 23F01002 		bic	r2, r3, #16
 1084 0638 019B     		ldr	r3, [sp, #4]
 1085 063a 1A62     		str	r2, [r3, #32]
 768:../Libraries/STM32F30x_StdPeriph_Driver/src/stm32f30x_tim.c ****   
 769:../Libraries/STM32F30x_StdPeriph_Driver/src/stm32f30x_tim.c ****   /* Get the TIMx CCER register value */  
 770:../Libraries/STM32F30x_StdPeriph_Driver/src/stm32f30x_tim.c ****   tmpccer = TIMx->CCER;
 1086              		.loc 1 770 0
 1087 063c 019B     		ldr	r3, [sp, #4]
 1088 063e 1B6A     		ldr	r3, [r3, #32]
 1089 0640 0593     		str	r3, [sp, #20]
 771:../Libraries/STM32F30x_StdPeriph_Driver/src/stm32f30x_tim.c ****   /* Get the TIMx CR2 register value */
 772:../Libraries/STM32F30x_StdPeriph_Driver/src/stm32f30x_tim.c ****   tmpcr2 =  TIMx->CR2;
 1090              		.loc 1 772 0
 1091 0642 019B     		ldr	r3, [sp, #4]
 1092 0644 5B68     		ldr	r3, [r3, #4]
 1093 0646 0493     		str	r3, [sp, #16]
 773:../Libraries/STM32F30x_StdPeriph_Driver/src/stm32f30x_tim.c ****   
 774:../Libraries/STM32F30x_StdPeriph_Driver/src/stm32f30x_tim.c ****   /* Get the TIMx CCMR1 register value */
 775:../Libraries/STM32F30x_StdPeriph_Driver/src/stm32f30x_tim.c ****   tmpccmrx = TIMx->CCMR1;
 1094              		.loc 1 775 0
 1095 0648 019B     		ldr	r3, [sp, #4]
 1096 064a 9B69     		ldr	r3, [r3, #24]
 1097 064c 0393     		str	r3, [sp, #12]
 776:../Libraries/STM32F30x_StdPeriph_Driver/src/stm32f30x_tim.c ****     
 777:../Libraries/STM32F30x_StdPeriph_Driver/src/stm32f30x_tim.c ****   /* Reset the Output Compare mode and Capture/Compare selection Bits */
 778:../Libraries/STM32F30x_StdPeriph_Driver/src/stm32f30x_tim.c ****   tmpccmrx &= (uint32_t)~TIM_CCMR1_OC2M;
 1098              		.loc 1 778 0
 1099 064e 039B     		ldr	r3, [sp, #12]
 1100 0650 23F08073 		bic	r3, r3, #16777216
 1101 0654 23F4E043 		bic	r3, r3, #28672
 1102 0658 0393     		str	r3, [sp, #12]
 779:../Libraries/STM32F30x_StdPeriph_Driver/src/stm32f30x_tim.c ****   tmpccmrx &= (uint32_t)~TIM_CCMR1_CC2S;
 1103              		.loc 1 779 0
 1104 065a 039B     		ldr	r3, [sp, #12]
 1105 065c 23F44073 		bic	r3, r3, #768
 1106 0660 0393     		str	r3, [sp, #12]
 780:../Libraries/STM32F30x_StdPeriph_Driver/src/stm32f30x_tim.c ****   
 781:../Libraries/STM32F30x_StdPeriph_Driver/src/stm32f30x_tim.c ****   /* Select the Output Compare Mode */
 782:../Libraries/STM32F30x_StdPeriph_Driver/src/stm32f30x_tim.c ****   tmpccmrx |= (uint32_t)(TIM_OCInitStruct->TIM_OCMode << 8);
 1107              		.loc 1 782 0
 1108 0662 009B     		ldr	r3, [sp, #0]
 1109 0664 1B68     		ldr	r3, [r3, #0]
 1110 0666 4FEA0323 		lsl	r3, r3, #8
 1111 066a 039A     		ldr	r2, [sp, #12]
 1112 066c 1343     		orrs	r3, r3, r2
 1113 066e 0393     		str	r3, [sp, #12]
 783:../Libraries/STM32F30x_StdPeriph_Driver/src/stm32f30x_tim.c ****   
 784:../Libraries/STM32F30x_StdPeriph_Driver/src/stm32f30x_tim.c ****   /* Reset the Output Polarity level */
 785:../Libraries/STM32F30x_StdPeriph_Driver/src/stm32f30x_tim.c ****   tmpccer &= (uint32_t)~TIM_CCER_CC2P;
 1114              		.loc 1 785 0
 1115 0670 059B     		ldr	r3, [sp, #20]
 1116 0672 23F02003 		bic	r3, r3, #32
 1117 0676 0593     		str	r3, [sp, #20]
 786:../Libraries/STM32F30x_StdPeriph_Driver/src/stm32f30x_tim.c ****   /* Set the Output Compare Polarity */
 787:../Libraries/STM32F30x_StdPeriph_Driver/src/stm32f30x_tim.c ****   tmpccer |= (uint32_t)((uint32_t)TIM_OCInitStruct->TIM_OCPolarity << 4);
 1118              		.loc 1 787 0
 1119 0678 009B     		ldr	r3, [sp, #0]
 1120 067a 9B89     		ldrh	r3, [r3, #12]
 1121 067c 4FEA0313 		lsl	r3, r3, #4
 1122 0680 059A     		ldr	r2, [sp, #20]
 1123 0682 1343     		orrs	r3, r3, r2
 1124 0684 0593     		str	r3, [sp, #20]
 788:../Libraries/STM32F30x_StdPeriph_Driver/src/stm32f30x_tim.c ****   
 789:../Libraries/STM32F30x_StdPeriph_Driver/src/stm32f30x_tim.c ****   /* Set the Output State */
 790:../Libraries/STM32F30x_StdPeriph_Driver/src/stm32f30x_tim.c ****   tmpccer |= (uint32_t)((uint32_t)TIM_OCInitStruct->TIM_OutputState << 4);
 1125              		.loc 1 790 0
 1126 0686 009B     		ldr	r3, [sp, #0]
 1127 0688 9B88     		ldrh	r3, [r3, #4]
 1128 068a 4FEA0313 		lsl	r3, r3, #4
 1129 068e 059A     		ldr	r2, [sp, #20]
 1130 0690 1343     		orrs	r3, r3, r2
 1131 0692 0593     		str	r3, [sp, #20]
 791:../Libraries/STM32F30x_StdPeriph_Driver/src/stm32f30x_tim.c ****     
 792:../Libraries/STM32F30x_StdPeriph_Driver/src/stm32f30x_tim.c ****   if((TIMx == TIM1) || (TIMx == TIM8))
 1132              		.loc 1 792 0
 1133 0694 019A     		ldr	r2, [sp, #4]
 1134 0696 4FF43053 		mov	r3, #11264
 1135 069a C4F20103 		movt	r3, 16385
 1136 069e 9A42     		cmp	r2, r3
 1137 06a0 06D0     		beq	.L46
 1138              		.loc 1 792 0 is_stmt 0 discriminator 1
 1139 06a2 019A     		ldr	r2, [sp, #4]
 1140 06a4 4FF45053 		mov	r3, #13312
 1141 06a8 C4F20103 		movt	r3, 16385
 1142 06ac 9A42     		cmp	r2, r3
 1143 06ae 2BD1     		bne	.L47
 1144              	.L46:
 793:../Libraries/STM32F30x_StdPeriph_Driver/src/stm32f30x_tim.c ****   {
 794:../Libraries/STM32F30x_StdPeriph_Driver/src/stm32f30x_tim.c ****     assert_param(IS_TIM_OUTPUTN_STATE(TIM_OCInitStruct->TIM_OutputNState));
 795:../Libraries/STM32F30x_StdPeriph_Driver/src/stm32f30x_tim.c ****     assert_param(IS_TIM_OCN_POLARITY(TIM_OCInitStruct->TIM_OCNPolarity));
 796:../Libraries/STM32F30x_StdPeriph_Driver/src/stm32f30x_tim.c ****     assert_param(IS_TIM_OCNIDLE_STATE(TIM_OCInitStruct->TIM_OCNIdleState));
 797:../Libraries/STM32F30x_StdPeriph_Driver/src/stm32f30x_tim.c ****     assert_param(IS_TIM_OCIDLE_STATE(TIM_OCInitStruct->TIM_OCIdleState));
 798:../Libraries/STM32F30x_StdPeriph_Driver/src/stm32f30x_tim.c ****     
 799:../Libraries/STM32F30x_StdPeriph_Driver/src/stm32f30x_tim.c ****     /* Reset the Output N Polarity level */
 800:../Libraries/STM32F30x_StdPeriph_Driver/src/stm32f30x_tim.c ****     tmpccer &= (uint32_t)~TIM_CCER_CC2NP;
 1145              		.loc 1 800 0 is_stmt 1
 1146 06b0 059B     		ldr	r3, [sp, #20]
 1147 06b2 23F08003 		bic	r3, r3, #128
 1148 06b6 0593     		str	r3, [sp, #20]
 801:../Libraries/STM32F30x_StdPeriph_Driver/src/stm32f30x_tim.c ****     /* Set the Output N Polarity */
 802:../Libraries/STM32F30x_StdPeriph_Driver/src/stm32f30x_tim.c ****     tmpccer |= (uint32_t)((uint32_t)TIM_OCInitStruct->TIM_OCNPolarity << 4);
 1149              		.loc 1 802 0
 1150 06b8 009B     		ldr	r3, [sp, #0]
 1151 06ba DB89     		ldrh	r3, [r3, #14]
 1152 06bc 4FEA0313 		lsl	r3, r3, #4
 1153 06c0 059A     		ldr	r2, [sp, #20]
 1154 06c2 1343     		orrs	r3, r3, r2
 1155 06c4 0593     		str	r3, [sp, #20]
 803:../Libraries/STM32F30x_StdPeriph_Driver/src/stm32f30x_tim.c ****     /* Reset the Output N State */
 804:../Libraries/STM32F30x_StdPeriph_Driver/src/stm32f30x_tim.c ****     tmpccer &= (uint32_t)~TIM_CCER_CC2NE;
 1156              		.loc 1 804 0
 1157 06c6 059B     		ldr	r3, [sp, #20]
 1158 06c8 23F04003 		bic	r3, r3, #64
 1159 06cc 0593     		str	r3, [sp, #20]
 805:../Libraries/STM32F30x_StdPeriph_Driver/src/stm32f30x_tim.c ****     
 806:../Libraries/STM32F30x_StdPeriph_Driver/src/stm32f30x_tim.c ****     /* Set the Output N State */
 807:../Libraries/STM32F30x_StdPeriph_Driver/src/stm32f30x_tim.c ****     tmpccer |= (uint32_t)((uint32_t)TIM_OCInitStruct->TIM_OutputNState << 4);
 1160              		.loc 1 807 0
 1161 06ce 009B     		ldr	r3, [sp, #0]
 1162 06d0 DB88     		ldrh	r3, [r3, #6]
 1163 06d2 4FEA0313 		lsl	r3, r3, #4
 1164 06d6 059A     		ldr	r2, [sp, #20]
 1165 06d8 1343     		orrs	r3, r3, r2
 1166 06da 0593     		str	r3, [sp, #20]
 808:../Libraries/STM32F30x_StdPeriph_Driver/src/stm32f30x_tim.c ****     /* Reset the Output Compare and Output Compare N IDLE State */
 809:../Libraries/STM32F30x_StdPeriph_Driver/src/stm32f30x_tim.c ****     tmpcr2 &= (uint32_t)~TIM_CR2_OIS2;
 1167              		.loc 1 809 0
 1168 06dc 049B     		ldr	r3, [sp, #16]
 1169 06de 23F48063 		bic	r3, r3, #1024
 1170 06e2 0493     		str	r3, [sp, #16]
 810:../Libraries/STM32F30x_StdPeriph_Driver/src/stm32f30x_tim.c ****     tmpcr2 &= (uint32_t)~TIM_CR2_OIS2N;
 1171              		.loc 1 810 0
 1172 06e4 049B     		ldr	r3, [sp, #16]
 1173 06e6 23F40063 		bic	r3, r3, #2048
 1174 06ea 0493     		str	r3, [sp, #16]
 811:../Libraries/STM32F30x_StdPeriph_Driver/src/stm32f30x_tim.c ****     /* Set the Output Idle state */
 812:../Libraries/STM32F30x_StdPeriph_Driver/src/stm32f30x_tim.c ****     tmpcr2 |= (uint32_t)((uint32_t)TIM_OCInitStruct->TIM_OCIdleState << 2);
 1175              		.loc 1 812 0
 1176 06ec 009B     		ldr	r3, [sp, #0]
 1177 06ee 1B8A     		ldrh	r3, [r3, #16]
 1178 06f0 4FEA8303 		lsl	r3, r3, #2
 1179 06f4 049A     		ldr	r2, [sp, #16]
 1180 06f6 1343     		orrs	r3, r3, r2
 1181 06f8 0493     		str	r3, [sp, #16]
 813:../Libraries/STM32F30x_StdPeriph_Driver/src/stm32f30x_tim.c ****     /* Set the Output N Idle state */
 814:../Libraries/STM32F30x_StdPeriph_Driver/src/stm32f30x_tim.c ****     tmpcr2 |= (uint32_t)((uint32_t)TIM_OCInitStruct->TIM_OCNIdleState << 2);
 1182              		.loc 1 814 0
 1183 06fa 009B     		ldr	r3, [sp, #0]
 1184 06fc 5B8A     		ldrh	r3, [r3, #18]
 1185 06fe 4FEA8303 		lsl	r3, r3, #2
 1186 0702 049A     		ldr	r2, [sp, #16]
 1187 0704 1343     		orrs	r3, r3, r2
 1188 0706 0493     		str	r3, [sp, #16]
 1189              	.L47:
 815:../Libraries/STM32F30x_StdPeriph_Driver/src/stm32f30x_tim.c ****   }
 816:../Libraries/STM32F30x_StdPeriph_Driver/src/stm32f30x_tim.c ****   /* Write to TIMx CR2 */
 817:../Libraries/STM32F30x_StdPeriph_Driver/src/stm32f30x_tim.c ****   TIMx->CR2 = tmpcr2;
 1190              		.loc 1 817 0
 1191 0708 019B     		ldr	r3, [sp, #4]
 1192 070a 049A     		ldr	r2, [sp, #16]
 1193 070c 5A60     		str	r2, [r3, #4]
 818:../Libraries/STM32F30x_StdPeriph_Driver/src/stm32f30x_tim.c ****   
 819:../Libraries/STM32F30x_StdPeriph_Driver/src/stm32f30x_tim.c ****   /* Write to TIMx CCMR1 */
 820:../Libraries/STM32F30x_StdPeriph_Driver/src/stm32f30x_tim.c ****   TIMx->CCMR1 = tmpccmrx;
 1194              		.loc 1 820 0
 1195 070e 019B     		ldr	r3, [sp, #4]
 1196 0710 039A     		ldr	r2, [sp, #12]
 1197 0712 9A61     		str	r2, [r3, #24]
 821:../Libraries/STM32F30x_StdPeriph_Driver/src/stm32f30x_tim.c ****   
 822:../Libraries/STM32F30x_StdPeriph_Driver/src/stm32f30x_tim.c ****   /* Set the Capture Compare Register value */
 823:../Libraries/STM32F30x_StdPeriph_Driver/src/stm32f30x_tim.c ****   TIMx->CCR2 = TIM_OCInitStruct->TIM_Pulse;
 1198              		.loc 1 823 0
 1199 0714 009B     		ldr	r3, [sp, #0]
 1200 0716 9A68     		ldr	r2, [r3, #8]
 1201 0718 019B     		ldr	r3, [sp, #4]
 1202 071a 9A63     		str	r2, [r3, #56]
 824:../Libraries/STM32F30x_StdPeriph_Driver/src/stm32f30x_tim.c ****   
 825:../Libraries/STM32F30x_StdPeriph_Driver/src/stm32f30x_tim.c ****   /* Write to TIMx CCER */
 826:../Libraries/STM32F30x_StdPeriph_Driver/src/stm32f30x_tim.c ****   TIMx->CCER = tmpccer;
 1203              		.loc 1 826 0
 1204 071c 019B     		ldr	r3, [sp, #4]
 1205 071e 059A     		ldr	r2, [sp, #20]
 1206 0720 1A62     		str	r2, [r3, #32]
 827:../Libraries/STM32F30x_StdPeriph_Driver/src/stm32f30x_tim.c **** }
 1207              		.loc 1 827 0
 1208 0722 06B0     		add	sp, sp, #24
 1209 0724 7047     		bx	lr
 1210              		.cfi_endproc
 1211              	.LFE128:
 1213 0726 00BF     		.align	2
 1214              		.global	TIM_OC3Init
 1215              		.thumb
 1216              		.thumb_func
 1218              	TIM_OC3Init:
 1219              	.LFB129:
 828:../Libraries/STM32F30x_StdPeriph_Driver/src/stm32f30x_tim.c **** 
 829:../Libraries/STM32F30x_StdPeriph_Driver/src/stm32f30x_tim.c **** /**
 830:../Libraries/STM32F30x_StdPeriph_Driver/src/stm32f30x_tim.c ****   * @brief  Initializes the TIMx Channel3 according to the specified parameters
 831:../Libraries/STM32F30x_StdPeriph_Driver/src/stm32f30x_tim.c ****   *         in the TIM_OCInitStruct.
 832:../Libraries/STM32F30x_StdPeriph_Driver/src/stm32f30x_tim.c ****   * @param  TIMx: where x can be 1, 2, 3, 4 or 8 to select the TIM peripheral.
 833:../Libraries/STM32F30x_StdPeriph_Driver/src/stm32f30x_tim.c ****   * @param  TIM_OCInitStruct: pointer to a TIM_OCInitTypeDef structure that contains
 834:../Libraries/STM32F30x_StdPeriph_Driver/src/stm32f30x_tim.c ****   *         the configuration information for the specified TIM peripheral.
 835:../Libraries/STM32F30x_StdPeriph_Driver/src/stm32f30x_tim.c ****   * @retval None
 836:../Libraries/STM32F30x_StdPeriph_Driver/src/stm32f30x_tim.c ****   */
 837:../Libraries/STM32F30x_StdPeriph_Driver/src/stm32f30x_tim.c **** void TIM_OC3Init(TIM_TypeDef* TIMx, TIM_OCInitTypeDef* TIM_OCInitStruct)
 838:../Libraries/STM32F30x_StdPeriph_Driver/src/stm32f30x_tim.c **** {
 1220              		.loc 1 838 0
 1221              		.cfi_startproc
 1222              		@ args = 0, pretend = 0, frame = 24
 1223              		@ frame_needed = 0, uses_anonymous_args = 0
 1224              		@ link register save eliminated.
 1225 0728 86B0     		sub	sp, sp, #24
 1226              	.LCFI19:
 1227              		.cfi_def_cfa_offset 24
 1228 072a 0190     		str	r0, [sp, #4]
 1229 072c 0091     		str	r1, [sp, #0]
 839:../Libraries/STM32F30x_StdPeriph_Driver/src/stm32f30x_tim.c ****   uint32_t tmpccmrx = 0, tmpccer = 0, tmpcr2 = 0;
 1230              		.loc 1 839 0
 1231 072e 4FF00003 		mov	r3, #0
 1232 0732 0393     		str	r3, [sp, #12]
 1233 0734 4FF00003 		mov	r3, #0
 1234 0738 0593     		str	r3, [sp, #20]
 1235 073a 4FF00003 		mov	r3, #0
 1236 073e 0493     		str	r3, [sp, #16]
 840:../Libraries/STM32F30x_StdPeriph_Driver/src/stm32f30x_tim.c ****    
 841:../Libraries/STM32F30x_StdPeriph_Driver/src/stm32f30x_tim.c ****   /* Check the parameters */
 842:../Libraries/STM32F30x_StdPeriph_Driver/src/stm32f30x_tim.c ****   assert_param(IS_TIM_LIST3_PERIPH(TIMx)); 
 843:../Libraries/STM32F30x_StdPeriph_Driver/src/stm32f30x_tim.c ****   assert_param(IS_TIM_OC_MODE(TIM_OCInitStruct->TIM_OCMode));
 844:../Libraries/STM32F30x_StdPeriph_Driver/src/stm32f30x_tim.c ****   assert_param(IS_TIM_OUTPUT_STATE(TIM_OCInitStruct->TIM_OutputState));
 845:../Libraries/STM32F30x_StdPeriph_Driver/src/stm32f30x_tim.c ****   assert_param(IS_TIM_OC_POLARITY(TIM_OCInitStruct->TIM_OCPolarity));   
 846:../Libraries/STM32F30x_StdPeriph_Driver/src/stm32f30x_tim.c **** 
 847:../Libraries/STM32F30x_StdPeriph_Driver/src/stm32f30x_tim.c ****   /* Disable the Channel 3: Reset the CC2E Bit */
 848:../Libraries/STM32F30x_StdPeriph_Driver/src/stm32f30x_tim.c ****   TIMx->CCER &= (uint32_t)~TIM_CCER_CC3E;
 1237              		.loc 1 848 0
 1238 0740 019B     		ldr	r3, [sp, #4]
 1239 0742 1B6A     		ldr	r3, [r3, #32]
 1240 0744 23F48072 		bic	r2, r3, #256
 1241 0748 019B     		ldr	r3, [sp, #4]
 1242 074a 1A62     		str	r2, [r3, #32]
 849:../Libraries/STM32F30x_StdPeriph_Driver/src/stm32f30x_tim.c ****   
 850:../Libraries/STM32F30x_StdPeriph_Driver/src/stm32f30x_tim.c ****   /* Get the TIMx CCER register value */
 851:../Libraries/STM32F30x_StdPeriph_Driver/src/stm32f30x_tim.c ****   tmpccer = TIMx->CCER;
 1243              		.loc 1 851 0
 1244 074c 019B     		ldr	r3, [sp, #4]
 1245 074e 1B6A     		ldr	r3, [r3, #32]
 1246 0750 0593     		str	r3, [sp, #20]
 852:../Libraries/STM32F30x_StdPeriph_Driver/src/stm32f30x_tim.c ****   /* Get the TIMx CR2 register value */
 853:../Libraries/STM32F30x_StdPeriph_Driver/src/stm32f30x_tim.c ****   tmpcr2 =  TIMx->CR2;
 1247              		.loc 1 853 0
 1248 0752 019B     		ldr	r3, [sp, #4]
 1249 0754 5B68     		ldr	r3, [r3, #4]
 1250 0756 0493     		str	r3, [sp, #16]
 854:../Libraries/STM32F30x_StdPeriph_Driver/src/stm32f30x_tim.c ****   
 855:../Libraries/STM32F30x_StdPeriph_Driver/src/stm32f30x_tim.c ****   /* Get the TIMx CCMR2 register value */
 856:../Libraries/STM32F30x_StdPeriph_Driver/src/stm32f30x_tim.c ****   tmpccmrx = TIMx->CCMR2;
 1251              		.loc 1 856 0
 1252 0758 019B     		ldr	r3, [sp, #4]
 1253 075a DB69     		ldr	r3, [r3, #28]
 1254 075c 0393     		str	r3, [sp, #12]
 857:../Libraries/STM32F30x_StdPeriph_Driver/src/stm32f30x_tim.c ****     
 858:../Libraries/STM32F30x_StdPeriph_Driver/src/stm32f30x_tim.c ****   /* Reset the Output Compare mode and Capture/Compare selection Bits */
 859:../Libraries/STM32F30x_StdPeriph_Driver/src/stm32f30x_tim.c ****   tmpccmrx &= (uint32_t)~TIM_CCMR2_OC3M;
 1255              		.loc 1 859 0
 1256 075e 039B     		ldr	r3, [sp, #12]
 1257 0760 23F07003 		bic	r3, r3, #112
 1258 0764 0393     		str	r3, [sp, #12]
 860:../Libraries/STM32F30x_StdPeriph_Driver/src/stm32f30x_tim.c ****   tmpccmrx &= (uint32_t)~TIM_CCMR2_CC3S;  
 1259              		.loc 1 860 0
 1260 0766 039B     		ldr	r3, [sp, #12]
 1261 0768 23F00303 		bic	r3, r3, #3
 1262 076c 0393     		str	r3, [sp, #12]
 861:../Libraries/STM32F30x_StdPeriph_Driver/src/stm32f30x_tim.c ****   /* Select the Output Compare Mode */
 862:../Libraries/STM32F30x_StdPeriph_Driver/src/stm32f30x_tim.c ****   tmpccmrx |= TIM_OCInitStruct->TIM_OCMode;
 1263              		.loc 1 862 0
 1264 076e 009B     		ldr	r3, [sp, #0]
 1265 0770 1B68     		ldr	r3, [r3, #0]
 1266 0772 039A     		ldr	r2, [sp, #12]
 1267 0774 1343     		orrs	r3, r3, r2
 1268 0776 0393     		str	r3, [sp, #12]
 863:../Libraries/STM32F30x_StdPeriph_Driver/src/stm32f30x_tim.c ****   
 864:../Libraries/STM32F30x_StdPeriph_Driver/src/stm32f30x_tim.c ****   /* Reset the Output Polarity level */
 865:../Libraries/STM32F30x_StdPeriph_Driver/src/stm32f30x_tim.c ****   tmpccer &= (uint32_t)~TIM_CCER_CC3P;
 1269              		.loc 1 865 0
 1270 0778 059B     		ldr	r3, [sp, #20]
 1271 077a 23F40073 		bic	r3, r3, #512
 1272 077e 0593     		str	r3, [sp, #20]
 866:../Libraries/STM32F30x_StdPeriph_Driver/src/stm32f30x_tim.c ****   /* Set the Output Compare Polarity */
 867:../Libraries/STM32F30x_StdPeriph_Driver/src/stm32f30x_tim.c ****   tmpccer |= (uint32_t)((uint32_t)TIM_OCInitStruct->TIM_OCPolarity << 8);
 1273              		.loc 1 867 0
 1274 0780 009B     		ldr	r3, [sp, #0]
 1275 0782 9B89     		ldrh	r3, [r3, #12]
 1276 0784 4FEA0323 		lsl	r3, r3, #8
 1277 0788 059A     		ldr	r2, [sp, #20]
 1278 078a 1343     		orrs	r3, r3, r2
 1279 078c 0593     		str	r3, [sp, #20]
 868:../Libraries/STM32F30x_StdPeriph_Driver/src/stm32f30x_tim.c ****   
 869:../Libraries/STM32F30x_StdPeriph_Driver/src/stm32f30x_tim.c ****   /* Set the Output State */
 870:../Libraries/STM32F30x_StdPeriph_Driver/src/stm32f30x_tim.c ****   tmpccer |= (uint32_t)((uint32_t)TIM_OCInitStruct->TIM_OutputState << 8);
 1280              		.loc 1 870 0
 1281 078e 009B     		ldr	r3, [sp, #0]
 1282 0790 9B88     		ldrh	r3, [r3, #4]
 1283 0792 4FEA0323 		lsl	r3, r3, #8
 1284 0796 059A     		ldr	r2, [sp, #20]
 1285 0798 1343     		orrs	r3, r3, r2
 1286 079a 0593     		str	r3, [sp, #20]
 871:../Libraries/STM32F30x_StdPeriph_Driver/src/stm32f30x_tim.c ****     
 872:../Libraries/STM32F30x_StdPeriph_Driver/src/stm32f30x_tim.c ****   if((TIMx == TIM1) || (TIMx == TIM8))
 1287              		.loc 1 872 0
 1288 079c 019A     		ldr	r2, [sp, #4]
 1289 079e 4FF43053 		mov	r3, #11264
 1290 07a2 C4F20103 		movt	r3, 16385
 1291 07a6 9A42     		cmp	r2, r3
 1292 07a8 06D0     		beq	.L49
 1293              		.loc 1 872 0 is_stmt 0 discriminator 1
 1294 07aa 019A     		ldr	r2, [sp, #4]
 1295 07ac 4FF45053 		mov	r3, #13312
 1296 07b0 C4F20103 		movt	r3, 16385
 1297 07b4 9A42     		cmp	r2, r3
 1298 07b6 2BD1     		bne	.L50
 1299              	.L49:
 873:../Libraries/STM32F30x_StdPeriph_Driver/src/stm32f30x_tim.c ****   {
 874:../Libraries/STM32F30x_StdPeriph_Driver/src/stm32f30x_tim.c ****     assert_param(IS_TIM_OUTPUTN_STATE(TIM_OCInitStruct->TIM_OutputNState));
 875:../Libraries/STM32F30x_StdPeriph_Driver/src/stm32f30x_tim.c ****     assert_param(IS_TIM_OCN_POLARITY(TIM_OCInitStruct->TIM_OCNPolarity));
 876:../Libraries/STM32F30x_StdPeriph_Driver/src/stm32f30x_tim.c ****     assert_param(IS_TIM_OCNIDLE_STATE(TIM_OCInitStruct->TIM_OCNIdleState));
 877:../Libraries/STM32F30x_StdPeriph_Driver/src/stm32f30x_tim.c ****     assert_param(IS_TIM_OCIDLE_STATE(TIM_OCInitStruct->TIM_OCIdleState));
 878:../Libraries/STM32F30x_StdPeriph_Driver/src/stm32f30x_tim.c ****     
 879:../Libraries/STM32F30x_StdPeriph_Driver/src/stm32f30x_tim.c ****     /* Reset the Output N Polarity level */
 880:../Libraries/STM32F30x_StdPeriph_Driver/src/stm32f30x_tim.c ****     tmpccer &= (uint32_t)~TIM_CCER_CC3NP;
 1300              		.loc 1 880 0 is_stmt 1
 1301 07b8 059B     		ldr	r3, [sp, #20]
 1302 07ba 23F40063 		bic	r3, r3, #2048
 1303 07be 0593     		str	r3, [sp, #20]
 881:../Libraries/STM32F30x_StdPeriph_Driver/src/stm32f30x_tim.c ****     /* Set the Output N Polarity */
 882:../Libraries/STM32F30x_StdPeriph_Driver/src/stm32f30x_tim.c ****     tmpccer |= (uint32_t)((uint32_t)TIM_OCInitStruct->TIM_OCNPolarity << 8);
 1304              		.loc 1 882 0
 1305 07c0 009B     		ldr	r3, [sp, #0]
 1306 07c2 DB89     		ldrh	r3, [r3, #14]
 1307 07c4 4FEA0323 		lsl	r3, r3, #8
 1308 07c8 059A     		ldr	r2, [sp, #20]
 1309 07ca 1343     		orrs	r3, r3, r2
 1310 07cc 0593     		str	r3, [sp, #20]
 883:../Libraries/STM32F30x_StdPeriph_Driver/src/stm32f30x_tim.c ****     /* Reset the Output N State */
 884:../Libraries/STM32F30x_StdPeriph_Driver/src/stm32f30x_tim.c ****     tmpccer &= (uint32_t)~TIM_CCER_CC3NE;
 1311              		.loc 1 884 0
 1312 07ce 059B     		ldr	r3, [sp, #20]
 1313 07d0 23F48063 		bic	r3, r3, #1024
 1314 07d4 0593     		str	r3, [sp, #20]
 885:../Libraries/STM32F30x_StdPeriph_Driver/src/stm32f30x_tim.c ****     
 886:../Libraries/STM32F30x_StdPeriph_Driver/src/stm32f30x_tim.c ****     /* Set the Output N State */
 887:../Libraries/STM32F30x_StdPeriph_Driver/src/stm32f30x_tim.c ****     tmpccer |= (uint32_t)((uint32_t)TIM_OCInitStruct->TIM_OutputNState << 8);
 1315              		.loc 1 887 0
 1316 07d6 009B     		ldr	r3, [sp, #0]
 1317 07d8 DB88     		ldrh	r3, [r3, #6]
 1318 07da 4FEA0323 		lsl	r3, r3, #8
 1319 07de 059A     		ldr	r2, [sp, #20]
 1320 07e0 1343     		orrs	r3, r3, r2
 1321 07e2 0593     		str	r3, [sp, #20]
 888:../Libraries/STM32F30x_StdPeriph_Driver/src/stm32f30x_tim.c ****     /* Reset the Output Compare and Output Compare N IDLE State */
 889:../Libraries/STM32F30x_StdPeriph_Driver/src/stm32f30x_tim.c ****     tmpcr2 &= (uint32_t)~TIM_CR2_OIS3;
 1322              		.loc 1 889 0
 1323 07e4 049B     		ldr	r3, [sp, #16]
 1324 07e6 23F48053 		bic	r3, r3, #4096
 1325 07ea 0493     		str	r3, [sp, #16]
 890:../Libraries/STM32F30x_StdPeriph_Driver/src/stm32f30x_tim.c ****     tmpcr2 &= (uint32_t)~TIM_CR2_OIS3N;
 1326              		.loc 1 890 0
 1327 07ec 049B     		ldr	r3, [sp, #16]
 1328 07ee 23F40053 		bic	r3, r3, #8192
 1329 07f2 0493     		str	r3, [sp, #16]
 891:../Libraries/STM32F30x_StdPeriph_Driver/src/stm32f30x_tim.c ****     /* Set the Output Idle state */
 892:../Libraries/STM32F30x_StdPeriph_Driver/src/stm32f30x_tim.c ****     tmpcr2 |= (uint32_t)((uint32_t)TIM_OCInitStruct->TIM_OCIdleState << 4);
 1330              		.loc 1 892 0
 1331 07f4 009B     		ldr	r3, [sp, #0]
 1332 07f6 1B8A     		ldrh	r3, [r3, #16]
 1333 07f8 4FEA0313 		lsl	r3, r3, #4
 1334 07fc 049A     		ldr	r2, [sp, #16]
 1335 07fe 1343     		orrs	r3, r3, r2
 1336 0800 0493     		str	r3, [sp, #16]
 893:../Libraries/STM32F30x_StdPeriph_Driver/src/stm32f30x_tim.c ****     /* Set the Output N Idle state */
 894:../Libraries/STM32F30x_StdPeriph_Driver/src/stm32f30x_tim.c ****     tmpcr2 |= (uint32_t)((uint32_t)TIM_OCInitStruct->TIM_OCNIdleState << 4);
 1337              		.loc 1 894 0
 1338 0802 009B     		ldr	r3, [sp, #0]
 1339 0804 5B8A     		ldrh	r3, [r3, #18]
 1340 0806 4FEA0313 		lsl	r3, r3, #4
 1341 080a 049A     		ldr	r2, [sp, #16]
 1342 080c 1343     		orrs	r3, r3, r2
 1343 080e 0493     		str	r3, [sp, #16]
 1344              	.L50:
 895:../Libraries/STM32F30x_StdPeriph_Driver/src/stm32f30x_tim.c ****   }
 896:../Libraries/STM32F30x_StdPeriph_Driver/src/stm32f30x_tim.c ****   /* Write to TIMx CR2 */
 897:../Libraries/STM32F30x_StdPeriph_Driver/src/stm32f30x_tim.c ****   TIMx->CR2 = tmpcr2;
 1345              		.loc 1 897 0
 1346 0810 019B     		ldr	r3, [sp, #4]
 1347 0812 049A     		ldr	r2, [sp, #16]
 1348 0814 5A60     		str	r2, [r3, #4]
 898:../Libraries/STM32F30x_StdPeriph_Driver/src/stm32f30x_tim.c ****   
 899:../Libraries/STM32F30x_StdPeriph_Driver/src/stm32f30x_tim.c ****   /* Write to TIMx CCMR2 */
 900:../Libraries/STM32F30x_StdPeriph_Driver/src/stm32f30x_tim.c ****   TIMx->CCMR2 = tmpccmrx;
 1349              		.loc 1 900 0
 1350 0816 019B     		ldr	r3, [sp, #4]
 1351 0818 039A     		ldr	r2, [sp, #12]
 1352 081a DA61     		str	r2, [r3, #28]
 901:../Libraries/STM32F30x_StdPeriph_Driver/src/stm32f30x_tim.c ****   
 902:../Libraries/STM32F30x_StdPeriph_Driver/src/stm32f30x_tim.c ****   /* Set the Capture Compare Register value */
 903:../Libraries/STM32F30x_StdPeriph_Driver/src/stm32f30x_tim.c ****   TIMx->CCR3 = TIM_OCInitStruct->TIM_Pulse;
 1353              		.loc 1 903 0
 1354 081c 009B     		ldr	r3, [sp, #0]
 1355 081e 9A68     		ldr	r2, [r3, #8]
 1356 0820 019B     		ldr	r3, [sp, #4]
 1357 0822 DA63     		str	r2, [r3, #60]
 904:../Libraries/STM32F30x_StdPeriph_Driver/src/stm32f30x_tim.c ****   
 905:../Libraries/STM32F30x_StdPeriph_Driver/src/stm32f30x_tim.c ****   /* Write to TIMx CCER */
 906:../Libraries/STM32F30x_StdPeriph_Driver/src/stm32f30x_tim.c ****   TIMx->CCER = tmpccer;
 1358              		.loc 1 906 0
 1359 0824 019B     		ldr	r3, [sp, #4]
 1360 0826 059A     		ldr	r2, [sp, #20]
 1361 0828 1A62     		str	r2, [r3, #32]
 907:../Libraries/STM32F30x_StdPeriph_Driver/src/stm32f30x_tim.c **** }
 1362              		.loc 1 907 0
 1363 082a 06B0     		add	sp, sp, #24
 1364 082c 7047     		bx	lr
 1365              		.cfi_endproc
 1366              	.LFE129:
 1368 082e 00BF     		.align	2
 1369              		.global	TIM_OC4Init
 1370              		.thumb
 1371              		.thumb_func
 1373              	TIM_OC4Init:
 1374              	.LFB130:
 908:../Libraries/STM32F30x_StdPeriph_Driver/src/stm32f30x_tim.c **** 
 909:../Libraries/STM32F30x_StdPeriph_Driver/src/stm32f30x_tim.c **** /**
 910:../Libraries/STM32F30x_StdPeriph_Driver/src/stm32f30x_tim.c ****   * @brief  Initializes the TIMx Channel4 according to the specified parameters
 911:../Libraries/STM32F30x_StdPeriph_Driver/src/stm32f30x_tim.c ****   *         in the TIM_OCInitStruct.
 912:../Libraries/STM32F30x_StdPeriph_Driver/src/stm32f30x_tim.c ****   * @param  TIMx: where x can be 1, 2, 3, 4 or 8 to select the TIM peripheral.
 913:../Libraries/STM32F30x_StdPeriph_Driver/src/stm32f30x_tim.c ****   * @param  TIM_OCInitStruct: pointer to a TIM_OCInitTypeDef structure that contains
 914:../Libraries/STM32F30x_StdPeriph_Driver/src/stm32f30x_tim.c ****   *         the configuration information for the specified TIM peripheral.
 915:../Libraries/STM32F30x_StdPeriph_Driver/src/stm32f30x_tim.c ****   * @retval None
 916:../Libraries/STM32F30x_StdPeriph_Driver/src/stm32f30x_tim.c ****   */
 917:../Libraries/STM32F30x_StdPeriph_Driver/src/stm32f30x_tim.c **** void TIM_OC4Init(TIM_TypeDef* TIMx, TIM_OCInitTypeDef* TIM_OCInitStruct)
 918:../Libraries/STM32F30x_StdPeriph_Driver/src/stm32f30x_tim.c **** {
 1375              		.loc 1 918 0
 1376              		.cfi_startproc
 1377              		@ args = 0, pretend = 0, frame = 24
 1378              		@ frame_needed = 0, uses_anonymous_args = 0
 1379              		@ link register save eliminated.
 1380 0830 86B0     		sub	sp, sp, #24
 1381              	.LCFI20:
 1382              		.cfi_def_cfa_offset 24
 1383 0832 0190     		str	r0, [sp, #4]
 1384 0834 0091     		str	r1, [sp, #0]
 919:../Libraries/STM32F30x_StdPeriph_Driver/src/stm32f30x_tim.c ****   uint32_t tmpccmrx = 0, tmpccer = 0, tmpcr2 = 0;
 1385              		.loc 1 919 0
 1386 0836 4FF00003 		mov	r3, #0
 1387 083a 0493     		str	r3, [sp, #16]
 1388 083c 4FF00003 		mov	r3, #0
 1389 0840 0393     		str	r3, [sp, #12]
 1390 0842 4FF00003 		mov	r3, #0
 1391 0846 0593     		str	r3, [sp, #20]
 920:../Libraries/STM32F30x_StdPeriph_Driver/src/stm32f30x_tim.c ****    
 921:../Libraries/STM32F30x_StdPeriph_Driver/src/stm32f30x_tim.c ****   /* Check the parameters */
 922:../Libraries/STM32F30x_StdPeriph_Driver/src/stm32f30x_tim.c ****   assert_param(IS_TIM_LIST3_PERIPH(TIMx)); 
 923:../Libraries/STM32F30x_StdPeriph_Driver/src/stm32f30x_tim.c ****   assert_param(IS_TIM_OC_MODE(TIM_OCInitStruct->TIM_OCMode));
 924:../Libraries/STM32F30x_StdPeriph_Driver/src/stm32f30x_tim.c ****   assert_param(IS_TIM_OUTPUT_STATE(TIM_OCInitStruct->TIM_OutputState));
 925:../Libraries/STM32F30x_StdPeriph_Driver/src/stm32f30x_tim.c ****   assert_param(IS_TIM_OC_POLARITY(TIM_OCInitStruct->TIM_OCPolarity));   
 926:../Libraries/STM32F30x_StdPeriph_Driver/src/stm32f30x_tim.c **** 
 927:../Libraries/STM32F30x_StdPeriph_Driver/src/stm32f30x_tim.c ****   /* Disable the Channel 4: Reset the CC4E Bit */
 928:../Libraries/STM32F30x_StdPeriph_Driver/src/stm32f30x_tim.c ****   TIMx->CCER &= (uint32_t)~TIM_CCER_CC4E;
 1392              		.loc 1 928 0
 1393 0848 019B     		ldr	r3, [sp, #4]
 1394 084a 1B6A     		ldr	r3, [r3, #32]
 1395 084c 23F48052 		bic	r2, r3, #4096
 1396 0850 019B     		ldr	r3, [sp, #4]
 1397 0852 1A62     		str	r2, [r3, #32]
 929:../Libraries/STM32F30x_StdPeriph_Driver/src/stm32f30x_tim.c ****   
 930:../Libraries/STM32F30x_StdPeriph_Driver/src/stm32f30x_tim.c ****   /* Get the TIMx CCER register value */
 931:../Libraries/STM32F30x_StdPeriph_Driver/src/stm32f30x_tim.c ****   tmpccer = TIMx->CCER;
 1398              		.loc 1 931 0
 1399 0854 019B     		ldr	r3, [sp, #4]
 1400 0856 1B6A     		ldr	r3, [r3, #32]
 1401 0858 0393     		str	r3, [sp, #12]
 932:../Libraries/STM32F30x_StdPeriph_Driver/src/stm32f30x_tim.c ****   /* Get the TIMx CR2 register value */
 933:../Libraries/STM32F30x_StdPeriph_Driver/src/stm32f30x_tim.c ****   tmpcr2 =  TIMx->CR2;
 1402              		.loc 1 933 0
 1403 085a 019B     		ldr	r3, [sp, #4]
 1404 085c 5B68     		ldr	r3, [r3, #4]
 1405 085e 0593     		str	r3, [sp, #20]
 934:../Libraries/STM32F30x_StdPeriph_Driver/src/stm32f30x_tim.c ****   
 935:../Libraries/STM32F30x_StdPeriph_Driver/src/stm32f30x_tim.c ****   /* Get the TIMx CCMR2 register value */
 936:../Libraries/STM32F30x_StdPeriph_Driver/src/stm32f30x_tim.c ****   tmpccmrx = TIMx->CCMR2;
 1406              		.loc 1 936 0
 1407 0860 019B     		ldr	r3, [sp, #4]
 1408 0862 DB69     		ldr	r3, [r3, #28]
 1409 0864 0493     		str	r3, [sp, #16]
 937:../Libraries/STM32F30x_StdPeriph_Driver/src/stm32f30x_tim.c ****     
 938:../Libraries/STM32F30x_StdPeriph_Driver/src/stm32f30x_tim.c ****   /* Reset the Output Compare mode and Capture/Compare selection Bits */
 939:../Libraries/STM32F30x_StdPeriph_Driver/src/stm32f30x_tim.c ****   tmpccmrx &= (uint32_t)~TIM_CCMR2_OC4M;
 1410              		.loc 1 939 0
 1411 0866 049B     		ldr	r3, [sp, #16]
 1412 0868 23F4E043 		bic	r3, r3, #28672
 1413 086c 0493     		str	r3, [sp, #16]
 940:../Libraries/STM32F30x_StdPeriph_Driver/src/stm32f30x_tim.c ****   tmpccmrx &= (uint32_t)~TIM_CCMR2_CC4S;
 1414              		.loc 1 940 0
 1415 086e 049B     		ldr	r3, [sp, #16]
 1416 0870 23F44073 		bic	r3, r3, #768
 1417 0874 0493     		str	r3, [sp, #16]
 941:../Libraries/STM32F30x_StdPeriph_Driver/src/stm32f30x_tim.c ****   
 942:../Libraries/STM32F30x_StdPeriph_Driver/src/stm32f30x_tim.c ****   /* Select the Output Compare Mode */
 943:../Libraries/STM32F30x_StdPeriph_Driver/src/stm32f30x_tim.c ****   tmpccmrx |= (uint32_t)(TIM_OCInitStruct->TIM_OCMode << 8);
 1418              		.loc 1 943 0
 1419 0876 009B     		ldr	r3, [sp, #0]
 1420 0878 1B68     		ldr	r3, [r3, #0]
 1421 087a 4FEA0323 		lsl	r3, r3, #8
 1422 087e 049A     		ldr	r2, [sp, #16]
 1423 0880 1343     		orrs	r3, r3, r2
 1424 0882 0493     		str	r3, [sp, #16]
 944:../Libraries/STM32F30x_StdPeriph_Driver/src/stm32f30x_tim.c ****   
 945:../Libraries/STM32F30x_StdPeriph_Driver/src/stm32f30x_tim.c ****   /* Reset the Output Polarity level */
 946:../Libraries/STM32F30x_StdPeriph_Driver/src/stm32f30x_tim.c ****   tmpccer &= (uint32_t)~TIM_CCER_CC4P;
 1425              		.loc 1 946 0
 1426 0884 039B     		ldr	r3, [sp, #12]
 1427 0886 23F40053 		bic	r3, r3, #8192
 1428 088a 0393     		str	r3, [sp, #12]
 947:../Libraries/STM32F30x_StdPeriph_Driver/src/stm32f30x_tim.c ****   /* Set the Output Compare Polarity */
 948:../Libraries/STM32F30x_StdPeriph_Driver/src/stm32f30x_tim.c ****   tmpccer |= (uint32_t)((uint32_t)TIM_OCInitStruct->TIM_OCPolarity << 12);
 1429              		.loc 1 948 0
 1430 088c 009B     		ldr	r3, [sp, #0]
 1431 088e 9B89     		ldrh	r3, [r3, #12]
 1432 0890 4FEA0333 		lsl	r3, r3, #12
 1433 0894 039A     		ldr	r2, [sp, #12]
 1434 0896 1343     		orrs	r3, r3, r2
 1435 0898 0393     		str	r3, [sp, #12]
 949:../Libraries/STM32F30x_StdPeriph_Driver/src/stm32f30x_tim.c ****   
 950:../Libraries/STM32F30x_StdPeriph_Driver/src/stm32f30x_tim.c ****   /* Set the Output State */
 951:../Libraries/STM32F30x_StdPeriph_Driver/src/stm32f30x_tim.c ****   tmpccer |= (uint32_t)((uint32_t)TIM_OCInitStruct->TIM_OutputState << 12);
 1436              		.loc 1 951 0
 1437 089a 009B     		ldr	r3, [sp, #0]
 1438 089c 9B88     		ldrh	r3, [r3, #4]
 1439 089e 4FEA0333 		lsl	r3, r3, #12
 1440 08a2 039A     		ldr	r2, [sp, #12]
 1441 08a4 1343     		orrs	r3, r3, r2
 1442 08a6 0393     		str	r3, [sp, #12]
 952:../Libraries/STM32F30x_StdPeriph_Driver/src/stm32f30x_tim.c ****   
 953:../Libraries/STM32F30x_StdPeriph_Driver/src/stm32f30x_tim.c ****   if((TIMx == TIM1) || (TIMx == TIM8))
 1443              		.loc 1 953 0
 1444 08a8 019A     		ldr	r2, [sp, #4]
 1445 08aa 4FF43053 		mov	r3, #11264
 1446 08ae C4F20103 		movt	r3, 16385
 1447 08b2 9A42     		cmp	r2, r3
 1448 08b4 06D0     		beq	.L52
 1449              		.loc 1 953 0 is_stmt 0 discriminator 1
 1450 08b6 019A     		ldr	r2, [sp, #4]
 1451 08b8 4FF45053 		mov	r3, #13312
 1452 08bc C4F20103 		movt	r3, 16385
 1453 08c0 9A42     		cmp	r2, r3
 1454 08c2 0AD1     		bne	.L53
 1455              	.L52:
 954:../Libraries/STM32F30x_StdPeriph_Driver/src/stm32f30x_tim.c ****   {
 955:../Libraries/STM32F30x_StdPeriph_Driver/src/stm32f30x_tim.c ****     assert_param(IS_TIM_OCIDLE_STATE(TIM_OCInitStruct->TIM_OCIdleState));
 956:../Libraries/STM32F30x_StdPeriph_Driver/src/stm32f30x_tim.c ****     /* Reset the Output Compare IDLE State */
 957:../Libraries/STM32F30x_StdPeriph_Driver/src/stm32f30x_tim.c ****     tmpcr2 &=(uint32_t) ~TIM_CR2_OIS4;
 1456              		.loc 1 957 0 is_stmt 1
 1457 08c4 059B     		ldr	r3, [sp, #20]
 1458 08c6 23F48043 		bic	r3, r3, #16384
 1459 08ca 0593     		str	r3, [sp, #20]
 958:../Libraries/STM32F30x_StdPeriph_Driver/src/stm32f30x_tim.c ****     /* Set the Output Idle state */
 959:../Libraries/STM32F30x_StdPeriph_Driver/src/stm32f30x_tim.c ****     tmpcr2 |= (uint32_t)((uint32_t)TIM_OCInitStruct->TIM_OCIdleState << 6);
 1460              		.loc 1 959 0
 1461 08cc 009B     		ldr	r3, [sp, #0]
 1462 08ce 1B8A     		ldrh	r3, [r3, #16]
 1463 08d0 4FEA8313 		lsl	r3, r3, #6
 1464 08d4 059A     		ldr	r2, [sp, #20]
 1465 08d6 1343     		orrs	r3, r3, r2
 1466 08d8 0593     		str	r3, [sp, #20]
 1467              	.L53:
 960:../Libraries/STM32F30x_StdPeriph_Driver/src/stm32f30x_tim.c ****   }
 961:../Libraries/STM32F30x_StdPeriph_Driver/src/stm32f30x_tim.c ****   /* Write to TIMx CR2 */
 962:../Libraries/STM32F30x_StdPeriph_Driver/src/stm32f30x_tim.c ****   TIMx->CR2 = tmpcr2;
 1468              		.loc 1 962 0
 1469 08da 019B     		ldr	r3, [sp, #4]
 1470 08dc 059A     		ldr	r2, [sp, #20]
 1471 08de 5A60     		str	r2, [r3, #4]
 963:../Libraries/STM32F30x_StdPeriph_Driver/src/stm32f30x_tim.c ****   
 964:../Libraries/STM32F30x_StdPeriph_Driver/src/stm32f30x_tim.c ****   /* Write to TIMx CCMR2 */  
 965:../Libraries/STM32F30x_StdPeriph_Driver/src/stm32f30x_tim.c ****   TIMx->CCMR2 = tmpccmrx;
 1472              		.loc 1 965 0
 1473 08e0 019B     		ldr	r3, [sp, #4]
 1474 08e2 049A     		ldr	r2, [sp, #16]
 1475 08e4 DA61     		str	r2, [r3, #28]
 966:../Libraries/STM32F30x_StdPeriph_Driver/src/stm32f30x_tim.c ****     
 967:../Libraries/STM32F30x_StdPeriph_Driver/src/stm32f30x_tim.c ****   /* Set the Capture Compare Register value */
 968:../Libraries/STM32F30x_StdPeriph_Driver/src/stm32f30x_tim.c ****   TIMx->CCR4 = TIM_OCInitStruct->TIM_Pulse;
 1476              		.loc 1 968 0
 1477 08e6 009B     		ldr	r3, [sp, #0]
 1478 08e8 9A68     		ldr	r2, [r3, #8]
 1479 08ea 019B     		ldr	r3, [sp, #4]
 1480 08ec 1A64     		str	r2, [r3, #64]
 969:../Libraries/STM32F30x_StdPeriph_Driver/src/stm32f30x_tim.c ****   
 970:../Libraries/STM32F30x_StdPeriph_Driver/src/stm32f30x_tim.c ****   /* Write to TIMx CCER */
 971:../Libraries/STM32F30x_StdPeriph_Driver/src/stm32f30x_tim.c ****   TIMx->CCER = tmpccer;
 1481              		.loc 1 971 0
 1482 08ee 019B     		ldr	r3, [sp, #4]
 1483 08f0 039A     		ldr	r2, [sp, #12]
 1484 08f2 1A62     		str	r2, [r3, #32]
 972:../Libraries/STM32F30x_StdPeriph_Driver/src/stm32f30x_tim.c **** }
 1485              		.loc 1 972 0
 1486 08f4 06B0     		add	sp, sp, #24
 1487 08f6 7047     		bx	lr
 1488              		.cfi_endproc
 1489              	.LFE130:
 1491              		.align	2
 1492              		.global	TIM_OC5Init
 1493              		.thumb
 1494              		.thumb_func
 1496              	TIM_OC5Init:
 1497              	.LFB131:
 973:../Libraries/STM32F30x_StdPeriph_Driver/src/stm32f30x_tim.c **** 
 974:../Libraries/STM32F30x_StdPeriph_Driver/src/stm32f30x_tim.c **** /**
 975:../Libraries/STM32F30x_StdPeriph_Driver/src/stm32f30x_tim.c ****   * @brief  Initializes the TIMx Channel5 according to the specified parameters
 976:../Libraries/STM32F30x_StdPeriph_Driver/src/stm32f30x_tim.c ****   *         in the TIM_OCInitStruct.
 977:../Libraries/STM32F30x_StdPeriph_Driver/src/stm32f30x_tim.c ****   * @param  TIMx: where x can be 1 or 8 to select the TIM peripheral.
 978:../Libraries/STM32F30x_StdPeriph_Driver/src/stm32f30x_tim.c ****   * @param  TIM_OCInitStruct: pointer to a TIM_OCInitTypeDef structure that contains
 979:../Libraries/STM32F30x_StdPeriph_Driver/src/stm32f30x_tim.c ****   *         the configuration information for the specified TIM peripheral.
 980:../Libraries/STM32F30x_StdPeriph_Driver/src/stm32f30x_tim.c ****   * @retval None
 981:../Libraries/STM32F30x_StdPeriph_Driver/src/stm32f30x_tim.c ****   */
 982:../Libraries/STM32F30x_StdPeriph_Driver/src/stm32f30x_tim.c **** void TIM_OC5Init(TIM_TypeDef* TIMx, TIM_OCInitTypeDef* TIM_OCInitStruct)
 983:../Libraries/STM32F30x_StdPeriph_Driver/src/stm32f30x_tim.c **** {
 1498              		.loc 1 983 0
 1499              		.cfi_startproc
 1500              		@ args = 0, pretend = 0, frame = 24
 1501              		@ frame_needed = 0, uses_anonymous_args = 0
 1502              		@ link register save eliminated.
 1503 08f8 86B0     		sub	sp, sp, #24
 1504              	.LCFI21:
 1505              		.cfi_def_cfa_offset 24
 1506 08fa 0190     		str	r0, [sp, #4]
 1507 08fc 0091     		str	r1, [sp, #0]
 984:../Libraries/STM32F30x_StdPeriph_Driver/src/stm32f30x_tim.c ****   uint32_t tmpccmrx = 0, tmpccer = 0, tmpcr2 = 0;
 1508              		.loc 1 984 0
 1509 08fe 4FF00003 		mov	r3, #0
 1510 0902 0493     		str	r3, [sp, #16]
 1511 0904 4FF00003 		mov	r3, #0
 1512 0908 0393     		str	r3, [sp, #12]
 1513 090a 4FF00003 		mov	r3, #0
 1514 090e 0593     		str	r3, [sp, #20]
 985:../Libraries/STM32F30x_StdPeriph_Driver/src/stm32f30x_tim.c ****    
 986:../Libraries/STM32F30x_StdPeriph_Driver/src/stm32f30x_tim.c ****   /* Check the parameters */
 987:../Libraries/STM32F30x_StdPeriph_Driver/src/stm32f30x_tim.c ****   assert_param(IS_TIM_LIST4_PERIPH(TIMx)); 
 988:../Libraries/STM32F30x_StdPeriph_Driver/src/stm32f30x_tim.c ****   assert_param(IS_TIM_OC_MODE(TIM_OCInitStruct->TIM_OCMode));
 989:../Libraries/STM32F30x_StdPeriph_Driver/src/stm32f30x_tim.c ****   assert_param(IS_TIM_OUTPUT_STATE(TIM_OCInitStruct->TIM_OutputState));
 990:../Libraries/STM32F30x_StdPeriph_Driver/src/stm32f30x_tim.c ****   assert_param(IS_TIM_OC_POLARITY(TIM_OCInitStruct->TIM_OCPolarity));   
 991:../Libraries/STM32F30x_StdPeriph_Driver/src/stm32f30x_tim.c **** 
 992:../Libraries/STM32F30x_StdPeriph_Driver/src/stm32f30x_tim.c ****   /* Disable the Channel 5: Reset the CC5E Bit */
 993:../Libraries/STM32F30x_StdPeriph_Driver/src/stm32f30x_tim.c ****   TIMx->CCER &= (uint32_t)~TIM_CCER_CC5E; /* to be verified*/
 1515              		.loc 1 993 0
 1516 0910 019B     		ldr	r3, [sp, #4]
 1517 0912 1B6A     		ldr	r3, [r3, #32]
 1518 0914 23F48032 		bic	r2, r3, #65536
 1519 0918 019B     		ldr	r3, [sp, #4]
 1520 091a 1A62     		str	r2, [r3, #32]
 994:../Libraries/STM32F30x_StdPeriph_Driver/src/stm32f30x_tim.c ****   
 995:../Libraries/STM32F30x_StdPeriph_Driver/src/stm32f30x_tim.c ****   /* Get the TIMx CCER register value */
 996:../Libraries/STM32F30x_StdPeriph_Driver/src/stm32f30x_tim.c ****   tmpccer = TIMx->CCER;
 1521              		.loc 1 996 0
 1522 091c 019B     		ldr	r3, [sp, #4]
 1523 091e 1B6A     		ldr	r3, [r3, #32]
 1524 0920 0393     		str	r3, [sp, #12]
 997:../Libraries/STM32F30x_StdPeriph_Driver/src/stm32f30x_tim.c ****   /* Get the TIMx CR2 register value */
 998:../Libraries/STM32F30x_StdPeriph_Driver/src/stm32f30x_tim.c ****   tmpcr2 =  TIMx->CR2;
 1525              		.loc 1 998 0
 1526 0922 019B     		ldr	r3, [sp, #4]
 1527 0924 5B68     		ldr	r3, [r3, #4]
 1528 0926 0593     		str	r3, [sp, #20]
 999:../Libraries/STM32F30x_StdPeriph_Driver/src/stm32f30x_tim.c ****   
1000:../Libraries/STM32F30x_StdPeriph_Driver/src/stm32f30x_tim.c ****   /* Get the TIMx CCMR3 register value */
1001:../Libraries/STM32F30x_StdPeriph_Driver/src/stm32f30x_tim.c ****   tmpccmrx = TIMx->CCMR3;
 1529              		.loc 1 1001 0
 1530 0928 019B     		ldr	r3, [sp, #4]
 1531 092a 5B6D     		ldr	r3, [r3, #84]
 1532 092c 0493     		str	r3, [sp, #16]
1002:../Libraries/STM32F30x_StdPeriph_Driver/src/stm32f30x_tim.c ****   
1003:../Libraries/STM32F30x_StdPeriph_Driver/src/stm32f30x_tim.c ****   /* Reset the Output Compare mode and Capture/Compare selection Bits */
1004:../Libraries/STM32F30x_StdPeriph_Driver/src/stm32f30x_tim.c ****   tmpccmrx &= (uint32_t)~TIM_CCMR3_OC5M;
 1533              		.loc 1 1004 0
 1534 092e 049B     		ldr	r3, [sp, #16]
 1535 0930 23F07003 		bic	r3, r3, #112
 1536 0934 0493     		str	r3, [sp, #16]
1005:../Libraries/STM32F30x_StdPeriph_Driver/src/stm32f30x_tim.c ****   
1006:../Libraries/STM32F30x_StdPeriph_Driver/src/stm32f30x_tim.c ****   /* Select the Output Compare Mode */
1007:../Libraries/STM32F30x_StdPeriph_Driver/src/stm32f30x_tim.c ****   tmpccmrx |= (uint32_t)(TIM_OCInitStruct->TIM_OCMode);
 1537              		.loc 1 1007 0
 1538 0936 009B     		ldr	r3, [sp, #0]
 1539 0938 1B68     		ldr	r3, [r3, #0]
 1540 093a 049A     		ldr	r2, [sp, #16]
 1541 093c 1343     		orrs	r3, r3, r2
 1542 093e 0493     		str	r3, [sp, #16]
1008:../Libraries/STM32F30x_StdPeriph_Driver/src/stm32f30x_tim.c ****   
1009:../Libraries/STM32F30x_StdPeriph_Driver/src/stm32f30x_tim.c ****   /* Reset the Output Polarity level */
1010:../Libraries/STM32F30x_StdPeriph_Driver/src/stm32f30x_tim.c ****   tmpccer &= (uint32_t)~TIM_CCER_CC5P;
 1543              		.loc 1 1010 0
 1544 0940 039B     		ldr	r3, [sp, #12]
 1545 0942 23F40033 		bic	r3, r3, #131072
 1546 0946 0393     		str	r3, [sp, #12]
1011:../Libraries/STM32F30x_StdPeriph_Driver/src/stm32f30x_tim.c ****   /* Set the Output Compare Polarity */
1012:../Libraries/STM32F30x_StdPeriph_Driver/src/stm32f30x_tim.c ****   tmpccer |= (uint32_t)((uint32_t)TIM_OCInitStruct->TIM_OCPolarity << 16);
 1547              		.loc 1 1012 0
 1548 0948 009B     		ldr	r3, [sp, #0]
 1549 094a 9B89     		ldrh	r3, [r3, #12]
 1550 094c 4FEA0343 		lsl	r3, r3, #16
 1551 0950 039A     		ldr	r2, [sp, #12]
 1552 0952 1343     		orrs	r3, r3, r2
 1553 0954 0393     		str	r3, [sp, #12]
1013:../Libraries/STM32F30x_StdPeriph_Driver/src/stm32f30x_tim.c **** 
1014:../Libraries/STM32F30x_StdPeriph_Driver/src/stm32f30x_tim.c ****   /* Set the Output State */
1015:../Libraries/STM32F30x_StdPeriph_Driver/src/stm32f30x_tim.c ****   tmpccer |= (uint32_t)((uint32_t)TIM_OCInitStruct->TIM_OutputState << 16);
 1554              		.loc 1 1015 0
 1555 0956 009B     		ldr	r3, [sp, #0]
 1556 0958 9B88     		ldrh	r3, [r3, #4]
 1557 095a 4FEA0343 		lsl	r3, r3, #16
 1558 095e 039A     		ldr	r2, [sp, #12]
 1559 0960 1343     		orrs	r3, r3, r2
 1560 0962 0393     		str	r3, [sp, #12]
1016:../Libraries/STM32F30x_StdPeriph_Driver/src/stm32f30x_tim.c ****   
1017:../Libraries/STM32F30x_StdPeriph_Driver/src/stm32f30x_tim.c ****   if((TIMx == TIM1) || (TIMx == TIM8))
 1561              		.loc 1 1017 0
 1562 0964 019A     		ldr	r2, [sp, #4]
 1563 0966 4FF43053 		mov	r3, #11264
 1564 096a C4F20103 		movt	r3, 16385
 1565 096e 9A42     		cmp	r2, r3
 1566 0970 06D0     		beq	.L55
 1567              		.loc 1 1017 0 is_stmt 0 discriminator 1
 1568 0972 019A     		ldr	r2, [sp, #4]
 1569 0974 4FF45053 		mov	r3, #13312
 1570 0978 C4F20103 		movt	r3, 16385
 1571 097c 9A42     		cmp	r2, r3
 1572 097e 0AD1     		bne	.L56
 1573              	.L55:
1018:../Libraries/STM32F30x_StdPeriph_Driver/src/stm32f30x_tim.c ****   {
1019:../Libraries/STM32F30x_StdPeriph_Driver/src/stm32f30x_tim.c ****     assert_param(IS_TIM_OCIDLE_STATE(TIM_OCInitStruct->TIM_OCIdleState));
1020:../Libraries/STM32F30x_StdPeriph_Driver/src/stm32f30x_tim.c ****     /* Reset the Output Compare IDLE State */
1021:../Libraries/STM32F30x_StdPeriph_Driver/src/stm32f30x_tim.c ****     tmpcr2 &=(uint32_t) ~TIM_CR2_OIS5;
 1574              		.loc 1 1021 0 is_stmt 1
 1575 0980 059B     		ldr	r3, [sp, #20]
 1576 0982 23F48033 		bic	r3, r3, #65536
 1577 0986 0593     		str	r3, [sp, #20]
1022:../Libraries/STM32F30x_StdPeriph_Driver/src/stm32f30x_tim.c ****     /* Set the Output Idle state */
1023:../Libraries/STM32F30x_StdPeriph_Driver/src/stm32f30x_tim.c ****     tmpcr2 |= (uint32_t)((uint32_t)TIM_OCInitStruct->TIM_OCIdleState << 16);
 1578              		.loc 1 1023 0
 1579 0988 009B     		ldr	r3, [sp, #0]
 1580 098a 1B8A     		ldrh	r3, [r3, #16]
 1581 098c 4FEA0343 		lsl	r3, r3, #16
 1582 0990 059A     		ldr	r2, [sp, #20]
 1583 0992 1343     		orrs	r3, r3, r2
 1584 0994 0593     		str	r3, [sp, #20]
 1585              	.L56:
1024:../Libraries/STM32F30x_StdPeriph_Driver/src/stm32f30x_tim.c ****   }
1025:../Libraries/STM32F30x_StdPeriph_Driver/src/stm32f30x_tim.c ****   /* Write to TIMx CR2 */
1026:../Libraries/STM32F30x_StdPeriph_Driver/src/stm32f30x_tim.c ****   TIMx->CR2 = tmpcr2;
 1586              		.loc 1 1026 0
 1587 0996 019B     		ldr	r3, [sp, #4]
 1588 0998 059A     		ldr	r2, [sp, #20]
 1589 099a 5A60     		str	r2, [r3, #4]
1027:../Libraries/STM32F30x_StdPeriph_Driver/src/stm32f30x_tim.c ****   
1028:../Libraries/STM32F30x_StdPeriph_Driver/src/stm32f30x_tim.c ****   /* Write to TIMx CCMR2 */  
1029:../Libraries/STM32F30x_StdPeriph_Driver/src/stm32f30x_tim.c ****   TIMx->CCMR3 = tmpccmrx;
 1590              		.loc 1 1029 0
 1591 099c 019B     		ldr	r3, [sp, #4]
 1592 099e 049A     		ldr	r2, [sp, #16]
 1593 09a0 5A65     		str	r2, [r3, #84]
1030:../Libraries/STM32F30x_StdPeriph_Driver/src/stm32f30x_tim.c ****     
1031:../Libraries/STM32F30x_StdPeriph_Driver/src/stm32f30x_tim.c ****   /* Set the Capture Compare Register value */
1032:../Libraries/STM32F30x_StdPeriph_Driver/src/stm32f30x_tim.c ****   TIMx->CCR5 = TIM_OCInitStruct->TIM_Pulse;
 1594              		.loc 1 1032 0
 1595 09a2 009B     		ldr	r3, [sp, #0]
 1596 09a4 9A68     		ldr	r2, [r3, #8]
 1597 09a6 019B     		ldr	r3, [sp, #4]
 1598 09a8 9A65     		str	r2, [r3, #88]
1033:../Libraries/STM32F30x_StdPeriph_Driver/src/stm32f30x_tim.c ****   
1034:../Libraries/STM32F30x_StdPeriph_Driver/src/stm32f30x_tim.c ****   /* Write to TIMx CCER */
1035:../Libraries/STM32F30x_StdPeriph_Driver/src/stm32f30x_tim.c ****   TIMx->CCER = tmpccer;
 1599              		.loc 1 1035 0
 1600 09aa 019B     		ldr	r3, [sp, #4]
 1601 09ac 039A     		ldr	r2, [sp, #12]
 1602 09ae 1A62     		str	r2, [r3, #32]
1036:../Libraries/STM32F30x_StdPeriph_Driver/src/stm32f30x_tim.c **** }
 1603              		.loc 1 1036 0
 1604 09b0 06B0     		add	sp, sp, #24
 1605 09b2 7047     		bx	lr
 1606              		.cfi_endproc
 1607              	.LFE131:
 1609              		.align	2
 1610              		.global	TIM_OC6Init
 1611              		.thumb
 1612              		.thumb_func
 1614              	TIM_OC6Init:
 1615              	.LFB132:
1037:../Libraries/STM32F30x_StdPeriph_Driver/src/stm32f30x_tim.c **** 
1038:../Libraries/STM32F30x_StdPeriph_Driver/src/stm32f30x_tim.c **** /**
1039:../Libraries/STM32F30x_StdPeriph_Driver/src/stm32f30x_tim.c ****   * @brief  Initializes the TIMx Channel6 according to the specified parameters
1040:../Libraries/STM32F30x_StdPeriph_Driver/src/stm32f30x_tim.c ****   *         in the TIM_OCInitStruct.
1041:../Libraries/STM32F30x_StdPeriph_Driver/src/stm32f30x_tim.c ****   * @param  TIMx: where x can be 1 or 8 to select the TIM peripheral.
1042:../Libraries/STM32F30x_StdPeriph_Driver/src/stm32f30x_tim.c ****   * @param  TIM_OCInitStruct: pointer to a TIM_OCInitTypeDef structure that contains
1043:../Libraries/STM32F30x_StdPeriph_Driver/src/stm32f30x_tim.c ****   *         the configuration information for the specified TIM peripheral.
1044:../Libraries/STM32F30x_StdPeriph_Driver/src/stm32f30x_tim.c ****   * @retval None
1045:../Libraries/STM32F30x_StdPeriph_Driver/src/stm32f30x_tim.c ****   */
1046:../Libraries/STM32F30x_StdPeriph_Driver/src/stm32f30x_tim.c **** void TIM_OC6Init(TIM_TypeDef* TIMx, TIM_OCInitTypeDef* TIM_OCInitStruct)
1047:../Libraries/STM32F30x_StdPeriph_Driver/src/stm32f30x_tim.c **** {
 1616              		.loc 1 1047 0
 1617              		.cfi_startproc
 1618              		@ args = 0, pretend = 0, frame = 24
 1619              		@ frame_needed = 0, uses_anonymous_args = 0
 1620              		@ link register save eliminated.
 1621 09b4 86B0     		sub	sp, sp, #24
 1622              	.LCFI22:
 1623              		.cfi_def_cfa_offset 24
 1624 09b6 0190     		str	r0, [sp, #4]
 1625 09b8 0091     		str	r1, [sp, #0]
1048:../Libraries/STM32F30x_StdPeriph_Driver/src/stm32f30x_tim.c ****   uint32_t tmpccmrx = 0, tmpccer = 0, tmpcr2 = 0;
 1626              		.loc 1 1048 0
 1627 09ba 4FF00003 		mov	r3, #0
 1628 09be 0493     		str	r3, [sp, #16]
 1629 09c0 4FF00003 		mov	r3, #0
 1630 09c4 0393     		str	r3, [sp, #12]
 1631 09c6 4FF00003 		mov	r3, #0
 1632 09ca 0593     		str	r3, [sp, #20]
1049:../Libraries/STM32F30x_StdPeriph_Driver/src/stm32f30x_tim.c ****    
1050:../Libraries/STM32F30x_StdPeriph_Driver/src/stm32f30x_tim.c ****   /* Check the parameters */
1051:../Libraries/STM32F30x_StdPeriph_Driver/src/stm32f30x_tim.c ****   assert_param(IS_TIM_LIST4_PERIPH(TIMx)); 
1052:../Libraries/STM32F30x_StdPeriph_Driver/src/stm32f30x_tim.c ****   assert_param(IS_TIM_OC_MODE(TIM_OCInitStruct->TIM_OCMode));
1053:../Libraries/STM32F30x_StdPeriph_Driver/src/stm32f30x_tim.c ****   assert_param(IS_TIM_OUTPUT_STATE(TIM_OCInitStruct->TIM_OutputState));
1054:../Libraries/STM32F30x_StdPeriph_Driver/src/stm32f30x_tim.c ****   assert_param(IS_TIM_OC_POLARITY(TIM_OCInitStruct->TIM_OCPolarity));   
1055:../Libraries/STM32F30x_StdPeriph_Driver/src/stm32f30x_tim.c **** 
1056:../Libraries/STM32F30x_StdPeriph_Driver/src/stm32f30x_tim.c ****   /* Disable the Channel 5: Reset the CC5E Bit */
1057:../Libraries/STM32F30x_StdPeriph_Driver/src/stm32f30x_tim.c ****   TIMx->CCER &= (uint32_t)~TIM_CCER_CC6E; /* to be verified*/
 1633              		.loc 1 1057 0
 1634 09cc 019B     		ldr	r3, [sp, #4]
 1635 09ce 1B6A     		ldr	r3, [r3, #32]
 1636 09d0 23F48012 		bic	r2, r3, #1048576
 1637 09d4 019B     		ldr	r3, [sp, #4]
 1638 09d6 1A62     		str	r2, [r3, #32]
1058:../Libraries/STM32F30x_StdPeriph_Driver/src/stm32f30x_tim.c ****   
1059:../Libraries/STM32F30x_StdPeriph_Driver/src/stm32f30x_tim.c ****   /* Get the TIMx CCER register value */
1060:../Libraries/STM32F30x_StdPeriph_Driver/src/stm32f30x_tim.c ****   tmpccer = TIMx->CCER;
 1639              		.loc 1 1060 0
 1640 09d8 019B     		ldr	r3, [sp, #4]
 1641 09da 1B6A     		ldr	r3, [r3, #32]
 1642 09dc 0393     		str	r3, [sp, #12]
1061:../Libraries/STM32F30x_StdPeriph_Driver/src/stm32f30x_tim.c ****   /* Get the TIMx CR2 register value */
1062:../Libraries/STM32F30x_StdPeriph_Driver/src/stm32f30x_tim.c ****   tmpcr2 =  TIMx->CR2;
 1643              		.loc 1 1062 0
 1644 09de 019B     		ldr	r3, [sp, #4]
 1645 09e0 5B68     		ldr	r3, [r3, #4]
 1646 09e2 0593     		str	r3, [sp, #20]
1063:../Libraries/STM32F30x_StdPeriph_Driver/src/stm32f30x_tim.c ****   
1064:../Libraries/STM32F30x_StdPeriph_Driver/src/stm32f30x_tim.c ****   /* Get the TIMx CCMR3 register value */
1065:../Libraries/STM32F30x_StdPeriph_Driver/src/stm32f30x_tim.c ****   tmpccmrx = TIMx->CCMR3;
 1647              		.loc 1 1065 0
 1648 09e4 019B     		ldr	r3, [sp, #4]
 1649 09e6 5B6D     		ldr	r3, [r3, #84]
 1650 09e8 0493     		str	r3, [sp, #16]
1066:../Libraries/STM32F30x_StdPeriph_Driver/src/stm32f30x_tim.c ****   
1067:../Libraries/STM32F30x_StdPeriph_Driver/src/stm32f30x_tim.c ****   /* Reset the Output Compare mode and Capture/Compare selection Bits */
1068:../Libraries/STM32F30x_StdPeriph_Driver/src/stm32f30x_tim.c ****   tmpccmrx &= (uint32_t)~TIM_CCMR3_OC6M;
 1651              		.loc 1 1068 0
 1652 09ea 049B     		ldr	r3, [sp, #16]
 1653 09ec 23F4E043 		bic	r3, r3, #28672
 1654 09f0 0493     		str	r3, [sp, #16]
1069:../Libraries/STM32F30x_StdPeriph_Driver/src/stm32f30x_tim.c ****   
1070:../Libraries/STM32F30x_StdPeriph_Driver/src/stm32f30x_tim.c ****   /* Select the Output Compare Mode */
1071:../Libraries/STM32F30x_StdPeriph_Driver/src/stm32f30x_tim.c ****   tmpccmrx |= (uint32_t)(TIM_OCInitStruct->TIM_OCMode << 8);
 1655              		.loc 1 1071 0
 1656 09f2 009B     		ldr	r3, [sp, #0]
 1657 09f4 1B68     		ldr	r3, [r3, #0]
 1658 09f6 4FEA0323 		lsl	r3, r3, #8
 1659 09fa 049A     		ldr	r2, [sp, #16]
 1660 09fc 1343     		orrs	r3, r3, r2
 1661 09fe 0493     		str	r3, [sp, #16]
1072:../Libraries/STM32F30x_StdPeriph_Driver/src/stm32f30x_tim.c ****   
1073:../Libraries/STM32F30x_StdPeriph_Driver/src/stm32f30x_tim.c ****   /* Reset the Output Polarity level */
1074:../Libraries/STM32F30x_StdPeriph_Driver/src/stm32f30x_tim.c ****   tmpccer &= (uint32_t)~TIM_CCER_CC6P;
 1662              		.loc 1 1074 0
 1663 0a00 039B     		ldr	r3, [sp, #12]
 1664 0a02 23F40013 		bic	r3, r3, #2097152
 1665 0a06 0393     		str	r3, [sp, #12]
1075:../Libraries/STM32F30x_StdPeriph_Driver/src/stm32f30x_tim.c ****   /* Set the Output Compare Polarity */
1076:../Libraries/STM32F30x_StdPeriph_Driver/src/stm32f30x_tim.c ****   tmpccer |= (uint32_t)((uint32_t)TIM_OCInitStruct->TIM_OCPolarity << 20);
 1666              		.loc 1 1076 0
 1667 0a08 009B     		ldr	r3, [sp, #0]
 1668 0a0a 9B89     		ldrh	r3, [r3, #12]
 1669 0a0c 4FEA0353 		lsl	r3, r3, #20
 1670 0a10 039A     		ldr	r2, [sp, #12]
 1671 0a12 1343     		orrs	r3, r3, r2
 1672 0a14 0393     		str	r3, [sp, #12]
1077:../Libraries/STM32F30x_StdPeriph_Driver/src/stm32f30x_tim.c **** 
1078:../Libraries/STM32F30x_StdPeriph_Driver/src/stm32f30x_tim.c ****   /* Set the Output State */
1079:../Libraries/STM32F30x_StdPeriph_Driver/src/stm32f30x_tim.c ****   tmpccer |= (uint32_t)((uint32_t)TIM_OCInitStruct->TIM_OutputState << 20);
 1673              		.loc 1 1079 0
 1674 0a16 009B     		ldr	r3, [sp, #0]
 1675 0a18 9B88     		ldrh	r3, [r3, #4]
 1676 0a1a 4FEA0353 		lsl	r3, r3, #20
 1677 0a1e 039A     		ldr	r2, [sp, #12]
 1678 0a20 1343     		orrs	r3, r3, r2
 1679 0a22 0393     		str	r3, [sp, #12]
1080:../Libraries/STM32F30x_StdPeriph_Driver/src/stm32f30x_tim.c ****   
1081:../Libraries/STM32F30x_StdPeriph_Driver/src/stm32f30x_tim.c ****   if((TIMx == TIM1) || (TIMx == TIM8))
 1680              		.loc 1 1081 0
 1681 0a24 019A     		ldr	r2, [sp, #4]
 1682 0a26 4FF43053 		mov	r3, #11264
 1683 0a2a C4F20103 		movt	r3, 16385
 1684 0a2e 9A42     		cmp	r2, r3
 1685 0a30 06D0     		beq	.L58
 1686              		.loc 1 1081 0 is_stmt 0 discriminator 1
 1687 0a32 019A     		ldr	r2, [sp, #4]
 1688 0a34 4FF45053 		mov	r3, #13312
 1689 0a38 C4F20103 		movt	r3, 16385
 1690 0a3c 9A42     		cmp	r2, r3
 1691 0a3e 03D1     		bne	.L59
 1692              	.L58:
1082:../Libraries/STM32F30x_StdPeriph_Driver/src/stm32f30x_tim.c ****   {
1083:../Libraries/STM32F30x_StdPeriph_Driver/src/stm32f30x_tim.c ****     assert_param(IS_TIM_OCIDLE_STATE(TIM_OCInitStruct->TIM_OCIdleState));
1084:../Libraries/STM32F30x_StdPeriph_Driver/src/stm32f30x_tim.c ****     /* Reset the Output Compare IDLE State */
1085:../Libraries/STM32F30x_StdPeriph_Driver/src/stm32f30x_tim.c ****     tmpcr2 &=(uint32_t) ~TIM_CR2_OIS6;
 1693              		.loc 1 1085 0 is_stmt 1
 1694 0a40 059B     		ldr	r3, [sp, #20]
 1695 0a42 23F40033 		bic	r3, r3, #131072
 1696 0a46 0593     		str	r3, [sp, #20]
 1697              	.L59:
1086:../Libraries/STM32F30x_StdPeriph_Driver/src/stm32f30x_tim.c ****     /* Set the Output Idle state */
1087:../Libraries/STM32F30x_StdPeriph_Driver/src/stm32f30x_tim.c ****     tmpcr2 |= (uint16_t)(TIM_OCInitStruct->TIM_OCIdleState << 18);
1088:../Libraries/STM32F30x_StdPeriph_Driver/src/stm32f30x_tim.c ****   }
1089:../Libraries/STM32F30x_StdPeriph_Driver/src/stm32f30x_tim.c ****   /* Write to TIMx CR2 */
1090:../Libraries/STM32F30x_StdPeriph_Driver/src/stm32f30x_tim.c ****   TIMx->CR2 = tmpcr2;
 1698              		.loc 1 1090 0
 1699 0a48 019B     		ldr	r3, [sp, #4]
 1700 0a4a 059A     		ldr	r2, [sp, #20]
 1701 0a4c 5A60     		str	r2, [r3, #4]
1091:../Libraries/STM32F30x_StdPeriph_Driver/src/stm32f30x_tim.c ****   
1092:../Libraries/STM32F30x_StdPeriph_Driver/src/stm32f30x_tim.c ****   /* Write to TIMx CCMR2 */  
1093:../Libraries/STM32F30x_StdPeriph_Driver/src/stm32f30x_tim.c ****   TIMx->CCMR3 = tmpccmrx;
 1702              		.loc 1 1093 0
 1703 0a4e 019B     		ldr	r3, [sp, #4]
 1704 0a50 049A     		ldr	r2, [sp, #16]
 1705 0a52 5A65     		str	r2, [r3, #84]
1094:../Libraries/STM32F30x_StdPeriph_Driver/src/stm32f30x_tim.c ****     
1095:../Libraries/STM32F30x_StdPeriph_Driver/src/stm32f30x_tim.c ****   /* Set the Capture Compare Register value */
1096:../Libraries/STM32F30x_StdPeriph_Driver/src/stm32f30x_tim.c ****   TIMx->CCR6 = TIM_OCInitStruct->TIM_Pulse;
 1706              		.loc 1 1096 0
 1707 0a54 009B     		ldr	r3, [sp, #0]
 1708 0a56 9A68     		ldr	r2, [r3, #8]
 1709 0a58 019B     		ldr	r3, [sp, #4]
 1710 0a5a DA65     		str	r2, [r3, #92]
1097:../Libraries/STM32F30x_StdPeriph_Driver/src/stm32f30x_tim.c ****   
1098:../Libraries/STM32F30x_StdPeriph_Driver/src/stm32f30x_tim.c ****   /* Write to TIMx CCER */
1099:../Libraries/STM32F30x_StdPeriph_Driver/src/stm32f30x_tim.c ****   TIMx->CCER = tmpccer;
 1711              		.loc 1 1099 0
 1712 0a5c 019B     		ldr	r3, [sp, #4]
 1713 0a5e 039A     		ldr	r2, [sp, #12]
 1714 0a60 1A62     		str	r2, [r3, #32]
1100:../Libraries/STM32F30x_StdPeriph_Driver/src/stm32f30x_tim.c **** }
 1715              		.loc 1 1100 0
 1716 0a62 06B0     		add	sp, sp, #24
 1717 0a64 7047     		bx	lr
 1718              		.cfi_endproc
 1719              	.LFE132:
 1721 0a66 00BF     		.align	2
 1722              		.global	TIM_SelectGC5C1
 1723              		.thumb
 1724              		.thumb_func
 1726              	TIM_SelectGC5C1:
 1727              	.LFB133:
1101:../Libraries/STM32F30x_StdPeriph_Driver/src/stm32f30x_tim.c **** 
1102:../Libraries/STM32F30x_StdPeriph_Driver/src/stm32f30x_tim.c **** /**
1103:../Libraries/STM32F30x_StdPeriph_Driver/src/stm32f30x_tim.c ****   * @brief  Selects the TIM Group Channel 5 and Channel 1, 
1104:../Libraries/STM32F30x_StdPeriph_Driver/src/stm32f30x_tim.c ****             OC1REFC is the logical AND of OC1REFC and OC5REF.
1105:../Libraries/STM32F30x_StdPeriph_Driver/src/stm32f30x_tim.c ****   * @param  TIMx: where x can be  1 or 8 to select the TIMx peripheral
1106:../Libraries/STM32F30x_StdPeriph_Driver/src/stm32f30x_tim.c ****   * @param  NewState: new state of the Commutation event.
1107:../Libraries/STM32F30x_StdPeriph_Driver/src/stm32f30x_tim.c ****   *          This parameter can be: ENABLE or DISABLE.
1108:../Libraries/STM32F30x_StdPeriph_Driver/src/stm32f30x_tim.c ****   * @retval None
1109:../Libraries/STM32F30x_StdPeriph_Driver/src/stm32f30x_tim.c ****   */
1110:../Libraries/STM32F30x_StdPeriph_Driver/src/stm32f30x_tim.c **** void TIM_SelectGC5C1(TIM_TypeDef* TIMx, FunctionalState NewState)
1111:../Libraries/STM32F30x_StdPeriph_Driver/src/stm32f30x_tim.c **** {
 1728              		.loc 1 1111 0
 1729              		.cfi_startproc
 1730              		@ args = 0, pretend = 0, frame = 8
 1731              		@ frame_needed = 0, uses_anonymous_args = 0
 1732              		@ link register save eliminated.
 1733 0a68 82B0     		sub	sp, sp, #8
 1734              	.LCFI23:
 1735              		.cfi_def_cfa_offset 8
 1736 0a6a 0190     		str	r0, [sp, #4]
 1737 0a6c 0B46     		mov	r3, r1
 1738 0a6e 8DF80330 		strb	r3, [sp, #3]
1112:../Libraries/STM32F30x_StdPeriph_Driver/src/stm32f30x_tim.c ****   /* Check the parameters */
1113:../Libraries/STM32F30x_StdPeriph_Driver/src/stm32f30x_tim.c ****   assert_param(IS_TIM_LIST4_PERIPH(TIMx));
1114:../Libraries/STM32F30x_StdPeriph_Driver/src/stm32f30x_tim.c ****   assert_param(IS_FUNCTIONAL_STATE(NewState));
1115:../Libraries/STM32F30x_StdPeriph_Driver/src/stm32f30x_tim.c **** 
1116:../Libraries/STM32F30x_StdPeriph_Driver/src/stm32f30x_tim.c ****   if (NewState != DISABLE)
 1739              		.loc 1 1116 0
 1740 0a72 9DF80330 		ldrb	r3, [sp, #3]	@ zero_extendqisi2
 1741 0a76 002B     		cmp	r3, #0
 1742 0a78 06D0     		beq	.L61
1117:../Libraries/STM32F30x_StdPeriph_Driver/src/stm32f30x_tim.c ****   {
1118:../Libraries/STM32F30x_StdPeriph_Driver/src/stm32f30x_tim.c ****     /* Set the GC5C1 Bit */
1119:../Libraries/STM32F30x_StdPeriph_Driver/src/stm32f30x_tim.c ****     TIMx->CCR5 |= TIM_CCR5_GC5C1;
 1743              		.loc 1 1119 0
 1744 0a7a 019B     		ldr	r3, [sp, #4]
 1745 0a7c 9B6D     		ldr	r3, [r3, #88]
 1746 0a7e 43F00052 		orr	r2, r3, #536870912
 1747 0a82 019B     		ldr	r3, [sp, #4]
 1748 0a84 9A65     		str	r2, [r3, #88]
 1749 0a86 05E0     		b	.L60
 1750              	.L61:
1120:../Libraries/STM32F30x_StdPeriph_Driver/src/stm32f30x_tim.c ****   }
1121:../Libraries/STM32F30x_StdPeriph_Driver/src/stm32f30x_tim.c ****   else
1122:../Libraries/STM32F30x_StdPeriph_Driver/src/stm32f30x_tim.c ****   {
1123:../Libraries/STM32F30x_StdPeriph_Driver/src/stm32f30x_tim.c ****     /* Reset the GC5C1 Bit */
1124:../Libraries/STM32F30x_StdPeriph_Driver/src/stm32f30x_tim.c ****     TIMx->CCR5 &= (uint32_t)~TIM_CCR5_GC5C1;
 1751              		.loc 1 1124 0
 1752 0a88 019B     		ldr	r3, [sp, #4]
 1753 0a8a 9B6D     		ldr	r3, [r3, #88]
 1754 0a8c 23F00052 		bic	r2, r3, #536870912
 1755 0a90 019B     		ldr	r3, [sp, #4]
 1756 0a92 9A65     		str	r2, [r3, #88]
 1757              	.L60:
1125:../Libraries/STM32F30x_StdPeriph_Driver/src/stm32f30x_tim.c ****   }
1126:../Libraries/STM32F30x_StdPeriph_Driver/src/stm32f30x_tim.c **** }
 1758              		.loc 1 1126 0
 1759 0a94 02B0     		add	sp, sp, #8
 1760 0a96 7047     		bx	lr
 1761              		.cfi_endproc
 1762              	.LFE133:
 1764              		.align	2
 1765              		.global	TIM_SelectGC5C2
 1766              		.thumb
 1767              		.thumb_func
 1769              	TIM_SelectGC5C2:
 1770              	.LFB134:
1127:../Libraries/STM32F30x_StdPeriph_Driver/src/stm32f30x_tim.c **** 
1128:../Libraries/STM32F30x_StdPeriph_Driver/src/stm32f30x_tim.c **** /**
1129:../Libraries/STM32F30x_StdPeriph_Driver/src/stm32f30x_tim.c ****   * @brief  Selects the TIM Group Channel 5 and Channel 2, 
1130:../Libraries/STM32F30x_StdPeriph_Driver/src/stm32f30x_tim.c ****             OC2REFC is the logical AND of OC2REFC and OC5REF.
1131:../Libraries/STM32F30x_StdPeriph_Driver/src/stm32f30x_tim.c ****   * @param  TIMx: where x can be  1 or 8 to select the TIMx peripheral
1132:../Libraries/STM32F30x_StdPeriph_Driver/src/stm32f30x_tim.c ****   * @param  NewState: new state of the Commutation event.
1133:../Libraries/STM32F30x_StdPeriph_Driver/src/stm32f30x_tim.c ****   *          This parameter can be: ENABLE or DISABLE.
1134:../Libraries/STM32F30x_StdPeriph_Driver/src/stm32f30x_tim.c ****   * @retval None
1135:../Libraries/STM32F30x_StdPeriph_Driver/src/stm32f30x_tim.c ****   */
1136:../Libraries/STM32F30x_StdPeriph_Driver/src/stm32f30x_tim.c **** void TIM_SelectGC5C2(TIM_TypeDef* TIMx, FunctionalState NewState)
1137:../Libraries/STM32F30x_StdPeriph_Driver/src/stm32f30x_tim.c **** {
 1771              		.loc 1 1137 0
 1772              		.cfi_startproc
 1773              		@ args = 0, pretend = 0, frame = 8
 1774              		@ frame_needed = 0, uses_anonymous_args = 0
 1775              		@ link register save eliminated.
 1776 0a98 82B0     		sub	sp, sp, #8
 1777              	.LCFI24:
 1778              		.cfi_def_cfa_offset 8
 1779 0a9a 0190     		str	r0, [sp, #4]
 1780 0a9c 0B46     		mov	r3, r1
 1781 0a9e 8DF80330 		strb	r3, [sp, #3]
1138:../Libraries/STM32F30x_StdPeriph_Driver/src/stm32f30x_tim.c ****   /* Check the parameters */
1139:../Libraries/STM32F30x_StdPeriph_Driver/src/stm32f30x_tim.c ****   assert_param(IS_TIM_LIST4_PERIPH(TIMx));
1140:../Libraries/STM32F30x_StdPeriph_Driver/src/stm32f30x_tim.c ****   assert_param(IS_FUNCTIONAL_STATE(NewState));
1141:../Libraries/STM32F30x_StdPeriph_Driver/src/stm32f30x_tim.c **** 
1142:../Libraries/STM32F30x_StdPeriph_Driver/src/stm32f30x_tim.c ****   if (NewState != DISABLE)
 1782              		.loc 1 1142 0
 1783 0aa2 9DF80330 		ldrb	r3, [sp, #3]	@ zero_extendqisi2
 1784 0aa6 002B     		cmp	r3, #0
 1785 0aa8 06D0     		beq	.L64
1143:../Libraries/STM32F30x_StdPeriph_Driver/src/stm32f30x_tim.c ****   {
1144:../Libraries/STM32F30x_StdPeriph_Driver/src/stm32f30x_tim.c ****     /* Set the GC5C2 Bit */
1145:../Libraries/STM32F30x_StdPeriph_Driver/src/stm32f30x_tim.c ****     TIMx->CCR5 |= TIM_CCR5_GC5C2;
 1786              		.loc 1 1145 0
 1787 0aaa 019B     		ldr	r3, [sp, #4]
 1788 0aac 9B6D     		ldr	r3, [r3, #88]
 1789 0aae 43F08042 		orr	r2, r3, #1073741824
 1790 0ab2 019B     		ldr	r3, [sp, #4]
 1791 0ab4 9A65     		str	r2, [r3, #88]
 1792 0ab6 05E0     		b	.L63
 1793              	.L64:
1146:../Libraries/STM32F30x_StdPeriph_Driver/src/stm32f30x_tim.c ****   }
1147:../Libraries/STM32F30x_StdPeriph_Driver/src/stm32f30x_tim.c ****   else
1148:../Libraries/STM32F30x_StdPeriph_Driver/src/stm32f30x_tim.c ****   {
1149:../Libraries/STM32F30x_StdPeriph_Driver/src/stm32f30x_tim.c ****     /* Reset the GC5C2 Bit */
1150:../Libraries/STM32F30x_StdPeriph_Driver/src/stm32f30x_tim.c ****     TIMx->CCR5 &= (uint32_t)~TIM_CCR5_GC5C2;
 1794              		.loc 1 1150 0
 1795 0ab8 019B     		ldr	r3, [sp, #4]
 1796 0aba 9B6D     		ldr	r3, [r3, #88]
 1797 0abc 23F08042 		bic	r2, r3, #1073741824
 1798 0ac0 019B     		ldr	r3, [sp, #4]
 1799 0ac2 9A65     		str	r2, [r3, #88]
 1800              	.L63:
1151:../Libraries/STM32F30x_StdPeriph_Driver/src/stm32f30x_tim.c ****   }
1152:../Libraries/STM32F30x_StdPeriph_Driver/src/stm32f30x_tim.c **** }
 1801              		.loc 1 1152 0
 1802 0ac4 02B0     		add	sp, sp, #8
 1803 0ac6 7047     		bx	lr
 1804              		.cfi_endproc
 1805              	.LFE134:
 1807              		.align	2
 1808              		.global	TIM_SelectGC5C3
 1809              		.thumb
 1810              		.thumb_func
 1812              	TIM_SelectGC5C3:
 1813              	.LFB135:
1153:../Libraries/STM32F30x_StdPeriph_Driver/src/stm32f30x_tim.c **** 
1154:../Libraries/STM32F30x_StdPeriph_Driver/src/stm32f30x_tim.c **** 
1155:../Libraries/STM32F30x_StdPeriph_Driver/src/stm32f30x_tim.c **** /**
1156:../Libraries/STM32F30x_StdPeriph_Driver/src/stm32f30x_tim.c ****   * @brief  Selects the TIM Group Channel 5 and Channel 3, 
1157:../Libraries/STM32F30x_StdPeriph_Driver/src/stm32f30x_tim.c ****             OC3REFC is the logical AND of OC3REFC and OC5REF.
1158:../Libraries/STM32F30x_StdPeriph_Driver/src/stm32f30x_tim.c ****   * @param  TIMx: where x can be  1 or 8 to select the TIMx peripheral
1159:../Libraries/STM32F30x_StdPeriph_Driver/src/stm32f30x_tim.c ****   * @param  NewState: new state of the Commutation event.
1160:../Libraries/STM32F30x_StdPeriph_Driver/src/stm32f30x_tim.c ****   *          This parameter can be: ENABLE or DISABLE.
1161:../Libraries/STM32F30x_StdPeriph_Driver/src/stm32f30x_tim.c ****   * @retval None
1162:../Libraries/STM32F30x_StdPeriph_Driver/src/stm32f30x_tim.c ****   */
1163:../Libraries/STM32F30x_StdPeriph_Driver/src/stm32f30x_tim.c **** void TIM_SelectGC5C3(TIM_TypeDef* TIMx, FunctionalState NewState)
1164:../Libraries/STM32F30x_StdPeriph_Driver/src/stm32f30x_tim.c **** {
 1814              		.loc 1 1164 0
 1815              		.cfi_startproc
 1816              		@ args = 0, pretend = 0, frame = 8
 1817              		@ frame_needed = 0, uses_anonymous_args = 0
 1818              		@ link register save eliminated.
 1819 0ac8 82B0     		sub	sp, sp, #8
 1820              	.LCFI25:
 1821              		.cfi_def_cfa_offset 8
 1822 0aca 0190     		str	r0, [sp, #4]
 1823 0acc 0B46     		mov	r3, r1
 1824 0ace 8DF80330 		strb	r3, [sp, #3]
1165:../Libraries/STM32F30x_StdPeriph_Driver/src/stm32f30x_tim.c ****   /* Check the parameters */
1166:../Libraries/STM32F30x_StdPeriph_Driver/src/stm32f30x_tim.c ****   assert_param(IS_TIM_LIST4_PERIPH(TIMx));
1167:../Libraries/STM32F30x_StdPeriph_Driver/src/stm32f30x_tim.c ****   assert_param(IS_FUNCTIONAL_STATE(NewState));
1168:../Libraries/STM32F30x_StdPeriph_Driver/src/stm32f30x_tim.c **** 
1169:../Libraries/STM32F30x_StdPeriph_Driver/src/stm32f30x_tim.c ****   if (NewState != DISABLE)
 1825              		.loc 1 1169 0
 1826 0ad2 9DF80330 		ldrb	r3, [sp, #3]	@ zero_extendqisi2
 1827 0ad6 002B     		cmp	r3, #0
 1828 0ad8 06D0     		beq	.L67
1170:../Libraries/STM32F30x_StdPeriph_Driver/src/stm32f30x_tim.c ****   {
1171:../Libraries/STM32F30x_StdPeriph_Driver/src/stm32f30x_tim.c ****     /* Set the GC5C3 Bit */
1172:../Libraries/STM32F30x_StdPeriph_Driver/src/stm32f30x_tim.c ****     TIMx->CCR5 |= TIM_CCR5_GC5C3;
 1829              		.loc 1 1172 0
 1830 0ada 019B     		ldr	r3, [sp, #4]
 1831 0adc 9B6D     		ldr	r3, [r3, #88]
 1832 0ade 43F00042 		orr	r2, r3, #-2147483648
 1833 0ae2 019B     		ldr	r3, [sp, #4]
 1834 0ae4 9A65     		str	r2, [r3, #88]
 1835 0ae6 05E0     		b	.L66
 1836              	.L67:
1173:../Libraries/STM32F30x_StdPeriph_Driver/src/stm32f30x_tim.c ****   }
1174:../Libraries/STM32F30x_StdPeriph_Driver/src/stm32f30x_tim.c ****   else
1175:../Libraries/STM32F30x_StdPeriph_Driver/src/stm32f30x_tim.c ****   {
1176:../Libraries/STM32F30x_StdPeriph_Driver/src/stm32f30x_tim.c ****     /* Reset the GC5C3 Bit */
1177:../Libraries/STM32F30x_StdPeriph_Driver/src/stm32f30x_tim.c ****     TIMx->CCR5 &= (uint32_t)~TIM_CCR5_GC5C3;
 1837              		.loc 1 1177 0
 1838 0ae8 019B     		ldr	r3, [sp, #4]
 1839 0aea 9B6D     		ldr	r3, [r3, #88]
 1840 0aec 23F00042 		bic	r2, r3, #-2147483648
 1841 0af0 019B     		ldr	r3, [sp, #4]
 1842 0af2 9A65     		str	r2, [r3, #88]
 1843              	.L66:
1178:../Libraries/STM32F30x_StdPeriph_Driver/src/stm32f30x_tim.c ****   }
1179:../Libraries/STM32F30x_StdPeriph_Driver/src/stm32f30x_tim.c **** }
 1844              		.loc 1 1179 0
 1845 0af4 02B0     		add	sp, sp, #8
 1846 0af6 7047     		bx	lr
 1847              		.cfi_endproc
 1848              	.LFE135:
 1850              		.align	2
 1851              		.global	TIM_OCStructInit
 1852              		.thumb
 1853              		.thumb_func
 1855              	TIM_OCStructInit:
 1856              	.LFB136:
1180:../Libraries/STM32F30x_StdPeriph_Driver/src/stm32f30x_tim.c **** 
1181:../Libraries/STM32F30x_StdPeriph_Driver/src/stm32f30x_tim.c **** /**
1182:../Libraries/STM32F30x_StdPeriph_Driver/src/stm32f30x_tim.c ****   * @brief  Fills each TIM_OCInitStruct member with its default value.
1183:../Libraries/STM32F30x_StdPeriph_Driver/src/stm32f30x_tim.c ****   * @param  TIM_OCInitStruct: pointer to a TIM_OCInitTypeDef structure which will
1184:../Libraries/STM32F30x_StdPeriph_Driver/src/stm32f30x_tim.c ****   *         be initialized.
1185:../Libraries/STM32F30x_StdPeriph_Driver/src/stm32f30x_tim.c ****   * @retval None
1186:../Libraries/STM32F30x_StdPeriph_Driver/src/stm32f30x_tim.c ****   */
1187:../Libraries/STM32F30x_StdPeriph_Driver/src/stm32f30x_tim.c **** void TIM_OCStructInit(TIM_OCInitTypeDef* TIM_OCInitStruct)
1188:../Libraries/STM32F30x_StdPeriph_Driver/src/stm32f30x_tim.c **** {
 1857              		.loc 1 1188 0
 1858              		.cfi_startproc
 1859              		@ args = 0, pretend = 0, frame = 8
 1860              		@ frame_needed = 0, uses_anonymous_args = 0
 1861              		@ link register save eliminated.
 1862 0af8 82B0     		sub	sp, sp, #8
 1863              	.LCFI26:
 1864              		.cfi_def_cfa_offset 8
 1865 0afa 0190     		str	r0, [sp, #4]
1189:../Libraries/STM32F30x_StdPeriph_Driver/src/stm32f30x_tim.c ****   /* Set the default configuration */
1190:../Libraries/STM32F30x_StdPeriph_Driver/src/stm32f30x_tim.c ****   TIM_OCInitStruct->TIM_OCMode = TIM_OCMode_Timing;
 1866              		.loc 1 1190 0
 1867 0afc 019B     		ldr	r3, [sp, #4]
 1868 0afe 4FF00002 		mov	r2, #0
 1869 0b02 1A60     		str	r2, [r3, #0]
1191:../Libraries/STM32F30x_StdPeriph_Driver/src/stm32f30x_tim.c ****   TIM_OCInitStruct->TIM_OutputState = TIM_OutputState_Disable;
 1870              		.loc 1 1191 0
 1871 0b04 019B     		ldr	r3, [sp, #4]
 1872 0b06 4FF00002 		mov	r2, #0
 1873 0b0a 9A80     		strh	r2, [r3, #4]	@ movhi
1192:../Libraries/STM32F30x_StdPeriph_Driver/src/stm32f30x_tim.c ****   TIM_OCInitStruct->TIM_OutputNState = TIM_OutputNState_Disable;
 1874              		.loc 1 1192 0
 1875 0b0c 019B     		ldr	r3, [sp, #4]
 1876 0b0e 4FF00002 		mov	r2, #0
 1877 0b12 DA80     		strh	r2, [r3, #6]	@ movhi
1193:../Libraries/STM32F30x_StdPeriph_Driver/src/stm32f30x_tim.c ****   TIM_OCInitStruct->TIM_Pulse = 0x00000000;
 1878              		.loc 1 1193 0
 1879 0b14 019B     		ldr	r3, [sp, #4]
 1880 0b16 4FF00002 		mov	r2, #0
 1881 0b1a 9A60     		str	r2, [r3, #8]
1194:../Libraries/STM32F30x_StdPeriph_Driver/src/stm32f30x_tim.c ****   TIM_OCInitStruct->TIM_OCPolarity = TIM_OCPolarity_High;
 1882              		.loc 1 1194 0
 1883 0b1c 019B     		ldr	r3, [sp, #4]
 1884 0b1e 4FF00002 		mov	r2, #0
 1885 0b22 9A81     		strh	r2, [r3, #12]	@ movhi
1195:../Libraries/STM32F30x_StdPeriph_Driver/src/stm32f30x_tim.c ****   TIM_OCInitStruct->TIM_OCNPolarity = TIM_OCPolarity_High;
 1886              		.loc 1 1195 0
 1887 0b24 019B     		ldr	r3, [sp, #4]
 1888 0b26 4FF00002 		mov	r2, #0
 1889 0b2a DA81     		strh	r2, [r3, #14]	@ movhi
1196:../Libraries/STM32F30x_StdPeriph_Driver/src/stm32f30x_tim.c ****   TIM_OCInitStruct->TIM_OCIdleState = TIM_OCIdleState_Reset;
 1890              		.loc 1 1196 0
 1891 0b2c 019B     		ldr	r3, [sp, #4]
 1892 0b2e 4FF00002 		mov	r2, #0
 1893 0b32 1A82     		strh	r2, [r3, #16]	@ movhi
1197:../Libraries/STM32F30x_StdPeriph_Driver/src/stm32f30x_tim.c ****   TIM_OCInitStruct->TIM_OCNIdleState = TIM_OCNIdleState_Reset;
 1894              		.loc 1 1197 0
 1895 0b34 019B     		ldr	r3, [sp, #4]
 1896 0b36 4FF00002 		mov	r2, #0
 1897 0b3a 5A82     		strh	r2, [r3, #18]	@ movhi
1198:../Libraries/STM32F30x_StdPeriph_Driver/src/stm32f30x_tim.c **** }
 1898              		.loc 1 1198 0
 1899 0b3c 02B0     		add	sp, sp, #8
 1900 0b3e 7047     		bx	lr
 1901              		.cfi_endproc
 1902              	.LFE136:
 1904              		.align	2
 1905              		.global	TIM_SelectOCxM
 1906              		.thumb
 1907              		.thumb_func
 1909              	TIM_SelectOCxM:
 1910              	.LFB137:
1199:../Libraries/STM32F30x_StdPeriph_Driver/src/stm32f30x_tim.c **** 
1200:../Libraries/STM32F30x_StdPeriph_Driver/src/stm32f30x_tim.c **** /**
1201:../Libraries/STM32F30x_StdPeriph_Driver/src/stm32f30x_tim.c ****   * @brief  Selects the TIM Output Compare Mode.
1202:../Libraries/STM32F30x_StdPeriph_Driver/src/stm32f30x_tim.c ****   * @note   This function disables the selected channel before changing the Output
1203:../Libraries/STM32F30x_StdPeriph_Driver/src/stm32f30x_tim.c ****   *         Compare Mode. If needed, user has to enable this channel using
1204:../Libraries/STM32F30x_StdPeriph_Driver/src/stm32f30x_tim.c ****   *         TIM_CCxCmd() and TIM_CCxNCmd() functions.
1205:../Libraries/STM32F30x_StdPeriph_Driver/src/stm32f30x_tim.c ****   * @param  TIMx: where x can be 1, 2, 3, 4, 8, 15, 16 or 17 to select the TIM peripheral.
1206:../Libraries/STM32F30x_StdPeriph_Driver/src/stm32f30x_tim.c ****   * @param  TIM_Channel: specifies the TIM Channel
1207:../Libraries/STM32F30x_StdPeriph_Driver/src/stm32f30x_tim.c ****   *          This parameter can be one of the following values:
1208:../Libraries/STM32F30x_StdPeriph_Driver/src/stm32f30x_tim.c ****   *            @arg TIM_Channel_1: TIM Channel 1
1209:../Libraries/STM32F30x_StdPeriph_Driver/src/stm32f30x_tim.c ****   *            @arg TIM_Channel_2: TIM Channel 2
1210:../Libraries/STM32F30x_StdPeriph_Driver/src/stm32f30x_tim.c ****   *            @arg TIM_Channel_3: TIM Channel 3
1211:../Libraries/STM32F30x_StdPeriph_Driver/src/stm32f30x_tim.c ****   *            @arg TIM_Channel_4: TIM Channel 4
1212:../Libraries/STM32F30x_StdPeriph_Driver/src/stm32f30x_tim.c ****   * @param  TIM_OCMode: specifies the TIM Output Compare Mode.
1213:../Libraries/STM32F30x_StdPeriph_Driver/src/stm32f30x_tim.c ****   *           This parameter can be one of the following values:
1214:../Libraries/STM32F30x_StdPeriph_Driver/src/stm32f30x_tim.c ****   *            @arg TIM_OCMode_Timing
1215:../Libraries/STM32F30x_StdPeriph_Driver/src/stm32f30x_tim.c ****   *            @arg TIM_OCMode_Active
1216:../Libraries/STM32F30x_StdPeriph_Driver/src/stm32f30x_tim.c ****   *            @arg TIM_OCMode_Toggle
1217:../Libraries/STM32F30x_StdPeriph_Driver/src/stm32f30x_tim.c ****   *            @arg TIM_OCMode_PWM1
1218:../Libraries/STM32F30x_StdPeriph_Driver/src/stm32f30x_tim.c ****   *            @arg TIM_OCMode_PWM2
1219:../Libraries/STM32F30x_StdPeriph_Driver/src/stm32f30x_tim.c ****   *            @arg TIM_ForcedAction_Active
1220:../Libraries/STM32F30x_StdPeriph_Driver/src/stm32f30x_tim.c ****   *            @arg TIM_ForcedAction_InActive
1221:../Libraries/STM32F30x_StdPeriph_Driver/src/stm32f30x_tim.c ****   *            @arg TIM_OCMode_Retrigerrable_OPM1
1222:../Libraries/STM32F30x_StdPeriph_Driver/src/stm32f30x_tim.c ****   *            @arg TIM_OCMode_Retrigerrable_OPM2
1223:../Libraries/STM32F30x_StdPeriph_Driver/src/stm32f30x_tim.c ****   *            @arg TIM_OCMode_Combined_PWM1
1224:../Libraries/STM32F30x_StdPeriph_Driver/src/stm32f30x_tim.c ****   *            @arg TIM_OCMode_Combined_PWM2
1225:../Libraries/STM32F30x_StdPeriph_Driver/src/stm32f30x_tim.c ****   *            @arg TIM_OCMode_Asymmetric_PWM1
1226:../Libraries/STM32F30x_StdPeriph_Driver/src/stm32f30x_tim.c ****   *            @arg TIM_OCMode_Asymmetric_PWM2            
1227:../Libraries/STM32F30x_StdPeriph_Driver/src/stm32f30x_tim.c ****   * @retval None
1228:../Libraries/STM32F30x_StdPeriph_Driver/src/stm32f30x_tim.c ****   */
1229:../Libraries/STM32F30x_StdPeriph_Driver/src/stm32f30x_tim.c **** void TIM_SelectOCxM(TIM_TypeDef* TIMx, uint16_t TIM_Channel, uint32_t TIM_OCMode) /* to be updated*
1230:../Libraries/STM32F30x_StdPeriph_Driver/src/stm32f30x_tim.c **** {
 1911              		.loc 1 1230 0
 1912              		.cfi_startproc
 1913              		@ args = 0, pretend = 0, frame = 24
 1914              		@ frame_needed = 0, uses_anonymous_args = 0
 1915              		@ link register save eliminated.
 1916 0b40 86B0     		sub	sp, sp, #24
 1917              	.LCFI27:
 1918              		.cfi_def_cfa_offset 24
 1919 0b42 0390     		str	r0, [sp, #12]
 1920 0b44 0B46     		mov	r3, r1
 1921 0b46 0192     		str	r2, [sp, #4]
 1922 0b48 ADF80A30 		strh	r3, [sp, #10]	@ movhi
1231:../Libraries/STM32F30x_StdPeriph_Driver/src/stm32f30x_tim.c ****   uint32_t tmp = 0;
 1923              		.loc 1 1231 0
 1924 0b4c 4FF00003 		mov	r3, #0
 1925 0b50 0593     		str	r3, [sp, #20]
1232:../Libraries/STM32F30x_StdPeriph_Driver/src/stm32f30x_tim.c ****   uint16_t tmp1 = 0;
 1926              		.loc 1 1232 0
 1927 0b52 4FF00003 		mov	r3, #0
 1928 0b56 ADF81230 		strh	r3, [sp, #18]	@ movhi
1233:../Libraries/STM32F30x_StdPeriph_Driver/src/stm32f30x_tim.c **** 
1234:../Libraries/STM32F30x_StdPeriph_Driver/src/stm32f30x_tim.c ****   /* Check the parameters */
1235:../Libraries/STM32F30x_StdPeriph_Driver/src/stm32f30x_tim.c ****   assert_param(IS_TIM_LIST1_PERIPH(TIMx));
1236:../Libraries/STM32F30x_StdPeriph_Driver/src/stm32f30x_tim.c ****   assert_param(IS_TIM_CHANNEL(TIM_Channel));
1237:../Libraries/STM32F30x_StdPeriph_Driver/src/stm32f30x_tim.c ****   assert_param(IS_TIM_OCM(TIM_OCMode));
1238:../Libraries/STM32F30x_StdPeriph_Driver/src/stm32f30x_tim.c **** 
1239:../Libraries/STM32F30x_StdPeriph_Driver/src/stm32f30x_tim.c ****   tmp = (uint32_t) TIMx;
 1929              		.loc 1 1239 0
 1930 0b5a 039B     		ldr	r3, [sp, #12]
 1931 0b5c 0593     		str	r3, [sp, #20]
1240:../Libraries/STM32F30x_StdPeriph_Driver/src/stm32f30x_tim.c ****   tmp += CCMR_OFFSET;
 1932              		.loc 1 1240 0
 1933 0b5e 059B     		ldr	r3, [sp, #20]
 1934 0b60 03F11803 		add	r3, r3, #24
 1935 0b64 0593     		str	r3, [sp, #20]
1241:../Libraries/STM32F30x_StdPeriph_Driver/src/stm32f30x_tim.c **** 
1242:../Libraries/STM32F30x_StdPeriph_Driver/src/stm32f30x_tim.c ****   tmp1 = CCER_CCE_SET << (uint16_t)TIM_Channel;
 1936              		.loc 1 1242 0
 1937 0b66 BDF80A30 		ldrh	r3, [sp, #10]
 1938 0b6a 4FF00102 		mov	r2, #1
 1939 0b6e 02FA03F3 		lsl	r3, r2, r3
 1940 0b72 ADF81230 		strh	r3, [sp, #18]	@ movhi
1243:../Libraries/STM32F30x_StdPeriph_Driver/src/stm32f30x_tim.c **** 
1244:../Libraries/STM32F30x_StdPeriph_Driver/src/stm32f30x_tim.c ****   /* Disable the Channel: Reset the CCxE Bit */
1245:../Libraries/STM32F30x_StdPeriph_Driver/src/stm32f30x_tim.c ****   TIMx->CCER &= (uint16_t) ~tmp1;
 1941              		.loc 1 1245 0
 1942 0b76 039B     		ldr	r3, [sp, #12]
 1943 0b78 1A6A     		ldr	r2, [r3, #32]
 1944 0b7a BDF81230 		ldrh	r3, [sp, #18]	@ movhi
 1945 0b7e 6FEA0303 		mvn	r3, r3
 1946 0b82 9BB2     		uxth	r3, r3
 1947 0b84 1A40     		ands	r2, r2, r3
 1948 0b86 039B     		ldr	r3, [sp, #12]
 1949 0b88 1A62     		str	r2, [r3, #32]
1246:../Libraries/STM32F30x_StdPeriph_Driver/src/stm32f30x_tim.c **** 
1247:../Libraries/STM32F30x_StdPeriph_Driver/src/stm32f30x_tim.c ****   if((TIM_Channel == TIM_Channel_1) ||(TIM_Channel == TIM_Channel_3))
 1950              		.loc 1 1247 0
 1951 0b8a BDF80A30 		ldrh	r3, [sp, #10]
 1952 0b8e 002B     		cmp	r3, #0
 1953 0b90 03D0     		beq	.L71
 1954              		.loc 1 1247 0 is_stmt 0 discriminator 1
 1955 0b92 BDF80A30 		ldrh	r3, [sp, #10]
 1956 0b96 082B     		cmp	r3, #8
 1957 0b98 16D1     		bne	.L72
 1958              	.L71:
1248:../Libraries/STM32F30x_StdPeriph_Driver/src/stm32f30x_tim.c ****   {
1249:../Libraries/STM32F30x_StdPeriph_Driver/src/stm32f30x_tim.c ****     tmp += (TIM_Channel>>1);
 1959              		.loc 1 1249 0 is_stmt 1
 1960 0b9a BDF80A30 		ldrh	r3, [sp, #10]
 1961 0b9e 4FEA5303 		lsr	r3, r3, #1
 1962 0ba2 9BB2     		uxth	r3, r3
 1963 0ba4 059A     		ldr	r2, [sp, #20]
 1964 0ba6 D318     		adds	r3, r2, r3
 1965 0ba8 0593     		str	r3, [sp, #20]
1250:../Libraries/STM32F30x_StdPeriph_Driver/src/stm32f30x_tim.c **** 
1251:../Libraries/STM32F30x_StdPeriph_Driver/src/stm32f30x_tim.c ****     /* Reset the OCxM bits in the CCMRx register */
1252:../Libraries/STM32F30x_StdPeriph_Driver/src/stm32f30x_tim.c ****     *(__IO uint32_t *) tmp &= CCMR_OC13M_MASK;
 1966              		.loc 1 1252 0
 1967 0baa 059A     		ldr	r2, [sp, #20]
 1968 0bac 059B     		ldr	r3, [sp, #20]
 1969 0bae 1B68     		ldr	r3, [r3, #0]
 1970 0bb0 23F48033 		bic	r3, r3, #65536
 1971 0bb4 23F07003 		bic	r3, r3, #112
 1972 0bb8 1360     		str	r3, [r2, #0]
1253:../Libraries/STM32F30x_StdPeriph_Driver/src/stm32f30x_tim.c ****    
1254:../Libraries/STM32F30x_StdPeriph_Driver/src/stm32f30x_tim.c ****     /* Configure the OCxM bits in the CCMRx register */
1255:../Libraries/STM32F30x_StdPeriph_Driver/src/stm32f30x_tim.c ****     *(__IO uint32_t *) tmp |= TIM_OCMode;
 1973              		.loc 1 1255 0
 1974 0bba 059B     		ldr	r3, [sp, #20]
 1975 0bbc 059A     		ldr	r2, [sp, #20]
 1976 0bbe 1168     		ldr	r1, [r2, #0]
 1977 0bc0 019A     		ldr	r2, [sp, #4]
 1978 0bc2 0A43     		orrs	r2, r2, r1
 1979 0bc4 1A60     		str	r2, [r3, #0]
 1980 0bc6 1AE0     		b	.L70
 1981              	.L72:
1256:../Libraries/STM32F30x_StdPeriph_Driver/src/stm32f30x_tim.c ****   }
1257:../Libraries/STM32F30x_StdPeriph_Driver/src/stm32f30x_tim.c ****   else
1258:../Libraries/STM32F30x_StdPeriph_Driver/src/stm32f30x_tim.c ****   {
1259:../Libraries/STM32F30x_StdPeriph_Driver/src/stm32f30x_tim.c ****     tmp += (uint32_t)(TIM_Channel - (uint32_t)4)>> (uint32_t)1;
 1982              		.loc 1 1259 0
 1983 0bc8 BDF80A30 		ldrh	r3, [sp, #10]
 1984 0bcc A3F10403 		sub	r3, r3, #4
 1985 0bd0 4FEA5303 		lsr	r3, r3, #1
 1986 0bd4 059A     		ldr	r2, [sp, #20]
 1987 0bd6 D318     		adds	r3, r2, r3
 1988 0bd8 0593     		str	r3, [sp, #20]
1260:../Libraries/STM32F30x_StdPeriph_Driver/src/stm32f30x_tim.c **** 
1261:../Libraries/STM32F30x_StdPeriph_Driver/src/stm32f30x_tim.c ****     /* Reset the OCxM bits in the CCMRx register */
1262:../Libraries/STM32F30x_StdPeriph_Driver/src/stm32f30x_tim.c ****     *(__IO uint32_t *) tmp &= CCMR_OC24M_MASK;
 1989              		.loc 1 1262 0
 1990 0bda 059A     		ldr	r2, [sp, #20]
 1991 0bdc 059B     		ldr	r3, [sp, #20]
 1992 0bde 1B68     		ldr	r3, [r3, #0]
 1993 0be0 23F08073 		bic	r3, r3, #16777216
 1994 0be4 23F4E043 		bic	r3, r3, #28672
 1995 0be8 1360     		str	r3, [r2, #0]
1263:../Libraries/STM32F30x_StdPeriph_Driver/src/stm32f30x_tim.c ****     
1264:../Libraries/STM32F30x_StdPeriph_Driver/src/stm32f30x_tim.c ****     /* Configure the OCxM bits in the CCMRx register */
1265:../Libraries/STM32F30x_StdPeriph_Driver/src/stm32f30x_tim.c ****     *(__IO uint32_t *) tmp |= (uint16_t)(TIM_OCMode << 8);
 1996              		.loc 1 1265 0
 1997 0bea 059B     		ldr	r3, [sp, #20]
 1998 0bec 059A     		ldr	r2, [sp, #20]
 1999 0bee 1168     		ldr	r1, [r2, #0]
 2000 0bf0 019A     		ldr	r2, [sp, #4]
 2001 0bf2 92B2     		uxth	r2, r2
 2002 0bf4 4FEA0222 		lsl	r2, r2, #8
 2003 0bf8 92B2     		uxth	r2, r2
 2004 0bfa 0A43     		orrs	r2, r2, r1
 2005 0bfc 1A60     		str	r2, [r3, #0]
 2006              	.L70:
1266:../Libraries/STM32F30x_StdPeriph_Driver/src/stm32f30x_tim.c ****   }
1267:../Libraries/STM32F30x_StdPeriph_Driver/src/stm32f30x_tim.c **** }
 2007              		.loc 1 1267 0
 2008 0bfe 06B0     		add	sp, sp, #24
 2009 0c00 7047     		bx	lr
 2010              		.cfi_endproc
 2011              	.LFE137:
 2013 0c02 00BF     		.align	2
 2014              		.global	TIM_SetCompare1
 2015              		.thumb
 2016              		.thumb_func
 2018              	TIM_SetCompare1:
 2019              	.LFB138:
1268:../Libraries/STM32F30x_StdPeriph_Driver/src/stm32f30x_tim.c **** 
1269:../Libraries/STM32F30x_StdPeriph_Driver/src/stm32f30x_tim.c **** /**
1270:../Libraries/STM32F30x_StdPeriph_Driver/src/stm32f30x_tim.c ****   * @brief  Sets the TIMx Capture Compare1 Register value
1271:../Libraries/STM32F30x_StdPeriph_Driver/src/stm32f30x_tim.c ****   * @param  TIMx: where x can be 1, 2, 3, 4, 8, 15, 16 or 17 to select the TIM peripheral.
1272:../Libraries/STM32F30x_StdPeriph_Driver/src/stm32f30x_tim.c ****   * @param  Compare1: specifies the Capture Compare1 register new value.
1273:../Libraries/STM32F30x_StdPeriph_Driver/src/stm32f30x_tim.c ****   * @retval None
1274:../Libraries/STM32F30x_StdPeriph_Driver/src/stm32f30x_tim.c ****   */
1275:../Libraries/STM32F30x_StdPeriph_Driver/src/stm32f30x_tim.c **** void TIM_SetCompare1(TIM_TypeDef* TIMx, uint32_t Compare1)
1276:../Libraries/STM32F30x_StdPeriph_Driver/src/stm32f30x_tim.c **** {
 2020              		.loc 1 1276 0
 2021              		.cfi_startproc
 2022              		@ args = 0, pretend = 0, frame = 8
 2023              		@ frame_needed = 0, uses_anonymous_args = 0
 2024              		@ link register save eliminated.
 2025 0c04 82B0     		sub	sp, sp, #8
 2026              	.LCFI28:
 2027              		.cfi_def_cfa_offset 8
 2028 0c06 0190     		str	r0, [sp, #4]
 2029 0c08 0091     		str	r1, [sp, #0]
1277:../Libraries/STM32F30x_StdPeriph_Driver/src/stm32f30x_tim.c ****   /* Check the parameters */
1278:../Libraries/STM32F30x_StdPeriph_Driver/src/stm32f30x_tim.c ****   assert_param(IS_TIM_LIST1_PERIPH(TIMx));
1279:../Libraries/STM32F30x_StdPeriph_Driver/src/stm32f30x_tim.c **** 
1280:../Libraries/STM32F30x_StdPeriph_Driver/src/stm32f30x_tim.c ****   /* Set the Capture Compare1 Register value */
1281:../Libraries/STM32F30x_StdPeriph_Driver/src/stm32f30x_tim.c ****   TIMx->CCR1 = Compare1;
 2030              		.loc 1 1281 0
 2031 0c0a 019B     		ldr	r3, [sp, #4]
 2032 0c0c 009A     		ldr	r2, [sp, #0]
 2033 0c0e 5A63     		str	r2, [r3, #52]
1282:../Libraries/STM32F30x_StdPeriph_Driver/src/stm32f30x_tim.c **** }
 2034              		.loc 1 1282 0
 2035 0c10 02B0     		add	sp, sp, #8
 2036 0c12 7047     		bx	lr
 2037              		.cfi_endproc
 2038              	.LFE138:
 2040              		.align	2
 2041              		.global	TIM_SetCompare2
 2042              		.thumb
 2043              		.thumb_func
 2045              	TIM_SetCompare2:
 2046              	.LFB139:
1283:../Libraries/STM32F30x_StdPeriph_Driver/src/stm32f30x_tim.c **** 
1284:../Libraries/STM32F30x_StdPeriph_Driver/src/stm32f30x_tim.c **** /**
1285:../Libraries/STM32F30x_StdPeriph_Driver/src/stm32f30x_tim.c ****   * @brief  Sets the TIMx Capture Compare2 Register value
1286:../Libraries/STM32F30x_StdPeriph_Driver/src/stm32f30x_tim.c ****   * @param  TIMx: where x can be 1, 2, 3, 4, 8 or 15 to select the TIM 
1287:../Libraries/STM32F30x_StdPeriph_Driver/src/stm32f30x_tim.c ****   *         peripheral.
1288:../Libraries/STM32F30x_StdPeriph_Driver/src/stm32f30x_tim.c ****   * @param  Compare2: specifies the Capture Compare2 register new value.
1289:../Libraries/STM32F30x_StdPeriph_Driver/src/stm32f30x_tim.c ****   * @retval None
1290:../Libraries/STM32F30x_StdPeriph_Driver/src/stm32f30x_tim.c ****   */
1291:../Libraries/STM32F30x_StdPeriph_Driver/src/stm32f30x_tim.c **** void TIM_SetCompare2(TIM_TypeDef* TIMx, uint32_t Compare2)
1292:../Libraries/STM32F30x_StdPeriph_Driver/src/stm32f30x_tim.c **** {
 2047              		.loc 1 1292 0
 2048              		.cfi_startproc
 2049              		@ args = 0, pretend = 0, frame = 8
 2050              		@ frame_needed = 0, uses_anonymous_args = 0
 2051              		@ link register save eliminated.
 2052 0c14 82B0     		sub	sp, sp, #8
 2053              	.LCFI29:
 2054              		.cfi_def_cfa_offset 8
 2055 0c16 0190     		str	r0, [sp, #4]
 2056 0c18 0091     		str	r1, [sp, #0]
1293:../Libraries/STM32F30x_StdPeriph_Driver/src/stm32f30x_tim.c ****   /* Check the parameters */
1294:../Libraries/STM32F30x_StdPeriph_Driver/src/stm32f30x_tim.c ****   assert_param(IS_TIM_LIST2_PERIPH(TIMx));
1295:../Libraries/STM32F30x_StdPeriph_Driver/src/stm32f30x_tim.c **** 
1296:../Libraries/STM32F30x_StdPeriph_Driver/src/stm32f30x_tim.c ****   /* Set the Capture Compare2 Register value */
1297:../Libraries/STM32F30x_StdPeriph_Driver/src/stm32f30x_tim.c ****   TIMx->CCR2 = Compare2;
 2057              		.loc 1 1297 0
 2058 0c1a 019B     		ldr	r3, [sp, #4]
 2059 0c1c 009A     		ldr	r2, [sp, #0]
 2060 0c1e 9A63     		str	r2, [r3, #56]
1298:../Libraries/STM32F30x_StdPeriph_Driver/src/stm32f30x_tim.c **** }
 2061              		.loc 1 1298 0
 2062 0c20 02B0     		add	sp, sp, #8
 2063 0c22 7047     		bx	lr
 2064              		.cfi_endproc
 2065              	.LFE139:
 2067              		.align	2
 2068              		.global	TIM_SetCompare3
 2069              		.thumb
 2070              		.thumb_func
 2072              	TIM_SetCompare3:
 2073              	.LFB140:
1299:../Libraries/STM32F30x_StdPeriph_Driver/src/stm32f30x_tim.c **** 
1300:../Libraries/STM32F30x_StdPeriph_Driver/src/stm32f30x_tim.c **** /**
1301:../Libraries/STM32F30x_StdPeriph_Driver/src/stm32f30x_tim.c ****   * @brief  Sets the TIMx Capture Compare3 Register value
1302:../Libraries/STM32F30x_StdPeriph_Driver/src/stm32f30x_tim.c ****   * @param  TIMx: where x can be 1, 2, 3, 4, 5 or 8 to select the TIM peripheral.
1303:../Libraries/STM32F30x_StdPeriph_Driver/src/stm32f30x_tim.c ****   * @param  Compare3: specifies the Capture Compare3 register new value.
1304:../Libraries/STM32F30x_StdPeriph_Driver/src/stm32f30x_tim.c ****   * @retval None
1305:../Libraries/STM32F30x_StdPeriph_Driver/src/stm32f30x_tim.c ****   */
1306:../Libraries/STM32F30x_StdPeriph_Driver/src/stm32f30x_tim.c **** void TIM_SetCompare3(TIM_TypeDef* TIMx, uint32_t Compare3)
1307:../Libraries/STM32F30x_StdPeriph_Driver/src/stm32f30x_tim.c **** {
 2074              		.loc 1 1307 0
 2075              		.cfi_startproc
 2076              		@ args = 0, pretend = 0, frame = 8
 2077              		@ frame_needed = 0, uses_anonymous_args = 0
 2078              		@ link register save eliminated.
 2079 0c24 82B0     		sub	sp, sp, #8
 2080              	.LCFI30:
 2081              		.cfi_def_cfa_offset 8
 2082 0c26 0190     		str	r0, [sp, #4]
 2083 0c28 0091     		str	r1, [sp, #0]
1308:../Libraries/STM32F30x_StdPeriph_Driver/src/stm32f30x_tim.c ****   /* Check the parameters */
1309:../Libraries/STM32F30x_StdPeriph_Driver/src/stm32f30x_tim.c ****   assert_param(IS_TIM_LIST3_PERIPH(TIMx));
1310:../Libraries/STM32F30x_StdPeriph_Driver/src/stm32f30x_tim.c **** 
1311:../Libraries/STM32F30x_StdPeriph_Driver/src/stm32f30x_tim.c ****   /* Set the Capture Compare3 Register value */
1312:../Libraries/STM32F30x_StdPeriph_Driver/src/stm32f30x_tim.c ****   TIMx->CCR3 = Compare3;
 2084              		.loc 1 1312 0
 2085 0c2a 019B     		ldr	r3, [sp, #4]
 2086 0c2c 009A     		ldr	r2, [sp, #0]
 2087 0c2e DA63     		str	r2, [r3, #60]
1313:../Libraries/STM32F30x_StdPeriph_Driver/src/stm32f30x_tim.c **** }
 2088              		.loc 1 1313 0
 2089 0c30 02B0     		add	sp, sp, #8
 2090 0c32 7047     		bx	lr
 2091              		.cfi_endproc
 2092              	.LFE140:
 2094              		.align	2
 2095              		.global	TIM_SetCompare4
 2096              		.thumb
 2097              		.thumb_func
 2099              	TIM_SetCompare4:
 2100              	.LFB141:
1314:../Libraries/STM32F30x_StdPeriph_Driver/src/stm32f30x_tim.c **** 
1315:../Libraries/STM32F30x_StdPeriph_Driver/src/stm32f30x_tim.c **** /**
1316:../Libraries/STM32F30x_StdPeriph_Driver/src/stm32f30x_tim.c ****   * @brief  Sets the TIMx Capture Compare4 Register value
1317:../Libraries/STM32F30x_StdPeriph_Driver/src/stm32f30x_tim.c ****   * @param  TIMx: where x can be 1, 2, 3, 4, 5 or 8 to select the TIM peripheral.
1318:../Libraries/STM32F30x_StdPeriph_Driver/src/stm32f30x_tim.c ****   * @param  Compare4: specifies the Capture Compare4 register new value.
1319:../Libraries/STM32F30x_StdPeriph_Driver/src/stm32f30x_tim.c ****   * @retval None
1320:../Libraries/STM32F30x_StdPeriph_Driver/src/stm32f30x_tim.c ****   */
1321:../Libraries/STM32F30x_StdPeriph_Driver/src/stm32f30x_tim.c **** void TIM_SetCompare4(TIM_TypeDef* TIMx, uint32_t Compare4)
1322:../Libraries/STM32F30x_StdPeriph_Driver/src/stm32f30x_tim.c **** {
 2101              		.loc 1 1322 0
 2102              		.cfi_startproc
 2103              		@ args = 0, pretend = 0, frame = 8
 2104              		@ frame_needed = 0, uses_anonymous_args = 0
 2105              		@ link register save eliminated.
 2106 0c34 82B0     		sub	sp, sp, #8
 2107              	.LCFI31:
 2108              		.cfi_def_cfa_offset 8
 2109 0c36 0190     		str	r0, [sp, #4]
 2110 0c38 0091     		str	r1, [sp, #0]
1323:../Libraries/STM32F30x_StdPeriph_Driver/src/stm32f30x_tim.c ****   /* Check the parameters */
1324:../Libraries/STM32F30x_StdPeriph_Driver/src/stm32f30x_tim.c ****   assert_param(IS_TIM_LIST3_PERIPH(TIMx));
1325:../Libraries/STM32F30x_StdPeriph_Driver/src/stm32f30x_tim.c **** 
1326:../Libraries/STM32F30x_StdPeriph_Driver/src/stm32f30x_tim.c ****   /* Set the Capture Compare4 Register value */
1327:../Libraries/STM32F30x_StdPeriph_Driver/src/stm32f30x_tim.c ****   TIMx->CCR4 = Compare4;
 2111              		.loc 1 1327 0
 2112 0c3a 019B     		ldr	r3, [sp, #4]
 2113 0c3c 009A     		ldr	r2, [sp, #0]
 2114 0c3e 1A64     		str	r2, [r3, #64]
1328:../Libraries/STM32F30x_StdPeriph_Driver/src/stm32f30x_tim.c **** }
 2115              		.loc 1 1328 0
 2116 0c40 02B0     		add	sp, sp, #8
 2117 0c42 7047     		bx	lr
 2118              		.cfi_endproc
 2119              	.LFE141:
 2121              		.align	2
 2122              		.global	TIM_SetCompare5
 2123              		.thumb
 2124              		.thumb_func
 2126              	TIM_SetCompare5:
 2127              	.LFB142:
1329:../Libraries/STM32F30x_StdPeriph_Driver/src/stm32f30x_tim.c **** 
1330:../Libraries/STM32F30x_StdPeriph_Driver/src/stm32f30x_tim.c **** /**
1331:../Libraries/STM32F30x_StdPeriph_Driver/src/stm32f30x_tim.c ****   * @brief  Sets the TIMx Capture Compare5 Register value
1332:../Libraries/STM32F30x_StdPeriph_Driver/src/stm32f30x_tim.c ****   * @param  TIMx: where x can be 1 or 8 to select the TIM peripheral.
1333:../Libraries/STM32F30x_StdPeriph_Driver/src/stm32f30x_tim.c ****   * @param  Compare5: specifies the Capture Compare5 register new value.
1334:../Libraries/STM32F30x_StdPeriph_Driver/src/stm32f30x_tim.c ****   * @retval None
1335:../Libraries/STM32F30x_StdPeriph_Driver/src/stm32f30x_tim.c ****   */
1336:../Libraries/STM32F30x_StdPeriph_Driver/src/stm32f30x_tim.c **** void TIM_SetCompare5(TIM_TypeDef* TIMx, uint32_t Compare5)
1337:../Libraries/STM32F30x_StdPeriph_Driver/src/stm32f30x_tim.c **** {
 2128              		.loc 1 1337 0
 2129              		.cfi_startproc
 2130              		@ args = 0, pretend = 0, frame = 8
 2131              		@ frame_needed = 0, uses_anonymous_args = 0
 2132              		@ link register save eliminated.
 2133 0c44 82B0     		sub	sp, sp, #8
 2134              	.LCFI32:
 2135              		.cfi_def_cfa_offset 8
 2136 0c46 0190     		str	r0, [sp, #4]
 2137 0c48 0091     		str	r1, [sp, #0]
1338:../Libraries/STM32F30x_StdPeriph_Driver/src/stm32f30x_tim.c ****   /* Check the parameters */
1339:../Libraries/STM32F30x_StdPeriph_Driver/src/stm32f30x_tim.c ****   assert_param(IS_TIM_LIST4_PERIPH(TIMx));
1340:../Libraries/STM32F30x_StdPeriph_Driver/src/stm32f30x_tim.c **** 
1341:../Libraries/STM32F30x_StdPeriph_Driver/src/stm32f30x_tim.c ****   /* Set the Capture Compare5 Register value */
1342:../Libraries/STM32F30x_StdPeriph_Driver/src/stm32f30x_tim.c ****   TIMx->CCR5 = Compare5;
 2138              		.loc 1 1342 0
 2139 0c4a 019B     		ldr	r3, [sp, #4]
 2140 0c4c 009A     		ldr	r2, [sp, #0]
 2141 0c4e 9A65     		str	r2, [r3, #88]
1343:../Libraries/STM32F30x_StdPeriph_Driver/src/stm32f30x_tim.c **** }
 2142              		.loc 1 1343 0
 2143 0c50 02B0     		add	sp, sp, #8
 2144 0c52 7047     		bx	lr
 2145              		.cfi_endproc
 2146              	.LFE142:
 2148              		.align	2
 2149              		.global	TIM_SetCompare6
 2150              		.thumb
 2151              		.thumb_func
 2153              	TIM_SetCompare6:
 2154              	.LFB143:
1344:../Libraries/STM32F30x_StdPeriph_Driver/src/stm32f30x_tim.c **** 
1345:../Libraries/STM32F30x_StdPeriph_Driver/src/stm32f30x_tim.c **** /**
1346:../Libraries/STM32F30x_StdPeriph_Driver/src/stm32f30x_tim.c ****   * @brief  Sets the TIMx Capture Compare6 Register value
1347:../Libraries/STM32F30x_StdPeriph_Driver/src/stm32f30x_tim.c ****   * @param  TIMx: where x can be 1 or 8 to select the TIM peripheral.
1348:../Libraries/STM32F30x_StdPeriph_Driver/src/stm32f30x_tim.c ****   * @param  Compare6: specifies the Capture Compare5 register new value.
1349:../Libraries/STM32F30x_StdPeriph_Driver/src/stm32f30x_tim.c ****   * @retval None
1350:../Libraries/STM32F30x_StdPeriph_Driver/src/stm32f30x_tim.c ****   */
1351:../Libraries/STM32F30x_StdPeriph_Driver/src/stm32f30x_tim.c **** void TIM_SetCompare6(TIM_TypeDef* TIMx, uint32_t Compare6)
1352:../Libraries/STM32F30x_StdPeriph_Driver/src/stm32f30x_tim.c **** {
 2155              		.loc 1 1352 0
 2156              		.cfi_startproc
 2157              		@ args = 0, pretend = 0, frame = 8
 2158              		@ frame_needed = 0, uses_anonymous_args = 0
 2159              		@ link register save eliminated.
 2160 0c54 82B0     		sub	sp, sp, #8
 2161              	.LCFI33:
 2162              		.cfi_def_cfa_offset 8
 2163 0c56 0190     		str	r0, [sp, #4]
 2164 0c58 0091     		str	r1, [sp, #0]
1353:../Libraries/STM32F30x_StdPeriph_Driver/src/stm32f30x_tim.c ****   /* Check the parameters */
1354:../Libraries/STM32F30x_StdPeriph_Driver/src/stm32f30x_tim.c ****   assert_param(IS_TIM_LIST4_PERIPH(TIMx));
1355:../Libraries/STM32F30x_StdPeriph_Driver/src/stm32f30x_tim.c **** 
1356:../Libraries/STM32F30x_StdPeriph_Driver/src/stm32f30x_tim.c ****   /* Set the Capture Compare6 Register value */
1357:../Libraries/STM32F30x_StdPeriph_Driver/src/stm32f30x_tim.c ****   TIMx->CCR6 = Compare6;
 2165              		.loc 1 1357 0
 2166 0c5a 019B     		ldr	r3, [sp, #4]
 2167 0c5c 009A     		ldr	r2, [sp, #0]
 2168 0c5e DA65     		str	r2, [r3, #92]
1358:../Libraries/STM32F30x_StdPeriph_Driver/src/stm32f30x_tim.c **** }
 2169              		.loc 1 1358 0
 2170 0c60 02B0     		add	sp, sp, #8
 2171 0c62 7047     		bx	lr
 2172              		.cfi_endproc
 2173              	.LFE143:
 2175              		.align	2
 2176              		.global	TIM_ForcedOC1Config
 2177              		.thumb
 2178              		.thumb_func
 2180              	TIM_ForcedOC1Config:
 2181              	.LFB144:
1359:../Libraries/STM32F30x_StdPeriph_Driver/src/stm32f30x_tim.c **** 
1360:../Libraries/STM32F30x_StdPeriph_Driver/src/stm32f30x_tim.c **** /**
1361:../Libraries/STM32F30x_StdPeriph_Driver/src/stm32f30x_tim.c ****   * @brief  Forces the TIMx output 1 waveform to active or inactive level.
1362:../Libraries/STM32F30x_StdPeriph_Driver/src/stm32f30x_tim.c ****   * @param  TIMx: where x can be 1, 2, 3, 4, 8, 15, 16 or 17 to select the TIM peripheral.
1363:../Libraries/STM32F30x_StdPeriph_Driver/src/stm32f30x_tim.c ****   * @param  TIM_ForcedAction: specifies the forced Action to be set to the output waveform.
1364:../Libraries/STM32F30x_StdPeriph_Driver/src/stm32f30x_tim.c ****   *          This parameter can be one of the following values:
1365:../Libraries/STM32F30x_StdPeriph_Driver/src/stm32f30x_tim.c ****   *            @arg TIM_ForcedAction_Active: Force active level on OC1REF
1366:../Libraries/STM32F30x_StdPeriph_Driver/src/stm32f30x_tim.c ****   *            @arg TIM_ForcedAction_InActive: Force inactive level on OC1REF.
1367:../Libraries/STM32F30x_StdPeriph_Driver/src/stm32f30x_tim.c ****   * @retval None
1368:../Libraries/STM32F30x_StdPeriph_Driver/src/stm32f30x_tim.c ****   */
1369:../Libraries/STM32F30x_StdPeriph_Driver/src/stm32f30x_tim.c **** void TIM_ForcedOC1Config(TIM_TypeDef* TIMx, uint16_t TIM_ForcedAction)
1370:../Libraries/STM32F30x_StdPeriph_Driver/src/stm32f30x_tim.c **** {
 2182              		.loc 1 1370 0
 2183              		.cfi_startproc
 2184              		@ args = 0, pretend = 0, frame = 16
 2185              		@ frame_needed = 0, uses_anonymous_args = 0
 2186              		@ link register save eliminated.
 2187 0c64 84B0     		sub	sp, sp, #16
 2188              	.LCFI34:
 2189              		.cfi_def_cfa_offset 16
 2190 0c66 0190     		str	r0, [sp, #4]
 2191 0c68 0B46     		mov	r3, r1
 2192 0c6a ADF80230 		strh	r3, [sp, #2]	@ movhi
1371:../Libraries/STM32F30x_StdPeriph_Driver/src/stm32f30x_tim.c ****   uint32_t tmpccmr1 = 0;
 2193              		.loc 1 1371 0
 2194 0c6e 4FF00003 		mov	r3, #0
 2195 0c72 0393     		str	r3, [sp, #12]
1372:../Libraries/STM32F30x_StdPeriph_Driver/src/stm32f30x_tim.c **** 
1373:../Libraries/STM32F30x_StdPeriph_Driver/src/stm32f30x_tim.c ****   /* Check the parameters */
1374:../Libraries/STM32F30x_StdPeriph_Driver/src/stm32f30x_tim.c ****   assert_param(IS_TIM_LIST1_PERIPH(TIMx));
1375:../Libraries/STM32F30x_StdPeriph_Driver/src/stm32f30x_tim.c ****   assert_param(IS_TIM_FORCED_ACTION(TIM_ForcedAction));
1376:../Libraries/STM32F30x_StdPeriph_Driver/src/stm32f30x_tim.c ****   tmpccmr1 = TIMx->CCMR1;
 2196              		.loc 1 1376 0
 2197 0c74 019B     		ldr	r3, [sp, #4]
 2198 0c76 9B69     		ldr	r3, [r3, #24]
 2199 0c78 0393     		str	r3, [sp, #12]
1377:../Libraries/STM32F30x_StdPeriph_Driver/src/stm32f30x_tim.c **** 
1378:../Libraries/STM32F30x_StdPeriph_Driver/src/stm32f30x_tim.c ****   /* Reset the OC1M Bits */
1379:../Libraries/STM32F30x_StdPeriph_Driver/src/stm32f30x_tim.c ****   tmpccmr1 &= (uint32_t)~TIM_CCMR1_OC1M;
 2200              		.loc 1 1379 0
 2201 0c7a 039B     		ldr	r3, [sp, #12]
 2202 0c7c 23F48033 		bic	r3, r3, #65536
 2203 0c80 23F07003 		bic	r3, r3, #112
 2204 0c84 0393     		str	r3, [sp, #12]
1380:../Libraries/STM32F30x_StdPeriph_Driver/src/stm32f30x_tim.c **** 
1381:../Libraries/STM32F30x_StdPeriph_Driver/src/stm32f30x_tim.c ****   /* Configure The Forced output Mode */
1382:../Libraries/STM32F30x_StdPeriph_Driver/src/stm32f30x_tim.c ****   tmpccmr1 |= TIM_ForcedAction;
 2205              		.loc 1 1382 0
 2206 0c86 BDF80230 		ldrh	r3, [sp, #2]
 2207 0c8a 039A     		ldr	r2, [sp, #12]
 2208 0c8c 1343     		orrs	r3, r3, r2
 2209 0c8e 0393     		str	r3, [sp, #12]
1383:../Libraries/STM32F30x_StdPeriph_Driver/src/stm32f30x_tim.c **** 
1384:../Libraries/STM32F30x_StdPeriph_Driver/src/stm32f30x_tim.c ****   /* Write to TIMx CCMR1 register */
1385:../Libraries/STM32F30x_StdPeriph_Driver/src/stm32f30x_tim.c ****   TIMx->CCMR1 = tmpccmr1;
 2210              		.loc 1 1385 0
 2211 0c90 019B     		ldr	r3, [sp, #4]
 2212 0c92 039A     		ldr	r2, [sp, #12]
 2213 0c94 9A61     		str	r2, [r3, #24]
1386:../Libraries/STM32F30x_StdPeriph_Driver/src/stm32f30x_tim.c **** }
 2214              		.loc 1 1386 0
 2215 0c96 04B0     		add	sp, sp, #16
 2216 0c98 7047     		bx	lr
 2217              		.cfi_endproc
 2218              	.LFE144:
 2220 0c9a 00BF     		.align	2
 2221              		.global	TIM_ForcedOC2Config
 2222              		.thumb
 2223              		.thumb_func
 2225              	TIM_ForcedOC2Config:
 2226              	.LFB145:
1387:../Libraries/STM32F30x_StdPeriph_Driver/src/stm32f30x_tim.c **** 
1388:../Libraries/STM32F30x_StdPeriph_Driver/src/stm32f30x_tim.c **** /**
1389:../Libraries/STM32F30x_StdPeriph_Driver/src/stm32f30x_tim.c ****   * @brief  Forces the TIMx output 2 waveform to active or inactive level.
1390:../Libraries/STM32F30x_StdPeriph_Driver/src/stm32f30x_tim.c ****   * @param  TIMx: where x can be   1, 2, 3, 4, 8 or 15 to select the TIM 
1391:../Libraries/STM32F30x_StdPeriph_Driver/src/stm32f30x_tim.c ****   *         peripheral.
1392:../Libraries/STM32F30x_StdPeriph_Driver/src/stm32f30x_tim.c ****   * @param  TIM_ForcedAction: specifies the forced Action to be set to the output waveform.
1393:../Libraries/STM32F30x_StdPeriph_Driver/src/stm32f30x_tim.c ****   *          This parameter can be one of the following values:
1394:../Libraries/STM32F30x_StdPeriph_Driver/src/stm32f30x_tim.c ****   *            @arg TIM_ForcedAction_Active: Force active level on OC2REF
1395:../Libraries/STM32F30x_StdPeriph_Driver/src/stm32f30x_tim.c ****   *            @arg TIM_ForcedAction_InActive: Force inactive level on OC2REF.
1396:../Libraries/STM32F30x_StdPeriph_Driver/src/stm32f30x_tim.c ****   * @retval None
1397:../Libraries/STM32F30x_StdPeriph_Driver/src/stm32f30x_tim.c ****   */
1398:../Libraries/STM32F30x_StdPeriph_Driver/src/stm32f30x_tim.c **** void TIM_ForcedOC2Config(TIM_TypeDef* TIMx, uint16_t TIM_ForcedAction)
1399:../Libraries/STM32F30x_StdPeriph_Driver/src/stm32f30x_tim.c **** {
 2227              		.loc 1 1399 0
 2228              		.cfi_startproc
 2229              		@ args = 0, pretend = 0, frame = 16
 2230              		@ frame_needed = 0, uses_anonymous_args = 0
 2231              		@ link register save eliminated.
 2232 0c9c 84B0     		sub	sp, sp, #16
 2233              	.LCFI35:
 2234              		.cfi_def_cfa_offset 16
 2235 0c9e 0190     		str	r0, [sp, #4]
 2236 0ca0 0B46     		mov	r3, r1
 2237 0ca2 ADF80230 		strh	r3, [sp, #2]	@ movhi
1400:../Libraries/STM32F30x_StdPeriph_Driver/src/stm32f30x_tim.c ****   uint32_t tmpccmr1 = 0;
 2238              		.loc 1 1400 0
 2239 0ca6 4FF00003 		mov	r3, #0
 2240 0caa 0393     		str	r3, [sp, #12]
1401:../Libraries/STM32F30x_StdPeriph_Driver/src/stm32f30x_tim.c **** 
1402:../Libraries/STM32F30x_StdPeriph_Driver/src/stm32f30x_tim.c ****   /* Check the parameters */
1403:../Libraries/STM32F30x_StdPeriph_Driver/src/stm32f30x_tim.c ****   assert_param(IS_TIM_LIST2_PERIPH(TIMx));
1404:../Libraries/STM32F30x_StdPeriph_Driver/src/stm32f30x_tim.c ****   assert_param(IS_TIM_FORCED_ACTION(TIM_ForcedAction));
1405:../Libraries/STM32F30x_StdPeriph_Driver/src/stm32f30x_tim.c ****   tmpccmr1 = TIMx->CCMR1;
 2241              		.loc 1 1405 0
 2242 0cac 019B     		ldr	r3, [sp, #4]
 2243 0cae 9B69     		ldr	r3, [r3, #24]
 2244 0cb0 0393     		str	r3, [sp, #12]
1406:../Libraries/STM32F30x_StdPeriph_Driver/src/stm32f30x_tim.c **** 
1407:../Libraries/STM32F30x_StdPeriph_Driver/src/stm32f30x_tim.c ****   /* Reset the OC2M Bits */
1408:../Libraries/STM32F30x_StdPeriph_Driver/src/stm32f30x_tim.c ****   tmpccmr1 &= (uint32_t)~TIM_CCMR1_OC2M;
 2245              		.loc 1 1408 0
 2246 0cb2 039B     		ldr	r3, [sp, #12]
 2247 0cb4 23F08073 		bic	r3, r3, #16777216
 2248 0cb8 23F4E043 		bic	r3, r3, #28672
 2249 0cbc 0393     		str	r3, [sp, #12]
1409:../Libraries/STM32F30x_StdPeriph_Driver/src/stm32f30x_tim.c **** 
1410:../Libraries/STM32F30x_StdPeriph_Driver/src/stm32f30x_tim.c ****   /* Configure The Forced output Mode */
1411:../Libraries/STM32F30x_StdPeriph_Driver/src/stm32f30x_tim.c ****   tmpccmr1 |= ((uint32_t)TIM_ForcedAction << 8);
 2250              		.loc 1 1411 0
 2251 0cbe BDF80230 		ldrh	r3, [sp, #2]
 2252 0cc2 4FEA0323 		lsl	r3, r3, #8
 2253 0cc6 039A     		ldr	r2, [sp, #12]
 2254 0cc8 1343     		orrs	r3, r3, r2
 2255 0cca 0393     		str	r3, [sp, #12]
1412:../Libraries/STM32F30x_StdPeriph_Driver/src/stm32f30x_tim.c **** 
1413:../Libraries/STM32F30x_StdPeriph_Driver/src/stm32f30x_tim.c ****   /* Write to TIMx CCMR1 register */
1414:../Libraries/STM32F30x_StdPeriph_Driver/src/stm32f30x_tim.c ****   TIMx->CCMR1 = tmpccmr1;
 2256              		.loc 1 1414 0
 2257 0ccc 019B     		ldr	r3, [sp, #4]
 2258 0cce 039A     		ldr	r2, [sp, #12]
 2259 0cd0 9A61     		str	r2, [r3, #24]
1415:../Libraries/STM32F30x_StdPeriph_Driver/src/stm32f30x_tim.c **** }
 2260              		.loc 1 1415 0
 2261 0cd2 04B0     		add	sp, sp, #16
 2262 0cd4 7047     		bx	lr
 2263              		.cfi_endproc
 2264              	.LFE145:
 2266 0cd6 00BF     		.align	2
 2267              		.global	TIM_ForcedOC3Config
 2268              		.thumb
 2269              		.thumb_func
 2271              	TIM_ForcedOC3Config:
 2272              	.LFB146:
1416:../Libraries/STM32F30x_StdPeriph_Driver/src/stm32f30x_tim.c **** 
1417:../Libraries/STM32F30x_StdPeriph_Driver/src/stm32f30x_tim.c **** /**
1418:../Libraries/STM32F30x_StdPeriph_Driver/src/stm32f30x_tim.c ****   * @brief  Forces the TIMx output 3 waveform to active or inactive level.
1419:../Libraries/STM32F30x_StdPeriph_Driver/src/stm32f30x_tim.c ****   * @param  TIMx: where x can be  1, 2, 3, 4 or 8 to select the TIM peripheral.
1420:../Libraries/STM32F30x_StdPeriph_Driver/src/stm32f30x_tim.c ****   * @param  TIM_ForcedAction: specifies the forced Action to be set to the output waveform.
1421:../Libraries/STM32F30x_StdPeriph_Driver/src/stm32f30x_tim.c ****   *          This parameter can be one of the following values:
1422:../Libraries/STM32F30x_StdPeriph_Driver/src/stm32f30x_tim.c ****   *            @arg TIM_ForcedAction_Active: Force active level on OC3REF
1423:../Libraries/STM32F30x_StdPeriph_Driver/src/stm32f30x_tim.c ****   *            @arg TIM_ForcedAction_InActive: Force inactive level on OC3REF.
1424:../Libraries/STM32F30x_StdPeriph_Driver/src/stm32f30x_tim.c ****   * @retval None
1425:../Libraries/STM32F30x_StdPeriph_Driver/src/stm32f30x_tim.c ****   */
1426:../Libraries/STM32F30x_StdPeriph_Driver/src/stm32f30x_tim.c **** void TIM_ForcedOC3Config(TIM_TypeDef* TIMx, uint16_t TIM_ForcedAction)
1427:../Libraries/STM32F30x_StdPeriph_Driver/src/stm32f30x_tim.c **** {
 2273              		.loc 1 1427 0
 2274              		.cfi_startproc
 2275              		@ args = 0, pretend = 0, frame = 16
 2276              		@ frame_needed = 0, uses_anonymous_args = 0
 2277              		@ link register save eliminated.
 2278 0cd8 84B0     		sub	sp, sp, #16
 2279              	.LCFI36:
 2280              		.cfi_def_cfa_offset 16
 2281 0cda 0190     		str	r0, [sp, #4]
 2282 0cdc 0B46     		mov	r3, r1
 2283 0cde ADF80230 		strh	r3, [sp, #2]	@ movhi
1428:../Libraries/STM32F30x_StdPeriph_Driver/src/stm32f30x_tim.c ****   uint32_t tmpccmr2 = 0;
 2284              		.loc 1 1428 0
 2285 0ce2 4FF00003 		mov	r3, #0
 2286 0ce6 0393     		str	r3, [sp, #12]
1429:../Libraries/STM32F30x_StdPeriph_Driver/src/stm32f30x_tim.c **** 
1430:../Libraries/STM32F30x_StdPeriph_Driver/src/stm32f30x_tim.c ****   /* Check the parameters */
1431:../Libraries/STM32F30x_StdPeriph_Driver/src/stm32f30x_tim.c ****   assert_param(IS_TIM_LIST3_PERIPH(TIMx));
1432:../Libraries/STM32F30x_StdPeriph_Driver/src/stm32f30x_tim.c ****   assert_param(IS_TIM_FORCED_ACTION(TIM_ForcedAction));
1433:../Libraries/STM32F30x_StdPeriph_Driver/src/stm32f30x_tim.c **** 
1434:../Libraries/STM32F30x_StdPeriph_Driver/src/stm32f30x_tim.c ****   tmpccmr2 = TIMx->CCMR2;
 2287              		.loc 1 1434 0
 2288 0ce8 019B     		ldr	r3, [sp, #4]
 2289 0cea DB69     		ldr	r3, [r3, #28]
 2290 0cec 0393     		str	r3, [sp, #12]
1435:../Libraries/STM32F30x_StdPeriph_Driver/src/stm32f30x_tim.c **** 
1436:../Libraries/STM32F30x_StdPeriph_Driver/src/stm32f30x_tim.c ****   /* Reset the OC1M Bits */
1437:../Libraries/STM32F30x_StdPeriph_Driver/src/stm32f30x_tim.c ****   tmpccmr2 &= (uint32_t)~TIM_CCMR2_OC3M;
 2291              		.loc 1 1437 0
 2292 0cee 039B     		ldr	r3, [sp, #12]
 2293 0cf0 23F07003 		bic	r3, r3, #112
 2294 0cf4 0393     		str	r3, [sp, #12]
1438:../Libraries/STM32F30x_StdPeriph_Driver/src/stm32f30x_tim.c **** 
1439:../Libraries/STM32F30x_StdPeriph_Driver/src/stm32f30x_tim.c ****   /* Configure The Forced output Mode */
1440:../Libraries/STM32F30x_StdPeriph_Driver/src/stm32f30x_tim.c ****   tmpccmr2 |= TIM_ForcedAction;
 2295              		.loc 1 1440 0
 2296 0cf6 BDF80230 		ldrh	r3, [sp, #2]
 2297 0cfa 039A     		ldr	r2, [sp, #12]
 2298 0cfc 1343     		orrs	r3, r3, r2
 2299 0cfe 0393     		str	r3, [sp, #12]
1441:../Libraries/STM32F30x_StdPeriph_Driver/src/stm32f30x_tim.c **** 
1442:../Libraries/STM32F30x_StdPeriph_Driver/src/stm32f30x_tim.c ****   /* Write to TIMx CCMR2 register */
1443:../Libraries/STM32F30x_StdPeriph_Driver/src/stm32f30x_tim.c ****   TIMx->CCMR2 = tmpccmr2;
 2300              		.loc 1 1443 0
 2301 0d00 019B     		ldr	r3, [sp, #4]
 2302 0d02 039A     		ldr	r2, [sp, #12]
 2303 0d04 DA61     		str	r2, [r3, #28]
1444:../Libraries/STM32F30x_StdPeriph_Driver/src/stm32f30x_tim.c **** }
 2304              		.loc 1 1444 0
 2305 0d06 04B0     		add	sp, sp, #16
 2306 0d08 7047     		bx	lr
 2307              		.cfi_endproc
 2308              	.LFE146:
 2310 0d0a 00BF     		.align	2
 2311              		.global	TIM_ForcedOC4Config
 2312              		.thumb
 2313              		.thumb_func
 2315              	TIM_ForcedOC4Config:
 2316              	.LFB147:
1445:../Libraries/STM32F30x_StdPeriph_Driver/src/stm32f30x_tim.c **** 
1446:../Libraries/STM32F30x_StdPeriph_Driver/src/stm32f30x_tim.c **** /**
1447:../Libraries/STM32F30x_StdPeriph_Driver/src/stm32f30x_tim.c ****   * @brief  Forces the TIMx output 4 waveform to active or inactive level.
1448:../Libraries/STM32F30x_StdPeriph_Driver/src/stm32f30x_tim.c ****   * @param  TIMx: where x can be  1, 2, 3, 4 or 8 to select the TIM peripheral.
1449:../Libraries/STM32F30x_StdPeriph_Driver/src/stm32f30x_tim.c ****   * @param  TIM_ForcedAction: specifies the forced Action to be set to the output waveform.
1450:../Libraries/STM32F30x_StdPeriph_Driver/src/stm32f30x_tim.c ****   *          This parameter can be one of the following values:
1451:../Libraries/STM32F30x_StdPeriph_Driver/src/stm32f30x_tim.c ****   *            @arg TIM_ForcedAction_Active: Force active level on OC4REF
1452:../Libraries/STM32F30x_StdPeriph_Driver/src/stm32f30x_tim.c ****   *            @arg TIM_ForcedAction_InActive: Force inactive level on OC4REF.
1453:../Libraries/STM32F30x_StdPeriph_Driver/src/stm32f30x_tim.c ****   * @retval None
1454:../Libraries/STM32F30x_StdPeriph_Driver/src/stm32f30x_tim.c ****   */
1455:../Libraries/STM32F30x_StdPeriph_Driver/src/stm32f30x_tim.c **** void TIM_ForcedOC4Config(TIM_TypeDef* TIMx, uint16_t TIM_ForcedAction)
1456:../Libraries/STM32F30x_StdPeriph_Driver/src/stm32f30x_tim.c **** {
 2317              		.loc 1 1456 0
 2318              		.cfi_startproc
 2319              		@ args = 0, pretend = 0, frame = 16
 2320              		@ frame_needed = 0, uses_anonymous_args = 0
 2321              		@ link register save eliminated.
 2322 0d0c 84B0     		sub	sp, sp, #16
 2323              	.LCFI37:
 2324              		.cfi_def_cfa_offset 16
 2325 0d0e 0190     		str	r0, [sp, #4]
 2326 0d10 0B46     		mov	r3, r1
 2327 0d12 ADF80230 		strh	r3, [sp, #2]	@ movhi
1457:../Libraries/STM32F30x_StdPeriph_Driver/src/stm32f30x_tim.c ****   uint32_t tmpccmr2 = 0;
 2328              		.loc 1 1457 0
 2329 0d16 4FF00003 		mov	r3, #0
 2330 0d1a 0393     		str	r3, [sp, #12]
1458:../Libraries/STM32F30x_StdPeriph_Driver/src/stm32f30x_tim.c **** 
1459:../Libraries/STM32F30x_StdPeriph_Driver/src/stm32f30x_tim.c ****   /* Check the parameters */
1460:../Libraries/STM32F30x_StdPeriph_Driver/src/stm32f30x_tim.c ****   assert_param(IS_TIM_LIST3_PERIPH(TIMx));
1461:../Libraries/STM32F30x_StdPeriph_Driver/src/stm32f30x_tim.c ****   assert_param(IS_TIM_FORCED_ACTION(TIM_ForcedAction));
1462:../Libraries/STM32F30x_StdPeriph_Driver/src/stm32f30x_tim.c ****   tmpccmr2 = TIMx->CCMR2;
 2331              		.loc 1 1462 0
 2332 0d1c 019B     		ldr	r3, [sp, #4]
 2333 0d1e DB69     		ldr	r3, [r3, #28]
 2334 0d20 0393     		str	r3, [sp, #12]
1463:../Libraries/STM32F30x_StdPeriph_Driver/src/stm32f30x_tim.c **** 
1464:../Libraries/STM32F30x_StdPeriph_Driver/src/stm32f30x_tim.c ****   /* Reset the OC2M Bits */
1465:../Libraries/STM32F30x_StdPeriph_Driver/src/stm32f30x_tim.c ****   tmpccmr2 &= (uint32_t)~TIM_CCMR2_OC4M;
 2335              		.loc 1 1465 0
 2336 0d22 039B     		ldr	r3, [sp, #12]
 2337 0d24 23F4E043 		bic	r3, r3, #28672
 2338 0d28 0393     		str	r3, [sp, #12]
1466:../Libraries/STM32F30x_StdPeriph_Driver/src/stm32f30x_tim.c **** 
1467:../Libraries/STM32F30x_StdPeriph_Driver/src/stm32f30x_tim.c ****   /* Configure The Forced output Mode */
1468:../Libraries/STM32F30x_StdPeriph_Driver/src/stm32f30x_tim.c ****   tmpccmr2 |= ((uint32_t)TIM_ForcedAction << 8);
 2339              		.loc 1 1468 0
 2340 0d2a BDF80230 		ldrh	r3, [sp, #2]
 2341 0d2e 4FEA0323 		lsl	r3, r3, #8
 2342 0d32 039A     		ldr	r2, [sp, #12]
 2343 0d34 1343     		orrs	r3, r3, r2
 2344 0d36 0393     		str	r3, [sp, #12]
1469:../Libraries/STM32F30x_StdPeriph_Driver/src/stm32f30x_tim.c **** 
1470:../Libraries/STM32F30x_StdPeriph_Driver/src/stm32f30x_tim.c ****   /* Write to TIMx CCMR2 register */
1471:../Libraries/STM32F30x_StdPeriph_Driver/src/stm32f30x_tim.c ****   TIMx->CCMR2 = tmpccmr2;
 2345              		.loc 1 1471 0
 2346 0d38 019B     		ldr	r3, [sp, #4]
 2347 0d3a 039A     		ldr	r2, [sp, #12]
 2348 0d3c DA61     		str	r2, [r3, #28]
1472:../Libraries/STM32F30x_StdPeriph_Driver/src/stm32f30x_tim.c **** }
 2349              		.loc 1 1472 0
 2350 0d3e 04B0     		add	sp, sp, #16
 2351 0d40 7047     		bx	lr
 2352              		.cfi_endproc
 2353              	.LFE147:
 2355 0d42 00BF     		.align	2
 2356              		.global	TIM_ForcedOC5Config
 2357              		.thumb
 2358              		.thumb_func
 2360              	TIM_ForcedOC5Config:
 2361              	.LFB148:
1473:../Libraries/STM32F30x_StdPeriph_Driver/src/stm32f30x_tim.c **** 
1474:../Libraries/STM32F30x_StdPeriph_Driver/src/stm32f30x_tim.c **** /**
1475:../Libraries/STM32F30x_StdPeriph_Driver/src/stm32f30x_tim.c ****   * @brief  Forces the TIMx output 5 waveform to active or inactive level.
1476:../Libraries/STM32F30x_StdPeriph_Driver/src/stm32f30x_tim.c ****   * @param  TIMx: where x can be  1 or 8 to select the TIM peripheral.
1477:../Libraries/STM32F30x_StdPeriph_Driver/src/stm32f30x_tim.c ****   * @param  TIM_ForcedAction: specifies the forced Action to be set to the output waveform.
1478:../Libraries/STM32F30x_StdPeriph_Driver/src/stm32f30x_tim.c ****   *          This parameter can be one of the following values:
1479:../Libraries/STM32F30x_StdPeriph_Driver/src/stm32f30x_tim.c ****   *            @arg TIM_ForcedAction_Active: Force active level on OC5REF
1480:../Libraries/STM32F30x_StdPeriph_Driver/src/stm32f30x_tim.c ****   *            @arg TIM_ForcedAction_InActive: Force inactive level on OC5REF.
1481:../Libraries/STM32F30x_StdPeriph_Driver/src/stm32f30x_tim.c ****   * @retval None
1482:../Libraries/STM32F30x_StdPeriph_Driver/src/stm32f30x_tim.c ****   */
1483:../Libraries/STM32F30x_StdPeriph_Driver/src/stm32f30x_tim.c **** void TIM_ForcedOC5Config(TIM_TypeDef* TIMx, uint16_t TIM_ForcedAction)
1484:../Libraries/STM32F30x_StdPeriph_Driver/src/stm32f30x_tim.c **** {
 2362              		.loc 1 1484 0
 2363              		.cfi_startproc
 2364              		@ args = 0, pretend = 0, frame = 16
 2365              		@ frame_needed = 0, uses_anonymous_args = 0
 2366              		@ link register save eliminated.
 2367 0d44 84B0     		sub	sp, sp, #16
 2368              	.LCFI38:
 2369              		.cfi_def_cfa_offset 16
 2370 0d46 0190     		str	r0, [sp, #4]
 2371 0d48 0B46     		mov	r3, r1
 2372 0d4a ADF80230 		strh	r3, [sp, #2]	@ movhi
1485:../Libraries/STM32F30x_StdPeriph_Driver/src/stm32f30x_tim.c ****   uint32_t tmpccmr3 = 0;
 2373              		.loc 1 1485 0
 2374 0d4e 4FF00003 		mov	r3, #0
 2375 0d52 0393     		str	r3, [sp, #12]
1486:../Libraries/STM32F30x_StdPeriph_Driver/src/stm32f30x_tim.c **** 
1487:../Libraries/STM32F30x_StdPeriph_Driver/src/stm32f30x_tim.c ****   /* Check the parameters */
1488:../Libraries/STM32F30x_StdPeriph_Driver/src/stm32f30x_tim.c ****   assert_param(IS_TIM_LIST4_PERIPH(TIMx));
1489:../Libraries/STM32F30x_StdPeriph_Driver/src/stm32f30x_tim.c ****   assert_param(IS_TIM_FORCED_ACTION(TIM_ForcedAction));
1490:../Libraries/STM32F30x_StdPeriph_Driver/src/stm32f30x_tim.c ****   tmpccmr3 = TIMx->CCMR3;
 2376              		.loc 1 1490 0
 2377 0d54 019B     		ldr	r3, [sp, #4]
 2378 0d56 5B6D     		ldr	r3, [r3, #84]
 2379 0d58 0393     		str	r3, [sp, #12]
1491:../Libraries/STM32F30x_StdPeriph_Driver/src/stm32f30x_tim.c **** 
1492:../Libraries/STM32F30x_StdPeriph_Driver/src/stm32f30x_tim.c ****   /* Reset the OC5M Bits */
1493:../Libraries/STM32F30x_StdPeriph_Driver/src/stm32f30x_tim.c ****   tmpccmr3 &= (uint32_t)~TIM_CCMR3_OC5M;
 2380              		.loc 1 1493 0
 2381 0d5a 039B     		ldr	r3, [sp, #12]
 2382 0d5c 23F07003 		bic	r3, r3, #112
 2383 0d60 0393     		str	r3, [sp, #12]
1494:../Libraries/STM32F30x_StdPeriph_Driver/src/stm32f30x_tim.c **** 
1495:../Libraries/STM32F30x_StdPeriph_Driver/src/stm32f30x_tim.c ****   /* Configure The Forced output Mode */
1496:../Libraries/STM32F30x_StdPeriph_Driver/src/stm32f30x_tim.c ****   tmpccmr3 |= (uint32_t)(TIM_ForcedAction);
 2384              		.loc 1 1496 0
 2385 0d62 BDF80230 		ldrh	r3, [sp, #2]
 2386 0d66 039A     		ldr	r2, [sp, #12]
 2387 0d68 1343     		orrs	r3, r3, r2
 2388 0d6a 0393     		str	r3, [sp, #12]
1497:../Libraries/STM32F30x_StdPeriph_Driver/src/stm32f30x_tim.c **** 
1498:../Libraries/STM32F30x_StdPeriph_Driver/src/stm32f30x_tim.c ****   /* Write to TIMx CCMR3 register */
1499:../Libraries/STM32F30x_StdPeriph_Driver/src/stm32f30x_tim.c ****   TIMx->CCMR3 = tmpccmr3;
 2389              		.loc 1 1499 0
 2390 0d6c 019B     		ldr	r3, [sp, #4]
 2391 0d6e 039A     		ldr	r2, [sp, #12]
 2392 0d70 5A65     		str	r2, [r3, #84]
1500:../Libraries/STM32F30x_StdPeriph_Driver/src/stm32f30x_tim.c **** }
 2393              		.loc 1 1500 0
 2394 0d72 04B0     		add	sp, sp, #16
 2395 0d74 7047     		bx	lr
 2396              		.cfi_endproc
 2397              	.LFE148:
 2399 0d76 00BF     		.align	2
 2400              		.global	TIM_ForcedOC6Config
 2401              		.thumb
 2402              		.thumb_func
 2404              	TIM_ForcedOC6Config:
 2405              	.LFB149:
1501:../Libraries/STM32F30x_StdPeriph_Driver/src/stm32f30x_tim.c **** 
1502:../Libraries/STM32F30x_StdPeriph_Driver/src/stm32f30x_tim.c **** /**
1503:../Libraries/STM32F30x_StdPeriph_Driver/src/stm32f30x_tim.c ****   * @brief  Forces the TIMx output 6 waveform to active or inactive level.
1504:../Libraries/STM32F30x_StdPeriph_Driver/src/stm32f30x_tim.c ****   * @param  TIMx: where x can be 1 or 8 to select the TIM peripheral.
1505:../Libraries/STM32F30x_StdPeriph_Driver/src/stm32f30x_tim.c ****   * @param  TIM_ForcedAction: specifies the forced Action to be set to the output waveform.
1506:../Libraries/STM32F30x_StdPeriph_Driver/src/stm32f30x_tim.c ****   *          This parameter can be one of the following values:
1507:../Libraries/STM32F30x_StdPeriph_Driver/src/stm32f30x_tim.c ****   *            @arg TIM_ForcedAction_Active: Force active level on OC5REF
1508:../Libraries/STM32F30x_StdPeriph_Driver/src/stm32f30x_tim.c ****   *            @arg TIM_ForcedAction_InActive: Force inactive level on OC5REF.
1509:../Libraries/STM32F30x_StdPeriph_Driver/src/stm32f30x_tim.c ****   * @retval None
1510:../Libraries/STM32F30x_StdPeriph_Driver/src/stm32f30x_tim.c ****   */
1511:../Libraries/STM32F30x_StdPeriph_Driver/src/stm32f30x_tim.c **** void TIM_ForcedOC6Config(TIM_TypeDef* TIMx, uint16_t TIM_ForcedAction)
1512:../Libraries/STM32F30x_StdPeriph_Driver/src/stm32f30x_tim.c **** {
 2406              		.loc 1 1512 0
 2407              		.cfi_startproc
 2408              		@ args = 0, pretend = 0, frame = 16
 2409              		@ frame_needed = 0, uses_anonymous_args = 0
 2410              		@ link register save eliminated.
 2411 0d78 84B0     		sub	sp, sp, #16
 2412              	.LCFI39:
 2413              		.cfi_def_cfa_offset 16
 2414 0d7a 0190     		str	r0, [sp, #4]
 2415 0d7c 0B46     		mov	r3, r1
 2416 0d7e ADF80230 		strh	r3, [sp, #2]	@ movhi
1513:../Libraries/STM32F30x_StdPeriph_Driver/src/stm32f30x_tim.c ****   uint32_t tmpccmr3 = 0;
 2417              		.loc 1 1513 0
 2418 0d82 4FF00003 		mov	r3, #0
 2419 0d86 0393     		str	r3, [sp, #12]
1514:../Libraries/STM32F30x_StdPeriph_Driver/src/stm32f30x_tim.c **** 
1515:../Libraries/STM32F30x_StdPeriph_Driver/src/stm32f30x_tim.c ****   /* Check the parameters */
1516:../Libraries/STM32F30x_StdPeriph_Driver/src/stm32f30x_tim.c ****   assert_param(IS_TIM_LIST4_PERIPH(TIMx));
1517:../Libraries/STM32F30x_StdPeriph_Driver/src/stm32f30x_tim.c ****   assert_param(IS_TIM_FORCED_ACTION(TIM_ForcedAction));
1518:../Libraries/STM32F30x_StdPeriph_Driver/src/stm32f30x_tim.c ****   tmpccmr3 = TIMx->CCMR3;
 2420              		.loc 1 1518 0
 2421 0d88 019B     		ldr	r3, [sp, #4]
 2422 0d8a 5B6D     		ldr	r3, [r3, #84]
 2423 0d8c 0393     		str	r3, [sp, #12]
1519:../Libraries/STM32F30x_StdPeriph_Driver/src/stm32f30x_tim.c **** 
1520:../Libraries/STM32F30x_StdPeriph_Driver/src/stm32f30x_tim.c ****   /* Reset the OC6M Bits */
1521:../Libraries/STM32F30x_StdPeriph_Driver/src/stm32f30x_tim.c ****   tmpccmr3 &= (uint32_t)~TIM_CCMR3_OC6M;
 2424              		.loc 1 1521 0
 2425 0d8e 039B     		ldr	r3, [sp, #12]
 2426 0d90 23F4E043 		bic	r3, r3, #28672
 2427 0d94 0393     		str	r3, [sp, #12]
1522:../Libraries/STM32F30x_StdPeriph_Driver/src/stm32f30x_tim.c **** 
1523:../Libraries/STM32F30x_StdPeriph_Driver/src/stm32f30x_tim.c ****   /* Configure The Forced output Mode */
1524:../Libraries/STM32F30x_StdPeriph_Driver/src/stm32f30x_tim.c ****   tmpccmr3 |= ((uint32_t)TIM_ForcedAction << 8);
 2428              		.loc 1 1524 0
 2429 0d96 BDF80230 		ldrh	r3, [sp, #2]
 2430 0d9a 4FEA0323 		lsl	r3, r3, #8
 2431 0d9e 039A     		ldr	r2, [sp, #12]
 2432 0da0 1343     		orrs	r3, r3, r2
 2433 0da2 0393     		str	r3, [sp, #12]
1525:../Libraries/STM32F30x_StdPeriph_Driver/src/stm32f30x_tim.c **** 
1526:../Libraries/STM32F30x_StdPeriph_Driver/src/stm32f30x_tim.c ****   /* Write to TIMx CCMR3 register */
1527:../Libraries/STM32F30x_StdPeriph_Driver/src/stm32f30x_tim.c ****   TIMx->CCMR3 = tmpccmr3;
 2434              		.loc 1 1527 0
 2435 0da4 019B     		ldr	r3, [sp, #4]
 2436 0da6 039A     		ldr	r2, [sp, #12]
 2437 0da8 5A65     		str	r2, [r3, #84]
1528:../Libraries/STM32F30x_StdPeriph_Driver/src/stm32f30x_tim.c **** }
 2438              		.loc 1 1528 0
 2439 0daa 04B0     		add	sp, sp, #16
 2440 0dac 7047     		bx	lr
 2441              		.cfi_endproc
 2442              	.LFE149:
 2444 0dae 00BF     		.align	2
 2445              		.global	TIM_OC1PreloadConfig
 2446              		.thumb
 2447              		.thumb_func
 2449              	TIM_OC1PreloadConfig:
 2450              	.LFB150:
1529:../Libraries/STM32F30x_StdPeriph_Driver/src/stm32f30x_tim.c **** 
1530:../Libraries/STM32F30x_StdPeriph_Driver/src/stm32f30x_tim.c **** /**
