   1              		.syntax unified
   2              		.cpu cortex-m4
   3              		.eabi_attribute 27, 3
   4              		.fpu fpv4-sp-d16
   5              		.eabi_attribute 20, 1
   6              		.eabi_attribute 21, 1
   7              		.eabi_attribute 23, 3
   8              		.eabi_attribute 24, 1
   9              		.eabi_attribute 25, 1
  10              		.eabi_attribute 26, 1
  11              		.eabi_attribute 30, 6
  12              		.eabi_attribute 34, 1
  13              		.eabi_attribute 18, 4
  14              		.thumb
  15              		.file	"stm32f30x_syscfg.c"
  16              		.text
  17              	.Ltext0:
  18              		.cfi_sections	.debug_frame
  19              		.align	2
  20              		.global	SYSCFG_DeInit
  21              		.thumb
  22              		.thumb_func
  24              	SYSCFG_DeInit:
  25              	.LFB111:
  26              		.file 1 "../Libraries/STM32F30x_StdPeriph_Driver/src/stm32f30x_syscfg.c"
   1:../Libraries/STM32F30x_StdPeriph_Driver/src/stm32f30x_syscfg.c **** /**
   2:../Libraries/STM32F30x_StdPeriph_Driver/src/stm32f30x_syscfg.c ****   ******************************************************************************
   3:../Libraries/STM32F30x_StdPeriph_Driver/src/stm32f30x_syscfg.c ****   * @file    stm32f30x_syscfg.c
   4:../Libraries/STM32F30x_StdPeriph_Driver/src/stm32f30x_syscfg.c ****   * @author  MCD Application Team
   5:../Libraries/STM32F30x_StdPeriph_Driver/src/stm32f30x_syscfg.c ****   * @version V1.0.1
   6:../Libraries/STM32F30x_StdPeriph_Driver/src/stm32f30x_syscfg.c ****   * @date    23-October-2012
   7:../Libraries/STM32F30x_StdPeriph_Driver/src/stm32f30x_syscfg.c ****   * @brief   This file provides firmware functions to manage the following 
   8:../Libraries/STM32F30x_StdPeriph_Driver/src/stm32f30x_syscfg.c ****   *          functionalities of the SYSCFG peripheral:
   9:../Libraries/STM32F30x_StdPeriph_Driver/src/stm32f30x_syscfg.c ****   *           + Remapping the memory mapped at 0x00000000  
  10:../Libraries/STM32F30x_StdPeriph_Driver/src/stm32f30x_syscfg.c ****   *           + Remapping the DMA channels
  11:../Libraries/STM32F30x_StdPeriph_Driver/src/stm32f30x_syscfg.c ****   *           + Enabling I2C fast mode plus driving capability for I2C plus
  12:../Libraries/STM32F30x_StdPeriph_Driver/src/stm32f30x_syscfg.c ****   *           + Remapping USB interrupt line    
  13:../Libraries/STM32F30x_StdPeriph_Driver/src/stm32f30x_syscfg.c ****   *           + Configuring the EXTI lines connection to the GPIO port
  14:../Libraries/STM32F30x_StdPeriph_Driver/src/stm32f30x_syscfg.c ****   *           + Configuring the CLASSB requirements
  15:../Libraries/STM32F30x_StdPeriph_Driver/src/stm32f30x_syscfg.c ****   *   
  16:../Libraries/STM32F30x_StdPeriph_Driver/src/stm32f30x_syscfg.c ****   @verbatim
  17:../Libraries/STM32F30x_StdPeriph_Driver/src/stm32f30x_syscfg.c ****   
  18:../Libraries/STM32F30x_StdPeriph_Driver/src/stm32f30x_syscfg.c ****  ===============================================================================
  19:../Libraries/STM32F30x_StdPeriph_Driver/src/stm32f30x_syscfg.c ****                       ##### How to use this driver #####
  20:../Libraries/STM32F30x_StdPeriph_Driver/src/stm32f30x_syscfg.c ****  ===============================================================================
  21:../Libraries/STM32F30x_StdPeriph_Driver/src/stm32f30x_syscfg.c ****     [..] The SYSCFG registers can be accessed only when the SYSCFG 
  22:../Libraries/STM32F30x_StdPeriph_Driver/src/stm32f30x_syscfg.c ****          interface APB clock is enabled.
  23:../Libraries/STM32F30x_StdPeriph_Driver/src/stm32f30x_syscfg.c ****     [..] To enable SYSCFG APB clock use:
  24:../Libraries/STM32F30x_StdPeriph_Driver/src/stm32f30x_syscfg.c ****          RCC_APBPeriphClockCmd(RCC_APBPeriph_SYSCFG, ENABLE);
  25:../Libraries/STM32F30x_StdPeriph_Driver/src/stm32f30x_syscfg.c ****   
  26:../Libraries/STM32F30x_StdPeriph_Driver/src/stm32f30x_syscfg.c ****   @endverbatim
  27:../Libraries/STM32F30x_StdPeriph_Driver/src/stm32f30x_syscfg.c ****   
  28:../Libraries/STM32F30x_StdPeriph_Driver/src/stm32f30x_syscfg.c ****   ******************************************************************************
  29:../Libraries/STM32F30x_StdPeriph_Driver/src/stm32f30x_syscfg.c ****   * @attention
  30:../Libraries/STM32F30x_StdPeriph_Driver/src/stm32f30x_syscfg.c ****   *
  31:../Libraries/STM32F30x_StdPeriph_Driver/src/stm32f30x_syscfg.c ****   * <h2><center>&copy; COPYRIGHT 2012 STMicroelectronics</center></h2>
  32:../Libraries/STM32F30x_StdPeriph_Driver/src/stm32f30x_syscfg.c ****   *
  33:../Libraries/STM32F30x_StdPeriph_Driver/src/stm32f30x_syscfg.c ****   * Licensed under MCD-ST Liberty SW License Agreement V2, (the "License");
  34:../Libraries/STM32F30x_StdPeriph_Driver/src/stm32f30x_syscfg.c ****   * You may not use this file except in compliance with the License.
  35:../Libraries/STM32F30x_StdPeriph_Driver/src/stm32f30x_syscfg.c ****   * You may obtain a copy of the License at:
  36:../Libraries/STM32F30x_StdPeriph_Driver/src/stm32f30x_syscfg.c ****   *
  37:../Libraries/STM32F30x_StdPeriph_Driver/src/stm32f30x_syscfg.c ****   *        http://www.st.com/software_license_agreement_liberty_v2
  38:../Libraries/STM32F30x_StdPeriph_Driver/src/stm32f30x_syscfg.c ****   *
  39:../Libraries/STM32F30x_StdPeriph_Driver/src/stm32f30x_syscfg.c ****   * Unless required by applicable law or agreed to in writing, software 
  40:../Libraries/STM32F30x_StdPeriph_Driver/src/stm32f30x_syscfg.c ****   * distributed under the License is distributed on an "AS IS" BASIS, 
  41:../Libraries/STM32F30x_StdPeriph_Driver/src/stm32f30x_syscfg.c ****   * WITHOUT WARRANTIES OR CONDITIONS OF ANY KIND, either express or implied.
  42:../Libraries/STM32F30x_StdPeriph_Driver/src/stm32f30x_syscfg.c ****   * See the License for the specific language governing permissions and
  43:../Libraries/STM32F30x_StdPeriph_Driver/src/stm32f30x_syscfg.c ****   * limitations under the License.
  44:../Libraries/STM32F30x_StdPeriph_Driver/src/stm32f30x_syscfg.c ****   *
  45:../Libraries/STM32F30x_StdPeriph_Driver/src/stm32f30x_syscfg.c ****   ******************************************************************************
  46:../Libraries/STM32F30x_StdPeriph_Driver/src/stm32f30x_syscfg.c ****   */
  47:../Libraries/STM32F30x_StdPeriph_Driver/src/stm32f30x_syscfg.c **** 
  48:../Libraries/STM32F30x_StdPeriph_Driver/src/stm32f30x_syscfg.c **** /* Includes ------------------------------------------------------------------*/
  49:../Libraries/STM32F30x_StdPeriph_Driver/src/stm32f30x_syscfg.c **** #include "stm32f30x_syscfg.h"
  50:../Libraries/STM32F30x_StdPeriph_Driver/src/stm32f30x_syscfg.c **** 
  51:../Libraries/STM32F30x_StdPeriph_Driver/src/stm32f30x_syscfg.c **** /** @addtogroup STM32F30x_StdPeriph_Driver
  52:../Libraries/STM32F30x_StdPeriph_Driver/src/stm32f30x_syscfg.c ****   * @{
  53:../Libraries/STM32F30x_StdPeriph_Driver/src/stm32f30x_syscfg.c ****   */
  54:../Libraries/STM32F30x_StdPeriph_Driver/src/stm32f30x_syscfg.c **** 
  55:../Libraries/STM32F30x_StdPeriph_Driver/src/stm32f30x_syscfg.c **** /** @defgroup SYSCFG 
  56:../Libraries/STM32F30x_StdPeriph_Driver/src/stm32f30x_syscfg.c ****   * @brief SYSCFG driver modules
  57:../Libraries/STM32F30x_StdPeriph_Driver/src/stm32f30x_syscfg.c ****   * @{
  58:../Libraries/STM32F30x_StdPeriph_Driver/src/stm32f30x_syscfg.c ****   */ 
  59:../Libraries/STM32F30x_StdPeriph_Driver/src/stm32f30x_syscfg.c **** 
  60:../Libraries/STM32F30x_StdPeriph_Driver/src/stm32f30x_syscfg.c **** /* Private typedef -----------------------------------------------------------*/
  61:../Libraries/STM32F30x_StdPeriph_Driver/src/stm32f30x_syscfg.c **** /* Private define ------------------------------------------------------------*/
  62:../Libraries/STM32F30x_StdPeriph_Driver/src/stm32f30x_syscfg.c **** /* Reset value od SYSCFG_CFGR1 register */
  63:../Libraries/STM32F30x_StdPeriph_Driver/src/stm32f30x_syscfg.c **** #define CFGR1_CLEAR_MASK            ((uint32_t)0x7C000000)
  64:../Libraries/STM32F30x_StdPeriph_Driver/src/stm32f30x_syscfg.c **** 
  65:../Libraries/STM32F30x_StdPeriph_Driver/src/stm32f30x_syscfg.c **** /* ------------ SYSCFG registers bit address in the alias region -------------*/
  66:../Libraries/STM32F30x_StdPeriph_Driver/src/stm32f30x_syscfg.c **** #define SYSCFG_OFFSET                (SYSCFG_BASE - PERIPH_BASE)
  67:../Libraries/STM32F30x_StdPeriph_Driver/src/stm32f30x_syscfg.c **** 
  68:../Libraries/STM32F30x_StdPeriph_Driver/src/stm32f30x_syscfg.c **** /* --- CFGR1 Register ---*/
  69:../Libraries/STM32F30x_StdPeriph_Driver/src/stm32f30x_syscfg.c **** /* Alias word address of USB_IT_RMP bit */
  70:../Libraries/STM32F30x_StdPeriph_Driver/src/stm32f30x_syscfg.c **** #define CFGR1_OFFSET                 (SYSCFG_OFFSET + 0x00)
  71:../Libraries/STM32F30x_StdPeriph_Driver/src/stm32f30x_syscfg.c **** #define USBITRMP_BitNumber            0x05
  72:../Libraries/STM32F30x_StdPeriph_Driver/src/stm32f30x_syscfg.c **** #define CFGR1_USBITRMP_BB            (PERIPH_BB_BASE + (CFGR1_OFFSET * 32) + (USBITRMP_BitNumber * 
  73:../Libraries/STM32F30x_StdPeriph_Driver/src/stm32f30x_syscfg.c **** 
  74:../Libraries/STM32F30x_StdPeriph_Driver/src/stm32f30x_syscfg.c **** /* --- CFGR2 Register ---*/
  75:../Libraries/STM32F30x_StdPeriph_Driver/src/stm32f30x_syscfg.c **** /* Alias word address of BYP_ADDR_PAR bit */
  76:../Libraries/STM32F30x_StdPeriph_Driver/src/stm32f30x_syscfg.c **** #define CFGR2_OFFSET                 (SYSCFG_OFFSET + 0x18)
  77:../Libraries/STM32F30x_StdPeriph_Driver/src/stm32f30x_syscfg.c **** #define BYPADDRPAR_BitNumber          0x04
  78:../Libraries/STM32F30x_StdPeriph_Driver/src/stm32f30x_syscfg.c **** #define CFGR1_BYPADDRPAR_BB          (PERIPH_BB_BASE + (CFGR2_OFFSET * 32) + (BYPADDRPAR_BitNumber 
  79:../Libraries/STM32F30x_StdPeriph_Driver/src/stm32f30x_syscfg.c **** 
  80:../Libraries/STM32F30x_StdPeriph_Driver/src/stm32f30x_syscfg.c **** /* Private macro -------------------------------------------------------------*/
  81:../Libraries/STM32F30x_StdPeriph_Driver/src/stm32f30x_syscfg.c **** /* Private variables ---------------------------------------------------------*/
  82:../Libraries/STM32F30x_StdPeriph_Driver/src/stm32f30x_syscfg.c **** /* Private function prototypes -----------------------------------------------*/
  83:../Libraries/STM32F30x_StdPeriph_Driver/src/stm32f30x_syscfg.c **** /* Private functions ---------------------------------------------------------*/
  84:../Libraries/STM32F30x_StdPeriph_Driver/src/stm32f30x_syscfg.c **** 
  85:../Libraries/STM32F30x_StdPeriph_Driver/src/stm32f30x_syscfg.c **** /** @defgroup SYSCFG_Private_Functions
  86:../Libraries/STM32F30x_StdPeriph_Driver/src/stm32f30x_syscfg.c ****   * @{
  87:../Libraries/STM32F30x_StdPeriph_Driver/src/stm32f30x_syscfg.c ****   */ 
  88:../Libraries/STM32F30x_StdPeriph_Driver/src/stm32f30x_syscfg.c **** 
  89:../Libraries/STM32F30x_StdPeriph_Driver/src/stm32f30x_syscfg.c **** /** @defgroup SYSCFG_Group1 SYSCFG Initialization and Configuration functions
  90:../Libraries/STM32F30x_StdPeriph_Driver/src/stm32f30x_syscfg.c ****  *  @brief   SYSCFG Initialization and Configuration functions 
  91:../Libraries/STM32F30x_StdPeriph_Driver/src/stm32f30x_syscfg.c ****  *
  92:../Libraries/STM32F30x_StdPeriph_Driver/src/stm32f30x_syscfg.c **** @verbatim
  93:../Libraries/STM32F30x_StdPeriph_Driver/src/stm32f30x_syscfg.c ****  ===============================================================================
  94:../Libraries/STM32F30x_StdPeriph_Driver/src/stm32f30x_syscfg.c ****          ##### SYSCFG Initialization and Configuration functions #####
  95:../Libraries/STM32F30x_StdPeriph_Driver/src/stm32f30x_syscfg.c ****  ===============================================================================
  96:../Libraries/STM32F30x_StdPeriph_Driver/src/stm32f30x_syscfg.c **** 
  97:../Libraries/STM32F30x_StdPeriph_Driver/src/stm32f30x_syscfg.c **** @endverbatim
  98:../Libraries/STM32F30x_StdPeriph_Driver/src/stm32f30x_syscfg.c ****   * @{
  99:../Libraries/STM32F30x_StdPeriph_Driver/src/stm32f30x_syscfg.c ****   */
 100:../Libraries/STM32F30x_StdPeriph_Driver/src/stm32f30x_syscfg.c **** 
 101:../Libraries/STM32F30x_StdPeriph_Driver/src/stm32f30x_syscfg.c **** /**
 102:../Libraries/STM32F30x_StdPeriph_Driver/src/stm32f30x_syscfg.c ****   * @brief  Deinitializes the SYSCFG registers to their default reset values.
 103:../Libraries/STM32F30x_StdPeriph_Driver/src/stm32f30x_syscfg.c ****   * @param  None
 104:../Libraries/STM32F30x_StdPeriph_Driver/src/stm32f30x_syscfg.c ****   * @retval None
 105:../Libraries/STM32F30x_StdPeriph_Driver/src/stm32f30x_syscfg.c ****   * @note   MEM_MODE bits are not affected by APB reset.
 106:../Libraries/STM32F30x_StdPeriph_Driver/src/stm32f30x_syscfg.c ****   *         MEM_MODE bits took the value from the user option bytes.
 107:../Libraries/STM32F30x_StdPeriph_Driver/src/stm32f30x_syscfg.c ****   */
 108:../Libraries/STM32F30x_StdPeriph_Driver/src/stm32f30x_syscfg.c **** void SYSCFG_DeInit(void)
 109:../Libraries/STM32F30x_StdPeriph_Driver/src/stm32f30x_syscfg.c **** {
  27              		.loc 1 109 0
  28              		.cfi_startproc
  29              		@ args = 0, pretend = 0, frame = 0
  30              		@ frame_needed = 0, uses_anonymous_args = 0
  31              		@ link register save eliminated.
 110:../Libraries/STM32F30x_StdPeriph_Driver/src/stm32f30x_syscfg.c ****   /* Reset SYSCFG_CFGR1 register to reset value without affecting MEM_MODE bits */
 111:../Libraries/STM32F30x_StdPeriph_Driver/src/stm32f30x_syscfg.c ****   SYSCFG->CFGR1 &= SYSCFG_CFGR1_MEM_MODE;
  32              		.loc 1 111 0
  33 0000 4FF00003 		mov	r3, #0
  34 0004 C4F20103 		movt	r3, 16385
  35 0008 4FF00002 		mov	r2, #0
  36 000c C4F20102 		movt	r2, 16385
  37 0010 1268     		ldr	r2, [r2, #0]
  38 0012 02F00302 		and	r2, r2, #3
  39 0016 1A60     		str	r2, [r3, #0]
 112:../Libraries/STM32F30x_StdPeriph_Driver/src/stm32f30x_syscfg.c ****   /* Set FPU Interrupt Enable bits to default value */
 113:../Libraries/STM32F30x_StdPeriph_Driver/src/stm32f30x_syscfg.c ****   SYSCFG->CFGR1 |= 0x7C000000;
  40              		.loc 1 113 0
  41 0018 4FF00003 		mov	r3, #0
  42 001c C4F20103 		movt	r3, 16385
  43 0020 4FF00002 		mov	r2, #0
  44 0024 C4F20102 		movt	r2, 16385
  45 0028 1268     		ldr	r2, [r2, #0]
  46 002a 42F0F842 		orr	r2, r2, #2080374784
  47 002e 1A60     		str	r2, [r3, #0]
 114:../Libraries/STM32F30x_StdPeriph_Driver/src/stm32f30x_syscfg.c ****   /* Reset RAM Write protection bits to default value */
 115:../Libraries/STM32F30x_StdPeriph_Driver/src/stm32f30x_syscfg.c ****   SYSCFG->RCR = 0x00000000;
  48              		.loc 1 115 0
  49 0030 4FF00003 		mov	r3, #0
  50 0034 C4F20103 		movt	r3, 16385
  51 0038 4FF00002 		mov	r2, #0
  52 003c 5A60     		str	r2, [r3, #4]
 116:../Libraries/STM32F30x_StdPeriph_Driver/src/stm32f30x_syscfg.c ****   /* Set EXTICRx registers to reset value */
 117:../Libraries/STM32F30x_StdPeriph_Driver/src/stm32f30x_syscfg.c ****   SYSCFG->EXTICR[0] = 0;
  53              		.loc 1 117 0
  54 003e 4FF00003 		mov	r3, #0
  55 0042 C4F20103 		movt	r3, 16385
  56 0046 4FF00002 		mov	r2, #0
  57 004a 9A60     		str	r2, [r3, #8]
 118:../Libraries/STM32F30x_StdPeriph_Driver/src/stm32f30x_syscfg.c ****   SYSCFG->EXTICR[1] = 0;
  58              		.loc 1 118 0
  59 004c 4FF00003 		mov	r3, #0
  60 0050 C4F20103 		movt	r3, 16385
  61 0054 4FF00002 		mov	r2, #0
  62 0058 DA60     		str	r2, [r3, #12]
 119:../Libraries/STM32F30x_StdPeriph_Driver/src/stm32f30x_syscfg.c ****   SYSCFG->EXTICR[2] = 0;
  63              		.loc 1 119 0
  64 005a 4FF00003 		mov	r3, #0
  65 005e C4F20103 		movt	r3, 16385
  66 0062 4FF00002 		mov	r2, #0
  67 0066 1A61     		str	r2, [r3, #16]
 120:../Libraries/STM32F30x_StdPeriph_Driver/src/stm32f30x_syscfg.c ****   SYSCFG->EXTICR[3] = 0;
  68              		.loc 1 120 0
  69 0068 4FF00003 		mov	r3, #0
  70 006c C4F20103 		movt	r3, 16385
  71 0070 4FF00002 		mov	r2, #0
  72 0074 5A61     		str	r2, [r3, #20]
 121:../Libraries/STM32F30x_StdPeriph_Driver/src/stm32f30x_syscfg.c ****   /* Set CFGR2 register to reset value */
 122:../Libraries/STM32F30x_StdPeriph_Driver/src/stm32f30x_syscfg.c ****   SYSCFG->CFGR2 = 0;
  73              		.loc 1 122 0
  74 0076 4FF00003 		mov	r3, #0
  75 007a C4F20103 		movt	r3, 16385
  76 007e 4FF00002 		mov	r2, #0
  77 0082 9A61     		str	r2, [r3, #24]
 123:../Libraries/STM32F30x_StdPeriph_Driver/src/stm32f30x_syscfg.c **** }
  78              		.loc 1 123 0
  79 0084 7047     		bx	lr
  80              		.cfi_endproc
  81              	.LFE111:
  83 0086 00BF     		.align	2
  84              		.global	SYSCFG_MemoryRemapConfig
  85              		.thumb
  86              		.thumb_func
  88              	SYSCFG_MemoryRemapConfig:
  89              	.LFB112:
 124:../Libraries/STM32F30x_StdPeriph_Driver/src/stm32f30x_syscfg.c **** 
 125:../Libraries/STM32F30x_StdPeriph_Driver/src/stm32f30x_syscfg.c **** /**
 126:../Libraries/STM32F30x_StdPeriph_Driver/src/stm32f30x_syscfg.c ****   * @brief  Configures the memory mapping at address 0x00000000.
 127:../Libraries/STM32F30x_StdPeriph_Driver/src/stm32f30x_syscfg.c ****   * @param  SYSCFG_MemoryRemap: selects the memory remapping.
 128:../Libraries/STM32F30x_StdPeriph_Driver/src/stm32f30x_syscfg.c ****   *   This parameter can be one of the following values:
 129:../Libraries/STM32F30x_StdPeriph_Driver/src/stm32f30x_syscfg.c ****   *     @arg SYSCFG_MemoryRemap_Flash: Main Flash memory mapped at 0x00000000  
 130:../Libraries/STM32F30x_StdPeriph_Driver/src/stm32f30x_syscfg.c ****   *     @arg SYSCFG_MemoryRemap_SystemMemory: System Flash memory mapped at 0x00000000
 131:../Libraries/STM32F30x_StdPeriph_Driver/src/stm32f30x_syscfg.c ****   *     @arg SYSCFG_MemoryRemap_SRAM: Embedded SRAM mapped at 0x00000000
 132:../Libraries/STM32F30x_StdPeriph_Driver/src/stm32f30x_syscfg.c ****   * @retval None
 133:../Libraries/STM32F30x_StdPeriph_Driver/src/stm32f30x_syscfg.c ****   */
 134:../Libraries/STM32F30x_StdPeriph_Driver/src/stm32f30x_syscfg.c **** void SYSCFG_MemoryRemapConfig(uint32_t SYSCFG_MemoryRemap)
 135:../Libraries/STM32F30x_StdPeriph_Driver/src/stm32f30x_syscfg.c **** {
  90              		.loc 1 135 0
  91              		.cfi_startproc
  92              		@ args = 0, pretend = 0, frame = 16
  93              		@ frame_needed = 0, uses_anonymous_args = 0
  94              		@ link register save eliminated.
  95 0088 84B0     		sub	sp, sp, #16
  96              	.LCFI0:
  97              		.cfi_def_cfa_offset 16
  98 008a 0190     		str	r0, [sp, #4]
 136:../Libraries/STM32F30x_StdPeriph_Driver/src/stm32f30x_syscfg.c ****   uint32_t tmpcfgr1 = 0;
  99              		.loc 1 136 0
 100 008c 4FF00003 		mov	r3, #0
 101 0090 0393     		str	r3, [sp, #12]
 137:../Libraries/STM32F30x_StdPeriph_Driver/src/stm32f30x_syscfg.c **** 
 138:../Libraries/STM32F30x_StdPeriph_Driver/src/stm32f30x_syscfg.c ****   /* Check the parameter */
 139:../Libraries/STM32F30x_StdPeriph_Driver/src/stm32f30x_syscfg.c ****   assert_param(IS_SYSCFG_MEMORY_REMAP(SYSCFG_MemoryRemap));
 140:../Libraries/STM32F30x_StdPeriph_Driver/src/stm32f30x_syscfg.c **** 
 141:../Libraries/STM32F30x_StdPeriph_Driver/src/stm32f30x_syscfg.c ****   /* Get CFGR1 register value */
 142:../Libraries/STM32F30x_StdPeriph_Driver/src/stm32f30x_syscfg.c ****   tmpcfgr1 = SYSCFG->CFGR1;
 102              		.loc 1 142 0
 103 0092 4FF00003 		mov	r3, #0
 104 0096 C4F20103 		movt	r3, 16385
 105 009a 1B68     		ldr	r3, [r3, #0]
 106 009c 0393     		str	r3, [sp, #12]
 143:../Libraries/STM32F30x_StdPeriph_Driver/src/stm32f30x_syscfg.c **** 
 144:../Libraries/STM32F30x_StdPeriph_Driver/src/stm32f30x_syscfg.c ****   /* Clear MEM_MODE bits */
 145:../Libraries/STM32F30x_StdPeriph_Driver/src/stm32f30x_syscfg.c ****   tmpcfgr1 &= (uint32_t) (~SYSCFG_CFGR1_MEM_MODE);
 107              		.loc 1 145 0
 108 009e 039B     		ldr	r3, [sp, #12]
 109 00a0 23F00303 		bic	r3, r3, #3
 110 00a4 0393     		str	r3, [sp, #12]
 146:../Libraries/STM32F30x_StdPeriph_Driver/src/stm32f30x_syscfg.c **** 
 147:../Libraries/STM32F30x_StdPeriph_Driver/src/stm32f30x_syscfg.c ****   /* Set the new MEM_MODE bits value */
 148:../Libraries/STM32F30x_StdPeriph_Driver/src/stm32f30x_syscfg.c ****   tmpcfgr1 |= (uint32_t) SYSCFG_MemoryRemap;
 111              		.loc 1 148 0
 112 00a6 039A     		ldr	r2, [sp, #12]
 113 00a8 019B     		ldr	r3, [sp, #4]
 114 00aa 1343     		orrs	r3, r3, r2
 115 00ac 0393     		str	r3, [sp, #12]
 149:../Libraries/STM32F30x_StdPeriph_Driver/src/stm32f30x_syscfg.c **** 
 150:../Libraries/STM32F30x_StdPeriph_Driver/src/stm32f30x_syscfg.c ****   /* Set CFGR1 register with the new memory remap configuration */
 151:../Libraries/STM32F30x_StdPeriph_Driver/src/stm32f30x_syscfg.c ****   SYSCFG->CFGR1 = tmpcfgr1;
 116              		.loc 1 151 0
 117 00ae 4FF00003 		mov	r3, #0
 118 00b2 C4F20103 		movt	r3, 16385
 119 00b6 039A     		ldr	r2, [sp, #12]
 120 00b8 1A60     		str	r2, [r3, #0]
 152:../Libraries/STM32F30x_StdPeriph_Driver/src/stm32f30x_syscfg.c **** }
 121              		.loc 1 152 0
 122 00ba 04B0     		add	sp, sp, #16
 123 00bc 7047     		bx	lr
 124              		.cfi_endproc
 125              	.LFE112:
 127 00be 00BF     		.align	2
 128              		.global	SYSCFG_DMAChannelRemapConfig
 129              		.thumb
 130              		.thumb_func
 132              	SYSCFG_DMAChannelRemapConfig:
 133              	.LFB113:
 153:../Libraries/STM32F30x_StdPeriph_Driver/src/stm32f30x_syscfg.c **** 
 154:../Libraries/STM32F30x_StdPeriph_Driver/src/stm32f30x_syscfg.c **** /**
 155:../Libraries/STM32F30x_StdPeriph_Driver/src/stm32f30x_syscfg.c ****   * @brief  Configures the DMA channels remapping.
 156:../Libraries/STM32F30x_StdPeriph_Driver/src/stm32f30x_syscfg.c ****   * @param  SYSCFG_DMARemap: selects the DMA channels remap.
 157:../Libraries/STM32F30x_StdPeriph_Driver/src/stm32f30x_syscfg.c ****   *   This parameter can be one of the following values:
 158:../Libraries/STM32F30x_StdPeriph_Driver/src/stm32f30x_syscfg.c ****   *     @arg SYSCFG_DMARemap_TIM17: Remap TIM17 DMA requests from DMA1 channel1 to channel2
 159:../Libraries/STM32F30x_StdPeriph_Driver/src/stm32f30x_syscfg.c ****   *     @arg SYSCFG_DMARemap_TIM16: Remap TIM16 DMA requests from DMA1 channel3 to channel4
 160:../Libraries/STM32F30x_StdPeriph_Driver/src/stm32f30x_syscfg.c ****   *     @arg SYSCFG_DMARemap_TIM6DAC1: Remap TIM6/DAC1 DMA requests from DMA2 channel 3 to DMA1 cha
 161:../Libraries/STM32F30x_StdPeriph_Driver/src/stm32f30x_syscfg.c ****   *     @arg SYSCFG_DMARemap_TIM7DAC2: Remap TIM7/DAC2 DMA requests from DMA2 channel 4 to DMA1 cha
 162:../Libraries/STM32F30x_StdPeriph_Driver/src/stm32f30x_syscfg.c ****   *     @arg SYSCFG_DMARemap_ADC2ADC4: Remap ADC2 and ADC4 DMA requests from DMA2 channel1/channel3
 163:../Libraries/STM32F30x_StdPeriph_Driver/src/stm32f30x_syscfg.c ****   * @param  NewState: new state of the DMA channel remapping. 
 164:../Libraries/STM32F30x_StdPeriph_Driver/src/stm32f30x_syscfg.c ****   *         This parameter can be: Enable or Disable.
 165:../Libraries/STM32F30x_StdPeriph_Driver/src/stm32f30x_syscfg.c ****   * @note   When enabled, DMA channel of the selected peripheral is remapped
 166:../Libraries/STM32F30x_StdPeriph_Driver/src/stm32f30x_syscfg.c ****   * @note   When disabled, Default DMA channel is mapped to the selected peripheral
 167:../Libraries/STM32F30x_StdPeriph_Driver/src/stm32f30x_syscfg.c ****   * @note
 168:../Libraries/STM32F30x_StdPeriph_Driver/src/stm32f30x_syscfg.c ****   *           By default TIM17 DMA requests is mapped to channel 1
 169:../Libraries/STM32F30x_StdPeriph_Driver/src/stm32f30x_syscfg.c ****   *           use SYSCFG_DMAChannelRemapConfig(SYSCFG_DMARemap_TIM17, Enable)
 170:../Libraries/STM32F30x_StdPeriph_Driver/src/stm32f30x_syscfg.c ****   *           to remap TIM17 DMA requests to DMA1 channel 2
 171:../Libraries/STM32F30x_StdPeriph_Driver/src/stm32f30x_syscfg.c ****   *           use SYSCFG_DMAChannelRemapConfig(SYSCFG_DMARemap_TIM17, Disable)
 172:../Libraries/STM32F30x_StdPeriph_Driver/src/stm32f30x_syscfg.c ****   *           to map TIM17 DMA requests to DMA1 channel 1 (default mapping)
 173:../Libraries/STM32F30x_StdPeriph_Driver/src/stm32f30x_syscfg.c ****   * @retval None
 174:../Libraries/STM32F30x_StdPeriph_Driver/src/stm32f30x_syscfg.c ****   */
 175:../Libraries/STM32F30x_StdPeriph_Driver/src/stm32f30x_syscfg.c **** void SYSCFG_DMAChannelRemapConfig(uint32_t SYSCFG_DMARemap, FunctionalState NewState)
 176:../Libraries/STM32F30x_StdPeriph_Driver/src/stm32f30x_syscfg.c **** {
 134              		.loc 1 176 0
 135              		.cfi_startproc
 136              		@ args = 0, pretend = 0, frame = 8
 137              		@ frame_needed = 0, uses_anonymous_args = 0
 138              		@ link register save eliminated.
 139 00c0 82B0     		sub	sp, sp, #8
 140              	.LCFI1:
 141              		.cfi_def_cfa_offset 8
 142 00c2 0190     		str	r0, [sp, #4]
 143 00c4 0B46     		mov	r3, r1
 144 00c6 8DF80330 		strb	r3, [sp, #3]
 177:../Libraries/STM32F30x_StdPeriph_Driver/src/stm32f30x_syscfg.c ****   /* Check the parameters */
 178:../Libraries/STM32F30x_StdPeriph_Driver/src/stm32f30x_syscfg.c ****   assert_param(IS_SYSCFG_DMA_REMAP(SYSCFG_DMARemap));
 179:../Libraries/STM32F30x_StdPeriph_Driver/src/stm32f30x_syscfg.c ****   assert_param(IS_FUNCTIONAL_STATE(NewState));
 180:../Libraries/STM32F30x_StdPeriph_Driver/src/stm32f30x_syscfg.c **** 
 181:../Libraries/STM32F30x_StdPeriph_Driver/src/stm32f30x_syscfg.c ****   if (NewState != DISABLE)
 145              		.loc 1 181 0
 146 00ca 9DF80330 		ldrb	r3, [sp, #3]	@ zero_extendqisi2
 147 00ce 002B     		cmp	r3, #0
 148 00d0 0CD0     		beq	.L4
 182:../Libraries/STM32F30x_StdPeriph_Driver/src/stm32f30x_syscfg.c ****   {
 183:../Libraries/STM32F30x_StdPeriph_Driver/src/stm32f30x_syscfg.c ****     /* Remap the DMA channel */
 184:../Libraries/STM32F30x_StdPeriph_Driver/src/stm32f30x_syscfg.c ****     SYSCFG->CFGR1 |= (uint32_t)SYSCFG_DMARemap;
 149              		.loc 1 184 0
 150 00d2 4FF00003 		mov	r3, #0
 151 00d6 C4F20103 		movt	r3, 16385
 152 00da 4FF00002 		mov	r2, #0
 153 00de C4F20102 		movt	r2, 16385
 154 00e2 1168     		ldr	r1, [r2, #0]
 155 00e4 019A     		ldr	r2, [sp, #4]
 156 00e6 0A43     		orrs	r2, r2, r1
 157 00e8 1A60     		str	r2, [r3, #0]
 158 00ea 0DE0     		b	.L3
 159              	.L4:
 185:../Libraries/STM32F30x_StdPeriph_Driver/src/stm32f30x_syscfg.c ****   }
 186:../Libraries/STM32F30x_StdPeriph_Driver/src/stm32f30x_syscfg.c ****   else
 187:../Libraries/STM32F30x_StdPeriph_Driver/src/stm32f30x_syscfg.c ****   {
 188:../Libraries/STM32F30x_StdPeriph_Driver/src/stm32f30x_syscfg.c ****     /* use the default DMA channel mapping */
 189:../Libraries/STM32F30x_StdPeriph_Driver/src/stm32f30x_syscfg.c ****     SYSCFG->CFGR1 &= (uint32_t)(~SYSCFG_DMARemap);
 160              		.loc 1 189 0
 161 00ec 4FF00003 		mov	r3, #0
 162 00f0 C4F20103 		movt	r3, 16385
 163 00f4 4FF00002 		mov	r2, #0
 164 00f8 C4F20102 		movt	r2, 16385
 165 00fc 1168     		ldr	r1, [r2, #0]
 166 00fe 019A     		ldr	r2, [sp, #4]
 167 0100 6FEA0202 		mvn	r2, r2
 168 0104 0A40     		ands	r2, r2, r1
 169 0106 1A60     		str	r2, [r3, #0]
 170              	.L3:
 190:../Libraries/STM32F30x_StdPeriph_Driver/src/stm32f30x_syscfg.c ****   }
 191:../Libraries/STM32F30x_StdPeriph_Driver/src/stm32f30x_syscfg.c **** }
 171              		.loc 1 191 0
 172 0108 02B0     		add	sp, sp, #8
 173 010a 7047     		bx	lr
 174              		.cfi_endproc
 175              	.LFE113:
 177              		.align	2
 178              		.global	SYSCFG_TriggerRemapConfig
 179              		.thumb
 180              		.thumb_func
 182              	SYSCFG_TriggerRemapConfig:
 183              	.LFB114:
 192:../Libraries/STM32F30x_StdPeriph_Driver/src/stm32f30x_syscfg.c **** 
 193:../Libraries/STM32F30x_StdPeriph_Driver/src/stm32f30x_syscfg.c **** /**
 194:../Libraries/STM32F30x_StdPeriph_Driver/src/stm32f30x_syscfg.c ****   * @brief  Configures the remapping capabilities of DAC/TIM triggers.
 195:../Libraries/STM32F30x_StdPeriph_Driver/src/stm32f30x_syscfg.c ****   * @param  SYSCFG_TriggerRemap: selects the trigger to be remapped.
 196:../Libraries/STM32F30x_StdPeriph_Driver/src/stm32f30x_syscfg.c ****   *   This parameter can be one of the following values:
 197:../Libraries/STM32F30x_StdPeriph_Driver/src/stm32f30x_syscfg.c ****   *     @arg SYSCFG_TriggerRemap_DACTIM3: Remap DAC trigger from TIM8 to TIM3
 198:../Libraries/STM32F30x_StdPeriph_Driver/src/stm32f30x_syscfg.c ****   *     @arg SYSCFG_TriggerRemap_TIM1TIM17: Remap TIM1 ITR3 from TIM4 TRGO to TIM17 OC
 199:../Libraries/STM32F30x_StdPeriph_Driver/src/stm32f30x_syscfg.c ****   * @param  NewState: new state of the trigger mapping. 
 200:../Libraries/STM32F30x_StdPeriph_Driver/src/stm32f30x_syscfg.c ****   *         This parameter can be: ENABLE or DISABLE.
 201:../Libraries/STM32F30x_StdPeriph_Driver/src/stm32f30x_syscfg.c ****   * @note   ENABLE:  Enable fast mode plus driving capability for selected pin
 202:../Libraries/STM32F30x_StdPeriph_Driver/src/stm32f30x_syscfg.c ****   * @note   DISABLE: Disable fast mode plus driving capability for selected pin
 203:../Libraries/STM32F30x_StdPeriph_Driver/src/stm32f30x_syscfg.c ****   * @retval None
 204:../Libraries/STM32F30x_StdPeriph_Driver/src/stm32f30x_syscfg.c ****   */
 205:../Libraries/STM32F30x_StdPeriph_Driver/src/stm32f30x_syscfg.c **** void SYSCFG_TriggerRemapConfig(uint32_t SYSCFG_TriggerRemap, FunctionalState NewState)
 206:../Libraries/STM32F30x_StdPeriph_Driver/src/stm32f30x_syscfg.c **** {
 184              		.loc 1 206 0
 185              		.cfi_startproc
 186              		@ args = 0, pretend = 0, frame = 8
 187              		@ frame_needed = 0, uses_anonymous_args = 0
 188              		@ link register save eliminated.
 189 010c 82B0     		sub	sp, sp, #8
 190              	.LCFI2:
 191              		.cfi_def_cfa_offset 8
 192 010e 0190     		str	r0, [sp, #4]
 193 0110 0B46     		mov	r3, r1
 194 0112 8DF80330 		strb	r3, [sp, #3]
 207:../Libraries/STM32F30x_StdPeriph_Driver/src/stm32f30x_syscfg.c ****   /* Check the parameters */
 208:../Libraries/STM32F30x_StdPeriph_Driver/src/stm32f30x_syscfg.c ****   assert_param(IS_SYSCFG_TRIGGER_REMAP(SYSCFG_TriggerRemap));
 209:../Libraries/STM32F30x_StdPeriph_Driver/src/stm32f30x_syscfg.c ****   assert_param(IS_FUNCTIONAL_STATE(NewState));
 210:../Libraries/STM32F30x_StdPeriph_Driver/src/stm32f30x_syscfg.c **** 
 211:../Libraries/STM32F30x_StdPeriph_Driver/src/stm32f30x_syscfg.c ****   if (NewState != DISABLE)
 195              		.loc 1 211 0
 196 0116 9DF80330 		ldrb	r3, [sp, #3]	@ zero_extendqisi2
 197 011a 002B     		cmp	r3, #0
 198 011c 0CD0     		beq	.L7
 212:../Libraries/STM32F30x_StdPeriph_Driver/src/stm32f30x_syscfg.c ****   {
 213:../Libraries/STM32F30x_StdPeriph_Driver/src/stm32f30x_syscfg.c ****     /* Remap the trigger */
 214:../Libraries/STM32F30x_StdPeriph_Driver/src/stm32f30x_syscfg.c ****     SYSCFG->CFGR1 |= (uint32_t)SYSCFG_TriggerRemap;
 199              		.loc 1 214 0
 200 011e 4FF00003 		mov	r3, #0
 201 0122 C4F20103 		movt	r3, 16385
 202 0126 4FF00002 		mov	r2, #0
 203 012a C4F20102 		movt	r2, 16385
 204 012e 1168     		ldr	r1, [r2, #0]
 205 0130 019A     		ldr	r2, [sp, #4]
 206 0132 0A43     		orrs	r2, r2, r1
 207 0134 1A60     		str	r2, [r3, #0]
 208 0136 0DE0     		b	.L6
 209              	.L7:
 215:../Libraries/STM32F30x_StdPeriph_Driver/src/stm32f30x_syscfg.c ****   }
 216:../Libraries/STM32F30x_StdPeriph_Driver/src/stm32f30x_syscfg.c ****   else
 217:../Libraries/STM32F30x_StdPeriph_Driver/src/stm32f30x_syscfg.c ****   {
 218:../Libraries/STM32F30x_StdPeriph_Driver/src/stm32f30x_syscfg.c ****     /* Use the default trigger mapping */
 219:../Libraries/STM32F30x_StdPeriph_Driver/src/stm32f30x_syscfg.c ****     SYSCFG->CFGR1 &= (uint32_t)(~SYSCFG_TriggerRemap);
 210              		.loc 1 219 0
 211 0138 4FF00003 		mov	r3, #0
 212 013c C4F20103 		movt	r3, 16385
 213 0140 4FF00002 		mov	r2, #0
 214 0144 C4F20102 		movt	r2, 16385
 215 0148 1168     		ldr	r1, [r2, #0]
 216 014a 019A     		ldr	r2, [sp, #4]
 217 014c 6FEA0202 		mvn	r2, r2
 218 0150 0A40     		ands	r2, r2, r1
 219 0152 1A60     		str	r2, [r3, #0]
 220              	.L6:
 220:../Libraries/STM32F30x_StdPeriph_Driver/src/stm32f30x_syscfg.c ****   }
 221:../Libraries/STM32F30x_StdPeriph_Driver/src/stm32f30x_syscfg.c **** }
 221              		.loc 1 221 0
 222 0154 02B0     		add	sp, sp, #8
 223 0156 7047     		bx	lr
 224              		.cfi_endproc
 225              	.LFE114:
 227              		.align	2
 228              		.global	SYSCFG_EncoderRemapConfig
 229              		.thumb
 230              		.thumb_func
 232              	SYSCFG_EncoderRemapConfig:
 233              	.LFB115:
 222:../Libraries/STM32F30x_StdPeriph_Driver/src/stm32f30x_syscfg.c **** 
 223:../Libraries/STM32F30x_StdPeriph_Driver/src/stm32f30x_syscfg.c **** /**
 224:../Libraries/STM32F30x_StdPeriph_Driver/src/stm32f30x_syscfg.c ****   * @brief  Configures the remapping capabilities of encoder mode.
 225:../Libraries/STM32F30x_StdPeriph_Driver/src/stm32f30x_syscfg.c ****   * @ note This feature implement the so-called M/T method for measuring speed
 226:../Libraries/STM32F30x_StdPeriph_Driver/src/stm32f30x_syscfg.c ****   *        and position using quadrature encoders.  
 227:../Libraries/STM32F30x_StdPeriph_Driver/src/stm32f30x_syscfg.c ****   * @param  SYSCFG_EncoderRemap: selects the remap option for encoder mode.
 228:../Libraries/STM32F30x_StdPeriph_Driver/src/stm32f30x_syscfg.c ****   *   This parameter can be one of the following values:
 229:../Libraries/STM32F30x_StdPeriph_Driver/src/stm32f30x_syscfg.c ****   *     @arg SYSCFG_EncoderRemap_No: No remap
 230:../Libraries/STM32F30x_StdPeriph_Driver/src/stm32f30x_syscfg.c ****   *     @arg SYSCFG_EncoderRemap_TIM2: Timer 2 IC1 and IC2 connected to TIM15 IC1 and IC2
 231:../Libraries/STM32F30x_StdPeriph_Driver/src/stm32f30x_syscfg.c ****   *     @arg SYSCFG_EncoderRemap_TIM3: Timer 3 IC1 and IC2 connected to TIM15 IC1 and IC2
 232:../Libraries/STM32F30x_StdPeriph_Driver/src/stm32f30x_syscfg.c ****   *     @arg SYSCFG_EncoderRemap_TIM4: Timer 4 IC1 and IC2 connected to TIM15 IC1 and IC2
 233:../Libraries/STM32F30x_StdPeriph_Driver/src/stm32f30x_syscfg.c ****   * @retval None
 234:../Libraries/STM32F30x_StdPeriph_Driver/src/stm32f30x_syscfg.c ****   */
 235:../Libraries/STM32F30x_StdPeriph_Driver/src/stm32f30x_syscfg.c **** void SYSCFG_EncoderRemapConfig(uint32_t SYSCFG_EncoderRemap)
 236:../Libraries/STM32F30x_StdPeriph_Driver/src/stm32f30x_syscfg.c **** {
 234              		.loc 1 236 0
 235              		.cfi_startproc
 236              		@ args = 0, pretend = 0, frame = 8
 237              		@ frame_needed = 0, uses_anonymous_args = 0
 238              		@ link register save eliminated.
 239 0158 82B0     		sub	sp, sp, #8
 240              	.LCFI3:
 241              		.cfi_def_cfa_offset 8
 242 015a 0190     		str	r0, [sp, #4]
 237:../Libraries/STM32F30x_StdPeriph_Driver/src/stm32f30x_syscfg.c ****   /* Check the parameter */
 238:../Libraries/STM32F30x_StdPeriph_Driver/src/stm32f30x_syscfg.c ****   assert_param(IS_SYSCFG_ENCODER_REMAP(SYSCFG_EncoderRemap));
 239:../Libraries/STM32F30x_StdPeriph_Driver/src/stm32f30x_syscfg.c **** 
 240:../Libraries/STM32F30x_StdPeriph_Driver/src/stm32f30x_syscfg.c ****   /* Reset the encoder mode remapping bits */
 241:../Libraries/STM32F30x_StdPeriph_Driver/src/stm32f30x_syscfg.c ****   SYSCFG->CFGR1 &= (uint32_t)(~SYSCFG_CFGR1_ENCODER_MODE);
 243              		.loc 1 241 0
 244 015c 4FF00003 		mov	r3, #0
 245 0160 C4F20103 		movt	r3, 16385
 246 0164 4FF00002 		mov	r2, #0
 247 0168 C4F20102 		movt	r2, 16385
 248 016c 1268     		ldr	r2, [r2, #0]
 249 016e 22F44002 		bic	r2, r2, #12582912
 250 0172 1A60     		str	r2, [r3, #0]
 242:../Libraries/STM32F30x_StdPeriph_Driver/src/stm32f30x_syscfg.c **** 
 243:../Libraries/STM32F30x_StdPeriph_Driver/src/stm32f30x_syscfg.c ****   /* Set the selected configuration */
 244:../Libraries/STM32F30x_StdPeriph_Driver/src/stm32f30x_syscfg.c ****   SYSCFG->CFGR1 |= (uint32_t)(SYSCFG_EncoderRemap);
 251              		.loc 1 244 0
 252 0174 4FF00003 		mov	r3, #0
 253 0178 C4F20103 		movt	r3, 16385
 254 017c 4FF00002 		mov	r2, #0
 255 0180 C4F20102 		movt	r2, 16385
 256 0184 1168     		ldr	r1, [r2, #0]
 257 0186 019A     		ldr	r2, [sp, #4]
 258 0188 0A43     		orrs	r2, r2, r1
 259 018a 1A60     		str	r2, [r3, #0]
 245:../Libraries/STM32F30x_StdPeriph_Driver/src/stm32f30x_syscfg.c **** }
 260              		.loc 1 245 0
 261 018c 02B0     		add	sp, sp, #8
 262 018e 7047     		bx	lr
 263              		.cfi_endproc
 264              	.LFE115:
 266              		.align	2
 267              		.global	SYSCFG_USBInterruptLineRemapCmd
 268              		.thumb
 269              		.thumb_func
 271              	SYSCFG_USBInterruptLineRemapCmd:
 272              	.LFB116:
 246:../Libraries/STM32F30x_StdPeriph_Driver/src/stm32f30x_syscfg.c **** 
 247:../Libraries/STM32F30x_StdPeriph_Driver/src/stm32f30x_syscfg.c **** /**
 248:../Libraries/STM32F30x_StdPeriph_Driver/src/stm32f30x_syscfg.c ****   * @brief  Remaps the USB interrupt lines.
 249:../Libraries/STM32F30x_StdPeriph_Driver/src/stm32f30x_syscfg.c ****   * @param  NewState: new state of the mapping of USB interrupt lines. 
 250:../Libraries/STM32F30x_StdPeriph_Driver/src/stm32f30x_syscfg.c ****   *         This parameter can be:
 251:../Libraries/STM32F30x_StdPeriph_Driver/src/stm32f30x_syscfg.c ****   * @param  ENABLE: Remap the USB interrupt line as following:
 252:../Libraries/STM32F30x_StdPeriph_Driver/src/stm32f30x_syscfg.c ****   *         @arg  USB Device High Priority (USB_HP) interrupt mapped to line 74.
 253:../Libraries/STM32F30x_StdPeriph_Driver/src/stm32f30x_syscfg.c ****   *         @arg  USB Device Low Priority (USB_LP) interrupt mapped to line 75.
 254:../Libraries/STM32F30x_StdPeriph_Driver/src/stm32f30x_syscfg.c ****   *         @arg  USB Wakeup Interrupt (USB_WKUP) interrupt mapped to line 76.
 255:../Libraries/STM32F30x_StdPeriph_Driver/src/stm32f30x_syscfg.c ****   * @param  DISABLE: Use the default USB interrupt line:
 256:../Libraries/STM32F30x_StdPeriph_Driver/src/stm32f30x_syscfg.c ****   *         @arg  USB Device High Priority (USB_HP) interrupt mapped to line 19.
 257:../Libraries/STM32F30x_StdPeriph_Driver/src/stm32f30x_syscfg.c ****   *         @arg  USB Device Low Priority (USB_LP) interrupt mapped to line 20.
 258:../Libraries/STM32F30x_StdPeriph_Driver/src/stm32f30x_syscfg.c ****   *         @arg  USB Wakeup Interrupt (USB_WKUP) interrupt mapped to line 42.
 259:../Libraries/STM32F30x_StdPeriph_Driver/src/stm32f30x_syscfg.c ****   * @retval None
 260:../Libraries/STM32F30x_StdPeriph_Driver/src/stm32f30x_syscfg.c ****   */
 261:../Libraries/STM32F30x_StdPeriph_Driver/src/stm32f30x_syscfg.c **** void SYSCFG_USBInterruptLineRemapCmd(FunctionalState NewState)
 262:../Libraries/STM32F30x_StdPeriph_Driver/src/stm32f30x_syscfg.c **** {
 273              		.loc 1 262 0
 274              		.cfi_startproc
 275              		@ args = 0, pretend = 0, frame = 8
 276              		@ frame_needed = 0, uses_anonymous_args = 0
 277              		@ link register save eliminated.
 278 0190 82B0     		sub	sp, sp, #8
 279              	.LCFI4:
 280              		.cfi_def_cfa_offset 8
 281 0192 0346     		mov	r3, r0
 282 0194 8DF80730 		strb	r3, [sp, #7]
 263:../Libraries/STM32F30x_StdPeriph_Driver/src/stm32f30x_syscfg.c ****   /* Check the parameter */
 264:../Libraries/STM32F30x_StdPeriph_Driver/src/stm32f30x_syscfg.c ****   assert_param(IS_FUNCTIONAL_STATE(NewState));
 265:../Libraries/STM32F30x_StdPeriph_Driver/src/stm32f30x_syscfg.c **** 
 266:../Libraries/STM32F30x_StdPeriph_Driver/src/stm32f30x_syscfg.c ****   /* Remap the USB interupt lines */
 267:../Libraries/STM32F30x_StdPeriph_Driver/src/stm32f30x_syscfg.c ****   *(__IO uint32_t *) CFGR1_USBITRMP_BB = (uint32_t)NewState;
 283              		.loc 1 267 0
 284 0198 4FF01403 		mov	r3, #20
 285 019c C4F22023 		movt	r3, 16928
 286 01a0 9DF80720 		ldrb	r2, [sp, #7]	@ zero_extendqisi2
 287 01a4 1A60     		str	r2, [r3, #0]
 268:../Libraries/STM32F30x_StdPeriph_Driver/src/stm32f30x_syscfg.c **** }
 288              		.loc 1 268 0
 289 01a6 02B0     		add	sp, sp, #8
 290 01a8 7047     		bx	lr
 291              		.cfi_endproc
 292              	.LFE116:
 294 01aa 00BF     		.align	2
 295              		.global	SYSCFG_I2CFastModePlusConfig
 296              		.thumb
 297              		.thumb_func
 299              	SYSCFG_I2CFastModePlusConfig:
 300              	.LFB117:
 269:../Libraries/STM32F30x_StdPeriph_Driver/src/stm32f30x_syscfg.c **** 
 270:../Libraries/STM32F30x_StdPeriph_Driver/src/stm32f30x_syscfg.c **** /**
 271:../Libraries/STM32F30x_StdPeriph_Driver/src/stm32f30x_syscfg.c ****   * @brief  Configures the I2C fast mode plus driving capability.
 272:../Libraries/STM32F30x_StdPeriph_Driver/src/stm32f30x_syscfg.c ****   * @param  SYSCFG_I2CFastModePlus: selects the pin.
 273:../Libraries/STM32F30x_StdPeriph_Driver/src/stm32f30x_syscfg.c ****   *   This parameter can be one of the following values:
 274:../Libraries/STM32F30x_StdPeriph_Driver/src/stm32f30x_syscfg.c ****   *     @arg SYSCFG_I2CFastModePlus_PB6: Configure fast mode plus driving capability for PB6
 275:../Libraries/STM32F30x_StdPeriph_Driver/src/stm32f30x_syscfg.c ****   *     @arg SYSCFG_I2CFastModePlus_PB7: Configure fast mode plus driving capability for PB7
 276:../Libraries/STM32F30x_StdPeriph_Driver/src/stm32f30x_syscfg.c ****   *     @arg SYSCFG_I2CFastModePlus_PB8: Configure fast mode plus driving capability for PB8
 277:../Libraries/STM32F30x_StdPeriph_Driver/src/stm32f30x_syscfg.c ****   *     @arg SYSCFG_I2CFastModePlus_PB9: Configure fast mode plus driving capability for PB9
 278:../Libraries/STM32F30x_StdPeriph_Driver/src/stm32f30x_syscfg.c ****   *     @arg SYSCFG_I2CFastModePlus_I2C1: Configure fast mode plus driving capability for I2C1 pins
 279:../Libraries/STM32F30x_StdPeriph_Driver/src/stm32f30x_syscfg.c ****   *     @arg SYSCFG_I2CFastModePlus_I2C2: Configure fast mode plus driving capability for I2C2 pins
 280:../Libraries/STM32F30x_StdPeriph_Driver/src/stm32f30x_syscfg.c ****   * @param  NewState: new state of the DMA channel remapping. 
 281:../Libraries/STM32F30x_StdPeriph_Driver/src/stm32f30x_syscfg.c ****   *         This parameter can be:
 282:../Libraries/STM32F30x_StdPeriph_Driver/src/stm32f30x_syscfg.c ****   *     @arg ENABLE: Enable fast mode plus driving capability for selected I2C pin
 283:../Libraries/STM32F30x_StdPeriph_Driver/src/stm32f30x_syscfg.c ****   *     @arg DISABLE: Disable fast mode plus driving capability for selected I2C pin
 284:../Libraries/STM32F30x_StdPeriph_Driver/src/stm32f30x_syscfg.c ****   * @note  For I2C1, fast mode plus driving capability can be enabled on all selected
 285:../Libraries/STM32F30x_StdPeriph_Driver/src/stm32f30x_syscfg.c ****   *        I2C1 pins using SYSCFG_I2CFastModePlus_I2C1 parameter or independently
 286:../Libraries/STM32F30x_StdPeriph_Driver/src/stm32f30x_syscfg.c ****   *        on each one of the following pins PB6, PB7, PB8 and PB9.
 287:../Libraries/STM32F30x_StdPeriph_Driver/src/stm32f30x_syscfg.c ****   * @note  For remaing I2C1 pins (PA14, PA15...) fast mode plus driving capability
 288:../Libraries/STM32F30x_StdPeriph_Driver/src/stm32f30x_syscfg.c ****   *        can be enabled only by using SYSCFG_I2CFastModePlus_I2C1 parameter.
 289:../Libraries/STM32F30x_StdPeriph_Driver/src/stm32f30x_syscfg.c ****   * @note  For all I2C2 pins fast mode plus driving capability can be enabled
 290:../Libraries/STM32F30x_StdPeriph_Driver/src/stm32f30x_syscfg.c ****   *        only by using SYSCFG_I2CFastModePlus_I2C2 parameter.
 291:../Libraries/STM32F30x_StdPeriph_Driver/src/stm32f30x_syscfg.c ****   * @retval None
 292:../Libraries/STM32F30x_StdPeriph_Driver/src/stm32f30x_syscfg.c ****   */
 293:../Libraries/STM32F30x_StdPeriph_Driver/src/stm32f30x_syscfg.c **** void SYSCFG_I2CFastModePlusConfig(uint32_t SYSCFG_I2CFastModePlus, FunctionalState NewState)
 294:../Libraries/STM32F30x_StdPeriph_Driver/src/stm32f30x_syscfg.c **** {
 301              		.loc 1 294 0
 302              		.cfi_startproc
 303              		@ args = 0, pretend = 0, frame = 8
 304              		@ frame_needed = 0, uses_anonymous_args = 0
 305              		@ link register save eliminated.
 306 01ac 82B0     		sub	sp, sp, #8
 307              	.LCFI5:
 308              		.cfi_def_cfa_offset 8
 309 01ae 0190     		str	r0, [sp, #4]
 310 01b0 0B46     		mov	r3, r1
 311 01b2 8DF80330 		strb	r3, [sp, #3]
 295:../Libraries/STM32F30x_StdPeriph_Driver/src/stm32f30x_syscfg.c ****   /* Check the parameters */
 296:../Libraries/STM32F30x_StdPeriph_Driver/src/stm32f30x_syscfg.c ****   assert_param(IS_SYSCFG_I2C_FMP(SYSCFG_I2CFastModePlus));
 297:../Libraries/STM32F30x_StdPeriph_Driver/src/stm32f30x_syscfg.c ****   assert_param(IS_FUNCTIONAL_STATE(NewState));
 298:../Libraries/STM32F30x_StdPeriph_Driver/src/stm32f30x_syscfg.c **** 
 299:../Libraries/STM32F30x_StdPeriph_Driver/src/stm32f30x_syscfg.c ****   if (NewState != DISABLE)
 312              		.loc 1 299 0
 313 01b6 9DF80330 		ldrb	r3, [sp, #3]	@ zero_extendqisi2
 314 01ba 002B     		cmp	r3, #0
 315 01bc 0CD0     		beq	.L12
 300:../Libraries/STM32F30x_StdPeriph_Driver/src/stm32f30x_syscfg.c ****   {
 301:../Libraries/STM32F30x_StdPeriph_Driver/src/stm32f30x_syscfg.c ****     /* Enable fast mode plus driving capability for selected I2C pin */
 302:../Libraries/STM32F30x_StdPeriph_Driver/src/stm32f30x_syscfg.c ****     SYSCFG->CFGR1 |= (uint32_t)SYSCFG_I2CFastModePlus;
 316              		.loc 1 302 0
 317 01be 4FF00003 		mov	r3, #0
 318 01c2 C4F20103 		movt	r3, 16385
 319 01c6 4FF00002 		mov	r2, #0
 320 01ca C4F20102 		movt	r2, 16385
 321 01ce 1168     		ldr	r1, [r2, #0]
 322 01d0 019A     		ldr	r2, [sp, #4]
 323 01d2 0A43     		orrs	r2, r2, r1
 324 01d4 1A60     		str	r2, [r3, #0]
 325 01d6 0DE0     		b	.L11
 326              	.L12:
 303:../Libraries/STM32F30x_StdPeriph_Driver/src/stm32f30x_syscfg.c ****   }
 304:../Libraries/STM32F30x_StdPeriph_Driver/src/stm32f30x_syscfg.c ****   else
 305:../Libraries/STM32F30x_StdPeriph_Driver/src/stm32f30x_syscfg.c ****   {
 306:../Libraries/STM32F30x_StdPeriph_Driver/src/stm32f30x_syscfg.c ****     /* Disable fast mode plus driving capability for selected I2C pin */
 307:../Libraries/STM32F30x_StdPeriph_Driver/src/stm32f30x_syscfg.c ****     SYSCFG->CFGR1 &= (uint32_t)(~SYSCFG_I2CFastModePlus);
 327              		.loc 1 307 0
 328 01d8 4FF00003 		mov	r3, #0
 329 01dc C4F20103 		movt	r3, 16385
 330 01e0 4FF00002 		mov	r2, #0
 331 01e4 C4F20102 		movt	r2, 16385
 332 01e8 1168     		ldr	r1, [r2, #0]
 333 01ea 019A     		ldr	r2, [sp, #4]
 334 01ec 6FEA0202 		mvn	r2, r2
 335 01f0 0A40     		ands	r2, r2, r1
 336 01f2 1A60     		str	r2, [r3, #0]
 337              	.L11:
 308:../Libraries/STM32F30x_StdPeriph_Driver/src/stm32f30x_syscfg.c ****   }
 309:../Libraries/STM32F30x_StdPeriph_Driver/src/stm32f30x_syscfg.c **** }
 338              		.loc 1 309 0
 339 01f4 02B0     		add	sp, sp, #8
 340 01f6 7047     		bx	lr
 341              		.cfi_endproc
 342              	.LFE117:
 344              		.align	2
 345              		.global	SYSCFG_ITConfig
 346              		.thumb
 347              		.thumb_func
 349              	SYSCFG_ITConfig:
 350              	.LFB118:
 310:../Libraries/STM32F30x_StdPeriph_Driver/src/stm32f30x_syscfg.c **** 
 311:../Libraries/STM32F30x_StdPeriph_Driver/src/stm32f30x_syscfg.c **** /**
 312:../Libraries/STM32F30x_StdPeriph_Driver/src/stm32f30x_syscfg.c ****   * @brief  Enables or disables the selected SYSCFG interrupts.
 313:../Libraries/STM32F30x_StdPeriph_Driver/src/stm32f30x_syscfg.c ****   * @param  SYSCFG_IT: specifies the SYSCFG interrupt sources to be enabled or disabled.
 314:../Libraries/STM32F30x_StdPeriph_Driver/src/stm32f30x_syscfg.c ****   *   This parameter can be one of the following values:
 315:../Libraries/STM32F30x_StdPeriph_Driver/src/stm32f30x_syscfg.c ****   *     @arg SYSCFG_IT_IXC: Inexact Interrupt
 316:../Libraries/STM32F30x_StdPeriph_Driver/src/stm32f30x_syscfg.c ****   *     @arg SYSCFG_IT_IDC: Input denormal Interrupt
 317:../Libraries/STM32F30x_StdPeriph_Driver/src/stm32f30x_syscfg.c ****   *     @arg SYSCFG_IT_OFC: Overflow Interrupt
 318:../Libraries/STM32F30x_StdPeriph_Driver/src/stm32f30x_syscfg.c ****   *     @arg SYSCFG_IT_UFC: Underflow Interrupt
 319:../Libraries/STM32F30x_StdPeriph_Driver/src/stm32f30x_syscfg.c ****   *     @arg SYSCFG_IT_DZC: Divide-by-zero Interrupt
 320:../Libraries/STM32F30x_StdPeriph_Driver/src/stm32f30x_syscfg.c ****   *     @arg SYSCFG_IT_IOC: Invalid operation Interrupt
 321:../Libraries/STM32F30x_StdPeriph_Driver/src/stm32f30x_syscfg.c ****   * @param  NewState: new state of the specified SYSCFG interrupts.
 322:../Libraries/STM32F30x_StdPeriph_Driver/src/stm32f30x_syscfg.c ****   *         This parameter can be: ENABLE or DISABLE.
 323:../Libraries/STM32F30x_StdPeriph_Driver/src/stm32f30x_syscfg.c ****   * @retval None
 324:../Libraries/STM32F30x_StdPeriph_Driver/src/stm32f30x_syscfg.c ****   */
 325:../Libraries/STM32F30x_StdPeriph_Driver/src/stm32f30x_syscfg.c **** void SYSCFG_ITConfig(uint32_t SYSCFG_IT, FunctionalState NewState)  
 326:../Libraries/STM32F30x_StdPeriph_Driver/src/stm32f30x_syscfg.c **** {
 351              		.loc 1 326 0
 352              		.cfi_startproc
 353              		@ args = 0, pretend = 0, frame = 8
 354              		@ frame_needed = 0, uses_anonymous_args = 0
 355              		@ link register save eliminated.
 356 01f8 82B0     		sub	sp, sp, #8
 357              	.LCFI6:
 358              		.cfi_def_cfa_offset 8
 359 01fa 0190     		str	r0, [sp, #4]
 360 01fc 0B46     		mov	r3, r1
 361 01fe 8DF80330 		strb	r3, [sp, #3]
 327:../Libraries/STM32F30x_StdPeriph_Driver/src/stm32f30x_syscfg.c ****   /* Check the parameters */
 328:../Libraries/STM32F30x_StdPeriph_Driver/src/stm32f30x_syscfg.c ****   assert_param(IS_FUNCTIONAL_STATE(NewState));
 329:../Libraries/STM32F30x_StdPeriph_Driver/src/stm32f30x_syscfg.c ****   assert_param(IS_SYSCFG_IT(SYSCFG_IT)); 
 330:../Libraries/STM32F30x_StdPeriph_Driver/src/stm32f30x_syscfg.c **** 
 331:../Libraries/STM32F30x_StdPeriph_Driver/src/stm32f30x_syscfg.c ****   if (NewState != DISABLE)
 362              		.loc 1 331 0
 363 0202 9DF80330 		ldrb	r3, [sp, #3]	@ zero_extendqisi2
 364 0206 002B     		cmp	r3, #0
 365 0208 0CD0     		beq	.L15
 332:../Libraries/STM32F30x_StdPeriph_Driver/src/stm32f30x_syscfg.c ****   {
 333:../Libraries/STM32F30x_StdPeriph_Driver/src/stm32f30x_syscfg.c ****     /* Enable the selected SYSCFG interrupts */
 334:../Libraries/STM32F30x_StdPeriph_Driver/src/stm32f30x_syscfg.c ****     SYSCFG->CFGR1 |= SYSCFG_IT;
 366              		.loc 1 334 0
 367 020a 4FF00003 		mov	r3, #0
 368 020e C4F20103 		movt	r3, 16385
 369 0212 4FF00002 		mov	r2, #0
 370 0216 C4F20102 		movt	r2, 16385
 371 021a 1168     		ldr	r1, [r2, #0]
 372 021c 019A     		ldr	r2, [sp, #4]
 373 021e 0A43     		orrs	r2, r2, r1
 374 0220 1A60     		str	r2, [r3, #0]
 375 0222 0DE0     		b	.L14
 376              	.L15:
 335:../Libraries/STM32F30x_StdPeriph_Driver/src/stm32f30x_syscfg.c ****   }
 336:../Libraries/STM32F30x_StdPeriph_Driver/src/stm32f30x_syscfg.c ****   else
 337:../Libraries/STM32F30x_StdPeriph_Driver/src/stm32f30x_syscfg.c ****   {
 338:../Libraries/STM32F30x_StdPeriph_Driver/src/stm32f30x_syscfg.c ****     /* Disable the selected SYSCFG interrupts */
 339:../Libraries/STM32F30x_StdPeriph_Driver/src/stm32f30x_syscfg.c ****     SYSCFG->CFGR1 &= ((uint32_t)~SYSCFG_IT);
 377              		.loc 1 339 0
 378 0224 4FF00003 		mov	r3, #0
 379 0228 C4F20103 		movt	r3, 16385
 380 022c 4FF00002 		mov	r2, #0
 381 0230 C4F20102 		movt	r2, 16385
 382 0234 1168     		ldr	r1, [r2, #0]
 383 0236 019A     		ldr	r2, [sp, #4]
 384 0238 6FEA0202 		mvn	r2, r2
 385 023c 0A40     		ands	r2, r2, r1
 386 023e 1A60     		str	r2, [r3, #0]
 387              	.L14:
 340:../Libraries/STM32F30x_StdPeriph_Driver/src/stm32f30x_syscfg.c ****   }
 341:../Libraries/STM32F30x_StdPeriph_Driver/src/stm32f30x_syscfg.c **** }
 388              		.loc 1 341 0
 389 0240 02B0     		add	sp, sp, #8
 390 0242 7047     		bx	lr
 391              		.cfi_endproc
 392              	.LFE118:
 394              		.align	2
 395              		.global	SYSCFG_EXTILineConfig
 396              		.thumb
 397              		.thumb_func
 399              	SYSCFG_EXTILineConfig:
 400              	.LFB119:
 342:../Libraries/STM32F30x_StdPeriph_Driver/src/stm32f30x_syscfg.c **** 
 343:../Libraries/STM32F30x_StdPeriph_Driver/src/stm32f30x_syscfg.c **** /**
 344:../Libraries/STM32F30x_StdPeriph_Driver/src/stm32f30x_syscfg.c ****   * @brief  Selects the GPIO pin used as EXTI Line.
 345:../Libraries/STM32F30x_StdPeriph_Driver/src/stm32f30x_syscfg.c ****   * @param  EXTI_PortSourceGPIOx : selects the GPIO port to be used as source 
 346:../Libraries/STM32F30x_StdPeriph_Driver/src/stm32f30x_syscfg.c ****   *                                for EXTI lines where x can be (A, B, C, D, E or F).
 347:../Libraries/STM32F30x_StdPeriph_Driver/src/stm32f30x_syscfg.c ****   * @param  EXTI_PinSourcex: specifies the EXTI line to be configured.
 348:../Libraries/STM32F30x_StdPeriph_Driver/src/stm32f30x_syscfg.c ****   *         This parameter can be EXTI_PinSourcex where x can be (0..15)
 349:../Libraries/STM32F30x_StdPeriph_Driver/src/stm32f30x_syscfg.c ****   * @retval None
 350:../Libraries/STM32F30x_StdPeriph_Driver/src/stm32f30x_syscfg.c ****   */
 351:../Libraries/STM32F30x_StdPeriph_Driver/src/stm32f30x_syscfg.c **** void SYSCFG_EXTILineConfig(uint8_t EXTI_PortSourceGPIOx, uint8_t EXTI_PinSourcex)
 352:../Libraries/STM32F30x_StdPeriph_Driver/src/stm32f30x_syscfg.c **** {
 401              		.loc 1 352 0
 402              		.cfi_startproc
 403              		@ args = 0, pretend = 0, frame = 16
 404              		@ frame_needed = 0, uses_anonymous_args = 0
 405              		@ link register save eliminated.
 406 0244 10B4     		push	{r4}
 407              	.LCFI7:
 408              		.cfi_def_cfa_offset 4
 409              		.cfi_offset 4, -4
 410 0246 85B0     		sub	sp, sp, #20
 411              	.LCFI8:
 412              		.cfi_def_cfa_offset 24
 413 0248 0246     		mov	r2, r0
 414 024a 0B46     		mov	r3, r1
 415 024c 8DF80720 		strb	r2, [sp, #7]
 416 0250 8DF80630 		strb	r3, [sp, #6]
 353:../Libraries/STM32F30x_StdPeriph_Driver/src/stm32f30x_syscfg.c ****   uint32_t tmp = 0x00;
 417              		.loc 1 353 0
 418 0254 4FF00003 		mov	r3, #0
 419 0258 0393     		str	r3, [sp, #12]
 354:../Libraries/STM32F30x_StdPeriph_Driver/src/stm32f30x_syscfg.c **** 
 355:../Libraries/STM32F30x_StdPeriph_Driver/src/stm32f30x_syscfg.c ****   /* Check the parameters */
 356:../Libraries/STM32F30x_StdPeriph_Driver/src/stm32f30x_syscfg.c ****   assert_param(IS_EXTI_PORT_SOURCE(EXTI_PortSourceGPIOx));
 357:../Libraries/STM32F30x_StdPeriph_Driver/src/stm32f30x_syscfg.c ****   assert_param(IS_EXTI_PIN_SOURCE(EXTI_PinSourcex));
 358:../Libraries/STM32F30x_StdPeriph_Driver/src/stm32f30x_syscfg.c ****   
 359:../Libraries/STM32F30x_StdPeriph_Driver/src/stm32f30x_syscfg.c ****   tmp = ((uint32_t)0x0F) << (0x04 * (EXTI_PinSourcex & (uint8_t)0x03));
 420              		.loc 1 359 0
 421 025a 9DF80630 		ldrb	r3, [sp, #6]	@ zero_extendqisi2
 422 025e 03F00303 		and	r3, r3, #3
 423 0262 4FEA8303 		lsl	r3, r3, #2
 424 0266 4FF00F02 		mov	r2, #15
 425 026a 02FA03F3 		lsl	r3, r2, r3
 426 026e 0393     		str	r3, [sp, #12]
 360:../Libraries/STM32F30x_StdPeriph_Driver/src/stm32f30x_syscfg.c ****   SYSCFG->EXTICR[EXTI_PinSourcex >> 0x02] &= ~tmp;
 427              		.loc 1 360 0
 428 0270 4FF00003 		mov	r3, #0
 429 0274 C4F20103 		movt	r3, 16385
 430 0278 9DF80620 		ldrb	r2, [sp, #6]	@ zero_extendqisi2
 431 027c 4FEA9202 		lsr	r2, r2, #2
 432 0280 D2B2     		uxtb	r2, r2
 433 0282 1046     		mov	r0, r2
 434 0284 4FF00002 		mov	r2, #0
 435 0288 C4F20102 		movt	r2, 16385
 436 028c 9DF80610 		ldrb	r1, [sp, #6]	@ zero_extendqisi2
 437 0290 4FEA9101 		lsr	r1, r1, #2
 438 0294 C9B2     		uxtb	r1, r1
 439 0296 01F10201 		add	r1, r1, #2
 440 029a 52F82110 		ldr	r1, [r2, r1, lsl #2]
 441 029e 039A     		ldr	r2, [sp, #12]
 442 02a0 6FEA0202 		mvn	r2, r2
 443 02a4 1140     		ands	r1, r1, r2
 444 02a6 00F10202 		add	r2, r0, #2
 445 02aa 43F82210 		str	r1, [r3, r2, lsl #2]
 361:../Libraries/STM32F30x_StdPeriph_Driver/src/stm32f30x_syscfg.c ****   SYSCFG->EXTICR[EXTI_PinSourcex >> 0x02] |= (((uint32_t)EXTI_PortSourceGPIOx) << (0x04 * (EXTI_Pin
 446              		.loc 1 361 0
 447 02ae 4FF00003 		mov	r3, #0
 448 02b2 C4F20103 		movt	r3, 16385
 449 02b6 9DF80620 		ldrb	r2, [sp, #6]	@ zero_extendqisi2
 450 02ba 4FEA9202 		lsr	r2, r2, #2
 451 02be D2B2     		uxtb	r2, r2
 452 02c0 1046     		mov	r0, r2
 453 02c2 4FF00002 		mov	r2, #0
 454 02c6 C4F20102 		movt	r2, 16385
 455 02ca 9DF80610 		ldrb	r1, [sp, #6]	@ zero_extendqisi2
 456 02ce 4FEA9101 		lsr	r1, r1, #2
 457 02d2 C9B2     		uxtb	r1, r1
 458 02d4 01F10201 		add	r1, r1, #2
 459 02d8 52F82110 		ldr	r1, [r2, r1, lsl #2]
 460 02dc 9DF80740 		ldrb	r4, [sp, #7]	@ zero_extendqisi2
 461 02e0 9DF80620 		ldrb	r2, [sp, #6]	@ zero_extendqisi2
 462 02e4 02F00302 		and	r2, r2, #3
 463 02e8 4FEA8202 		lsl	r2, r2, #2
 464 02ec 04FA02F2 		lsl	r2, r4, r2
 465 02f0 1143     		orrs	r1, r1, r2
 466 02f2 00F10202 		add	r2, r0, #2
 467 02f6 43F82210 		str	r1, [r3, r2, lsl #2]
 362:../Libraries/STM32F30x_StdPeriph_Driver/src/stm32f30x_syscfg.c **** }
 468              		.loc 1 362 0
 469 02fa 05B0     		add	sp, sp, #20
 470 02fc 10BC     		pop	{r4}
 471 02fe 7047     		bx	lr
 472              		.cfi_endproc
 473              	.LFE119:
 475              		.align	2
 476              		.global	SYSCFG_BreakConfig
 477              		.thumb
 478              		.thumb_func
 480              	SYSCFG_BreakConfig:
 481              	.LFB120:
 363:../Libraries/STM32F30x_StdPeriph_Driver/src/stm32f30x_syscfg.c **** 
 364:../Libraries/STM32F30x_StdPeriph_Driver/src/stm32f30x_syscfg.c **** /**
 365:../Libraries/STM32F30x_StdPeriph_Driver/src/stm32f30x_syscfg.c ****   * @brief  Connects the selected parameter to the break input of TIM1.
 366:../Libraries/STM32F30x_StdPeriph_Driver/src/stm32f30x_syscfg.c ****   * @note   The selected configuration is locked and can be unlocked by system reset
 367:../Libraries/STM32F30x_StdPeriph_Driver/src/stm32f30x_syscfg.c ****   * @param  SYSCFG_Break: selects the configuration to be connected to break
 368:../Libraries/STM32F30x_StdPeriph_Driver/src/stm32f30x_syscfg.c ****   *         input of TIM1
 369:../Libraries/STM32F30x_StdPeriph_Driver/src/stm32f30x_syscfg.c ****   *   This parameter can be any combination of the following values:
 370:../Libraries/STM32F30x_StdPeriph_Driver/src/stm32f30x_syscfg.c ****   *     @arg SYSCFG_Break_PVD: PVD interrupt is connected to the break input of TIM1.
 371:../Libraries/STM32F30x_StdPeriph_Driver/src/stm32f30x_syscfg.c ****   *     @arg SYSCFG_Break_SRAMParity: SRAM Parity error is connected to the break input of TIM1.
 372:../Libraries/STM32F30x_StdPeriph_Driver/src/stm32f30x_syscfg.c ****   *     @arg SYSCFG_Break_HardFault: Lockup output of CortexM4 is connected to the break input of T
 373:../Libraries/STM32F30x_StdPeriph_Driver/src/stm32f30x_syscfg.c ****   * @retval None
 374:../Libraries/STM32F30x_StdPeriph_Driver/src/stm32f30x_syscfg.c ****   */
 375:../Libraries/STM32F30x_StdPeriph_Driver/src/stm32f30x_syscfg.c **** void SYSCFG_BreakConfig(uint32_t SYSCFG_Break)
 376:../Libraries/STM32F30x_StdPeriph_Driver/src/stm32f30x_syscfg.c **** {
 482              		.loc 1 376 0
 483              		.cfi_startproc
 484              		@ args = 0, pretend = 0, frame = 8
 485              		@ frame_needed = 0, uses_anonymous_args = 0
 486              		@ link register save eliminated.
 487 0300 82B0     		sub	sp, sp, #8
 488              	.LCFI9:
 489              		.cfi_def_cfa_offset 8
 490 0302 0190     		str	r0, [sp, #4]
 377:../Libraries/STM32F30x_StdPeriph_Driver/src/stm32f30x_syscfg.c ****   /* Check the parameter */
 378:../Libraries/STM32F30x_StdPeriph_Driver/src/stm32f30x_syscfg.c ****   assert_param(IS_SYSCFG_LOCK_CONFIG(SYSCFG_Break));
 379:../Libraries/STM32F30x_StdPeriph_Driver/src/stm32f30x_syscfg.c **** 
 380:../Libraries/STM32F30x_StdPeriph_Driver/src/stm32f30x_syscfg.c ****   SYSCFG->CFGR2 |= (uint32_t) SYSCFG_Break;
 491              		.loc 1 380 0
 492 0304 4FF00003 		mov	r3, #0
 493 0308 C4F20103 		movt	r3, 16385
 494 030c 4FF00002 		mov	r2, #0
 495 0310 C4F20102 		movt	r2, 16385
 496 0314 9169     		ldr	r1, [r2, #24]
 497 0316 019A     		ldr	r2, [sp, #4]
 498 0318 0A43     		orrs	r2, r2, r1
 499 031a 9A61     		str	r2, [r3, #24]
 381:../Libraries/STM32F30x_StdPeriph_Driver/src/stm32f30x_syscfg.c **** }
 500              		.loc 1 381 0
 501 031c 02B0     		add	sp, sp, #8
 502 031e 7047     		bx	lr
 503              		.cfi_endproc
 504              	.LFE120:
 506              		.align	2
 507              		.global	SYSCFG_BypassParityCheckDisable
 508              		.thumb
 509              		.thumb_func
 511              	SYSCFG_BypassParityCheckDisable:
 512              	.LFB121:
 382:../Libraries/STM32F30x_StdPeriph_Driver/src/stm32f30x_syscfg.c **** 
 383:../Libraries/STM32F30x_StdPeriph_Driver/src/stm32f30x_syscfg.c **** /**
 384:../Libraries/STM32F30x_StdPeriph_Driver/src/stm32f30x_syscfg.c ****   * @brief  Disables the parity check on RAM.
 385:../Libraries/STM32F30x_StdPeriph_Driver/src/stm32f30x_syscfg.c ****   * @note   Disabling the parity check on RAM locks the configuration bit.
 386:../Libraries/STM32F30x_StdPeriph_Driver/src/stm32f30x_syscfg.c ****   *         To re-enable the parity check on RAM perform a system reset.  
 387:../Libraries/STM32F30x_StdPeriph_Driver/src/stm32f30x_syscfg.c ****   * @param  None
 388:../Libraries/STM32F30x_StdPeriph_Driver/src/stm32f30x_syscfg.c ****   * @retval None
 389:../Libraries/STM32F30x_StdPeriph_Driver/src/stm32f30x_syscfg.c ****   */
 390:../Libraries/STM32F30x_StdPeriph_Driver/src/stm32f30x_syscfg.c **** void SYSCFG_BypassParityCheckDisable(void)
 391:../Libraries/STM32F30x_StdPeriph_Driver/src/stm32f30x_syscfg.c **** {
 513              		.loc 1 391 0
 514              		.cfi_startproc
 515              		@ args = 0, pretend = 0, frame = 0
 516              		@ frame_needed = 0, uses_anonymous_args = 0
 517              		@ link register save eliminated.
 392:../Libraries/STM32F30x_StdPeriph_Driver/src/stm32f30x_syscfg.c ****   /* Disable the adddress parity check on RAM */
 393:../Libraries/STM32F30x_StdPeriph_Driver/src/stm32f30x_syscfg.c ****   *(__IO uint32_t *) CFGR1_BYPADDRPAR_BB = (uint32_t)0x00000001;
 518              		.loc 1 393 0
 519 0320 4FF44473 		mov	r3, #784
 520 0324 C4F22023 		movt	r3, 16928
 521 0328 4FF00102 		mov	r2, #1
 522 032c 1A60     		str	r2, [r3, #0]
 394:../Libraries/STM32F30x_StdPeriph_Driver/src/stm32f30x_syscfg.c **** }
 523              		.loc 1 394 0
 524 032e 7047     		bx	lr
 525              		.cfi_endproc
 526              	.LFE121:
 528              		.align	2
 529              		.global	SYSCFG_SRAMWRPEnable
 530              		.thumb
 531              		.thumb_func
 533              	SYSCFG_SRAMWRPEnable:
 534              	.LFB122:
 395:../Libraries/STM32F30x_StdPeriph_Driver/src/stm32f30x_syscfg.c **** 
 396:../Libraries/STM32F30x_StdPeriph_Driver/src/stm32f30x_syscfg.c **** /**
 397:../Libraries/STM32F30x_StdPeriph_Driver/src/stm32f30x_syscfg.c ****   * @brief  Enables the ICODE SRAM write protection.
 398:../Libraries/STM32F30x_StdPeriph_Driver/src/stm32f30x_syscfg.c ****   * @note   Enabling the ICODE SRAM write protection locks the configuration bit.
 399:../Libraries/STM32F30x_StdPeriph_Driver/src/stm32f30x_syscfg.c ****   *         To disable the ICODE SRAM write protection perform a system reset.
 400:../Libraries/STM32F30x_StdPeriph_Driver/src/stm32f30x_syscfg.c ****   * @param  None
 401:../Libraries/STM32F30x_StdPeriph_Driver/src/stm32f30x_syscfg.c ****   * @retval None
 402:../Libraries/STM32F30x_StdPeriph_Driver/src/stm32f30x_syscfg.c ****   */
 403:../Libraries/STM32F30x_StdPeriph_Driver/src/stm32f30x_syscfg.c **** void SYSCFG_SRAMWRPEnable(uint32_t SYSCFG_SRAMWRP)
 404:../Libraries/STM32F30x_StdPeriph_Driver/src/stm32f30x_syscfg.c **** {
 535              		.loc 1 404 0
 536              		.cfi_startproc
 537              		@ args = 0, pretend = 0, frame = 8
 538              		@ frame_needed = 0, uses_anonymous_args = 0
 539              		@ link register save eliminated.
 540 0330 82B0     		sub	sp, sp, #8
 541              	.LCFI10:
 542              		.cfi_def_cfa_offset 8
 543 0332 0190     		str	r0, [sp, #4]
 405:../Libraries/STM32F30x_StdPeriph_Driver/src/stm32f30x_syscfg.c ****   /* Check the parameter */
 406:../Libraries/STM32F30x_StdPeriph_Driver/src/stm32f30x_syscfg.c ****   assert_param(IS_SYSCFG_PAGE(SYSCFG_SRAMWRP));
 407:../Libraries/STM32F30x_StdPeriph_Driver/src/stm32f30x_syscfg.c **** 
 408:../Libraries/STM32F30x_StdPeriph_Driver/src/stm32f30x_syscfg.c ****   /* Enable the write-protection on the selected ICODE SRAM page */
 409:../Libraries/STM32F30x_StdPeriph_Driver/src/stm32f30x_syscfg.c ****   SYSCFG->RCR |= (uint32_t)SYSCFG_SRAMWRP;
 544              		.loc 1 409 0
 545 0334 4FF00003 		mov	r3, #0
 546 0338 C4F20103 		movt	r3, 16385
 547 033c 4FF00002 		mov	r2, #0
 548 0340 C4F20102 		movt	r2, 16385
 549 0344 5168     		ldr	r1, [r2, #4]
 550 0346 019A     		ldr	r2, [sp, #4]
 551 0348 0A43     		orrs	r2, r2, r1
 552 034a 5A60     		str	r2, [r3, #4]
 410:../Libraries/STM32F30x_StdPeriph_Driver/src/stm32f30x_syscfg.c **** }
 553              		.loc 1 410 0
 554 034c 02B0     		add	sp, sp, #8
 555 034e 7047     		bx	lr
 556              		.cfi_endproc
 557              	.LFE122:
 559              		.align	2
 560              		.global	SYSCFG_GetFlagStatus
 561              		.thumb
 562              		.thumb_func
 564              	SYSCFG_GetFlagStatus:
 565              	.LFB123:
 411:../Libraries/STM32F30x_StdPeriph_Driver/src/stm32f30x_syscfg.c **** 
 412:../Libraries/STM32F30x_StdPeriph_Driver/src/stm32f30x_syscfg.c **** /**
 413:../Libraries/STM32F30x_StdPeriph_Driver/src/stm32f30x_syscfg.c ****   * @brief  Checks whether the specified SYSCFG flag is set or not.
 414:../Libraries/STM32F30x_StdPeriph_Driver/src/stm32f30x_syscfg.c ****   * @param  SYSCFG_Flag: specifies the SYSCFG flag to check. 
 415:../Libraries/STM32F30x_StdPeriph_Driver/src/stm32f30x_syscfg.c ****   *   This parameter can be one of the following values:
 416:../Libraries/STM32F30x_StdPeriph_Driver/src/stm32f30x_syscfg.c ****   *     @arg SYSCFG_FLAG_PE: SRAM parity error flag.
 417:../Libraries/STM32F30x_StdPeriph_Driver/src/stm32f30x_syscfg.c ****   * @retval The new state of SYSCFG_Flag (SET or RESET).
 418:../Libraries/STM32F30x_StdPeriph_Driver/src/stm32f30x_syscfg.c ****   */
 419:../Libraries/STM32F30x_StdPeriph_Driver/src/stm32f30x_syscfg.c **** FlagStatus SYSCFG_GetFlagStatus(uint32_t SYSCFG_Flag)
 420:../Libraries/STM32F30x_StdPeriph_Driver/src/stm32f30x_syscfg.c **** {
 566              		.loc 1 420 0
 567              		.cfi_startproc
 568              		@ args = 0, pretend = 0, frame = 16
 569              		@ frame_needed = 0, uses_anonymous_args = 0
 570              		@ link register save eliminated.
 571 0350 84B0     		sub	sp, sp, #16
 572              	.LCFI11:
 573              		.cfi_def_cfa_offset 16
 574 0352 0190     		str	r0, [sp, #4]
 421:../Libraries/STM32F30x_StdPeriph_Driver/src/stm32f30x_syscfg.c ****   FlagStatus bitstatus = RESET;
 575              		.loc 1 421 0
 576 0354 4FF00003 		mov	r3, #0
 577 0358 8DF80F30 		strb	r3, [sp, #15]
 422:../Libraries/STM32F30x_StdPeriph_Driver/src/stm32f30x_syscfg.c **** 
 423:../Libraries/STM32F30x_StdPeriph_Driver/src/stm32f30x_syscfg.c ****   /* Check the parameter */
 424:../Libraries/STM32F30x_StdPeriph_Driver/src/stm32f30x_syscfg.c ****   assert_param(IS_SYSCFG_FLAG(SYSCFG_Flag));
 425:../Libraries/STM32F30x_StdPeriph_Driver/src/stm32f30x_syscfg.c **** 
 426:../Libraries/STM32F30x_StdPeriph_Driver/src/stm32f30x_syscfg.c ****   /* Check the status of the specified SPI flag */
 427:../Libraries/STM32F30x_StdPeriph_Driver/src/stm32f30x_syscfg.c ****   if ((SYSCFG->CFGR2 & SYSCFG_CFGR2_SRAM_PE) != (uint32_t)RESET)
 578              		.loc 1 427 0
 579 035c 4FF00003 		mov	r3, #0
 580 0360 C4F20103 		movt	r3, 16385
 581 0364 9B69     		ldr	r3, [r3, #24]
 582 0366 03F48073 		and	r3, r3, #256
 583 036a 002B     		cmp	r3, #0
 584 036c 04D0     		beq	.L22
 428:../Libraries/STM32F30x_StdPeriph_Driver/src/stm32f30x_syscfg.c ****   {
 429:../Libraries/STM32F30x_StdPeriph_Driver/src/stm32f30x_syscfg.c ****     /* SYSCFG_Flag is set */
 430:../Libraries/STM32F30x_StdPeriph_Driver/src/stm32f30x_syscfg.c ****     bitstatus = SET;
 585              		.loc 1 430 0
 586 036e 4FF00103 		mov	r3, #1
 587 0372 8DF80F30 		strb	r3, [sp, #15]
 588 0376 03E0     		b	.L23
 589              	.L22:
 431:../Libraries/STM32F30x_StdPeriph_Driver/src/stm32f30x_syscfg.c ****   }
 432:../Libraries/STM32F30x_StdPeriph_Driver/src/stm32f30x_syscfg.c ****   else
 433:../Libraries/STM32F30x_StdPeriph_Driver/src/stm32f30x_syscfg.c ****   {
 434:../Libraries/STM32F30x_StdPeriph_Driver/src/stm32f30x_syscfg.c ****     /* SYSCFG_Flag is reset */
 435:../Libraries/STM32F30x_StdPeriph_Driver/src/stm32f30x_syscfg.c ****     bitstatus = RESET;
 590              		.loc 1 435 0
 591 0378 4FF00003 		mov	r3, #0
 592 037c 8DF80F30 		strb	r3, [sp, #15]
 593              	.L23:
 436:../Libraries/STM32F30x_StdPeriph_Driver/src/stm32f30x_syscfg.c ****   }
 437:../Libraries/STM32F30x_StdPeriph_Driver/src/stm32f30x_syscfg.c ****   /* Return the SYSCFG_Flag status */
 438:../Libraries/STM32F30x_StdPeriph_Driver/src/stm32f30x_syscfg.c ****   return  bitstatus;
 594              		.loc 1 438 0
 595 0380 9DF80F30 		ldrb	r3, [sp, #15]	@ zero_extendqisi2
 439:../Libraries/STM32F30x_StdPeriph_Driver/src/stm32f30x_syscfg.c **** }
 596              		.loc 1 439 0
 597 0384 1846     		mov	r0, r3
 598 0386 04B0     		add	sp, sp, #16
 599 0388 7047     		bx	lr
 600              		.cfi_endproc
 601              	.LFE123:
 603 038a 00BF     		.align	2
 604              		.global	SYSCFG_ClearFlag
 605              		.thumb
 606              		.thumb_func
 608              	SYSCFG_ClearFlag:
 609              	.LFB124:
 440:../Libraries/STM32F30x_StdPeriph_Driver/src/stm32f30x_syscfg.c **** 
 441:../Libraries/STM32F30x_StdPeriph_Driver/src/stm32f30x_syscfg.c **** /**
 442:../Libraries/STM32F30x_StdPeriph_Driver/src/stm32f30x_syscfg.c ****   * @brief  Clears the selected SYSCFG flag.
 443:../Libraries/STM32F30x_StdPeriph_Driver/src/stm32f30x_syscfg.c ****   * @param  SYSCFG_Flag: selects the flag to be cleared.
 444:../Libraries/STM32F30x_StdPeriph_Driver/src/stm32f30x_syscfg.c ****   *   This parameter can be any combination of the following values:
 445:../Libraries/STM32F30x_StdPeriph_Driver/src/stm32f30x_syscfg.c ****   *     @arg SYSCFG_FLAG_PE: SRAM parity error flag.
 446:../Libraries/STM32F30x_StdPeriph_Driver/src/stm32f30x_syscfg.c ****   * @retval None
 447:../Libraries/STM32F30x_StdPeriph_Driver/src/stm32f30x_syscfg.c ****   */
 448:../Libraries/STM32F30x_StdPeriph_Driver/src/stm32f30x_syscfg.c **** void SYSCFG_ClearFlag(uint32_t SYSCFG_Flag)
 449:../Libraries/STM32F30x_StdPeriph_Driver/src/stm32f30x_syscfg.c **** {
 610              		.loc 1 449 0
 611              		.cfi_startproc
 612              		@ args = 0, pretend = 0, frame = 8
 613              		@ frame_needed = 0, uses_anonymous_args = 0
 614              		@ link register save eliminated.
 615 038c 82B0     		sub	sp, sp, #8
 616              	.LCFI12:
 617              		.cfi_def_cfa_offset 8
 618 038e 0190     		str	r0, [sp, #4]
 450:../Libraries/STM32F30x_StdPeriph_Driver/src/stm32f30x_syscfg.c ****   /* Check the parameter */
 451:../Libraries/STM32F30x_StdPeriph_Driver/src/stm32f30x_syscfg.c ****   assert_param(IS_SYSCFG_FLAG(SYSCFG_Flag));
 452:../Libraries/STM32F30x_StdPeriph_Driver/src/stm32f30x_syscfg.c **** 
 453:../Libraries/STM32F30x_StdPeriph_Driver/src/stm32f30x_syscfg.c ****   SYSCFG->CFGR2 |= (uint32_t) SYSCFG_Flag;
 619              		.loc 1 453 0
 620 0390 4FF00003 		mov	r3, #0
 621 0394 C4F20103 		movt	r3, 16385
 622 0398 4FF00002 		mov	r2, #0
 623 039c C4F20102 		movt	r2, 16385
 624 03a0 9169     		ldr	r1, [r2, #24]
 625 03a2 019A     		ldr	r2, [sp, #4]
 626 03a4 0A43     		orrs	r2, r2, r1
 627 03a6 9A61     		str	r2, [r3, #24]
 454:../Libraries/STM32F30x_StdPeriph_Driver/src/stm32f30x_syscfg.c **** }
 628              		.loc 1 454 0
 629 03a8 02B0     		add	sp, sp, #8
 630 03aa 7047     		bx	lr
 631              		.cfi_endproc
 632              	.LFE124:
 634              	.Letext0:
 635              		.file 2 "c:\\program files\\codesourcery\\sourcery_codebench_lite_for_arm_eabi\\bin\\../lib/gcc/ar
 636              		.file 3 "D:\\Documents and Settings\\e722209\\Desktop\\workspace\\aq32Plus_F3\\Libraries\\Device\\
 637              		.file 4 "D:\\Documents and Settings\\e722209\\Desktop\\workspace\\aq32Plus_F3\\Libraries\\CMSIS\\I