   1              		.syntax unified
   2              		.cpu cortex-m4
   3              		.eabi_attribute 27, 3
   4              		.fpu fpv4-sp-d16
   5              		.eabi_attribute 20, 1
   6              		.eabi_attribute 21, 1
   7              		.eabi_attribute 23, 3
   8              		.eabi_attribute 24, 1
   9              		.eabi_attribute 25, 1
  10              		.eabi_attribute 26, 1
  11              		.eabi_attribute 30, 6
  12              		.eabi_attribute 34, 1
  13              		.eabi_attribute 18, 4
  14              		.thumb
  15              		.file	"stm32f30x_spi.c"
  16              		.text
  17              	.Ltext0:
  18              		.cfi_sections	.debug_frame
  19              		.align	2
  20              		.global	SPI_I2S_DeInit
  21              		.thumb
  22              		.thumb_func
  24              	SPI_I2S_DeInit:
  25              	.LFB111:
  26              		.file 1 "../Libraries/STM32F30x_StdPeriph_Driver/src/stm32f30x_spi.c"
   1:../Libraries/STM32F30x_StdPeriph_Driver/src/stm32f30x_spi.c **** /**
   2:../Libraries/STM32F30x_StdPeriph_Driver/src/stm32f30x_spi.c ****   ******************************************************************************
   3:../Libraries/STM32F30x_StdPeriph_Driver/src/stm32f30x_spi.c ****   * @file    stm32f30x_spi.c
   4:../Libraries/STM32F30x_StdPeriph_Driver/src/stm32f30x_spi.c ****   * @author  MCD Application Team
   5:../Libraries/STM32F30x_StdPeriph_Driver/src/stm32f30x_spi.c ****   * @version V1.0.1
   6:../Libraries/STM32F30x_StdPeriph_Driver/src/stm32f30x_spi.c ****   * @date    23-October-2012
   7:../Libraries/STM32F30x_StdPeriph_Driver/src/stm32f30x_spi.c ****   * @brief   This file provides firmware functions to manage the following 
   8:../Libraries/STM32F30x_StdPeriph_Driver/src/stm32f30x_spi.c ****   *          functionalities of the Serial peripheral interface (SPI):
   9:../Libraries/STM32F30x_StdPeriph_Driver/src/stm32f30x_spi.c ****   *           + Initialization and Configuration
  10:../Libraries/STM32F30x_StdPeriph_Driver/src/stm32f30x_spi.c ****   *           + Data transfers functions
  11:../Libraries/STM32F30x_StdPeriph_Driver/src/stm32f30x_spi.c ****   *           + Hardware CRC Calculation
  12:../Libraries/STM32F30x_StdPeriph_Driver/src/stm32f30x_spi.c ****   *           + DMA transfers management
  13:../Libraries/STM32F30x_StdPeriph_Driver/src/stm32f30x_spi.c ****   *           + Interrupts and flags management
  14:../Libraries/STM32F30x_StdPeriph_Driver/src/stm32f30x_spi.c ****   *
  15:../Libraries/STM32F30x_StdPeriph_Driver/src/stm32f30x_spi.c ****   *  @verbatim
  16:../Libraries/STM32F30x_StdPeriph_Driver/src/stm32f30x_spi.c ****   
  17:../Libraries/STM32F30x_StdPeriph_Driver/src/stm32f30x_spi.c ****   
  18:../Libraries/STM32F30x_StdPeriph_Driver/src/stm32f30x_spi.c ****  ===============================================================================
  19:../Libraries/STM32F30x_StdPeriph_Driver/src/stm32f30x_spi.c ****                       ##### How to use this driver #####
  20:../Libraries/STM32F30x_StdPeriph_Driver/src/stm32f30x_spi.c ****  ===============================================================================
  21:../Libraries/STM32F30x_StdPeriph_Driver/src/stm32f30x_spi.c ****     [..]
  22:../Libraries/STM32F30x_StdPeriph_Driver/src/stm32f30x_spi.c ****         (#) Enable peripheral clock using RCC_APBPeriphClockCmd(RCC_APB2Periph_SPI1, ENABLE)
  23:../Libraries/STM32F30x_StdPeriph_Driver/src/stm32f30x_spi.c ****             function for SPI1 or using RCC_APBPeriphClockCmd(RCC_APB1Periph_SPI2, ENABLE)
  24:../Libraries/STM32F30x_StdPeriph_Driver/src/stm32f30x_spi.c ****             function for SPI2.
  25:../Libraries/STM32F30x_StdPeriph_Driver/src/stm32f30x_spi.c ****         (#) Enable SCK, MOSI, MISO and NSS GPIO clocks using RCC_AHBPeriphClockCmd()
  26:../Libraries/STM32F30x_StdPeriph_Driver/src/stm32f30x_spi.c ****             function. 
  27:../Libraries/STM32F30x_StdPeriph_Driver/src/stm32f30x_spi.c ****         (#) Peripherals alternate function: 
  28:../Libraries/STM32F30x_StdPeriph_Driver/src/stm32f30x_spi.c ****             (++) Connect the pin to the desired peripherals' Alternate 
  29:../Libraries/STM32F30x_StdPeriph_Driver/src/stm32f30x_spi.c ****                  Function (AF) using GPIO_PinAFConfig() function.
  30:../Libraries/STM32F30x_StdPeriph_Driver/src/stm32f30x_spi.c ****             (++) Configure the desired pin in alternate function by:
  31:../Libraries/STM32F30x_StdPeriph_Driver/src/stm32f30x_spi.c ****                  GPIO_InitStruct->GPIO_Mode = GPIO_Mode_AF.
  32:../Libraries/STM32F30x_StdPeriph_Driver/src/stm32f30x_spi.c ****             (++) Select the type, pull-up/pull-down and output speed via 
  33:../Libraries/STM32F30x_StdPeriph_Driver/src/stm32f30x_spi.c ****                  GPIO_PuPd, GPIO_OType and GPIO_Speed members.
  34:../Libraries/STM32F30x_StdPeriph_Driver/src/stm32f30x_spi.c ****             (++) Call GPIO_Init() function.
  35:../Libraries/STM32F30x_StdPeriph_Driver/src/stm32f30x_spi.c ****         (#) Program the Polarity, Phase, First Data, Baud Rate Prescaler, Slave 
  36:../Libraries/STM32F30x_StdPeriph_Driver/src/stm32f30x_spi.c ****             Management, Peripheral Mode and CRC Polynomial values using the SPI_Init()
  37:../Libraries/STM32F30x_StdPeriph_Driver/src/stm32f30x_spi.c ****             function in SPI mode. In I2S mode, program the Mode, Standard, Data Format,
  38:../Libraries/STM32F30x_StdPeriph_Driver/src/stm32f30x_spi.c ****             MCLK Output, Audio frequency and Polarity using I2S_Init() function.
  39:../Libraries/STM32F30x_StdPeriph_Driver/src/stm32f30x_spi.c ****         (#) Configure the FIFO threshold using SPI_RxFIFOThresholdConfig() to select 
  40:../Libraries/STM32F30x_StdPeriph_Driver/src/stm32f30x_spi.c ****             at which threshold the RXNE event is generated.     
  41:../Libraries/STM32F30x_StdPeriph_Driver/src/stm32f30x_spi.c ****         (#) Enable the NVIC and the corresponding interrupt using the function 
  42:../Libraries/STM32F30x_StdPeriph_Driver/src/stm32f30x_spi.c ****             SPI_I2S_ITConfig() if you need to use interrupt mode. 
  43:../Libraries/STM32F30x_StdPeriph_Driver/src/stm32f30x_spi.c ****         (#) When using the DMA mode 
  44:../Libraries/STM32F30x_StdPeriph_Driver/src/stm32f30x_spi.c ****             (++) Configure the DMA using DMA_Init() function.
  45:../Libraries/STM32F30x_StdPeriph_Driver/src/stm32f30x_spi.c ****             (++) Active the needed channel Request using SPI_I2S_DMACmd() function.
  46:../Libraries/STM32F30x_StdPeriph_Driver/src/stm32f30x_spi.c ****         (#) Enable the SPI using the SPI_Cmd() function or enable the I2S using
  47:../Libraries/STM32F30x_StdPeriph_Driver/src/stm32f30x_spi.c ****             I2S_Cmd().
  48:../Libraries/STM32F30x_StdPeriph_Driver/src/stm32f30x_spi.c ****         (#) Enable the DMA using the DMA_Cmd() function when using DMA mode. 
  49:../Libraries/STM32F30x_StdPeriph_Driver/src/stm32f30x_spi.c ****         (#) Optionally you can enable/configure the following parameters without
  50:../Libraries/STM32F30x_StdPeriph_Driver/src/stm32f30x_spi.c ****             re-initialization (i.e there is no need to call again SPI_Init() function):
  51:../Libraries/STM32F30x_StdPeriph_Driver/src/stm32f30x_spi.c ****             (++) When bidirectional mode (SPI_Direction_1Line_Rx or SPI_Direction_1Line_Tx)
  52:../Libraries/STM32F30x_StdPeriph_Driver/src/stm32f30x_spi.c ****                  is programmed as Data direction parameter using the SPI_Init() function
  53:../Libraries/STM32F30x_StdPeriph_Driver/src/stm32f30x_spi.c ****                  it can be possible to switch between SPI_Direction_Tx or SPI_Direction_Rx
  54:../Libraries/STM32F30x_StdPeriph_Driver/src/stm32f30x_spi.c ****                  using the SPI_BiDirectionalLineConfig() function.
  55:../Libraries/STM32F30x_StdPeriph_Driver/src/stm32f30x_spi.c ****             (++) When SPI_NSS_Soft is selected as Slave Select Management parameter 
  56:../Libraries/STM32F30x_StdPeriph_Driver/src/stm32f30x_spi.c ****                  using the SPI_Init() function it can be possible to manage the 
  57:../Libraries/STM32F30x_StdPeriph_Driver/src/stm32f30x_spi.c ****                  NSS internal signal using the SPI_NSSInternalSoftwareConfig() function.
  58:../Libraries/STM32F30x_StdPeriph_Driver/src/stm32f30x_spi.c ****             (++) Reconfigure the data size using the SPI_DataSizeConfig() function.  
  59:../Libraries/STM32F30x_StdPeriph_Driver/src/stm32f30x_spi.c ****             (++) Enable or disable the SS output using the SPI_SSOutputCmd() function.
  60:../Libraries/STM32F30x_StdPeriph_Driver/src/stm32f30x_spi.c ****         (#) To use the CRC Hardware calculation feature refer to the Peripheral 
  61:../Libraries/STM32F30x_StdPeriph_Driver/src/stm32f30x_spi.c ****             CRC hardware Calculation subsection.
  62:../Libraries/STM32F30x_StdPeriph_Driver/src/stm32f30x_spi.c ****     [..] It is possible to use SPI in I2S full duplex mode, in this case, each SPI 
  63:../Libraries/STM32F30x_StdPeriph_Driver/src/stm32f30x_spi.c ****          peripheral is able to manage sending and receiving data simultaneously
  64:../Libraries/STM32F30x_StdPeriph_Driver/src/stm32f30x_spi.c ****          using two data lines. Each SPI peripheral has an extended block called I2Sxext
  65:../Libraries/STM32F30x_StdPeriph_Driver/src/stm32f30x_spi.c ****          (ie. I2S2ext for SPI2 and I2S3ext for SPI3).
  66:../Libraries/STM32F30x_StdPeriph_Driver/src/stm32f30x_spi.c ****          The extension block is not a full SPI IP, it is used only as I2S slave to
  67:../Libraries/STM32F30x_StdPeriph_Driver/src/stm32f30x_spi.c ****          implement full duplex mode. The extension block uses the same clock sources
  68:../Libraries/STM32F30x_StdPeriph_Driver/src/stm32f30x_spi.c ****          as its master.          
  69:../Libraries/STM32F30x_StdPeriph_Driver/src/stm32f30x_spi.c ****          To configure I2S full duplex you have to:
  70:../Libraries/STM32F30x_StdPeriph_Driver/src/stm32f30x_spi.c ****         (#) Configure SPIx in I2S mode (I2S_Init() function) as described above. 
  71:../Libraries/STM32F30x_StdPeriph_Driver/src/stm32f30x_spi.c ****         (#) Call the I2S_FullDuplexConfig() function using the same strucutre passed to  
  72:../Libraries/STM32F30x_StdPeriph_Driver/src/stm32f30x_spi.c ****             I2S_Init() function.
  73:../Libraries/STM32F30x_StdPeriph_Driver/src/stm32f30x_spi.c ****         (#) Call I2S_Cmd() for SPIx then for its extended block.
  74:../Libraries/STM32F30x_StdPeriph_Driver/src/stm32f30x_spi.c ****         (#) Configure interrupts or DMA requests and to get/clear flag status, 
  75:../Libraries/STM32F30x_StdPeriph_Driver/src/stm32f30x_spi.c ****             use I2Sxext instance for the extension block.
  76:../Libraries/STM32F30x_StdPeriph_Driver/src/stm32f30x_spi.c ****         [..] Functions that can be called with I2Sxext instances are:
  77:../Libraries/STM32F30x_StdPeriph_Driver/src/stm32f30x_spi.c ****              I2S_Cmd(), I2S_FullDuplexConfig(), SPI_I2S_ReceiveData16(), SPI_I2S_SendData16(), 
  78:../Libraries/STM32F30x_StdPeriph_Driver/src/stm32f30x_spi.c ****              SPI_I2S_DMACmd(), SPI_I2S_ITConfig(), SPI_I2S_GetFlagStatus(), SPI_I2S_ClearFlag(),
  79:../Libraries/STM32F30x_StdPeriph_Driver/src/stm32f30x_spi.c ****              SPI_I2S_GetITStatus() and SPI_I2S_ClearITPendingBit().
  80:../Libraries/STM32F30x_StdPeriph_Driver/src/stm32f30x_spi.c ****         [..] Example: To use SPI3 in Full duplex mode (SPI3 is Master Tx, I2S3ext is Slave Rx):
  81:../Libraries/STM32F30x_StdPeriph_Driver/src/stm32f30x_spi.c ****         [..] RCC_APB1PeriphClockCmd(RCC_APB1Periph_SPI3, ENABLE);   
  82:../Libraries/STM32F30x_StdPeriph_Driver/src/stm32f30x_spi.c ****              I2S_StructInit(&I2SInitStruct);
  83:../Libraries/STM32F30x_StdPeriph_Driver/src/stm32f30x_spi.c ****              I2SInitStruct.Mode = I2S_Mode_MasterTx;     
  84:../Libraries/STM32F30x_StdPeriph_Driver/src/stm32f30x_spi.c ****              I2S_Init(SPI3, &I2SInitStruct);
  85:../Libraries/STM32F30x_StdPeriph_Driver/src/stm32f30x_spi.c ****              I2S_FullDuplexConfig(SPI3ext, &I2SInitStruct)
  86:../Libraries/STM32F30x_StdPeriph_Driver/src/stm32f30x_spi.c ****              I2S_Cmd(SPI3, ENABLE);
  87:../Libraries/STM32F30x_StdPeriph_Driver/src/stm32f30x_spi.c ****              I2S_Cmd(SPI3ext, ENABLE);
  88:../Libraries/STM32F30x_StdPeriph_Driver/src/stm32f30x_spi.c ****              ...
  89:../Libraries/STM32F30x_StdPeriph_Driver/src/stm32f30x_spi.c ****              while (SPI_I2S_GetFlagStatus(SPI2, SPI_FLAG_TXE) == RESET)
  90:../Libraries/STM32F30x_StdPeriph_Driver/src/stm32f30x_spi.c ****              {}
  91:../Libraries/STM32F30x_StdPeriph_Driver/src/stm32f30x_spi.c ****              SPI_I2S_SendData16(SPI3, txdata[i]);
  92:../Libraries/STM32F30x_StdPeriph_Driver/src/stm32f30x_spi.c ****              ...  
  93:../Libraries/STM32F30x_StdPeriph_Driver/src/stm32f30x_spi.c ****              while (SPI_I2S_GetFlagStatus(I2S3ext, SPI_FLAG_RXNE) == RESET)
  94:../Libraries/STM32F30x_StdPeriph_Driver/src/stm32f30x_spi.c ****              {}
  95:../Libraries/STM32F30x_StdPeriph_Driver/src/stm32f30x_spi.c ****              rxdata[i] = SPI_I2S_ReceiveData16(I2S3ext);
  96:../Libraries/STM32F30x_StdPeriph_Driver/src/stm32f30x_spi.c ****              ...          
  97:../Libraries/STM32F30x_StdPeriph_Driver/src/stm32f30x_spi.c ****     [..]
  98:../Libraries/STM32F30x_StdPeriph_Driver/src/stm32f30x_spi.c ****     (@) In SPI mode: To use the SPI TI mode, call the function SPI_TIModeCmd() 
  99:../Libraries/STM32F30x_StdPeriph_Driver/src/stm32f30x_spi.c ****         just after calling the function SPI_Init().  
 100:../Libraries/STM32F30x_StdPeriph_Driver/src/stm32f30x_spi.c ****               
 101:../Libraries/STM32F30x_StdPeriph_Driver/src/stm32f30x_spi.c ****     @endverbatim
 102:../Libraries/STM32F30x_StdPeriph_Driver/src/stm32f30x_spi.c ****   ******************************************************************************
 103:../Libraries/STM32F30x_StdPeriph_Driver/src/stm32f30x_spi.c ****   * @attention
 104:../Libraries/STM32F30x_StdPeriph_Driver/src/stm32f30x_spi.c ****   *
 105:../Libraries/STM32F30x_StdPeriph_Driver/src/stm32f30x_spi.c ****   * <h2><center>&copy; COPYRIGHT 2012 STMicroelectronics</center></h2>
 106:../Libraries/STM32F30x_StdPeriph_Driver/src/stm32f30x_spi.c ****   *
 107:../Libraries/STM32F30x_StdPeriph_Driver/src/stm32f30x_spi.c ****   * Licensed under MCD-ST Liberty SW License Agreement V2, (the "License");
 108:../Libraries/STM32F30x_StdPeriph_Driver/src/stm32f30x_spi.c ****   * You may not use this file except in compliance with the License.
 109:../Libraries/STM32F30x_StdPeriph_Driver/src/stm32f30x_spi.c ****   * You may obtain a copy of the License at:
 110:../Libraries/STM32F30x_StdPeriph_Driver/src/stm32f30x_spi.c ****   *
 111:../Libraries/STM32F30x_StdPeriph_Driver/src/stm32f30x_spi.c ****   *        http://www.st.com/software_license_agreement_liberty_v2
 112:../Libraries/STM32F30x_StdPeriph_Driver/src/stm32f30x_spi.c ****   *
 113:../Libraries/STM32F30x_StdPeriph_Driver/src/stm32f30x_spi.c ****   * Unless required by applicable law or agreed to in writing, software 
 114:../Libraries/STM32F30x_StdPeriph_Driver/src/stm32f30x_spi.c ****   * distributed under the License is distributed on an "AS IS" BASIS, 
 115:../Libraries/STM32F30x_StdPeriph_Driver/src/stm32f30x_spi.c ****   * WITHOUT WARRANTIES OR CONDITIONS OF ANY KIND, either express or implied.
 116:../Libraries/STM32F30x_StdPeriph_Driver/src/stm32f30x_spi.c ****   * See the License for the specific language governing permissions and
 117:../Libraries/STM32F30x_StdPeriph_Driver/src/stm32f30x_spi.c ****   * limitations under the License.
 118:../Libraries/STM32F30x_StdPeriph_Driver/src/stm32f30x_spi.c ****   *
 119:../Libraries/STM32F30x_StdPeriph_Driver/src/stm32f30x_spi.c ****   ******************************************************************************
 120:../Libraries/STM32F30x_StdPeriph_Driver/src/stm32f30x_spi.c ****   */
 121:../Libraries/STM32F30x_StdPeriph_Driver/src/stm32f30x_spi.c **** 
 122:../Libraries/STM32F30x_StdPeriph_Driver/src/stm32f30x_spi.c **** /* Includes ------------------------------------------------------------------*/
 123:../Libraries/STM32F30x_StdPeriph_Driver/src/stm32f30x_spi.c **** #include "stm32f30x_spi.h"
 124:../Libraries/STM32F30x_StdPeriph_Driver/src/stm32f30x_spi.c **** #include "stm32f30x_rcc.h"
 125:../Libraries/STM32F30x_StdPeriph_Driver/src/stm32f30x_spi.c **** 
 126:../Libraries/STM32F30x_StdPeriph_Driver/src/stm32f30x_spi.c **** /** @addtogroup STM32F30x_StdPeriph_Driver
 127:../Libraries/STM32F30x_StdPeriph_Driver/src/stm32f30x_spi.c ****   * @{
 128:../Libraries/STM32F30x_StdPeriph_Driver/src/stm32f30x_spi.c ****   */
 129:../Libraries/STM32F30x_StdPeriph_Driver/src/stm32f30x_spi.c **** 
 130:../Libraries/STM32F30x_StdPeriph_Driver/src/stm32f30x_spi.c **** /** @defgroup SPI
 131:../Libraries/STM32F30x_StdPeriph_Driver/src/stm32f30x_spi.c ****   * @brief SPI driver modules
 132:../Libraries/STM32F30x_StdPeriph_Driver/src/stm32f30x_spi.c ****   * @{
 133:../Libraries/STM32F30x_StdPeriph_Driver/src/stm32f30x_spi.c ****   */
 134:../Libraries/STM32F30x_StdPeriph_Driver/src/stm32f30x_spi.c **** 
 135:../Libraries/STM32F30x_StdPeriph_Driver/src/stm32f30x_spi.c **** /* Private typedef -----------------------------------------------------------*/
 136:../Libraries/STM32F30x_StdPeriph_Driver/src/stm32f30x_spi.c **** /* Private define ------------------------------------------------------------*/
 137:../Libraries/STM32F30x_StdPeriph_Driver/src/stm32f30x_spi.c **** /* SPI registers Masks */
 138:../Libraries/STM32F30x_StdPeriph_Driver/src/stm32f30x_spi.c **** #define CR1_CLEAR_MASK       ((uint16_t)0x3040)
 139:../Libraries/STM32F30x_StdPeriph_Driver/src/stm32f30x_spi.c **** #define CR2_LDMA_MASK        ((uint16_t)0x9FFF)
 140:../Libraries/STM32F30x_StdPeriph_Driver/src/stm32f30x_spi.c **** 
 141:../Libraries/STM32F30x_StdPeriph_Driver/src/stm32f30x_spi.c **** #define I2SCFGR_CLEAR_MASK   ((uint16_t)0xF040)
 142:../Libraries/STM32F30x_StdPeriph_Driver/src/stm32f30x_spi.c **** 
 143:../Libraries/STM32F30x_StdPeriph_Driver/src/stm32f30x_spi.c **** /* Private macro -------------------------------------------------------------*/
 144:../Libraries/STM32F30x_StdPeriph_Driver/src/stm32f30x_spi.c **** /* Private variables ---------------------------------------------------------*/
 145:../Libraries/STM32F30x_StdPeriph_Driver/src/stm32f30x_spi.c **** /* Private function prototypes -----------------------------------------------*/
 146:../Libraries/STM32F30x_StdPeriph_Driver/src/stm32f30x_spi.c **** /* Private functions ---------------------------------------------------------*/
 147:../Libraries/STM32F30x_StdPeriph_Driver/src/stm32f30x_spi.c **** 
 148:../Libraries/STM32F30x_StdPeriph_Driver/src/stm32f30x_spi.c **** /** @defgroup SPI_Private_Functions
 149:../Libraries/STM32F30x_StdPeriph_Driver/src/stm32f30x_spi.c ****   * @{
 150:../Libraries/STM32F30x_StdPeriph_Driver/src/stm32f30x_spi.c ****   */
 151:../Libraries/STM32F30x_StdPeriph_Driver/src/stm32f30x_spi.c **** 
 152:../Libraries/STM32F30x_StdPeriph_Driver/src/stm32f30x_spi.c **** /** @defgroup SPI_Group1 Initialization and Configuration functions
 153:../Libraries/STM32F30x_StdPeriph_Driver/src/stm32f30x_spi.c ****  *  @brief   Initialization and Configuration functions 
 154:../Libraries/STM32F30x_StdPeriph_Driver/src/stm32f30x_spi.c ****  *
 155:../Libraries/STM32F30x_StdPeriph_Driver/src/stm32f30x_spi.c **** @verbatim   
 156:../Libraries/STM32F30x_StdPeriph_Driver/src/stm32f30x_spi.c ****  ===============================================================================
 157:../Libraries/STM32F30x_StdPeriph_Driver/src/stm32f30x_spi.c ****            ##### Initialization and Configuration functions #####
 158:../Libraries/STM32F30x_StdPeriph_Driver/src/stm32f30x_spi.c ****  ===============================================================================  
 159:../Libraries/STM32F30x_StdPeriph_Driver/src/stm32f30x_spi.c ****     [..] This section provides a set of functions allowing to initialize the SPI Direction,
 160:../Libraries/STM32F30x_StdPeriph_Driver/src/stm32f30x_spi.c ****          SPI Mode, SPI Data Size, SPI Polarity, SPI Phase, SPI NSS Management, SPI Baud
 161:../Libraries/STM32F30x_StdPeriph_Driver/src/stm32f30x_spi.c ****          Rate Prescaler, SPI First Bit and SPI CRC Polynomial.
 162:../Libraries/STM32F30x_StdPeriph_Driver/src/stm32f30x_spi.c ****     [..] The SPI_Init() function follows the SPI configuration procedures for Master mode
 163:../Libraries/STM32F30x_StdPeriph_Driver/src/stm32f30x_spi.c ****          and Slave mode (details for these procedures are available in reference manual).
 164:../Libraries/STM32F30x_StdPeriph_Driver/src/stm32f30x_spi.c ****     [..] When the Software NSS management (SPI_InitStruct->SPI_NSS = SPI_NSS_Soft) is selected,
 165:../Libraries/STM32F30x_StdPeriph_Driver/src/stm32f30x_spi.c ****          use the following function to manage the NSS bit:
 166:../Libraries/STM32F30x_StdPeriph_Driver/src/stm32f30x_spi.c ****          void SPI_NSSInternalSoftwareConfig(SPI_TypeDef* SPIx, uint16_t SPI_NSSInternalSoft);
 167:../Libraries/STM32F30x_StdPeriph_Driver/src/stm32f30x_spi.c ****     [..] In Master mode, when the Hardware NSS management (SPI_InitStruct->SPI_NSS = SPI_NSS_Hard)
 168:../Libraries/STM32F30x_StdPeriph_Driver/src/stm32f30x_spi.c ****          is selected, use the follwoing function to enable the NSS output feature.
 169:../Libraries/STM32F30x_StdPeriph_Driver/src/stm32f30x_spi.c ****          void SPI_SSOutputCmd(SPI_TypeDef* SPIx, FunctionalState NewState);
 170:../Libraries/STM32F30x_StdPeriph_Driver/src/stm32f30x_spi.c ****     [..] The NSS pulse mode can be managed by the SPI TI mode when enabling it using the 
 171:../Libraries/STM32F30x_StdPeriph_Driver/src/stm32f30x_spi.c ****          following function: void SPI_TIModeCmd(SPI_TypeDef* SPIx, FunctionalState NewState);
 172:../Libraries/STM32F30x_StdPeriph_Driver/src/stm32f30x_spi.c ****          And it can be managed by software in the SPI Motorola mode using this function: 
 173:../Libraries/STM32F30x_StdPeriph_Driver/src/stm32f30x_spi.c ****          void SPI_NSSPulseModeCmd(SPI_TypeDef* SPIx, FunctionalState NewState);
 174:../Libraries/STM32F30x_StdPeriph_Driver/src/stm32f30x_spi.c ****     [..] This section provides also functions to initialize the I2S Mode, Standard, 
 175:../Libraries/STM32F30x_StdPeriph_Driver/src/stm32f30x_spi.c ****          Data Format, MCLK Output, Audio frequency and Polarity.
 176:../Libraries/STM32F30x_StdPeriph_Driver/src/stm32f30x_spi.c ****     [..] The I2S_Init() function follows the I2S configuration procedures for Master mode
 177:../Libraries/STM32F30x_StdPeriph_Driver/src/stm32f30x_spi.c ****          and Slave mode.
 178:../Libraries/STM32F30x_StdPeriph_Driver/src/stm32f30x_spi.c ****   
 179:../Libraries/STM32F30x_StdPeriph_Driver/src/stm32f30x_spi.c **** @endverbatim
 180:../Libraries/STM32F30x_StdPeriph_Driver/src/stm32f30x_spi.c ****   * @{
 181:../Libraries/STM32F30x_StdPeriph_Driver/src/stm32f30x_spi.c ****   */
 182:../Libraries/STM32F30x_StdPeriph_Driver/src/stm32f30x_spi.c **** 
 183:../Libraries/STM32F30x_StdPeriph_Driver/src/stm32f30x_spi.c **** /**
 184:../Libraries/STM32F30x_StdPeriph_Driver/src/stm32f30x_spi.c ****   * @brief  Deinitializes the SPIx peripheral registers to their default
 185:../Libraries/STM32F30x_StdPeriph_Driver/src/stm32f30x_spi.c ****   *         reset values.
 186:../Libraries/STM32F30x_StdPeriph_Driver/src/stm32f30x_spi.c ****   * @param  SPIx: To select the SPIx peripheral, where x can be: 1, 2 or 3 
 187:../Libraries/STM32F30x_StdPeriph_Driver/src/stm32f30x_spi.c ****   *         in SPI mode.
 188:../Libraries/STM32F30x_StdPeriph_Driver/src/stm32f30x_spi.c ****   * @retval None
 189:../Libraries/STM32F30x_StdPeriph_Driver/src/stm32f30x_spi.c ****   */
 190:../Libraries/STM32F30x_StdPeriph_Driver/src/stm32f30x_spi.c **** void SPI_I2S_DeInit(SPI_TypeDef* SPIx)
 191:../Libraries/STM32F30x_StdPeriph_Driver/src/stm32f30x_spi.c **** {
  27              		.loc 1 191 0
  28              		.cfi_startproc
  29              		@ args = 0, pretend = 0, frame = 8
  30              		@ frame_needed = 0, uses_anonymous_args = 0
  31 0000 00B5     		push	{lr}
  32              	.LCFI0:
  33              		.cfi_def_cfa_offset 4
  34              		.cfi_offset 14, -4
  35 0002 83B0     		sub	sp, sp, #12
  36              	.LCFI1:
  37              		.cfi_def_cfa_offset 16
  38 0004 0190     		str	r0, [sp, #4]
 192:../Libraries/STM32F30x_StdPeriph_Driver/src/stm32f30x_spi.c ****   /* Check the parameters */
 193:../Libraries/STM32F30x_StdPeriph_Driver/src/stm32f30x_spi.c ****   assert_param(IS_SPI_ALL_PERIPH(SPIx));
 194:../Libraries/STM32F30x_StdPeriph_Driver/src/stm32f30x_spi.c **** 
 195:../Libraries/STM32F30x_StdPeriph_Driver/src/stm32f30x_spi.c ****   if (SPIx == SPI1)
  39              		.loc 1 195 0
  40 0006 019A     		ldr	r2, [sp, #4]
  41 0008 4FF44053 		mov	r3, #12288
  42 000c C4F20103 		movt	r3, 16385
  43 0010 9A42     		cmp	r2, r3
  44 0012 0CD1     		bne	.L2
 196:../Libraries/STM32F30x_StdPeriph_Driver/src/stm32f30x_spi.c ****   {
 197:../Libraries/STM32F30x_StdPeriph_Driver/src/stm32f30x_spi.c ****     /* Enable SPI1 reset state */
 198:../Libraries/STM32F30x_StdPeriph_Driver/src/stm32f30x_spi.c ****     RCC_APB2PeriphResetCmd(RCC_APB2Periph_SPI1, ENABLE);
  45              		.loc 1 198 0
  46 0014 4FF48050 		mov	r0, #4096
  47 0018 4FF00101 		mov	r1, #1
  48 001c FFF7FEFF 		bl	RCC_APB2PeriphResetCmd
 199:../Libraries/STM32F30x_StdPeriph_Driver/src/stm32f30x_spi.c ****     /* Release SPI1 from reset state */
 200:../Libraries/STM32F30x_StdPeriph_Driver/src/stm32f30x_spi.c ****     RCC_APB2PeriphResetCmd(RCC_APB2Periph_SPI1, DISABLE);
  49              		.loc 1 200 0
  50 0020 4FF48050 		mov	r0, #4096
  51 0024 4FF00001 		mov	r1, #0
  52 0028 FFF7FEFF 		bl	RCC_APB2PeriphResetCmd
  53 002c 26E0     		b	.L1
  54              	.L2:
 201:../Libraries/STM32F30x_StdPeriph_Driver/src/stm32f30x_spi.c ****   }
 202:../Libraries/STM32F30x_StdPeriph_Driver/src/stm32f30x_spi.c ****   else if (SPIx == SPI2)
  55              		.loc 1 202 0
  56 002e 019A     		ldr	r2, [sp, #4]
  57 0030 4FF46053 		mov	r3, #14336
  58 0034 C4F20003 		movt	r3, 16384
  59 0038 9A42     		cmp	r2, r3
  60 003a 0CD1     		bne	.L4
 203:../Libraries/STM32F30x_StdPeriph_Driver/src/stm32f30x_spi.c ****   {
 204:../Libraries/STM32F30x_StdPeriph_Driver/src/stm32f30x_spi.c ****     /* Enable SPI2 reset state */
 205:../Libraries/STM32F30x_StdPeriph_Driver/src/stm32f30x_spi.c ****     RCC_APB1PeriphResetCmd(RCC_APB1Periph_SPI2, ENABLE);
  61              		.loc 1 205 0
  62 003c 4FF48040 		mov	r0, #16384
  63 0040 4FF00101 		mov	r1, #1
  64 0044 FFF7FEFF 		bl	RCC_APB1PeriphResetCmd
 206:../Libraries/STM32F30x_StdPeriph_Driver/src/stm32f30x_spi.c ****     /* Release SPI2 from reset state */
 207:../Libraries/STM32F30x_StdPeriph_Driver/src/stm32f30x_spi.c ****     RCC_APB1PeriphResetCmd(RCC_APB1Periph_SPI2, DISABLE);
  65              		.loc 1 207 0
  66 0048 4FF48040 		mov	r0, #16384
  67 004c 4FF00001 		mov	r1, #0
  68 0050 FFF7FEFF 		bl	RCC_APB1PeriphResetCmd
  69 0054 12E0     		b	.L1
  70              	.L4:
 208:../Libraries/STM32F30x_StdPeriph_Driver/src/stm32f30x_spi.c ****   }
 209:../Libraries/STM32F30x_StdPeriph_Driver/src/stm32f30x_spi.c ****   else
 210:../Libraries/STM32F30x_StdPeriph_Driver/src/stm32f30x_spi.c ****   {
 211:../Libraries/STM32F30x_StdPeriph_Driver/src/stm32f30x_spi.c ****     if (SPIx == SPI3)
  71              		.loc 1 211 0
  72 0056 019A     		ldr	r2, [sp, #4]
  73 0058 4FF47053 		mov	r3, #15360
  74 005c C4F20003 		movt	r3, 16384
  75 0060 9A42     		cmp	r2, r3
  76 0062 0BD1     		bne	.L1
 212:../Libraries/STM32F30x_StdPeriph_Driver/src/stm32f30x_spi.c ****     {
 213:../Libraries/STM32F30x_StdPeriph_Driver/src/stm32f30x_spi.c ****       /* Enable SPI3 reset state */
 214:../Libraries/STM32F30x_StdPeriph_Driver/src/stm32f30x_spi.c ****       RCC_APB1PeriphResetCmd(RCC_APB1Periph_SPI3, ENABLE);
  77              		.loc 1 214 0
  78 0064 4FF40040 		mov	r0, #32768
  79 0068 4FF00101 		mov	r1, #1
  80 006c FFF7FEFF 		bl	RCC_APB1PeriphResetCmd
 215:../Libraries/STM32F30x_StdPeriph_Driver/src/stm32f30x_spi.c ****       /* Release SPI3 from reset state */
 216:../Libraries/STM32F30x_StdPeriph_Driver/src/stm32f30x_spi.c ****       RCC_APB1PeriphResetCmd(RCC_APB1Periph_SPI3, DISABLE);
  81              		.loc 1 216 0
  82 0070 4FF40040 		mov	r0, #32768
  83 0074 4FF00001 		mov	r1, #0
  84 0078 FFF7FEFF 		bl	RCC_APB1PeriphResetCmd
  85              	.L1:
 217:../Libraries/STM32F30x_StdPeriph_Driver/src/stm32f30x_spi.c ****     }
 218:../Libraries/STM32F30x_StdPeriph_Driver/src/stm32f30x_spi.c ****   }
 219:../Libraries/STM32F30x_StdPeriph_Driver/src/stm32f30x_spi.c **** }
  86              		.loc 1 219 0
  87 007c 03B0     		add	sp, sp, #12
  88 007e 00BD     		pop	{pc}
  89              		.cfi_endproc
  90              	.LFE111:
  92              		.align	2
  93              		.global	SPI_StructInit
  94              		.thumb
  95              		.thumb_func
  97              	SPI_StructInit:
  98              	.LFB112:
 220:../Libraries/STM32F30x_StdPeriph_Driver/src/stm32f30x_spi.c **** 
 221:../Libraries/STM32F30x_StdPeriph_Driver/src/stm32f30x_spi.c **** /**
 222:../Libraries/STM32F30x_StdPeriph_Driver/src/stm32f30x_spi.c ****   * @brief  Fills each SPI_InitStruct member with its default value.
 223:../Libraries/STM32F30x_StdPeriph_Driver/src/stm32f30x_spi.c ****   * @param  SPI_InitStruct: pointer to a SPI_InitTypeDef structure which will be initialized.
 224:../Libraries/STM32F30x_StdPeriph_Driver/src/stm32f30x_spi.c ****   * @retval None
 225:../Libraries/STM32F30x_StdPeriph_Driver/src/stm32f30x_spi.c ****   */
 226:../Libraries/STM32F30x_StdPeriph_Driver/src/stm32f30x_spi.c **** void SPI_StructInit(SPI_InitTypeDef* SPI_InitStruct)
 227:../Libraries/STM32F30x_StdPeriph_Driver/src/stm32f30x_spi.c **** {
  99              		.loc 1 227 0
 100              		.cfi_startproc
 101              		@ args = 0, pretend = 0, frame = 8
 102              		@ frame_needed = 0, uses_anonymous_args = 0
 103              		@ link register save eliminated.
 104 0080 82B0     		sub	sp, sp, #8
 105              	.LCFI2:
 106              		.cfi_def_cfa_offset 8
 107 0082 0190     		str	r0, [sp, #4]
 228:../Libraries/STM32F30x_StdPeriph_Driver/src/stm32f30x_spi.c **** /*--------------- Reset SPI init structure parameters values -----------------*/
 229:../Libraries/STM32F30x_StdPeriph_Driver/src/stm32f30x_spi.c ****   /* Initialize the SPI_Direction member */
 230:../Libraries/STM32F30x_StdPeriph_Driver/src/stm32f30x_spi.c ****   SPI_InitStruct->SPI_Direction = SPI_Direction_2Lines_FullDuplex;
 108              		.loc 1 230 0
 109 0084 019B     		ldr	r3, [sp, #4]
 110 0086 4FF00002 		mov	r2, #0
 111 008a 1A80     		strh	r2, [r3, #0]	@ movhi
 231:../Libraries/STM32F30x_StdPeriph_Driver/src/stm32f30x_spi.c ****   /* Initialize the SPI_Mode member */
 232:../Libraries/STM32F30x_StdPeriph_Driver/src/stm32f30x_spi.c ****   SPI_InitStruct->SPI_Mode = SPI_Mode_Slave;
 112              		.loc 1 232 0
 113 008c 019B     		ldr	r3, [sp, #4]
 114 008e 4FF00002 		mov	r2, #0
 115 0092 5A80     		strh	r2, [r3, #2]	@ movhi
 233:../Libraries/STM32F30x_StdPeriph_Driver/src/stm32f30x_spi.c ****   /* Initialize the SPI_DataSize member */
 234:../Libraries/STM32F30x_StdPeriph_Driver/src/stm32f30x_spi.c ****   SPI_InitStruct->SPI_DataSize = SPI_DataSize_8b;
 116              		.loc 1 234 0
 117 0094 019B     		ldr	r3, [sp, #4]
 118 0096 4FF4E062 		mov	r2, #1792
 119 009a 9A80     		strh	r2, [r3, #4]	@ movhi
 235:../Libraries/STM32F30x_StdPeriph_Driver/src/stm32f30x_spi.c ****   /* Initialize the SPI_CPOL member */
 236:../Libraries/STM32F30x_StdPeriph_Driver/src/stm32f30x_spi.c ****   SPI_InitStruct->SPI_CPOL = SPI_CPOL_Low;
 120              		.loc 1 236 0
 121 009c 019B     		ldr	r3, [sp, #4]
 122 009e 4FF00002 		mov	r2, #0
 123 00a2 DA80     		strh	r2, [r3, #6]	@ movhi
 237:../Libraries/STM32F30x_StdPeriph_Driver/src/stm32f30x_spi.c ****   /* Initialize the SPI_CPHA member */
 238:../Libraries/STM32F30x_StdPeriph_Driver/src/stm32f30x_spi.c ****   SPI_InitStruct->SPI_CPHA = SPI_CPHA_1Edge;
 124              		.loc 1 238 0
 125 00a4 019B     		ldr	r3, [sp, #4]
 126 00a6 4FF00002 		mov	r2, #0
 127 00aa 1A81     		strh	r2, [r3, #8]	@ movhi
 239:../Libraries/STM32F30x_StdPeriph_Driver/src/stm32f30x_spi.c ****   /* Initialize the SPI_NSS member */
 240:../Libraries/STM32F30x_StdPeriph_Driver/src/stm32f30x_spi.c ****   SPI_InitStruct->SPI_NSS = SPI_NSS_Hard;
 128              		.loc 1 240 0
 129 00ac 019B     		ldr	r3, [sp, #4]
 130 00ae 4FF00002 		mov	r2, #0
 131 00b2 5A81     		strh	r2, [r3, #10]	@ movhi
 241:../Libraries/STM32F30x_StdPeriph_Driver/src/stm32f30x_spi.c ****   /* Initialize the SPI_BaudRatePrescaler member */
 242:../Libraries/STM32F30x_StdPeriph_Driver/src/stm32f30x_spi.c ****   SPI_InitStruct->SPI_BaudRatePrescaler = SPI_BaudRatePrescaler_2;
 132              		.loc 1 242 0
 133 00b4 019B     		ldr	r3, [sp, #4]
 134 00b6 4FF00002 		mov	r2, #0
 135 00ba 9A81     		strh	r2, [r3, #12]	@ movhi
 243:../Libraries/STM32F30x_StdPeriph_Driver/src/stm32f30x_spi.c ****   /* Initialize the SPI_FirstBit member */
 244:../Libraries/STM32F30x_StdPeriph_Driver/src/stm32f30x_spi.c ****   SPI_InitStruct->SPI_FirstBit = SPI_FirstBit_MSB;
 136              		.loc 1 244 0
 137 00bc 019B     		ldr	r3, [sp, #4]
 138 00be 4FF00002 		mov	r2, #0
 139 00c2 DA81     		strh	r2, [r3, #14]	@ movhi
 245:../Libraries/STM32F30x_StdPeriph_Driver/src/stm32f30x_spi.c ****   /* Initialize the SPI_CRCPolynomial member */
 246:../Libraries/STM32F30x_StdPeriph_Driver/src/stm32f30x_spi.c ****   SPI_InitStruct->SPI_CRCPolynomial = 7;
 140              		.loc 1 246 0
 141 00c4 019B     		ldr	r3, [sp, #4]
 142 00c6 4FF00702 		mov	r2, #7
 143 00ca 1A82     		strh	r2, [r3, #16]	@ movhi
 247:../Libraries/STM32F30x_StdPeriph_Driver/src/stm32f30x_spi.c **** }
 144              		.loc 1 247 0
 145 00cc 02B0     		add	sp, sp, #8
 146 00ce 7047     		bx	lr
 147              		.cfi_endproc
 148              	.LFE112:
 150              		.align	2
 151              		.global	SPI_Init
 152              		.thumb
 153              		.thumb_func
 155              	SPI_Init:
 156              	.LFB113:
 248:../Libraries/STM32F30x_StdPeriph_Driver/src/stm32f30x_spi.c **** 
 249:../Libraries/STM32F30x_StdPeriph_Driver/src/stm32f30x_spi.c **** /**
 250:../Libraries/STM32F30x_StdPeriph_Driver/src/stm32f30x_spi.c ****   * @brief  Initializes the SPIx peripheral according to the specified 
 251:../Libraries/STM32F30x_StdPeriph_Driver/src/stm32f30x_spi.c ****   *         parameters in the SPI_InitStruct.
 252:../Libraries/STM32F30x_StdPeriph_Driver/src/stm32f30x_spi.c ****   * @param  SPIx: where x can be 1, 2 or 3 to select the SPI peripheral.
 253:../Libraries/STM32F30x_StdPeriph_Driver/src/stm32f30x_spi.c ****   * @param  SPI_InitStruct: pointer to a SPI_InitTypeDef structure that
 254:../Libraries/STM32F30x_StdPeriph_Driver/src/stm32f30x_spi.c ****   *         contains the configuration information for the specified SPI peripheral.
 255:../Libraries/STM32F30x_StdPeriph_Driver/src/stm32f30x_spi.c ****   * @retval None
 256:../Libraries/STM32F30x_StdPeriph_Driver/src/stm32f30x_spi.c ****   */
 257:../Libraries/STM32F30x_StdPeriph_Driver/src/stm32f30x_spi.c **** void SPI_Init(SPI_TypeDef* SPIx, SPI_InitTypeDef* SPI_InitStruct)
 258:../Libraries/STM32F30x_StdPeriph_Driver/src/stm32f30x_spi.c **** {
 157              		.loc 1 258 0
 158              		.cfi_startproc
 159              		@ args = 0, pretend = 0, frame = 16
 160              		@ frame_needed = 0, uses_anonymous_args = 0
 161              		@ link register save eliminated.
 162 00d0 84B0     		sub	sp, sp, #16
 163              	.LCFI3:
 164              		.cfi_def_cfa_offset 16
 165 00d2 0190     		str	r0, [sp, #4]
 166 00d4 0091     		str	r1, [sp, #0]
 259:../Libraries/STM32F30x_StdPeriph_Driver/src/stm32f30x_spi.c ****   uint16_t tmpreg = 0;
 167              		.loc 1 259 0
 168 00d6 4FF00003 		mov	r3, #0
 169 00da ADF80E30 		strh	r3, [sp, #14]	@ movhi
 260:../Libraries/STM32F30x_StdPeriph_Driver/src/stm32f30x_spi.c **** 
 261:../Libraries/STM32F30x_StdPeriph_Driver/src/stm32f30x_spi.c ****   /* check the parameters */
 262:../Libraries/STM32F30x_StdPeriph_Driver/src/stm32f30x_spi.c ****   assert_param(IS_SPI_ALL_PERIPH(SPIx));
 263:../Libraries/STM32F30x_StdPeriph_Driver/src/stm32f30x_spi.c **** 
 264:../Libraries/STM32F30x_StdPeriph_Driver/src/stm32f30x_spi.c ****   /* Check the SPI parameters */
 265:../Libraries/STM32F30x_StdPeriph_Driver/src/stm32f30x_spi.c ****   assert_param(IS_SPI_DIRECTION_MODE(SPI_InitStruct->SPI_Direction));
 266:../Libraries/STM32F30x_StdPeriph_Driver/src/stm32f30x_spi.c ****   assert_param(IS_SPI_MODE(SPI_InitStruct->SPI_Mode));
 267:../Libraries/STM32F30x_StdPeriph_Driver/src/stm32f30x_spi.c ****   assert_param(IS_SPI_DATA_SIZE(SPI_InitStruct->SPI_DataSize));
 268:../Libraries/STM32F30x_StdPeriph_Driver/src/stm32f30x_spi.c ****   assert_param(IS_SPI_CPOL(SPI_InitStruct->SPI_CPOL));
 269:../Libraries/STM32F30x_StdPeriph_Driver/src/stm32f30x_spi.c ****   assert_param(IS_SPI_CPHA(SPI_InitStruct->SPI_CPHA));
 270:../Libraries/STM32F30x_StdPeriph_Driver/src/stm32f30x_spi.c ****   assert_param(IS_SPI_NSS(SPI_InitStruct->SPI_NSS));
 271:../Libraries/STM32F30x_StdPeriph_Driver/src/stm32f30x_spi.c ****   assert_param(IS_SPI_BAUDRATE_PRESCALER(SPI_InitStruct->SPI_BaudRatePrescaler));
 272:../Libraries/STM32F30x_StdPeriph_Driver/src/stm32f30x_spi.c ****   assert_param(IS_SPI_FIRST_BIT(SPI_InitStruct->SPI_FirstBit));
 273:../Libraries/STM32F30x_StdPeriph_Driver/src/stm32f30x_spi.c ****   assert_param(IS_SPI_CRC_POLYNOMIAL(SPI_InitStruct->SPI_CRCPolynomial));
 274:../Libraries/STM32F30x_StdPeriph_Driver/src/stm32f30x_spi.c **** 
 275:../Libraries/STM32F30x_StdPeriph_Driver/src/stm32f30x_spi.c ****   /* Configuring the SPI in master mode */
 276:../Libraries/STM32F30x_StdPeriph_Driver/src/stm32f30x_spi.c ****   if(SPI_InitStruct->SPI_Mode == SPI_Mode_Master)
 170              		.loc 1 276 0
 171 00de 009B     		ldr	r3, [sp, #0]
 172 00e0 5B88     		ldrh	r3, [r3, #2]
 173 00e2 B3F5827F 		cmp	r3, #260
 174 00e6 42D1     		bne	.L7
 277:../Libraries/STM32F30x_StdPeriph_Driver/src/stm32f30x_spi.c ****   {
 278:../Libraries/STM32F30x_StdPeriph_Driver/src/stm32f30x_spi.c **** /*---------------------------- SPIx CR1 Configuration ------------------------*/
 279:../Libraries/STM32F30x_StdPeriph_Driver/src/stm32f30x_spi.c ****     /* Get the SPIx CR1 value */
 280:../Libraries/STM32F30x_StdPeriph_Driver/src/stm32f30x_spi.c ****     tmpreg = SPIx->CR1;
 175              		.loc 1 280 0
 176 00e8 019B     		ldr	r3, [sp, #4]
 177 00ea 1B88     		ldrh	r3, [r3, #0]	@ movhi
 178 00ec ADF80E30 		strh	r3, [sp, #14]	@ movhi
 281:../Libraries/STM32F30x_StdPeriph_Driver/src/stm32f30x_spi.c ****     /* Clear BIDIMode, BIDIOE, RxONLY, SSM, SSI, LSBFirst, BR, MSTR, CPOL and CPHA bits */
 282:../Libraries/STM32F30x_StdPeriph_Driver/src/stm32f30x_spi.c ****     tmpreg &= CR1_CLEAR_MASK;
 179              		.loc 1 282 0
 180 00f0 BDF80E30 		ldrh	r3, [sp, #14]	@ movhi
 181 00f4 03F44153 		and	r3, r3, #12352
 182 00f8 ADF80E30 		strh	r3, [sp, #14]	@ movhi
 283:../Libraries/STM32F30x_StdPeriph_Driver/src/stm32f30x_spi.c ****     /* Configure SPIx: direction, NSS management, first transmitted bit, BaudRate prescaler
 284:../Libraries/STM32F30x_StdPeriph_Driver/src/stm32f30x_spi.c ****        master/slave mode, CPOL and CPHA */
 285:../Libraries/STM32F30x_StdPeriph_Driver/src/stm32f30x_spi.c ****     /* Set BIDImode, BIDIOE and RxONLY bits according to SPI_Direction value */
 286:../Libraries/STM32F30x_StdPeriph_Driver/src/stm32f30x_spi.c ****     /* Set SSM, SSI and MSTR bits according to SPI_Mode and SPI_NSS values */
 287:../Libraries/STM32F30x_StdPeriph_Driver/src/stm32f30x_spi.c ****     /* Set LSBFirst bit according to SPI_FirstBit value */
 288:../Libraries/STM32F30x_StdPeriph_Driver/src/stm32f30x_spi.c ****     /* Set BR bits according to SPI_BaudRatePrescaler value */
 289:../Libraries/STM32F30x_StdPeriph_Driver/src/stm32f30x_spi.c ****     /* Set CPOL bit according to SPI_CPOL value */
 290:../Libraries/STM32F30x_StdPeriph_Driver/src/stm32f30x_spi.c ****     /* Set CPHA bit according to SPI_CPHA value */
 291:../Libraries/STM32F30x_StdPeriph_Driver/src/stm32f30x_spi.c ****     tmpreg |= (uint16_t)((uint16_t)(SPI_InitStruct->SPI_Direction | SPI_InitStruct->SPI_Mode) |
 183              		.loc 1 291 0
 184 00fc 009B     		ldr	r3, [sp, #0]
 185 00fe 1A88     		ldrh	r2, [r3, #0]
 186 0100 009B     		ldr	r3, [sp, #0]
 187 0102 5B88     		ldrh	r3, [r3, #2]
 188 0104 1343     		orrs	r3, r3, r2
 189 0106 9AB2     		uxth	r2, r3
 292:../Libraries/STM32F30x_StdPeriph_Driver/src/stm32f30x_spi.c ****                          (uint16_t)((uint16_t)(SPI_InitStruct->SPI_CPOL | SPI_InitStruct->SPI_CPHA)
 190              		.loc 1 292 0
 191 0108 009B     		ldr	r3, [sp, #0]
 192 010a D988     		ldrh	r1, [r3, #6]
 193 010c 009B     		ldr	r3, [sp, #0]
 194 010e 1B89     		ldrh	r3, [r3, #8]
 195 0110 0B43     		orrs	r3, r3, r1
 196 0112 99B2     		uxth	r1, r3
 293:../Libraries/STM32F30x_StdPeriph_Driver/src/stm32f30x_spi.c ****                          (uint16_t)((uint16_t)(SPI_InitStruct->SPI_NSS | SPI_InitStruct->SPI_BaudRa
 197              		.loc 1 293 0
 198 0114 009B     		ldr	r3, [sp, #0]
 199 0116 5889     		ldrh	r0, [r3, #10]
 200 0118 009B     		ldr	r3, [sp, #0]
 201 011a 9B89     		ldrh	r3, [r3, #12]
 202 011c 0343     		orrs	r3, r3, r0
 203 011e 98B2     		uxth	r0, r3
 294:../Libraries/STM32F30x_StdPeriph_Driver/src/stm32f30x_spi.c ****                          SPI_InitStruct->SPI_FirstBit)));
 204              		.loc 1 294 0
 205 0120 009B     		ldr	r3, [sp, #0]
 206 0122 DB89     		ldrh	r3, [r3, #14]
 293:../Libraries/STM32F30x_StdPeriph_Driver/src/stm32f30x_spi.c ****                          (uint16_t)((uint16_t)(SPI_InitStruct->SPI_NSS | SPI_InitStruct->SPI_BaudRa
 207              		.loc 1 293 0
 208 0124 0343     		orrs	r3, r3, r0
 209 0126 9BB2     		uxth	r3, r3
 292:../Libraries/STM32F30x_StdPeriph_Driver/src/stm32f30x_spi.c ****                          (uint16_t)((uint16_t)(SPI_InitStruct->SPI_CPOL | SPI_InitStruct->SPI_CPHA)
 210              		.loc 1 292 0
 211 0128 0B43     		orrs	r3, r3, r1
 212 012a 9BB2     		uxth	r3, r3
 291:../Libraries/STM32F30x_StdPeriph_Driver/src/stm32f30x_spi.c ****     tmpreg |= (uint16_t)((uint16_t)(SPI_InitStruct->SPI_Direction | SPI_InitStruct->SPI_Mode) |
 213              		.loc 1 291 0
 214 012c 1343     		orrs	r3, r3, r2
 215 012e 9AB2     		uxth	r2, r3
 216 0130 BDF80E30 		ldrh	r3, [sp, #14]	@ movhi
 217 0134 1343     		orrs	r3, r3, r2
 218 0136 ADF80E30 		strh	r3, [sp, #14]	@ movhi
 295:../Libraries/STM32F30x_StdPeriph_Driver/src/stm32f30x_spi.c ****     /* Write to SPIx CR1 */
 296:../Libraries/STM32F30x_StdPeriph_Driver/src/stm32f30x_spi.c ****     SPIx->CR1 = tmpreg;
 219              		.loc 1 296 0
 220 013a 019B     		ldr	r3, [sp, #4]
 221 013c BDF80E20 		ldrh	r2, [sp, #14]	@ movhi
 222 0140 1A80     		strh	r2, [r3, #0]	@ movhi
 297:../Libraries/STM32F30x_StdPeriph_Driver/src/stm32f30x_spi.c ****     /*-------------------------Data Size Configuration -----------------------*/
 298:../Libraries/STM32F30x_StdPeriph_Driver/src/stm32f30x_spi.c ****     /* Get the SPIx CR2 value */
 299:../Libraries/STM32F30x_StdPeriph_Driver/src/stm32f30x_spi.c ****     tmpreg = SPIx->CR2;
 223              		.loc 1 299 0
 224 0142 019B     		ldr	r3, [sp, #4]
 225 0144 9B88     		ldrh	r3, [r3, #4]	@ movhi
 226 0146 ADF80E30 		strh	r3, [sp, #14]	@ movhi
 300:../Libraries/STM32F30x_StdPeriph_Driver/src/stm32f30x_spi.c ****     /* Clear DS[3:0] bits */
 301:../Libraries/STM32F30x_StdPeriph_Driver/src/stm32f30x_spi.c ****     tmpreg &= (uint16_t)~SPI_CR2_DS;
 227              		.loc 1 301 0
 228 014a BDF80E30 		ldrh	r3, [sp, #14]	@ movhi
 229 014e 23F47063 		bic	r3, r3, #3840
 230 0152 ADF80E30 		strh	r3, [sp, #14]	@ movhi
 302:../Libraries/STM32F30x_StdPeriph_Driver/src/stm32f30x_spi.c ****     /* Configure SPIx: Data Size */
 303:../Libraries/STM32F30x_StdPeriph_Driver/src/stm32f30x_spi.c ****     tmpreg |= (uint16_t)(SPI_InitStruct->SPI_DataSize);
 231              		.loc 1 303 0
 232 0156 009B     		ldr	r3, [sp, #0]
 233 0158 9A88     		ldrh	r2, [r3, #4]
 234 015a BDF80E30 		ldrh	r3, [sp, #14]	@ movhi
 235 015e 1343     		orrs	r3, r3, r2
 236 0160 ADF80E30 		strh	r3, [sp, #14]	@ movhi
 304:../Libraries/STM32F30x_StdPeriph_Driver/src/stm32f30x_spi.c ****     /* Write to SPIx CR2 */
 305:../Libraries/STM32F30x_StdPeriph_Driver/src/stm32f30x_spi.c ****     SPIx->CR2 = tmpreg;
 237              		.loc 1 305 0
 238 0164 019B     		ldr	r3, [sp, #4]
 239 0166 BDF80E20 		ldrh	r2, [sp, #14]	@ movhi
 240 016a 9A80     		strh	r2, [r3, #4]	@ movhi
 241 016c 41E0     		b	.L8
 242              	.L7:
 306:../Libraries/STM32F30x_StdPeriph_Driver/src/stm32f30x_spi.c ****   }
 307:../Libraries/STM32F30x_StdPeriph_Driver/src/stm32f30x_spi.c ****   /* Configuring the SPI in slave mode */
 308:../Libraries/STM32F30x_StdPeriph_Driver/src/stm32f30x_spi.c ****   else
 309:../Libraries/STM32F30x_StdPeriph_Driver/src/stm32f30x_spi.c ****   {
 310:../Libraries/STM32F30x_StdPeriph_Driver/src/stm32f30x_spi.c **** /*---------------------------- Data size Configuration -----------------------*/
 311:../Libraries/STM32F30x_StdPeriph_Driver/src/stm32f30x_spi.c ****     /* Get the SPIx CR2 value */
 312:../Libraries/STM32F30x_StdPeriph_Driver/src/stm32f30x_spi.c ****     tmpreg = SPIx->CR2;
 243              		.loc 1 312 0
 244 016e 019B     		ldr	r3, [sp, #4]
 245 0170 9B88     		ldrh	r3, [r3, #4]	@ movhi
 246 0172 ADF80E30 		strh	r3, [sp, #14]	@ movhi
 313:../Libraries/STM32F30x_StdPeriph_Driver/src/stm32f30x_spi.c ****     /* Clear DS[3:0] bits */
 314:../Libraries/STM32F30x_StdPeriph_Driver/src/stm32f30x_spi.c ****     tmpreg &= (uint16_t)~SPI_CR2_DS;
 247              		.loc 1 314 0
 248 0176 BDF80E30 		ldrh	r3, [sp, #14]	@ movhi
 249 017a 23F47063 		bic	r3, r3, #3840
 250 017e ADF80E30 		strh	r3, [sp, #14]	@ movhi
 315:../Libraries/STM32F30x_StdPeriph_Driver/src/stm32f30x_spi.c ****     /* Configure SPIx: Data Size */
 316:../Libraries/STM32F30x_StdPeriph_Driver/src/stm32f30x_spi.c ****     tmpreg |= (uint16_t)(SPI_InitStruct->SPI_DataSize);
 251              		.loc 1 316 0
 252 0182 009B     		ldr	r3, [sp, #0]
 253 0184 9A88     		ldrh	r2, [r3, #4]
 254 0186 BDF80E30 		ldrh	r3, [sp, #14]	@ movhi
 255 018a 1343     		orrs	r3, r3, r2
 256 018c ADF80E30 		strh	r3, [sp, #14]	@ movhi
 317:../Libraries/STM32F30x_StdPeriph_Driver/src/stm32f30x_spi.c ****     /* Write to SPIx CR2 */
 318:../Libraries/STM32F30x_StdPeriph_Driver/src/stm32f30x_spi.c ****     SPIx->CR2 = tmpreg;
 257              		.loc 1 318 0
 258 0190 019B     		ldr	r3, [sp, #4]
 259 0192 BDF80E20 		ldrh	r2, [sp, #14]	@ movhi
 260 0196 9A80     		strh	r2, [r3, #4]	@ movhi
 319:../Libraries/STM32F30x_StdPeriph_Driver/src/stm32f30x_spi.c **** /*---------------------------- SPIx CR1 Configuration ------------------------*/
 320:../Libraries/STM32F30x_StdPeriph_Driver/src/stm32f30x_spi.c ****     /* Get the SPIx CR1 value */
 321:../Libraries/STM32F30x_StdPeriph_Driver/src/stm32f30x_spi.c ****     tmpreg = SPIx->CR1;
 261              		.loc 1 321 0
 262 0198 019B     		ldr	r3, [sp, #4]
 263 019a 1B88     		ldrh	r3, [r3, #0]	@ movhi
 264 019c ADF80E30 		strh	r3, [sp, #14]	@ movhi
 322:../Libraries/STM32F30x_StdPeriph_Driver/src/stm32f30x_spi.c ****     /* Clear BIDIMode, BIDIOE, RxONLY, SSM, SSI, LSBFirst, BR, MSTR, CPOL and CPHA bits */
 323:../Libraries/STM32F30x_StdPeriph_Driver/src/stm32f30x_spi.c ****     tmpreg &= CR1_CLEAR_MASK;
 265              		.loc 1 323 0
 266 01a0 BDF80E30 		ldrh	r3, [sp, #14]	@ movhi
 267 01a4 03F44153 		and	r3, r3, #12352
 268 01a8 ADF80E30 		strh	r3, [sp, #14]	@ movhi
 324:../Libraries/STM32F30x_StdPeriph_Driver/src/stm32f30x_spi.c ****     /* Configure SPIx: direction, NSS management, first transmitted bit, BaudRate prescaler
 325:../Libraries/STM32F30x_StdPeriph_Driver/src/stm32f30x_spi.c ****        master/salve mode, CPOL and CPHA */
 326:../Libraries/STM32F30x_StdPeriph_Driver/src/stm32f30x_spi.c ****     /* Set BIDImode, BIDIOE and RxONLY bits according to SPI_Direction value */
 327:../Libraries/STM32F30x_StdPeriph_Driver/src/stm32f30x_spi.c ****     /* Set SSM, SSI and MSTR bits according to SPI_Mode and SPI_NSS values */
 328:../Libraries/STM32F30x_StdPeriph_Driver/src/stm32f30x_spi.c ****     /* Set LSBFirst bit according to SPI_FirstBit value */
 329:../Libraries/STM32F30x_StdPeriph_Driver/src/stm32f30x_spi.c ****     /* Set BR bits according to SPI_BaudRatePrescaler value */
 330:../Libraries/STM32F30x_StdPeriph_Driver/src/stm32f30x_spi.c ****     /* Set CPOL bit according to SPI_CPOL value */
 331:../Libraries/STM32F30x_StdPeriph_Driver/src/stm32f30x_spi.c ****     /* Set CPHA bit according to SPI_CPHA value */
 332:../Libraries/STM32F30x_StdPeriph_Driver/src/stm32f30x_spi.c ****     tmpreg |= (uint16_t)((uint16_t)(SPI_InitStruct->SPI_Direction | SPI_InitStruct->SPI_Mode) | 
 269              		.loc 1 332 0
 270 01ac 009B     		ldr	r3, [sp, #0]
 271 01ae 1A88     		ldrh	r2, [r3, #0]
 272 01b0 009B     		ldr	r3, [sp, #0]
 273 01b2 5B88     		ldrh	r3, [r3, #2]
 274 01b4 1343     		orrs	r3, r3, r2
 275 01b6 9AB2     		uxth	r2, r3
 333:../Libraries/STM32F30x_StdPeriph_Driver/src/stm32f30x_spi.c ****                          (uint16_t)((uint16_t)(SPI_InitStruct->SPI_CPOL | SPI_InitStruct->SPI_CPHA)
 276              		.loc 1 333 0
 277 01b8 009B     		ldr	r3, [sp, #0]
 278 01ba D988     		ldrh	r1, [r3, #6]
 279 01bc 009B     		ldr	r3, [sp, #0]
 280 01be 1B89     		ldrh	r3, [r3, #8]
 281 01c0 0B43     		orrs	r3, r3, r1
 282 01c2 99B2     		uxth	r1, r3
 334:../Libraries/STM32F30x_StdPeriph_Driver/src/stm32f30x_spi.c ****                          (uint16_t)((uint16_t)(SPI_InitStruct->SPI_NSS | SPI_InitStruct->SPI_BaudRa
 283              		.loc 1 334 0
 284 01c4 009B     		ldr	r3, [sp, #0]
 285 01c6 5889     		ldrh	r0, [r3, #10]
 286 01c8 009B     		ldr	r3, [sp, #0]
 287 01ca 9B89     		ldrh	r3, [r3, #12]
 288 01cc 0343     		orrs	r3, r3, r0
 289 01ce 98B2     		uxth	r0, r3
 335:../Libraries/STM32F30x_StdPeriph_Driver/src/stm32f30x_spi.c ****                          SPI_InitStruct->SPI_FirstBit)));
 290              		.loc 1 335 0
 291 01d0 009B     		ldr	r3, [sp, #0]
 292 01d2 DB89     		ldrh	r3, [r3, #14]
 334:../Libraries/STM32F30x_StdPeriph_Driver/src/stm32f30x_spi.c ****                          (uint16_t)((uint16_t)(SPI_InitStruct->SPI_NSS | SPI_InitStruct->SPI_BaudRa
 293              		.loc 1 334 0
 294 01d4 0343     		orrs	r3, r3, r0
 295 01d6 9BB2     		uxth	r3, r3
 333:../Libraries/STM32F30x_StdPeriph_Driver/src/stm32f30x_spi.c ****                          (uint16_t)((uint16_t)(SPI_InitStruct->SPI_CPOL | SPI_InitStruct->SPI_CPHA)
 296              		.loc 1 333 0
 297 01d8 0B43     		orrs	r3, r3, r1
 298 01da 9BB2     		uxth	r3, r3
 332:../Libraries/STM32F30x_StdPeriph_Driver/src/stm32f30x_spi.c ****     tmpreg |= (uint16_t)((uint16_t)(SPI_InitStruct->SPI_Direction | SPI_InitStruct->SPI_Mode) | 
 299              		.loc 1 332 0
 300 01dc 1343     		orrs	r3, r3, r2
 301 01de 9AB2     		uxth	r2, r3
 302 01e0 BDF80E30 		ldrh	r3, [sp, #14]	@ movhi
 303 01e4 1343     		orrs	r3, r3, r2
 304 01e6 ADF80E30 		strh	r3, [sp, #14]	@ movhi
 336:../Libraries/STM32F30x_StdPeriph_Driver/src/stm32f30x_spi.c **** 
 337:../Libraries/STM32F30x_StdPeriph_Driver/src/stm32f30x_spi.c ****     /* Write to SPIx CR1 */
 338:../Libraries/STM32F30x_StdPeriph_Driver/src/stm32f30x_spi.c ****     SPIx->CR1 = tmpreg;
 305              		.loc 1 338 0
 306 01ea 019B     		ldr	r3, [sp, #4]
 307 01ec BDF80E20 		ldrh	r2, [sp, #14]	@ movhi
 308 01f0 1A80     		strh	r2, [r3, #0]	@ movhi
 309              	.L8:
 339:../Libraries/STM32F30x_StdPeriph_Driver/src/stm32f30x_spi.c ****   }
 340:../Libraries/STM32F30x_StdPeriph_Driver/src/stm32f30x_spi.c **** 
 341:../Libraries/STM32F30x_StdPeriph_Driver/src/stm32f30x_spi.c ****   /* Activate the SPI mode (Reset I2SMOD bit in I2SCFGR register) */
 342:../Libraries/STM32F30x_StdPeriph_Driver/src/stm32f30x_spi.c ****   SPIx->I2SCFGR &= (uint16_t)~((uint16_t)SPI_I2SCFGR_I2SMOD);
 310              		.loc 1 342 0
 311 01f2 019B     		ldr	r3, [sp, #4]
 312 01f4 9B8B     		ldrh	r3, [r3, #28]	@ movhi
 313 01f6 9BB2     		uxth	r3, r3
 314 01f8 23F40063 		bic	r3, r3, #2048
 315 01fc 9AB2     		uxth	r2, r3
 316 01fe 019B     		ldr	r3, [sp, #4]
 317 0200 9A83     		strh	r2, [r3, #28]	@ movhi
 343:../Libraries/STM32F30x_StdPeriph_Driver/src/stm32f30x_spi.c **** 
 344:../Libraries/STM32F30x_StdPeriph_Driver/src/stm32f30x_spi.c **** /*---------------------------- SPIx CRCPOLY Configuration --------------------*/
 345:../Libraries/STM32F30x_StdPeriph_Driver/src/stm32f30x_spi.c ****   /* Write to SPIx CRCPOLY */
 346:../Libraries/STM32F30x_StdPeriph_Driver/src/stm32f30x_spi.c ****   SPIx->CRCPR = SPI_InitStruct->SPI_CRCPolynomial;
 318              		.loc 1 346 0
 319 0202 009B     		ldr	r3, [sp, #0]
 320 0204 1A8A     		ldrh	r2, [r3, #16]
 321 0206 019B     		ldr	r3, [sp, #4]
 322 0208 1A82     		strh	r2, [r3, #16]	@ movhi
 347:../Libraries/STM32F30x_StdPeriph_Driver/src/stm32f30x_spi.c **** }
 323              		.loc 1 347 0
 324 020a 04B0     		add	sp, sp, #16
 325 020c 7047     		bx	lr
 326              		.cfi_endproc
 327              	.LFE113:
 329 020e 00BF     		.align	2
 330              		.global	I2S_StructInit
 331              		.thumb
 332              		.thumb_func
 334              	I2S_StructInit:
 335              	.LFB114:
 348:../Libraries/STM32F30x_StdPeriph_Driver/src/stm32f30x_spi.c **** 
 349:../Libraries/STM32F30x_StdPeriph_Driver/src/stm32f30x_spi.c **** /**
 350:../Libraries/STM32F30x_StdPeriph_Driver/src/stm32f30x_spi.c ****   * @brief  Fills each I2S_InitStruct member with its default value.
 351:../Libraries/STM32F30x_StdPeriph_Driver/src/stm32f30x_spi.c ****   * @param  I2S_InitStruct : pointer to a I2S_InitTypeDef structure which will be initialized.
 352:../Libraries/STM32F30x_StdPeriph_Driver/src/stm32f30x_spi.c ****   * @retval None
 353:../Libraries/STM32F30x_StdPeriph_Driver/src/stm32f30x_spi.c ****   */
 354:../Libraries/STM32F30x_StdPeriph_Driver/src/stm32f30x_spi.c **** void I2S_StructInit(I2S_InitTypeDef* I2S_InitStruct)
 355:../Libraries/STM32F30x_StdPeriph_Driver/src/stm32f30x_spi.c **** {
 336              		.loc 1 355 0
 337              		.cfi_startproc
 338              		@ args = 0, pretend = 0, frame = 8
 339              		@ frame_needed = 0, uses_anonymous_args = 0
 340              		@ link register save eliminated.
 341 0210 82B0     		sub	sp, sp, #8
 342              	.LCFI4:
 343              		.cfi_def_cfa_offset 8
 344 0212 0190     		str	r0, [sp, #4]
 356:../Libraries/STM32F30x_StdPeriph_Driver/src/stm32f30x_spi.c **** /*--------------- Reset I2S init structure parameters values -----------------*/
 357:../Libraries/STM32F30x_StdPeriph_Driver/src/stm32f30x_spi.c ****   /* Initialize the I2S_Mode member */
 358:../Libraries/STM32F30x_StdPeriph_Driver/src/stm32f30x_spi.c ****   I2S_InitStruct->I2S_Mode = I2S_Mode_SlaveTx;
 345              		.loc 1 358 0
 346 0214 019B     		ldr	r3, [sp, #4]
 347 0216 4FF00002 		mov	r2, #0
 348 021a 1A80     		strh	r2, [r3, #0]	@ movhi
 359:../Libraries/STM32F30x_StdPeriph_Driver/src/stm32f30x_spi.c **** 
 360:../Libraries/STM32F30x_StdPeriph_Driver/src/stm32f30x_spi.c ****   /* Initialize the I2S_Standard member */
 361:../Libraries/STM32F30x_StdPeriph_Driver/src/stm32f30x_spi.c ****   I2S_InitStruct->I2S_Standard = I2S_Standard_Phillips;
 349              		.loc 1 361 0
 350 021c 019B     		ldr	r3, [sp, #4]
 351 021e 4FF00002 		mov	r2, #0
 352 0222 5A80     		strh	r2, [r3, #2]	@ movhi
 362:../Libraries/STM32F30x_StdPeriph_Driver/src/stm32f30x_spi.c **** 
 363:../Libraries/STM32F30x_StdPeriph_Driver/src/stm32f30x_spi.c ****   /* Initialize the I2S_DataFormat member */
 364:../Libraries/STM32F30x_StdPeriph_Driver/src/stm32f30x_spi.c ****   I2S_InitStruct->I2S_DataFormat = I2S_DataFormat_16b;
 353              		.loc 1 364 0
 354 0224 019B     		ldr	r3, [sp, #4]
 355 0226 4FF00002 		mov	r2, #0
 356 022a 9A80     		strh	r2, [r3, #4]	@ movhi
 365:../Libraries/STM32F30x_StdPeriph_Driver/src/stm32f30x_spi.c **** 
 366:../Libraries/STM32F30x_StdPeriph_Driver/src/stm32f30x_spi.c ****   /* Initialize the I2S_MCLKOutput member */
 367:../Libraries/STM32F30x_StdPeriph_Driver/src/stm32f30x_spi.c ****   I2S_InitStruct->I2S_MCLKOutput = I2S_MCLKOutput_Disable;
 357              		.loc 1 367 0
 358 022c 019B     		ldr	r3, [sp, #4]
 359 022e 4FF00002 		mov	r2, #0
 360 0232 DA80     		strh	r2, [r3, #6]	@ movhi
 368:../Libraries/STM32F30x_StdPeriph_Driver/src/stm32f30x_spi.c **** 
 369:../Libraries/STM32F30x_StdPeriph_Driver/src/stm32f30x_spi.c ****   /* Initialize the I2S_AudioFreq member */
 370:../Libraries/STM32F30x_StdPeriph_Driver/src/stm32f30x_spi.c ****   I2S_InitStruct->I2S_AudioFreq = I2S_AudioFreq_Default;
 361              		.loc 1 370 0
 362 0234 019B     		ldr	r3, [sp, #4]
 363 0236 4FF00202 		mov	r2, #2
 364 023a 9A60     		str	r2, [r3, #8]
 371:../Libraries/STM32F30x_StdPeriph_Driver/src/stm32f30x_spi.c **** 
 372:../Libraries/STM32F30x_StdPeriph_Driver/src/stm32f30x_spi.c ****   /* Initialize the I2S_CPOL member */
 373:../Libraries/STM32F30x_StdPeriph_Driver/src/stm32f30x_spi.c ****   I2S_InitStruct->I2S_CPOL = I2S_CPOL_Low;
 365              		.loc 1 373 0
 366 023c 019B     		ldr	r3, [sp, #4]
 367 023e 4FF00002 		mov	r2, #0
 368 0242 9A81     		strh	r2, [r3, #12]	@ movhi
 374:../Libraries/STM32F30x_StdPeriph_Driver/src/stm32f30x_spi.c **** }
 369              		.loc 1 374 0
 370 0244 02B0     		add	sp, sp, #8
 371 0246 7047     		bx	lr
 372              		.cfi_endproc
 373              	.LFE114:
 375              		.align	2
 376              		.global	I2S_Init
 377              		.thumb
 378              		.thumb_func
 380              	I2S_Init:
 381              	.LFB115:
 375:../Libraries/STM32F30x_StdPeriph_Driver/src/stm32f30x_spi.c **** 
 376:../Libraries/STM32F30x_StdPeriph_Driver/src/stm32f30x_spi.c **** /**
 377:../Libraries/STM32F30x_StdPeriph_Driver/src/stm32f30x_spi.c ****   * @brief  Initializes the SPIx peripheral according to the specified 
 378:../Libraries/STM32F30x_StdPeriph_Driver/src/stm32f30x_spi.c ****   *   parameters in the I2S_InitStruct.
 379:../Libraries/STM32F30x_StdPeriph_Driver/src/stm32f30x_spi.c ****   * @param  SPIx:To select the SPIx peripheral, where x can be: 2 or 3 
 380:../Libraries/STM32F30x_StdPeriph_Driver/src/stm32f30x_spi.c ****   *         in I2S mode. 
 381:../Libraries/STM32F30x_StdPeriph_Driver/src/stm32f30x_spi.c ****   * @param  I2S_InitStruct: pointer to an I2S_InitTypeDef structure that
 382:../Libraries/STM32F30x_StdPeriph_Driver/src/stm32f30x_spi.c ****   *   contains the configuration information for the specified SPI peripheral
 383:../Libraries/STM32F30x_StdPeriph_Driver/src/stm32f30x_spi.c ****   *   configured in I2S mode.
 384:../Libraries/STM32F30x_StdPeriph_Driver/src/stm32f30x_spi.c ****   * @note
 385:../Libraries/STM32F30x_StdPeriph_Driver/src/stm32f30x_spi.c ****   *  The function calculates the optimal prescaler needed to obtain the most 
 386:../Libraries/STM32F30x_StdPeriph_Driver/src/stm32f30x_spi.c ****   *  accurate audio frequency (depending on the I2S clock source, the PLL values 
 387:../Libraries/STM32F30x_StdPeriph_Driver/src/stm32f30x_spi.c ****   *  and the product configuration). But in case the prescaler value is greater 
 388:../Libraries/STM32F30x_StdPeriph_Driver/src/stm32f30x_spi.c ****   *  than 511, the default value (0x02) will be configured instead.     
 389:../Libraries/STM32F30x_StdPeriph_Driver/src/stm32f30x_spi.c ****   * @retval None
 390:../Libraries/STM32F30x_StdPeriph_Driver/src/stm32f30x_spi.c ****   */
 391:../Libraries/STM32F30x_StdPeriph_Driver/src/stm32f30x_spi.c **** void I2S_Init(SPI_TypeDef* SPIx, I2S_InitTypeDef* I2S_InitStruct)
 392:../Libraries/STM32F30x_StdPeriph_Driver/src/stm32f30x_spi.c **** {
 382              		.loc 1 392 0
 383              		.cfi_startproc
 384              		@ args = 0, pretend = 0, frame = 88
 385              		@ frame_needed = 0, uses_anonymous_args = 0
 386 0248 00B5     		push	{lr}
 387              	.LCFI5:
 388              		.cfi_def_cfa_offset 4
 389              		.cfi_offset 14, -4
 390 024a 97B0     		sub	sp, sp, #92
 391              	.LCFI6:
 392              		.cfi_def_cfa_offset 96
 393 024c 0190     		str	r0, [sp, #4]
 394 024e 0091     		str	r1, [sp, #0]
 393:../Libraries/STM32F30x_StdPeriph_Driver/src/stm32f30x_spi.c ****   uint16_t tmpreg = 0, i2sdiv = 2, i2sodd = 0, packetlength = 1;
 395              		.loc 1 393 0
 396 0250 4FF00003 		mov	r3, #0
 397 0254 ADF84A30 		strh	r3, [sp, #74]	@ movhi
 398 0258 4FF00203 		mov	r3, #2
 399 025c ADF85630 		strh	r3, [sp, #86]	@ movhi
 400 0260 4FF00003 		mov	r3, #0
 401 0264 ADF85430 		strh	r3, [sp, #84]	@ movhi
 402 0268 4FF00103 		mov	r3, #1
 403 026c ADF85230 		strh	r3, [sp, #82]	@ movhi
 394:../Libraries/STM32F30x_StdPeriph_Driver/src/stm32f30x_spi.c ****   uint32_t tmp = 0;
 404              		.loc 1 394 0
 405 0270 4FF00003 		mov	r3, #0
 406 0274 1393     		str	r3, [sp, #76]
 395:../Libraries/STM32F30x_StdPeriph_Driver/src/stm32f30x_spi.c ****   RCC_ClocksTypeDef RCC_Clocks;
 396:../Libraries/STM32F30x_StdPeriph_Driver/src/stm32f30x_spi.c ****   uint32_t sourceclock = 0;
 407              		.loc 1 396 0
 408 0276 4FF00003 		mov	r3, #0
 409 027a 1193     		str	r3, [sp, #68]
 397:../Libraries/STM32F30x_StdPeriph_Driver/src/stm32f30x_spi.c **** 
 398:../Libraries/STM32F30x_StdPeriph_Driver/src/stm32f30x_spi.c ****   /* Check the I2S parameters */
 399:../Libraries/STM32F30x_StdPeriph_Driver/src/stm32f30x_spi.c ****   assert_param(IS_SPI_23_PERIPH(SPIx));
 400:../Libraries/STM32F30x_StdPeriph_Driver/src/stm32f30x_spi.c ****   assert_param(IS_I2S_MODE(I2S_InitStruct->I2S_Mode));
 401:../Libraries/STM32F30x_StdPeriph_Driver/src/stm32f30x_spi.c ****   assert_param(IS_I2S_STANDARD(I2S_InitStruct->I2S_Standard));
 402:../Libraries/STM32F30x_StdPeriph_Driver/src/stm32f30x_spi.c ****   assert_param(IS_I2S_DATA_FORMAT(I2S_InitStruct->I2S_DataFormat));
 403:../Libraries/STM32F30x_StdPeriph_Driver/src/stm32f30x_spi.c ****   assert_param(IS_I2S_MCLK_OUTPUT(I2S_InitStruct->I2S_MCLKOutput));
 404:../Libraries/STM32F30x_StdPeriph_Driver/src/stm32f30x_spi.c ****   assert_param(IS_I2S_AUDIO_FREQ(I2S_InitStruct->I2S_AudioFreq));
 405:../Libraries/STM32F30x_StdPeriph_Driver/src/stm32f30x_spi.c ****   assert_param(IS_I2S_CPOL(I2S_InitStruct->I2S_CPOL));  
 406:../Libraries/STM32F30x_StdPeriph_Driver/src/stm32f30x_spi.c **** 
 407:../Libraries/STM32F30x_StdPeriph_Driver/src/stm32f30x_spi.c **** /*----------------------- SPIx I2SCFGR & I2SPR Configuration -----------------*/
 408:../Libraries/STM32F30x_StdPeriph_Driver/src/stm32f30x_spi.c ****   /* Clear I2SMOD, I2SE, I2SCFG, PCMSYNC, I2SSTD, CKPOL, DATLEN and CHLEN bits */
 409:../Libraries/STM32F30x_StdPeriph_Driver/src/stm32f30x_spi.c ****   SPIx->I2SCFGR &= I2SCFGR_CLEAR_MASK; 
 410              		.loc 1 409 0
 411 027c 019B     		ldr	r3, [sp, #4]
 412 027e 9B8B     		ldrh	r3, [r3, #28]	@ movhi
 413 0280 9BB2     		uxth	r3, r3
 414 0282 23F47A63 		bic	r3, r3, #4000
 415 0286 23F01F03 		bic	r3, r3, #31
 416 028a 9AB2     		uxth	r2, r3
 417 028c 019B     		ldr	r3, [sp, #4]
 418 028e 9A83     		strh	r2, [r3, #28]	@ movhi
 410:../Libraries/STM32F30x_StdPeriph_Driver/src/stm32f30x_spi.c ****   SPIx->I2SPR = 0x0002;
 419              		.loc 1 410 0
 420 0290 019B     		ldr	r3, [sp, #4]
 421 0292 4FF00202 		mov	r2, #2
 422 0296 1A84     		strh	r2, [r3, #32]	@ movhi
 411:../Libraries/STM32F30x_StdPeriph_Driver/src/stm32f30x_spi.c **** 
 412:../Libraries/STM32F30x_StdPeriph_Driver/src/stm32f30x_spi.c ****   /* Get the I2SCFGR register value */
 413:../Libraries/STM32F30x_StdPeriph_Driver/src/stm32f30x_spi.c ****   tmpreg = SPIx->I2SCFGR;
 423              		.loc 1 413 0
 424 0298 019B     		ldr	r3, [sp, #4]
 425 029a 9B8B     		ldrh	r3, [r3, #28]	@ movhi
 426 029c ADF84A30 		strh	r3, [sp, #74]	@ movhi
 414:../Libraries/STM32F30x_StdPeriph_Driver/src/stm32f30x_spi.c **** 
 415:../Libraries/STM32F30x_StdPeriph_Driver/src/stm32f30x_spi.c ****   /* If the default value has to be written, reinitialize i2sdiv and i2sodd*/
 416:../Libraries/STM32F30x_StdPeriph_Driver/src/stm32f30x_spi.c ****   if(I2S_InitStruct->I2S_AudioFreq == I2S_AudioFreq_Default)
 427              		.loc 1 416 0
 428 02a0 009B     		ldr	r3, [sp, #0]
 429 02a2 9B68     		ldr	r3, [r3, #8]
 430 02a4 022B     		cmp	r3, #2
 431 02a6 08D1     		bne	.L11
 417:../Libraries/STM32F30x_StdPeriph_Driver/src/stm32f30x_spi.c ****   {
 418:../Libraries/STM32F30x_StdPeriph_Driver/src/stm32f30x_spi.c ****     i2sodd = (uint16_t)0;
 432              		.loc 1 418 0
 433 02a8 4FF00003 		mov	r3, #0
 434 02ac ADF85430 		strh	r3, [sp, #84]	@ movhi
 419:../Libraries/STM32F30x_StdPeriph_Driver/src/stm32f30x_spi.c ****     i2sdiv = (uint16_t)2;   
 435              		.loc 1 419 0
 436 02b0 4FF00203 		mov	r3, #2
 437 02b4 ADF85630 		strh	r3, [sp, #86]	@ movhi
 438 02b8 60E0     		b	.L12
 439              	.L11:
 420:../Libraries/STM32F30x_StdPeriph_Driver/src/stm32f30x_spi.c ****   }
 421:../Libraries/STM32F30x_StdPeriph_Driver/src/stm32f30x_spi.c ****   /* If the requested audio frequency is not the default, compute the prescaler */
 422:../Libraries/STM32F30x_StdPeriph_Driver/src/stm32f30x_spi.c ****   else
 423:../Libraries/STM32F30x_StdPeriph_Driver/src/stm32f30x_spi.c ****   {
 424:../Libraries/STM32F30x_StdPeriph_Driver/src/stm32f30x_spi.c ****     /* Check the frame length (For the Prescaler computing) */
 425:../Libraries/STM32F30x_StdPeriph_Driver/src/stm32f30x_spi.c ****     if(I2S_InitStruct->I2S_DataFormat == I2S_DataFormat_16b)
 440              		.loc 1 425 0
 441 02ba 009B     		ldr	r3, [sp, #0]
 442 02bc 9B88     		ldrh	r3, [r3, #4]
 443 02be 002B     		cmp	r3, #0
 444 02c0 04D1     		bne	.L13
 426:../Libraries/STM32F30x_StdPeriph_Driver/src/stm32f30x_spi.c ****     {
 427:../Libraries/STM32F30x_StdPeriph_Driver/src/stm32f30x_spi.c ****       /* Packet length is 16 bits */
 428:../Libraries/STM32F30x_StdPeriph_Driver/src/stm32f30x_spi.c ****       packetlength = 1;
 445              		.loc 1 428 0
 446 02c2 4FF00103 		mov	r3, #1
 447 02c6 ADF85230 		strh	r3, [sp, #82]	@ movhi
 448 02ca 03E0     		b	.L14
 449              	.L13:
 429:../Libraries/STM32F30x_StdPeriph_Driver/src/stm32f30x_spi.c ****     }
 430:../Libraries/STM32F30x_StdPeriph_Driver/src/stm32f30x_spi.c ****     else
 431:../Libraries/STM32F30x_StdPeriph_Driver/src/stm32f30x_spi.c ****     {
 432:../Libraries/STM32F30x_StdPeriph_Driver/src/stm32f30x_spi.c ****       /* Packet length is 32 bits */
 433:../Libraries/STM32F30x_StdPeriph_Driver/src/stm32f30x_spi.c ****       packetlength = 2;
 450              		.loc 1 433 0
 451 02cc 4FF00203 		mov	r3, #2
 452 02d0 ADF85230 		strh	r3, [sp, #82]	@ movhi
 453              	.L14:
 434:../Libraries/STM32F30x_StdPeriph_Driver/src/stm32f30x_spi.c ****     }
 435:../Libraries/STM32F30x_StdPeriph_Driver/src/stm32f30x_spi.c **** 
 436:../Libraries/STM32F30x_StdPeriph_Driver/src/stm32f30x_spi.c ****     /* I2S Clock source is System clock: Get System Clock frequency */
 437:../Libraries/STM32F30x_StdPeriph_Driver/src/stm32f30x_spi.c ****     RCC_GetClocksFreq(&RCC_Clocks);      
 454              		.loc 1 437 0
 455 02d4 02AB     		add	r3, sp, #8
 456 02d6 1846     		mov	r0, r3
 457 02d8 FFF7FEFF 		bl	RCC_GetClocksFreq
 438:../Libraries/STM32F30x_StdPeriph_Driver/src/stm32f30x_spi.c **** 
 439:../Libraries/STM32F30x_StdPeriph_Driver/src/stm32f30x_spi.c ****     /* Get the source clock value: based on System Clock value */
 440:../Libraries/STM32F30x_StdPeriph_Driver/src/stm32f30x_spi.c ****     sourceclock = RCC_Clocks.SYSCLK_Frequency;    
 458              		.loc 1 440 0
 459 02dc 029B     		ldr	r3, [sp, #8]
 460 02de 1193     		str	r3, [sp, #68]
 441:../Libraries/STM32F30x_StdPeriph_Driver/src/stm32f30x_spi.c **** 
 442:../Libraries/STM32F30x_StdPeriph_Driver/src/stm32f30x_spi.c ****     /* Compute the Real divider depending on the MCLK output state with a floating point */
 443:../Libraries/STM32F30x_StdPeriph_Driver/src/stm32f30x_spi.c ****     if(I2S_InitStruct->I2S_MCLKOutput == I2S_MCLKOutput_Enable)
 461              		.loc 1 443 0
 462 02e0 009B     		ldr	r3, [sp, #0]
 463 02e2 DB88     		ldrh	r3, [r3, #6]
 464 02e4 B3F5007F 		cmp	r3, #512
 465 02e8 13D1     		bne	.L15
 444:../Libraries/STM32F30x_StdPeriph_Driver/src/stm32f30x_spi.c ****     {
 445:../Libraries/STM32F30x_StdPeriph_Driver/src/stm32f30x_spi.c ****       /* MCLK output is enabled */
 446:../Libraries/STM32F30x_StdPeriph_Driver/src/stm32f30x_spi.c ****       tmp = (uint16_t)(((((sourceclock / 256) * 10) / I2S_InitStruct->I2S_AudioFreq)) + 5);
 466              		.loc 1 446 0
 467 02ea 119B     		ldr	r3, [sp, #68]
 468 02ec 4FEA1322 		lsr	r2, r3, #8
 469 02f0 1346     		mov	r3, r2
 470 02f2 4FEA8303 		lsl	r3, r3, #2
 471 02f6 9B18     		adds	r3, r3, r2
 472 02f8 4FEA4303 		lsl	r3, r3, #1
 473 02fc 1A46     		mov	r2, r3
 474 02fe 009B     		ldr	r3, [sp, #0]
 475 0300 9B68     		ldr	r3, [r3, #8]
 476 0302 B2FBF3F3 		udiv	r3, r2, r3
 477 0306 9BB2     		uxth	r3, r3
 478 0308 03F10503 		add	r3, r3, #5
 479 030c 9BB2     		uxth	r3, r3
 480 030e 1393     		str	r3, [sp, #76]
 481 0310 16E0     		b	.L16
 482              	.L15:
 447:../Libraries/STM32F30x_StdPeriph_Driver/src/stm32f30x_spi.c ****     }
 448:../Libraries/STM32F30x_StdPeriph_Driver/src/stm32f30x_spi.c ****     else
 449:../Libraries/STM32F30x_StdPeriph_Driver/src/stm32f30x_spi.c ****     {
 450:../Libraries/STM32F30x_StdPeriph_Driver/src/stm32f30x_spi.c ****       /* MCLK output is disabled */
 451:../Libraries/STM32F30x_StdPeriph_Driver/src/stm32f30x_spi.c ****       tmp = (uint16_t)(((((sourceclock / (32 * packetlength)) *10 ) / I2S_InitStruct->I2S_AudioFreq
 483              		.loc 1 451 0
 484 0312 BDF85230 		ldrh	r3, [sp, #82]
 485 0316 4FEA4313 		lsl	r3, r3, #5
 486 031a 119A     		ldr	r2, [sp, #68]
 487 031c B2FBF3F2 		udiv	r2, r2, r3
 488 0320 1346     		mov	r3, r2
 489 0322 4FEA8303 		lsl	r3, r3, #2
 490 0326 9B18     		adds	r3, r3, r2
 491 0328 4FEA4303 		lsl	r3, r3, #1
 492 032c 1A46     		mov	r2, r3
 493 032e 009B     		ldr	r3, [sp, #0]
 494 0330 9B68     		ldr	r3, [r3, #8]
 495 0332 B2FBF3F3 		udiv	r3, r2, r3
 496 0336 9BB2     		uxth	r3, r3
 497 0338 03F10503 		add	r3, r3, #5
 498 033c 9BB2     		uxth	r3, r3
 499 033e 1393     		str	r3, [sp, #76]
 500              	.L16:
 452:../Libraries/STM32F30x_StdPeriph_Driver/src/stm32f30x_spi.c ****     }
 453:../Libraries/STM32F30x_StdPeriph_Driver/src/stm32f30x_spi.c ****     
 454:../Libraries/STM32F30x_StdPeriph_Driver/src/stm32f30x_spi.c ****     /* Remove the floating point */
 455:../Libraries/STM32F30x_StdPeriph_Driver/src/stm32f30x_spi.c ****     tmp = tmp / 10;
 501              		.loc 1 455 0
 502 0340 139A     		ldr	r2, [sp, #76]
 503 0342 4CF6CD43 		movw	r3, #52429
 504 0346 CCF6CC43 		movt	r3, 52428
 505 034a A3FB0213 		umull	r1, r3, r3, r2
 506 034e 4FEAD303 		lsr	r3, r3, #3
 507 0352 1393     		str	r3, [sp, #76]
 456:../Libraries/STM32F30x_StdPeriph_Driver/src/stm32f30x_spi.c **** 
 457:../Libraries/STM32F30x_StdPeriph_Driver/src/stm32f30x_spi.c ****     /* Check the parity of the divider */
 458:../Libraries/STM32F30x_StdPeriph_Driver/src/stm32f30x_spi.c ****     i2sodd = (uint16_t)(tmp & (uint16_t)0x0001);
 508              		.loc 1 458 0
 509 0354 139B     		ldr	r3, [sp, #76]
 510 0356 9BB2     		uxth	r3, r3
 511 0358 03F00103 		and	r3, r3, #1
 512 035c ADF85430 		strh	r3, [sp, #84]	@ movhi
 459:../Libraries/STM32F30x_StdPeriph_Driver/src/stm32f30x_spi.c **** 
 460:../Libraries/STM32F30x_StdPeriph_Driver/src/stm32f30x_spi.c ****     /* Compute the i2sdiv prescaler */
 461:../Libraries/STM32F30x_StdPeriph_Driver/src/stm32f30x_spi.c ****     i2sdiv = (uint16_t)((tmp - i2sodd) / 2);
 513              		.loc 1 461 0
 514 0360 BDF85430 		ldrh	r3, [sp, #84]
 515 0364 139A     		ldr	r2, [sp, #76]
 516 0366 D31A     		subs	r3, r2, r3
 517 0368 4FEA5303 		lsr	r3, r3, #1
 518 036c ADF85630 		strh	r3, [sp, #86]	@ movhi
 462:../Libraries/STM32F30x_StdPeriph_Driver/src/stm32f30x_spi.c **** 
 463:../Libraries/STM32F30x_StdPeriph_Driver/src/stm32f30x_spi.c ****     /* Get the Mask for the Odd bit (SPI_I2SPR[8]) register */
 464:../Libraries/STM32F30x_StdPeriph_Driver/src/stm32f30x_spi.c ****     i2sodd = (uint16_t) (i2sodd << 8);
 519              		.loc 1 464 0
 520 0370 BDF85430 		ldrh	r3, [sp, #84]	@ movhi
 521 0374 4FEA0323 		lsl	r3, r3, #8
 522 0378 ADF85430 		strh	r3, [sp, #84]	@ movhi
 523              	.L12:
 465:../Libraries/STM32F30x_StdPeriph_Driver/src/stm32f30x_spi.c ****   }
 466:../Libraries/STM32F30x_StdPeriph_Driver/src/stm32f30x_spi.c **** 
 467:../Libraries/STM32F30x_StdPeriph_Driver/src/stm32f30x_spi.c ****   /* Test if the divider is 1 or 0 or greater than 0xFF */
 468:../Libraries/STM32F30x_StdPeriph_Driver/src/stm32f30x_spi.c ****   if ((i2sdiv < 2) || (i2sdiv > 0xFF))
 524              		.loc 1 468 0
 525 037c BDF85630 		ldrh	r3, [sp, #86]
 526 0380 012B     		cmp	r3, #1
 527 0382 03D9     		bls	.L17
 528              		.loc 1 468 0 is_stmt 0 discriminator 1
 529 0384 BDF85630 		ldrh	r3, [sp, #86]
 530 0388 FF2B     		cmp	r3, #255
 531 038a 07D9     		bls	.L18
 532              	.L17:
 469:../Libraries/STM32F30x_StdPeriph_Driver/src/stm32f30x_spi.c ****   {
 470:../Libraries/STM32F30x_StdPeriph_Driver/src/stm32f30x_spi.c ****     /* Set the default values */
 471:../Libraries/STM32F30x_StdPeriph_Driver/src/stm32f30x_spi.c ****     i2sdiv = 2;
 533              		.loc 1 471 0 is_stmt 1
 534 038c 4FF00203 		mov	r3, #2
 535 0390 ADF85630 		strh	r3, [sp, #86]	@ movhi
 472:../Libraries/STM32F30x_StdPeriph_Driver/src/stm32f30x_spi.c ****     i2sodd = 0;
 536              		.loc 1 472 0
 537 0394 4FF00003 		mov	r3, #0
 538 0398 ADF85430 		strh	r3, [sp, #84]	@ movhi
 539              	.L18:
 473:../Libraries/STM32F30x_StdPeriph_Driver/src/stm32f30x_spi.c ****   }
 474:../Libraries/STM32F30x_StdPeriph_Driver/src/stm32f30x_spi.c **** 
 475:../Libraries/STM32F30x_StdPeriph_Driver/src/stm32f30x_spi.c ****   /* Write to SPIx I2SPR register the computed value */
 476:../Libraries/STM32F30x_StdPeriph_Driver/src/stm32f30x_spi.c ****   SPIx->I2SPR = (uint16_t)(i2sdiv | (uint16_t)(i2sodd | (uint16_t)I2S_InitStruct->I2S_MCLKOutput));
 540              		.loc 1 476 0
 541 039c 009B     		ldr	r3, [sp, #0]
 542 039e DA88     		ldrh	r2, [r3, #6]
 543 03a0 BDF85430 		ldrh	r3, [sp, #84]	@ movhi
 544 03a4 1343     		orrs	r3, r3, r2
 545 03a6 9AB2     		uxth	r2, r3
 546 03a8 BDF85630 		ldrh	r3, [sp, #86]	@ movhi
 547 03ac 1343     		orrs	r3, r3, r2
 548 03ae 9AB2     		uxth	r2, r3
 549 03b0 019B     		ldr	r3, [sp, #4]
 550 03b2 1A84     		strh	r2, [r3, #32]	@ movhi
 477:../Libraries/STM32F30x_StdPeriph_Driver/src/stm32f30x_spi.c **** 
 478:../Libraries/STM32F30x_StdPeriph_Driver/src/stm32f30x_spi.c ****   /* Configure the I2S with the SPI_InitStruct values */
 479:../Libraries/STM32F30x_StdPeriph_Driver/src/stm32f30x_spi.c ****   tmpreg |= (uint16_t)((uint16_t)(SPI_I2SCFGR_I2SMOD | I2S_InitStruct->I2S_Mode) | \
 551              		.loc 1 479 0
 552 03b4 009B     		ldr	r3, [sp, #0]
 553 03b6 1A88     		ldrh	r2, [r3, #0]
 480:../Libraries/STM32F30x_StdPeriph_Driver/src/stm32f30x_spi.c ****                        (uint16_t)((uint16_t)((uint16_t)(I2S_InitStruct->I2S_Standard |I2S_InitStruc
 554              		.loc 1 480 0
 555 03b8 009B     		ldr	r3, [sp, #0]
 556 03ba 5988     		ldrh	r1, [r3, #2]
 557 03bc 009B     		ldr	r3, [sp, #0]
 558 03be 9B88     		ldrh	r3, [r3, #4]
 559 03c0 0B43     		orrs	r3, r3, r1
 560 03c2 99B2     		uxth	r1, r3
 481:../Libraries/STM32F30x_StdPeriph_Driver/src/stm32f30x_spi.c ****                        I2S_InitStruct->I2S_CPOL)));
 561              		.loc 1 481 0
 562 03c4 009B     		ldr	r3, [sp, #0]
 563 03c6 9B89     		ldrh	r3, [r3, #12]
 480:../Libraries/STM32F30x_StdPeriph_Driver/src/stm32f30x_spi.c ****                        (uint16_t)((uint16_t)((uint16_t)(I2S_InitStruct->I2S_Standard |I2S_InitStruc
 564              		.loc 1 480 0
 565 03c8 0B43     		orrs	r3, r3, r1
 566 03ca 9BB2     		uxth	r3, r3
 479:../Libraries/STM32F30x_StdPeriph_Driver/src/stm32f30x_spi.c ****   tmpreg |= (uint16_t)((uint16_t)(SPI_I2SCFGR_I2SMOD | I2S_InitStruct->I2S_Mode) | \
 567              		.loc 1 479 0
 568 03cc 1343     		orrs	r3, r3, r2
 569 03ce 9AB2     		uxth	r2, r3
 570 03d0 BDF84A30 		ldrh	r3, [sp, #74]	@ movhi
 571 03d4 1343     		orrs	r3, r3, r2
 572 03d6 9BB2     		uxth	r3, r3
 573 03d8 43F40063 		orr	r3, r3, #2048
 574 03dc ADF84A30 		strh	r3, [sp, #74]	@ movhi
 482:../Libraries/STM32F30x_StdPeriph_Driver/src/stm32f30x_spi.c **** 
 483:../Libraries/STM32F30x_StdPeriph_Driver/src/stm32f30x_spi.c ****   /* Write to SPIx I2SCFGR */
 484:../Libraries/STM32F30x_StdPeriph_Driver/src/stm32f30x_spi.c ****   SPIx->I2SCFGR = tmpreg;
 575              		.loc 1 484 0
 576 03e0 019B     		ldr	r3, [sp, #4]
 577 03e2 BDF84A20 		ldrh	r2, [sp, #74]	@ movhi
 578 03e6 9A83     		strh	r2, [r3, #28]	@ movhi
 485:../Libraries/STM32F30x_StdPeriph_Driver/src/stm32f30x_spi.c **** }
 579              		.loc 1 485 0
 580 03e8 17B0     		add	sp, sp, #92
 581 03ea 00BD     		pop	{pc}
 582              		.cfi_endproc
 583              	.LFE115:
 585              		.align	2
 586              		.global	SPI_Cmd
 587              		.thumb
 588              		.thumb_func
 590              	SPI_Cmd:
 591              	.LFB116:
 486:../Libraries/STM32F30x_StdPeriph_Driver/src/stm32f30x_spi.c **** 
 487:../Libraries/STM32F30x_StdPeriph_Driver/src/stm32f30x_spi.c **** /**
 488:../Libraries/STM32F30x_StdPeriph_Driver/src/stm32f30x_spi.c ****   * @brief  Enables or disables the specified SPI peripheral.
 489:../Libraries/STM32F30x_StdPeriph_Driver/src/stm32f30x_spi.c ****   * @param  SPIx: where x can be 1, 2 or 3 to select the SPI peripheral.
 490:../Libraries/STM32F30x_StdPeriph_Driver/src/stm32f30x_spi.c ****   * @param  NewState: new state of the SPIx peripheral. 
 491:../Libraries/STM32F30x_StdPeriph_Driver/src/stm32f30x_spi.c ****   *         This parameter can be: ENABLE or DISABLE.
 492:../Libraries/STM32F30x_StdPeriph_Driver/src/stm32f30x_spi.c ****   * @retval None
 493:../Libraries/STM32F30x_StdPeriph_Driver/src/stm32f30x_spi.c ****   */
 494:../Libraries/STM32F30x_StdPeriph_Driver/src/stm32f30x_spi.c **** void SPI_Cmd(SPI_TypeDef* SPIx, FunctionalState NewState)
 495:../Libraries/STM32F30x_StdPeriph_Driver/src/stm32f30x_spi.c **** {
 592              		.loc 1 495 0
 593              		.cfi_startproc
 594              		@ args = 0, pretend = 0, frame = 8
 595              		@ frame_needed = 0, uses_anonymous_args = 0
 596              		@ link register save eliminated.
 597 03ec 82B0     		sub	sp, sp, #8
 598              	.LCFI7:
 599              		.cfi_def_cfa_offset 8
 600 03ee 0190     		str	r0, [sp, #4]
 601 03f0 0B46     		mov	r3, r1
 602 03f2 8DF80330 		strb	r3, [sp, #3]
 496:../Libraries/STM32F30x_StdPeriph_Driver/src/stm32f30x_spi.c ****   /* Check the parameters */
 497:../Libraries/STM32F30x_StdPeriph_Driver/src/stm32f30x_spi.c ****   assert_param(IS_SPI_ALL_PERIPH(SPIx));
 498:../Libraries/STM32F30x_StdPeriph_Driver/src/stm32f30x_spi.c ****   assert_param(IS_FUNCTIONAL_STATE(NewState));
 499:../Libraries/STM32F30x_StdPeriph_Driver/src/stm32f30x_spi.c **** 
 500:../Libraries/STM32F30x_StdPeriph_Driver/src/stm32f30x_spi.c ****   if (NewState != DISABLE)
 603              		.loc 1 500 0
 604 03f6 9DF80330 		ldrb	r3, [sp, #3]	@ zero_extendqisi2
 605 03fa 002B     		cmp	r3, #0
 606 03fc 08D0     		beq	.L20
 501:../Libraries/STM32F30x_StdPeriph_Driver/src/stm32f30x_spi.c ****   {
 502:../Libraries/STM32F30x_StdPeriph_Driver/src/stm32f30x_spi.c ****     /* Enable the selected SPI peripheral */
 503:../Libraries/STM32F30x_StdPeriph_Driver/src/stm32f30x_spi.c ****     SPIx->CR1 |= SPI_CR1_SPE;
 607              		.loc 1 503 0
 608 03fe 019B     		ldr	r3, [sp, #4]
 609 0400 1B88     		ldrh	r3, [r3, #0]	@ movhi
 610 0402 9BB2     		uxth	r3, r3
 611 0404 43F04003 		orr	r3, r3, #64
 612 0408 9AB2     		uxth	r2, r3
 613 040a 019B     		ldr	r3, [sp, #4]
 614 040c 1A80     		strh	r2, [r3, #0]	@ movhi
 615 040e 07E0     		b	.L19
 616              	.L20:
 504:../Libraries/STM32F30x_StdPeriph_Driver/src/stm32f30x_spi.c ****   }
 505:../Libraries/STM32F30x_StdPeriph_Driver/src/stm32f30x_spi.c ****   else
 506:../Libraries/STM32F30x_StdPeriph_Driver/src/stm32f30x_spi.c ****   {
 507:../Libraries/STM32F30x_StdPeriph_Driver/src/stm32f30x_spi.c ****     /* Disable the selected SPI peripheral */
 508:../Libraries/STM32F30x_StdPeriph_Driver/src/stm32f30x_spi.c ****     SPIx->CR1 &= (uint16_t)~((uint16_t)SPI_CR1_SPE);
 617              		.loc 1 508 0
 618 0410 019B     		ldr	r3, [sp, #4]
 619 0412 1B88     		ldrh	r3, [r3, #0]	@ movhi
 620 0414 9BB2     		uxth	r3, r3
 621 0416 23F04003 		bic	r3, r3, #64
 622 041a 9AB2     		uxth	r2, r3
 623 041c 019B     		ldr	r3, [sp, #4]
 624 041e 1A80     		strh	r2, [r3, #0]	@ movhi
 625              	.L19:
 509:../Libraries/STM32F30x_StdPeriph_Driver/src/stm32f30x_spi.c ****   }
 510:../Libraries/STM32F30x_StdPeriph_Driver/src/stm32f30x_spi.c **** }
 626              		.loc 1 510 0
 627 0420 02B0     		add	sp, sp, #8
 628 0422 7047     		bx	lr
 629              		.cfi_endproc
 630              	.LFE116:
 632              		.align	2
 633              		.global	SPI_TIModeCmd
 634              		.thumb
 635              		.thumb_func
 637              	SPI_TIModeCmd:
 638              	.LFB117:
 511:../Libraries/STM32F30x_StdPeriph_Driver/src/stm32f30x_spi.c **** 
 512:../Libraries/STM32F30x_StdPeriph_Driver/src/stm32f30x_spi.c **** /**
 513:../Libraries/STM32F30x_StdPeriph_Driver/src/stm32f30x_spi.c ****   * @brief  Enables or disables the TI Mode.
 514:../Libraries/STM32F30x_StdPeriph_Driver/src/stm32f30x_spi.c ****   * @note    This function can be called only after the SPI_Init() function has 
 515:../Libraries/STM32F30x_StdPeriph_Driver/src/stm32f30x_spi.c ****   *          been called. 
 516:../Libraries/STM32F30x_StdPeriph_Driver/src/stm32f30x_spi.c ****   * @note    When TI mode is selected, the control bits SSM, SSI, CPOL and CPHA 
 517:../Libraries/STM32F30x_StdPeriph_Driver/src/stm32f30x_spi.c ****   *          are not taken into consideration and are configured by hardware 
 518:../Libraries/STM32F30x_StdPeriph_Driver/src/stm32f30x_spi.c ****   *          respectively to the TI mode requirements.  
 519:../Libraries/STM32F30x_StdPeriph_Driver/src/stm32f30x_spi.c ****   * @param  SPIx: where x can be 1, 2 or 3 to select the SPI peripheral.  
 520:../Libraries/STM32F30x_StdPeriph_Driver/src/stm32f30x_spi.c ****   * @param  NewState: new state of the selected SPI TI communication mode.
 521:../Libraries/STM32F30x_StdPeriph_Driver/src/stm32f30x_spi.c ****   *         This parameter can be: ENABLE or DISABLE.
 522:../Libraries/STM32F30x_StdPeriph_Driver/src/stm32f30x_spi.c ****   * @retval None
 523:../Libraries/STM32F30x_StdPeriph_Driver/src/stm32f30x_spi.c ****   */
 524:../Libraries/STM32F30x_StdPeriph_Driver/src/stm32f30x_spi.c **** void SPI_TIModeCmd(SPI_TypeDef* SPIx, FunctionalState NewState)
 525:../Libraries/STM32F30x_StdPeriph_Driver/src/stm32f30x_spi.c **** {
 639              		.loc 1 525 0
 640              		.cfi_startproc
 641              		@ args = 0, pretend = 0, frame = 8
 642              		@ frame_needed = 0, uses_anonymous_args = 0
 643              		@ link register save eliminated.
 644 0424 82B0     		sub	sp, sp, #8
 645              	.LCFI8:
 646              		.cfi_def_cfa_offset 8
 647 0426 0190     		str	r0, [sp, #4]
 648 0428 0B46     		mov	r3, r1
 649 042a 8DF80330 		strb	r3, [sp, #3]
 526:../Libraries/STM32F30x_StdPeriph_Driver/src/stm32f30x_spi.c ****   /* Check the parameters */
 527:../Libraries/STM32F30x_StdPeriph_Driver/src/stm32f30x_spi.c ****   assert_param(IS_SPI_ALL_PERIPH(SPIx));
 528:../Libraries/STM32F30x_StdPeriph_Driver/src/stm32f30x_spi.c ****   assert_param(IS_FUNCTIONAL_STATE(NewState));
 529:../Libraries/STM32F30x_StdPeriph_Driver/src/stm32f30x_spi.c **** 
 530:../Libraries/STM32F30x_StdPeriph_Driver/src/stm32f30x_spi.c ****   if (NewState != DISABLE)
 650              		.loc 1 530 0
 651 042e 9DF80330 		ldrb	r3, [sp, #3]	@ zero_extendqisi2
 652 0432 002B     		cmp	r3, #0
 653 0434 08D0     		beq	.L23
 531:../Libraries/STM32F30x_StdPeriph_Driver/src/stm32f30x_spi.c ****   {
 532:../Libraries/STM32F30x_StdPeriph_Driver/src/stm32f30x_spi.c ****     /* Enable the TI mode for the selected SPI peripheral */
 533:../Libraries/STM32F30x_StdPeriph_Driver/src/stm32f30x_spi.c ****     SPIx->CR2 |= SPI_CR2_FRF;
 654              		.loc 1 533 0
 655 0436 019B     		ldr	r3, [sp, #4]
 656 0438 9B88     		ldrh	r3, [r3, #4]	@ movhi
 657 043a 9BB2     		uxth	r3, r3
 658 043c 43F01003 		orr	r3, r3, #16
 659 0440 9AB2     		uxth	r2, r3
 660 0442 019B     		ldr	r3, [sp, #4]
 661 0444 9A80     		strh	r2, [r3, #4]	@ movhi
 662 0446 07E0     		b	.L22
 663              	.L23:
 534:../Libraries/STM32F30x_StdPeriph_Driver/src/stm32f30x_spi.c ****   }
 535:../Libraries/STM32F30x_StdPeriph_Driver/src/stm32f30x_spi.c ****   else
 536:../Libraries/STM32F30x_StdPeriph_Driver/src/stm32f30x_spi.c ****   {
 537:../Libraries/STM32F30x_StdPeriph_Driver/src/stm32f30x_spi.c ****     /* Disable the TI mode for the selected SPI peripheral */
 538:../Libraries/STM32F30x_StdPeriph_Driver/src/stm32f30x_spi.c ****     SPIx->CR2 &= (uint16_t)~((uint16_t)SPI_CR2_FRF);
 664              		.loc 1 538 0
 665 0448 019B     		ldr	r3, [sp, #4]
 666 044a 9B88     		ldrh	r3, [r3, #4]	@ movhi
 667 044c 9BB2     		uxth	r3, r3
 668 044e 23F01003 		bic	r3, r3, #16
 669 0452 9AB2     		uxth	r2, r3
 670 0454 019B     		ldr	r3, [sp, #4]
 671 0456 9A80     		strh	r2, [r3, #4]	@ movhi
 672              	.L22:
 539:../Libraries/STM32F30x_StdPeriph_Driver/src/stm32f30x_spi.c ****   }
 540:../Libraries/STM32F30x_StdPeriph_Driver/src/stm32f30x_spi.c **** }
 673              		.loc 1 540 0
 674 0458 02B0     		add	sp, sp, #8
 675 045a 7047     		bx	lr
 676              		.cfi_endproc
 677              	.LFE117:
 679              		.align	2
 680              		.global	I2S_Cmd
 681              		.thumb
 682              		.thumb_func
 684              	I2S_Cmd:
 685              	.LFB118:
 541:../Libraries/STM32F30x_StdPeriph_Driver/src/stm32f30x_spi.c **** 
 542:../Libraries/STM32F30x_StdPeriph_Driver/src/stm32f30x_spi.c **** /**
 543:../Libraries/STM32F30x_StdPeriph_Driver/src/stm32f30x_spi.c ****   * @brief  Enables or disables the specified SPI peripheral (in I2S mode).
 544:../Libraries/STM32F30x_StdPeriph_Driver/src/stm32f30x_spi.c ****   * @param  SPIx:To select the SPIx peripheral, where x can be: 2 or 3 in 
 545:../Libraries/STM32F30x_StdPeriph_Driver/src/stm32f30x_spi.c ****   *         I2S mode or I2Sxext for I2S full duplex mode. 
 546:../Libraries/STM32F30x_StdPeriph_Driver/src/stm32f30x_spi.c ****   * @param  NewState: new state of the SPIx peripheral. 
 547:../Libraries/STM32F30x_StdPeriph_Driver/src/stm32f30x_spi.c ****   *   This parameter can be: ENABLE or DISABLE.
 548:../Libraries/STM32F30x_StdPeriph_Driver/src/stm32f30x_spi.c ****   * @retval None
 549:../Libraries/STM32F30x_StdPeriph_Driver/src/stm32f30x_spi.c ****   */
 550:../Libraries/STM32F30x_StdPeriph_Driver/src/stm32f30x_spi.c **** void I2S_Cmd(SPI_TypeDef* SPIx, FunctionalState NewState)
 551:../Libraries/STM32F30x_StdPeriph_Driver/src/stm32f30x_spi.c **** {
 686              		.loc 1 551 0
 687              		.cfi_startproc
 688              		@ args = 0, pretend = 0, frame = 8
 689              		@ frame_needed = 0, uses_anonymous_args = 0
 690              		@ link register save eliminated.
 691 045c 82B0     		sub	sp, sp, #8
 692              	.LCFI9:
 693              		.cfi_def_cfa_offset 8
 694 045e 0190     		str	r0, [sp, #4]
 695 0460 0B46     		mov	r3, r1
 696 0462 8DF80330 		strb	r3, [sp, #3]
 552:../Libraries/STM32F30x_StdPeriph_Driver/src/stm32f30x_spi.c ****   /* Check the parameters */
 553:../Libraries/STM32F30x_StdPeriph_Driver/src/stm32f30x_spi.c ****   assert_param(IS_SPI_23_PERIPH_EXT(SPIx));
 554:../Libraries/STM32F30x_StdPeriph_Driver/src/stm32f30x_spi.c ****   assert_param(IS_FUNCTIONAL_STATE(NewState));
 555:../Libraries/STM32F30x_StdPeriph_Driver/src/stm32f30x_spi.c ****   if (NewState != DISABLE)
 697              		.loc 1 555 0
 698 0466 9DF80330 		ldrb	r3, [sp, #3]	@ zero_extendqisi2
 699 046a 002B     		cmp	r3, #0
 700 046c 08D0     		beq	.L26
 556:../Libraries/STM32F30x_StdPeriph_Driver/src/stm32f30x_spi.c ****   {
 557:../Libraries/STM32F30x_StdPeriph_Driver/src/stm32f30x_spi.c ****     /* Enable the selected SPI peripheral in I2S mode */
 558:../Libraries/STM32F30x_StdPeriph_Driver/src/stm32f30x_spi.c ****     SPIx->I2SCFGR |= SPI_I2SCFGR_I2SE;
 701              		.loc 1 558 0
 702 046e 019B     		ldr	r3, [sp, #4]
 703 0470 9B8B     		ldrh	r3, [r3, #28]	@ movhi
 704 0472 9BB2     		uxth	r3, r3
 705 0474 43F48063 		orr	r3, r3, #1024
 706 0478 9AB2     		uxth	r2, r3
 707 047a 019B     		ldr	r3, [sp, #4]
 708 047c 9A83     		strh	r2, [r3, #28]	@ movhi
 709 047e 07E0     		b	.L25
 710              	.L26:
 559:../Libraries/STM32F30x_StdPeriph_Driver/src/stm32f30x_spi.c ****   }
 560:../Libraries/STM32F30x_StdPeriph_Driver/src/stm32f30x_spi.c ****   else
 561:../Libraries/STM32F30x_StdPeriph_Driver/src/stm32f30x_spi.c ****   {
 562:../Libraries/STM32F30x_StdPeriph_Driver/src/stm32f30x_spi.c ****     /* Disable the selected SPI peripheral in I2S mode */
 563:../Libraries/STM32F30x_StdPeriph_Driver/src/stm32f30x_spi.c ****     SPIx->I2SCFGR &= (uint16_t)~((uint16_t)SPI_I2SCFGR_I2SE);
 711              		.loc 1 563 0
 712 0480 019B     		ldr	r3, [sp, #4]
 713 0482 9B8B     		ldrh	r3, [r3, #28]	@ movhi
 714 0484 9BB2     		uxth	r3, r3
 715 0486 23F48063 		bic	r3, r3, #1024
 716 048a 9AB2     		uxth	r2, r3
 717 048c 019B     		ldr	r3, [sp, #4]
 718 048e 9A83     		strh	r2, [r3, #28]	@ movhi
 719              	.L25:
 564:../Libraries/STM32F30x_StdPeriph_Driver/src/stm32f30x_spi.c ****   }
 565:../Libraries/STM32F30x_StdPeriph_Driver/src/stm32f30x_spi.c **** }
 720              		.loc 1 565 0
 721 0490 02B0     		add	sp, sp, #8
 722 0492 7047     		bx	lr
 723              		.cfi_endproc
 724              	.LFE118:
 726              		.align	2
 727              		.global	SPI_DataSizeConfig
 728              		.thumb
 729              		.thumb_func
 731              	SPI_DataSizeConfig:
 732              	.LFB119:
 566:../Libraries/STM32F30x_StdPeriph_Driver/src/stm32f30x_spi.c **** 
 567:../Libraries/STM32F30x_StdPeriph_Driver/src/stm32f30x_spi.c **** /**
 568:../Libraries/STM32F30x_StdPeriph_Driver/src/stm32f30x_spi.c ****   * @brief  Configures the data size for the selected SPI.
 569:../Libraries/STM32F30x_StdPeriph_Driver/src/stm32f30x_spi.c ****   * @param  SPIx: where x can be 1, 2 or 3 to select the SPI peripheral. 
 570:../Libraries/STM32F30x_StdPeriph_Driver/src/stm32f30x_spi.c ****   * @param  SPI_DataSize: specifies the SPI data size.
 571:../Libraries/STM32F30x_StdPeriph_Driver/src/stm32f30x_spi.c ****   *   For the SPIx peripheral this parameter can be one of the following values:
 572:../Libraries/STM32F30x_StdPeriph_Driver/src/stm32f30x_spi.c ****   *     @arg SPI_DataSize_4b: Set data size to 4 bits
 573:../Libraries/STM32F30x_StdPeriph_Driver/src/stm32f30x_spi.c ****   *     @arg SPI_DataSize_5b: Set data size to 5 bits
 574:../Libraries/STM32F30x_StdPeriph_Driver/src/stm32f30x_spi.c ****   *     @arg SPI_DataSize_6b: Set data size to 6 bits
 575:../Libraries/STM32F30x_StdPeriph_Driver/src/stm32f30x_spi.c ****   *     @arg SPI_DataSize_7b: Set data size to 7 bits
 576:../Libraries/STM32F30x_StdPeriph_Driver/src/stm32f30x_spi.c ****   *     @arg SPI_DataSize_8b: Set data size to 8 bits
 577:../Libraries/STM32F30x_StdPeriph_Driver/src/stm32f30x_spi.c ****   *     @arg SPI_DataSize_9b: Set data size to 9 bits
 578:../Libraries/STM32F30x_StdPeriph_Driver/src/stm32f30x_spi.c ****   *     @arg SPI_DataSize_10b: Set data size to 10 bits
 579:../Libraries/STM32F30x_StdPeriph_Driver/src/stm32f30x_spi.c ****   *     @arg SPI_DataSize_11b: Set data size to 11 bits
 580:../Libraries/STM32F30x_StdPeriph_Driver/src/stm32f30x_spi.c ****   *     @arg SPI_DataSize_12b: Set data size to 12 bits
 581:../Libraries/STM32F30x_StdPeriph_Driver/src/stm32f30x_spi.c ****   *     @arg SPI_DataSize_13b: Set data size to 13 bits
 582:../Libraries/STM32F30x_StdPeriph_Driver/src/stm32f30x_spi.c ****   *     @arg SPI_DataSize_14b: Set data size to 14 bits
 583:../Libraries/STM32F30x_StdPeriph_Driver/src/stm32f30x_spi.c ****   *     @arg SPI_DataSize_15b: Set data size to 15 bits
 584:../Libraries/STM32F30x_StdPeriph_Driver/src/stm32f30x_spi.c ****   *     @arg SPI_DataSize_16b: Set data size to 16 bits
 585:../Libraries/STM32F30x_StdPeriph_Driver/src/stm32f30x_spi.c ****   * @retval None
 586:../Libraries/STM32F30x_StdPeriph_Driver/src/stm32f30x_spi.c ****   */
 587:../Libraries/STM32F30x_StdPeriph_Driver/src/stm32f30x_spi.c **** void SPI_DataSizeConfig(SPI_TypeDef* SPIx, uint16_t SPI_DataSize)
 588:../Libraries/STM32F30x_StdPeriph_Driver/src/stm32f30x_spi.c **** {
 733              		.loc 1 588 0
 734              		.cfi_startproc
 735              		@ args = 0, pretend = 0, frame = 16
 736              		@ frame_needed = 0, uses_anonymous_args = 0
 737              		@ link register save eliminated.
 738 0494 84B0     		sub	sp, sp, #16
 739              	.LCFI10:
 740              		.cfi_def_cfa_offset 16
 741 0496 0190     		str	r0, [sp, #4]
 742 0498 0B46     		mov	r3, r1
 743 049a ADF80230 		strh	r3, [sp, #2]	@ movhi
 589:../Libraries/STM32F30x_StdPeriph_Driver/src/stm32f30x_spi.c ****   uint16_t tmpreg = 0;
 744              		.loc 1 589 0
 745 049e 4FF00003 		mov	r3, #0
 746 04a2 ADF80E30 		strh	r3, [sp, #14]	@ movhi
 590:../Libraries/STM32F30x_StdPeriph_Driver/src/stm32f30x_spi.c ****   
 591:../Libraries/STM32F30x_StdPeriph_Driver/src/stm32f30x_spi.c ****   /* Check the parameters */
 592:../Libraries/STM32F30x_StdPeriph_Driver/src/stm32f30x_spi.c ****   assert_param(IS_SPI_ALL_PERIPH(SPIx));
 593:../Libraries/STM32F30x_StdPeriph_Driver/src/stm32f30x_spi.c ****   assert_param(IS_SPI_DATA_SIZE(SPI_DataSize));
 594:../Libraries/STM32F30x_StdPeriph_Driver/src/stm32f30x_spi.c ****   /* Read the CR2 register */
 595:../Libraries/STM32F30x_StdPeriph_Driver/src/stm32f30x_spi.c ****   tmpreg = SPIx->CR2;
 747              		.loc 1 595 0
 748 04a6 019B     		ldr	r3, [sp, #4]
 749 04a8 9B88     		ldrh	r3, [r3, #4]	@ movhi
 750 04aa ADF80E30 		strh	r3, [sp, #14]	@ movhi
 596:../Libraries/STM32F30x_StdPeriph_Driver/src/stm32f30x_spi.c ****   /* Clear DS[3:0] bits */
 597:../Libraries/STM32F30x_StdPeriph_Driver/src/stm32f30x_spi.c ****   tmpreg &= (uint16_t)~SPI_CR2_DS;
 751              		.loc 1 597 0
 752 04ae BDF80E30 		ldrh	r3, [sp, #14]	@ movhi
 753 04b2 23F47063 		bic	r3, r3, #3840
 754 04b6 ADF80E30 		strh	r3, [sp, #14]	@ movhi
 598:../Libraries/STM32F30x_StdPeriph_Driver/src/stm32f30x_spi.c ****   /* Set new DS[3:0] bits value */
 599:../Libraries/STM32F30x_StdPeriph_Driver/src/stm32f30x_spi.c ****   tmpreg |= SPI_DataSize;
 755              		.loc 1 599 0
 756 04ba BDF80E20 		ldrh	r2, [sp, #14]	@ movhi
 757 04be BDF80230 		ldrh	r3, [sp, #2]	@ movhi
 758 04c2 1343     		orrs	r3, r3, r2
 759 04c4 ADF80E30 		strh	r3, [sp, #14]	@ movhi
 600:../Libraries/STM32F30x_StdPeriph_Driver/src/stm32f30x_spi.c ****   SPIx->CR2 = tmpreg;
 760              		.loc 1 600 0
 761 04c8 019B     		ldr	r3, [sp, #4]
 762 04ca BDF80E20 		ldrh	r2, [sp, #14]	@ movhi
 763 04ce 9A80     		strh	r2, [r3, #4]	@ movhi
 601:../Libraries/STM32F30x_StdPeriph_Driver/src/stm32f30x_spi.c **** }
 764              		.loc 1 601 0
 765 04d0 04B0     		add	sp, sp, #16
 766 04d2 7047     		bx	lr
 767              		.cfi_endproc
 768              	.LFE119:
 770              		.align	2
 771              		.global	SPI_RxFIFOThresholdConfig
 772              		.thumb
 773              		.thumb_func
 775              	SPI_RxFIFOThresholdConfig:
 776              	.LFB120:
 602:../Libraries/STM32F30x_StdPeriph_Driver/src/stm32f30x_spi.c **** 
 603:../Libraries/STM32F30x_StdPeriph_Driver/src/stm32f30x_spi.c **** /**
 604:../Libraries/STM32F30x_StdPeriph_Driver/src/stm32f30x_spi.c ****   * @brief  Configures the FIFO reception threshold for the selected SPI.
 605:../Libraries/STM32F30x_StdPeriph_Driver/src/stm32f30x_spi.c ****   * @param  SPIx: where x can be 1, 2 or 3 to select the SPI peripheral. 
 606:../Libraries/STM32F30x_StdPeriph_Driver/src/stm32f30x_spi.c ****   * @param  SPI_RxFIFOThreshold: specifies the FIFO reception threshold.
 607:../Libraries/STM32F30x_StdPeriph_Driver/src/stm32f30x_spi.c ****   *   This parameter can be one of the following values:
 608:../Libraries/STM32F30x_StdPeriph_Driver/src/stm32f30x_spi.c ****   *     @arg SPI_RxFIFOThreshold_HF: RXNE event is generated if the FIFO 
 609:../Libraries/STM32F30x_StdPeriph_Driver/src/stm32f30x_spi.c ****   *          level is greater or equal to 1/2. 
 610:../Libraries/STM32F30x_StdPeriph_Driver/src/stm32f30x_spi.c ****   *     @arg SPI_RxFIFOThreshold_QF: RXNE event is generated if the FIFO 
 611:../Libraries/STM32F30x_StdPeriph_Driver/src/stm32f30x_spi.c ****   *          level is greater or equal to 1/4. 
 612:../Libraries/STM32F30x_StdPeriph_Driver/src/stm32f30x_spi.c ****   * @retval None
 613:../Libraries/STM32F30x_StdPeriph_Driver/src/stm32f30x_spi.c ****   */
 614:../Libraries/STM32F30x_StdPeriph_Driver/src/stm32f30x_spi.c **** void SPI_RxFIFOThresholdConfig(SPI_TypeDef* SPIx, uint16_t SPI_RxFIFOThreshold)
 615:../Libraries/STM32F30x_StdPeriph_Driver/src/stm32f30x_spi.c **** {
 777              		.loc 1 615 0
 778              		.cfi_startproc
 779              		@ args = 0, pretend = 0, frame = 8
 780              		@ frame_needed = 0, uses_anonymous_args = 0
 781              		@ link register save eliminated.
 782 04d4 82B0     		sub	sp, sp, #8
 783              	.LCFI11:
 784              		.cfi_def_cfa_offset 8
 785 04d6 0190     		str	r0, [sp, #4]
 786 04d8 0B46     		mov	r3, r1
 787 04da ADF80230 		strh	r3, [sp, #2]	@ movhi
 616:../Libraries/STM32F30x_StdPeriph_Driver/src/stm32f30x_spi.c ****   /* Check the parameters */
 617:../Libraries/STM32F30x_StdPeriph_Driver/src/stm32f30x_spi.c ****   assert_param(IS_SPI_ALL_PERIPH(SPIx));
 618:../Libraries/STM32F30x_StdPeriph_Driver/src/stm32f30x_spi.c ****   assert_param(IS_SPI_RX_FIFO_THRESHOLD(SPI_RxFIFOThreshold));
 619:../Libraries/STM32F30x_StdPeriph_Driver/src/stm32f30x_spi.c **** 
 620:../Libraries/STM32F30x_StdPeriph_Driver/src/stm32f30x_spi.c ****   /* Clear FRXTH bit */
 621:../Libraries/STM32F30x_StdPeriph_Driver/src/stm32f30x_spi.c ****   SPIx->CR2 &= (uint16_t)~((uint16_t)SPI_CR2_FRXTH);
 788              		.loc 1 621 0
 789 04de 019B     		ldr	r3, [sp, #4]
 790 04e0 9B88     		ldrh	r3, [r3, #4]	@ movhi
 791 04e2 9BB2     		uxth	r3, r3
 792 04e4 23F48053 		bic	r3, r3, #4096
 793 04e8 9AB2     		uxth	r2, r3
 794 04ea 019B     		ldr	r3, [sp, #4]
 795 04ec 9A80     		strh	r2, [r3, #4]	@ movhi
 622:../Libraries/STM32F30x_StdPeriph_Driver/src/stm32f30x_spi.c **** 
 623:../Libraries/STM32F30x_StdPeriph_Driver/src/stm32f30x_spi.c ****   /* Set new FRXTH bit value */
 624:../Libraries/STM32F30x_StdPeriph_Driver/src/stm32f30x_spi.c ****   SPIx->CR2 |= SPI_RxFIFOThreshold;
 796              		.loc 1 624 0
 797 04ee 019B     		ldr	r3, [sp, #4]
 798 04f0 9B88     		ldrh	r3, [r3, #4]	@ movhi
 799 04f2 9AB2     		uxth	r2, r3
 800 04f4 BDF80230 		ldrh	r3, [sp, #2]	@ movhi
 801 04f8 1343     		orrs	r3, r3, r2
 802 04fa 9AB2     		uxth	r2, r3
 803 04fc 019B     		ldr	r3, [sp, #4]
 804 04fe 9A80     		strh	r2, [r3, #4]	@ movhi
 625:../Libraries/STM32F30x_StdPeriph_Driver/src/stm32f30x_spi.c **** }
 805              		.loc 1 625 0
 806 0500 02B0     		add	sp, sp, #8
 807 0502 7047     		bx	lr
 808              		.cfi_endproc
 809              	.LFE120:
 811              		.align	2
 812              		.global	SPI_BiDirectionalLineConfig
 813              		.thumb
 814              		.thumb_func
 816              	SPI_BiDirectionalLineConfig:
 817              	.LFB121:
 626:../Libraries/STM32F30x_StdPeriph_Driver/src/stm32f30x_spi.c **** 
 627:../Libraries/STM32F30x_StdPeriph_Driver/src/stm32f30x_spi.c **** /**
 628:../Libraries/STM32F30x_StdPeriph_Driver/src/stm32f30x_spi.c ****   * @brief  Selects the data transfer direction in bidirectional mode for the specified SPI.
 629:../Libraries/STM32F30x_StdPeriph_Driver/src/stm32f30x_spi.c ****   * @param  SPIx: where x can be 1, 2 or 3 to select the SPI peripheral. 
 630:../Libraries/STM32F30x_StdPeriph_Driver/src/stm32f30x_spi.c ****   * @param  SPI_Direction: specifies the data transfer direction in bidirectional mode. 
 631:../Libraries/STM32F30x_StdPeriph_Driver/src/stm32f30x_spi.c ****   *   This parameter can be one of the following values:
 632:../Libraries/STM32F30x_StdPeriph_Driver/src/stm32f30x_spi.c ****   *     @arg SPI_Direction_Tx: Selects Tx transmission direction
 633:../Libraries/STM32F30x_StdPeriph_Driver/src/stm32f30x_spi.c ****   *     @arg SPI_Direction_Rx: Selects Rx receive direction
 634:../Libraries/STM32F30x_StdPeriph_Driver/src/stm32f30x_spi.c ****   * @retval None
 635:../Libraries/STM32F30x_StdPeriph_Driver/src/stm32f30x_spi.c ****   */
 636:../Libraries/STM32F30x_StdPeriph_Driver/src/stm32f30x_spi.c **** void SPI_BiDirectionalLineConfig(SPI_TypeDef* SPIx, uint16_t SPI_Direction)
 637:../Libraries/STM32F30x_StdPeriph_Driver/src/stm32f30x_spi.c **** {
 818              		.loc 1 637 0
 819              		.cfi_startproc
 820              		@ args = 0, pretend = 0, frame = 8
 821              		@ frame_needed = 0, uses_anonymous_args = 0
 822              		@ link register save eliminated.
 823 0504 82B0     		sub	sp, sp, #8
 824              	.LCFI12:
 825              		.cfi_def_cfa_offset 8
 826 0506 0190     		str	r0, [sp, #4]
 827 0508 0B46     		mov	r3, r1
 828 050a ADF80230 		strh	r3, [sp, #2]	@ movhi
 638:../Libraries/STM32F30x_StdPeriph_Driver/src/stm32f30x_spi.c ****   /* Check the parameters */
 639:../Libraries/STM32F30x_StdPeriph_Driver/src/stm32f30x_spi.c ****   assert_param(IS_SPI_ALL_PERIPH(SPIx));
 640:../Libraries/STM32F30x_StdPeriph_Driver/src/stm32f30x_spi.c ****   assert_param(IS_SPI_DIRECTION(SPI_Direction));
 641:../Libraries/STM32F30x_StdPeriph_Driver/src/stm32f30x_spi.c ****   if (SPI_Direction == SPI_Direction_Tx)
 829              		.loc 1 641 0
 830 050e BDF80230 		ldrh	r3, [sp, #2]
 831 0512 B3F5804F 		cmp	r3, #16384
 832 0516 08D1     		bne	.L31
 642:../Libraries/STM32F30x_StdPeriph_Driver/src/stm32f30x_spi.c ****   {
 643:../Libraries/STM32F30x_StdPeriph_Driver/src/stm32f30x_spi.c ****     /* Set the Tx only mode */
 644:../Libraries/STM32F30x_StdPeriph_Driver/src/stm32f30x_spi.c ****     SPIx->CR1 |= SPI_Direction_Tx;
 833              		.loc 1 644 0
 834 0518 019B     		ldr	r3, [sp, #4]
 835 051a 1B88     		ldrh	r3, [r3, #0]	@ movhi
 836 051c 9BB2     		uxth	r3, r3
 837 051e 43F48043 		orr	r3, r3, #16384
 838 0522 9AB2     		uxth	r2, r3
 839 0524 019B     		ldr	r3, [sp, #4]
 840 0526 1A80     		strh	r2, [r3, #0]	@ movhi
 841 0528 07E0     		b	.L30
 842              	.L31:
 645:../Libraries/STM32F30x_StdPeriph_Driver/src/stm32f30x_spi.c ****   }
 646:../Libraries/STM32F30x_StdPeriph_Driver/src/stm32f30x_spi.c ****   else
 647:../Libraries/STM32F30x_StdPeriph_Driver/src/stm32f30x_spi.c ****   {
 648:../Libraries/STM32F30x_StdPeriph_Driver/src/stm32f30x_spi.c ****     /* Set the Rx only mode */
 649:../Libraries/STM32F30x_StdPeriph_Driver/src/stm32f30x_spi.c ****     SPIx->CR1 &= SPI_Direction_Rx;
 843              		.loc 1 649 0
 844 052a 019B     		ldr	r3, [sp, #4]
 845 052c 1B88     		ldrh	r3, [r3, #0]	@ movhi
 846 052e 9BB2     		uxth	r3, r3
 847 0530 23F48043 		bic	r3, r3, #16384
 848 0534 9AB2     		uxth	r2, r3
 849 0536 019B     		ldr	r3, [sp, #4]
 850 0538 1A80     		strh	r2, [r3, #0]	@ movhi
 851              	.L30:
 650:../Libraries/STM32F30x_StdPeriph_Driver/src/stm32f30x_spi.c ****   }
 651:../Libraries/STM32F30x_StdPeriph_Driver/src/stm32f30x_spi.c **** }
 852              		.loc 1 651 0
 853 053a 02B0     		add	sp, sp, #8
 854 053c 7047     		bx	lr
 855              		.cfi_endproc
 856              	.LFE121:
 858 053e 00BF     		.align	2
 859              		.global	SPI_NSSInternalSoftwareConfig
 860              		.thumb
 861              		.thumb_func
 863              	SPI_NSSInternalSoftwareConfig:
 864              	.LFB122:
 652:../Libraries/STM32F30x_StdPeriph_Driver/src/stm32f30x_spi.c **** 
 653:../Libraries/STM32F30x_StdPeriph_Driver/src/stm32f30x_spi.c **** /**
 654:../Libraries/STM32F30x_StdPeriph_Driver/src/stm32f30x_spi.c ****   * @brief  Configures internally by software the NSS pin for the selected SPI.
 655:../Libraries/STM32F30x_StdPeriph_Driver/src/stm32f30x_spi.c ****   * @note    This function can be called only after the SPI_Init() function has 
 656:../Libraries/STM32F30x_StdPeriph_Driver/src/stm32f30x_spi.c ****   *          been called.  
 657:../Libraries/STM32F30x_StdPeriph_Driver/src/stm32f30x_spi.c ****   * @param  SPIx: where x can be 1, 2 or 3 to select the SPI peripheral.
 658:../Libraries/STM32F30x_StdPeriph_Driver/src/stm32f30x_spi.c ****   * @param  SPI_NSSInternalSoft: specifies the SPI NSS internal state.
 659:../Libraries/STM32F30x_StdPeriph_Driver/src/stm32f30x_spi.c ****   *   This parameter can be one of the following values:
 660:../Libraries/STM32F30x_StdPeriph_Driver/src/stm32f30x_spi.c ****   *     @arg SPI_NSSInternalSoft_Set: Set NSS pin internally
 661:../Libraries/STM32F30x_StdPeriph_Driver/src/stm32f30x_spi.c ****   *     @arg SPI_NSSInternalSoft_Reset: Reset NSS pin internally
 662:../Libraries/STM32F30x_StdPeriph_Driver/src/stm32f30x_spi.c ****   * @retval None
 663:../Libraries/STM32F30x_StdPeriph_Driver/src/stm32f30x_spi.c ****   */
 664:../Libraries/STM32F30x_StdPeriph_Driver/src/stm32f30x_spi.c **** void SPI_NSSInternalSoftwareConfig(SPI_TypeDef* SPIx, uint16_t SPI_NSSInternalSoft)
 665:../Libraries/STM32F30x_StdPeriph_Driver/src/stm32f30x_spi.c **** {
 865              		.loc 1 665 0
 866              		.cfi_startproc
 867              		@ args = 0, pretend = 0, frame = 8
 868              		@ frame_needed = 0, uses_anonymous_args = 0
 869              		@ link register save eliminated.
 870 0540 82B0     		sub	sp, sp, #8
 871              	.LCFI13:
 872              		.cfi_def_cfa_offset 8
 873 0542 0190     		str	r0, [sp, #4]
 874 0544 0B46     		mov	r3, r1
 875 0546 ADF80230 		strh	r3, [sp, #2]	@ movhi
 666:../Libraries/STM32F30x_StdPeriph_Driver/src/stm32f30x_spi.c ****   /* Check the parameters */
 667:../Libraries/STM32F30x_StdPeriph_Driver/src/stm32f30x_spi.c ****   assert_param(IS_SPI_ALL_PERIPH(SPIx));
 668:../Libraries/STM32F30x_StdPeriph_Driver/src/stm32f30x_spi.c ****   assert_param(IS_SPI_NSS_INTERNAL(SPI_NSSInternalSoft));
 669:../Libraries/STM32F30x_StdPeriph_Driver/src/stm32f30x_spi.c **** 
 670:../Libraries/STM32F30x_StdPeriph_Driver/src/stm32f30x_spi.c ****   if (SPI_NSSInternalSoft != SPI_NSSInternalSoft_Reset)
 876              		.loc 1 670 0
 877 054a BDF80220 		ldrh	r2, [sp, #2]
 878 054e 4FF6FF63 		movw	r3, #65279
 879 0552 9A42     		cmp	r2, r3
 880 0554 08D0     		beq	.L34
 671:../Libraries/STM32F30x_StdPeriph_Driver/src/stm32f30x_spi.c ****   {
 672:../Libraries/STM32F30x_StdPeriph_Driver/src/stm32f30x_spi.c ****     /* Set NSS pin internally by software */
 673:../Libraries/STM32F30x_StdPeriph_Driver/src/stm32f30x_spi.c ****     SPIx->CR1 |= SPI_NSSInternalSoft_Set;
 881              		.loc 1 673 0
 882 0556 019B     		ldr	r3, [sp, #4]
 883 0558 1B88     		ldrh	r3, [r3, #0]	@ movhi
 884 055a 9BB2     		uxth	r3, r3
 885 055c 43F48073 		orr	r3, r3, #256
 886 0560 9AB2     		uxth	r2, r3
 887 0562 019B     		ldr	r3, [sp, #4]
 888 0564 1A80     		strh	r2, [r3, #0]	@ movhi
 889 0566 07E0     		b	.L33
 890              	.L34:
 674:../Libraries/STM32F30x_StdPeriph_Driver/src/stm32f30x_spi.c ****   }
 675:../Libraries/STM32F30x_StdPeriph_Driver/src/stm32f30x_spi.c ****   else
 676:../Libraries/STM32F30x_StdPeriph_Driver/src/stm32f30x_spi.c ****   {
 677:../Libraries/STM32F30x_StdPeriph_Driver/src/stm32f30x_spi.c ****     /* Reset NSS pin internally by software */
 678:../Libraries/STM32F30x_StdPeriph_Driver/src/stm32f30x_spi.c ****     SPIx->CR1 &= SPI_NSSInternalSoft_Reset;
 891              		.loc 1 678 0
 892 0568 019B     		ldr	r3, [sp, #4]
 893 056a 1B88     		ldrh	r3, [r3, #0]	@ movhi
 894 056c 9BB2     		uxth	r3, r3
 895 056e 23F48073 		bic	r3, r3, #256
 896 0572 9AB2     		uxth	r2, r3
 897 0574 019B     		ldr	r3, [sp, #4]
 898 0576 1A80     		strh	r2, [r3, #0]	@ movhi
 899              	.L33:
 679:../Libraries/STM32F30x_StdPeriph_Driver/src/stm32f30x_spi.c ****   }
 680:../Libraries/STM32F30x_StdPeriph_Driver/src/stm32f30x_spi.c **** }
 900              		.loc 1 680 0
 901 0578 02B0     		add	sp, sp, #8
 902 057a 7047     		bx	lr
 903              		.cfi_endproc
 904              	.LFE122:
 906              		.align	2
 907              		.global	I2S_FullDuplexConfig
 908              		.thumb
 909              		.thumb_func
 911              	I2S_FullDuplexConfig:
 912              	.LFB123:
 681:../Libraries/STM32F30x_StdPeriph_Driver/src/stm32f30x_spi.c **** 
 682:../Libraries/STM32F30x_StdPeriph_Driver/src/stm32f30x_spi.c **** /**
 683:../Libraries/STM32F30x_StdPeriph_Driver/src/stm32f30x_spi.c ****   * @brief  Configures the full duplex mode for the I2Sx peripheral using its
 684:../Libraries/STM32F30x_StdPeriph_Driver/src/stm32f30x_spi.c ****   *         extension I2Sxext according to the specified parameters in the 
 685:../Libraries/STM32F30x_StdPeriph_Driver/src/stm32f30x_spi.c ****   *         I2S_InitStruct.
 686:../Libraries/STM32F30x_StdPeriph_Driver/src/stm32f30x_spi.c ****   * @param  I2Sxext: where x can be  2 or 3 to select the I2S peripheral extension block.
 687:../Libraries/STM32F30x_StdPeriph_Driver/src/stm32f30x_spi.c ****   * @param  I2S_InitStruct: pointer to an I2S_InitTypeDef structure that
 688:../Libraries/STM32F30x_StdPeriph_Driver/src/stm32f30x_spi.c ****   *         contains the configuration information for the specified I2S peripheral
 689:../Libraries/STM32F30x_StdPeriph_Driver/src/stm32f30x_spi.c ****   *         extension.
 690:../Libraries/STM32F30x_StdPeriph_Driver/src/stm32f30x_spi.c ****   * 
 691:../Libraries/STM32F30x_StdPeriph_Driver/src/stm32f30x_spi.c ****   * @note   The structure pointed by I2S_InitStruct parameter should be the same
 692:../Libraries/STM32F30x_StdPeriph_Driver/src/stm32f30x_spi.c ****   *         used for the master I2S peripheral. In this case, if the master is 
 693:../Libraries/STM32F30x_StdPeriph_Driver/src/stm32f30x_spi.c ****   *         configured as transmitter, the slave will be receiver and vice versa.
 694:../Libraries/STM32F30x_StdPeriph_Driver/src/stm32f30x_spi.c ****   *         Or you can force a different mode by modifying the field I2S_Mode to the
 695:../Libraries/STM32F30x_StdPeriph_Driver/src/stm32f30x_spi.c ****   *         value I2S_SlaveRx or I2S_SlaveTx indepedently of the master configuration.    
 696:../Libraries/STM32F30x_StdPeriph_Driver/src/stm32f30x_spi.c ****   *         
 697:../Libraries/STM32F30x_StdPeriph_Driver/src/stm32f30x_spi.c ****   * @note   The I2S full duplex extension can be configured in slave mode only.    
 698:../Libraries/STM32F30x_StdPeriph_Driver/src/stm32f30x_spi.c ****   *  
 699:../Libraries/STM32F30x_StdPeriph_Driver/src/stm32f30x_spi.c ****   * @retval None
 700:../Libraries/STM32F30x_StdPeriph_Driver/src/stm32f30x_spi.c ****   */
 701:../Libraries/STM32F30x_StdPeriph_Driver/src/stm32f30x_spi.c **** void I2S_FullDuplexConfig(SPI_TypeDef* I2Sxext, I2S_InitTypeDef* I2S_InitStruct)
 702:../Libraries/STM32F30x_StdPeriph_Driver/src/stm32f30x_spi.c **** {
 913              		.loc 1 702 0
 914              		.cfi_startproc
 915              		@ args = 0, pretend = 0, frame = 16
 916              		@ frame_needed = 0, uses_anonymous_args = 0
 917              		@ link register save eliminated.
 918 057c 84B0     		sub	sp, sp, #16
 919              	.LCFI14:
 920              		.cfi_def_cfa_offset 16
 921 057e 0190     		str	r0, [sp, #4]
 922 0580 0091     		str	r1, [sp, #0]
 703:../Libraries/STM32F30x_StdPeriph_Driver/src/stm32f30x_spi.c ****   uint16_t tmpreg = 0, tmp = 0;
 923              		.loc 1 703 0
 924 0582 4FF00003 		mov	r3, #0
 925 0586 ADF80C30 		strh	r3, [sp, #12]	@ movhi
 926 058a 4FF00003 		mov	r3, #0
 927 058e ADF80E30 		strh	r3, [sp, #14]	@ movhi
 704:../Libraries/STM32F30x_StdPeriph_Driver/src/stm32f30x_spi.c ****   
 705:../Libraries/STM32F30x_StdPeriph_Driver/src/stm32f30x_spi.c ****   /* Check the I2S parameters */
 706:../Libraries/STM32F30x_StdPeriph_Driver/src/stm32f30x_spi.c ****   assert_param(IS_I2S_EXT_PERIPH(I2Sxext));
 707:../Libraries/STM32F30x_StdPeriph_Driver/src/stm32f30x_spi.c ****   assert_param(IS_I2S_MODE(I2S_InitStruct->I2S_Mode));
 708:../Libraries/STM32F30x_StdPeriph_Driver/src/stm32f30x_spi.c ****   assert_param(IS_I2S_STANDARD(I2S_InitStruct->I2S_Standard));
 709:../Libraries/STM32F30x_StdPeriph_Driver/src/stm32f30x_spi.c ****   assert_param(IS_I2S_DATA_FORMAT(I2S_InitStruct->I2S_DataFormat));
 710:../Libraries/STM32F30x_StdPeriph_Driver/src/stm32f30x_spi.c ****   assert_param(IS_I2S_CPOL(I2S_InitStruct->I2S_CPOL));  
 711:../Libraries/STM32F30x_StdPeriph_Driver/src/stm32f30x_spi.c **** 
 712:../Libraries/STM32F30x_StdPeriph_Driver/src/stm32f30x_spi.c **** /*----------------------- SPIx I2SCFGR & I2SPR Configuration -----------------*/
 713:../Libraries/STM32F30x_StdPeriph_Driver/src/stm32f30x_spi.c ****   /* Clear I2SMOD, I2SE, I2SCFG, PCMSYNC, I2SSTD, CKPOL, DATLEN and CHLEN bits */
 714:../Libraries/STM32F30x_StdPeriph_Driver/src/stm32f30x_spi.c ****   I2Sxext->I2SCFGR &= I2SCFGR_CLEAR_MASK; 
 928              		.loc 1 714 0
 929 0592 019B     		ldr	r3, [sp, #4]
 930 0594 9B8B     		ldrh	r3, [r3, #28]	@ movhi
 931 0596 9BB2     		uxth	r3, r3
 932 0598 23F47A63 		bic	r3, r3, #4000
 933 059c 23F01F03 		bic	r3, r3, #31
 934 05a0 9AB2     		uxth	r2, r3
 935 05a2 019B     		ldr	r3, [sp, #4]
 936 05a4 9A83     		strh	r2, [r3, #28]	@ movhi
 715:../Libraries/STM32F30x_StdPeriph_Driver/src/stm32f30x_spi.c ****   I2Sxext->I2SPR = 0x0002;
 937              		.loc 1 715 0
 938 05a6 019B     		ldr	r3, [sp, #4]
 939 05a8 4FF00202 		mov	r2, #2
 940 05ac 1A84     		strh	r2, [r3, #32]	@ movhi
 716:../Libraries/STM32F30x_StdPeriph_Driver/src/stm32f30x_spi.c ****   
 717:../Libraries/STM32F30x_StdPeriph_Driver/src/stm32f30x_spi.c ****   /* Get the I2SCFGR register value */
 718:../Libraries/STM32F30x_StdPeriph_Driver/src/stm32f30x_spi.c ****   tmpreg = I2Sxext->I2SCFGR;
 941              		.loc 1 718 0
 942 05ae 019B     		ldr	r3, [sp, #4]
 943 05b0 9B8B     		ldrh	r3, [r3, #28]	@ movhi
 944 05b2 ADF80C30 		strh	r3, [sp, #12]	@ movhi
 719:../Libraries/STM32F30x_StdPeriph_Driver/src/stm32f30x_spi.c ****   
 720:../Libraries/STM32F30x_StdPeriph_Driver/src/stm32f30x_spi.c ****   /* Get the mode to be configured for the extended I2S */
 721:../Libraries/STM32F30x_StdPeriph_Driver/src/stm32f30x_spi.c ****   if ((I2S_InitStruct->I2S_Mode == I2S_Mode_MasterTx) || (I2S_InitStruct->I2S_Mode == I2S_Mode_Slav
 945              		.loc 1 721 0
 946 05b6 009B     		ldr	r3, [sp, #0]
 947 05b8 1B88     		ldrh	r3, [r3, #0]
 948 05ba B3F5007F 		cmp	r3, #512
 949 05be 03D0     		beq	.L37
 950              		.loc 1 721 0 is_stmt 0 discriminator 1
 951 05c0 009B     		ldr	r3, [sp, #0]
 952 05c2 1B88     		ldrh	r3, [r3, #0]
 953 05c4 002B     		cmp	r3, #0
 954 05c6 04D1     		bne	.L38
 955              	.L37:
 722:../Libraries/STM32F30x_StdPeriph_Driver/src/stm32f30x_spi.c ****   {
 723:../Libraries/STM32F30x_StdPeriph_Driver/src/stm32f30x_spi.c ****     tmp = I2S_Mode_SlaveRx;
 956              		.loc 1 723 0 is_stmt 1
 957 05c8 4FF48073 		mov	r3, #256
 958 05cc ADF80E30 		strh	r3, [sp, #14]	@ movhi
 959 05d0 0DE0     		b	.L39
 960              	.L38:
 724:../Libraries/STM32F30x_StdPeriph_Driver/src/stm32f30x_spi.c ****   }
 725:../Libraries/STM32F30x_StdPeriph_Driver/src/stm32f30x_spi.c ****   else
 726:../Libraries/STM32F30x_StdPeriph_Driver/src/stm32f30x_spi.c ****   {
 727:../Libraries/STM32F30x_StdPeriph_Driver/src/stm32f30x_spi.c ****     if ((I2S_InitStruct->I2S_Mode == I2S_Mode_MasterRx) || (I2S_InitStruct->I2S_Mode == I2S_Mode_Sl
 961              		.loc 1 727 0
 962 05d2 009B     		ldr	r3, [sp, #0]
 963 05d4 1B88     		ldrh	r3, [r3, #0]
 964 05d6 B3F5407F 		cmp	r3, #768
 965 05da 04D0     		beq	.L40
 966              		.loc 1 727 0 is_stmt 0 discriminator 1
 967 05dc 009B     		ldr	r3, [sp, #0]
 968 05de 1B88     		ldrh	r3, [r3, #0]
 969 05e0 B3F5807F 		cmp	r3, #256
 970 05e4 03D1     		bne	.L39
 971              	.L40:
 728:../Libraries/STM32F30x_StdPeriph_Driver/src/stm32f30x_spi.c ****     {
 729:../Libraries/STM32F30x_StdPeriph_Driver/src/stm32f30x_spi.c ****       tmp = I2S_Mode_SlaveTx;
 972              		.loc 1 729 0 is_stmt 1
 973 05e6 4FF00003 		mov	r3, #0
 974 05ea ADF80E30 		strh	r3, [sp, #14]	@ movhi
 975              	.L39:
 730:../Libraries/STM32F30x_StdPeriph_Driver/src/stm32f30x_spi.c ****     }
 731:../Libraries/STM32F30x_StdPeriph_Driver/src/stm32f30x_spi.c ****   }
 732:../Libraries/STM32F30x_StdPeriph_Driver/src/stm32f30x_spi.c **** 
 733:../Libraries/STM32F30x_StdPeriph_Driver/src/stm32f30x_spi.c ****  
 734:../Libraries/STM32F30x_StdPeriph_Driver/src/stm32f30x_spi.c ****   /* Configure the I2S with the SPI_InitStruct values */
 735:../Libraries/STM32F30x_StdPeriph_Driver/src/stm32f30x_spi.c ****   tmpreg |= (uint16_t)((uint16_t)SPI_I2SCFGR_I2SMOD | (uint16_t)(tmp | \
 736:../Libraries/STM32F30x_StdPeriph_Driver/src/stm32f30x_spi.c ****                   (uint16_t)(I2S_InitStruct->I2S_Standard | (uint16_t)(I2S_InitStruct->I2S_DataForm
 976              		.loc 1 736 0
 977 05ee 009B     		ldr	r3, [sp, #0]
 978 05f0 5A88     		ldrh	r2, [r3, #2]
 979 05f2 009B     		ldr	r3, [sp, #0]
 980 05f4 9988     		ldrh	r1, [r3, #4]
 737:../Libraries/STM32F30x_StdPeriph_Driver/src/stm32f30x_spi.c ****                   (uint16_t)I2S_InitStruct->I2S_CPOL))));
 981              		.loc 1 737 0
 982 05f6 009B     		ldr	r3, [sp, #0]
 983 05f8 9B89     		ldrh	r3, [r3, #12]
 736:../Libraries/STM32F30x_StdPeriph_Driver/src/stm32f30x_spi.c ****                   (uint16_t)(I2S_InitStruct->I2S_Standard | (uint16_t)(I2S_InitStruct->I2S_DataForm
 984              		.loc 1 736 0
 985 05fa 0B43     		orrs	r3, r3, r1
 986 05fc 9BB2     		uxth	r3, r3
 987 05fe 1343     		orrs	r3, r3, r2
 988 0600 9AB2     		uxth	r2, r3
 735:../Libraries/STM32F30x_StdPeriph_Driver/src/stm32f30x_spi.c ****   tmpreg |= (uint16_t)((uint16_t)SPI_I2SCFGR_I2SMOD | (uint16_t)(tmp | \
 989              		.loc 1 735 0
 990 0602 BDF80E30 		ldrh	r3, [sp, #14]	@ movhi
 991 0606 1343     		orrs	r3, r3, r2
 992 0608 9AB2     		uxth	r2, r3
 993 060a BDF80C30 		ldrh	r3, [sp, #12]	@ movhi
 994 060e 1343     		orrs	r3, r3, r2
 995 0610 9BB2     		uxth	r3, r3
 996 0612 43F40063 		orr	r3, r3, #2048
 997 0616 ADF80C30 		strh	r3, [sp, #12]	@ movhi
 738:../Libraries/STM32F30x_StdPeriph_Driver/src/stm32f30x_spi.c ****  
 739:../Libraries/STM32F30x_StdPeriph_Driver/src/stm32f30x_spi.c ****   /* Write to SPIx I2SCFGR */  
 740:../Libraries/STM32F30x_StdPeriph_Driver/src/stm32f30x_spi.c ****   I2Sxext->I2SCFGR = tmpreg;
 998              		.loc 1 740 0
 999 061a 019B     		ldr	r3, [sp, #4]
 1000 061c BDF80C20 		ldrh	r2, [sp, #12]	@ movhi
 1001 0620 9A83     		strh	r2, [r3, #28]	@ movhi
 741:../Libraries/STM32F30x_StdPeriph_Driver/src/stm32f30x_spi.c **** }
 1002              		.loc 1 741 0
 1003 0622 04B0     		add	sp, sp, #16
 1004 0624 7047     		bx	lr
 1005              		.cfi_endproc
 1006              	.LFE123:
 1008 0626 00BF     		.align	2
 1009              		.global	SPI_SSOutputCmd
 1010              		.thumb
 1011              		.thumb_func
 1013              	SPI_SSOutputCmd:
 1014              	.LFB124:
 742:../Libraries/STM32F30x_StdPeriph_Driver/src/stm32f30x_spi.c **** 
 743:../Libraries/STM32F30x_StdPeriph_Driver/src/stm32f30x_spi.c **** /**
 744:../Libraries/STM32F30x_StdPeriph_Driver/src/stm32f30x_spi.c ****   * @brief  Enables or disables the SS output for the selected SPI.
 745:../Libraries/STM32F30x_StdPeriph_Driver/src/stm32f30x_spi.c ****   * @note    This function can be called only after the SPI_Init() function has 
 746:../Libraries/STM32F30x_StdPeriph_Driver/src/stm32f30x_spi.c ****   *          been called and the NSS hardware management mode is selected. 
 747:../Libraries/STM32F30x_StdPeriph_Driver/src/stm32f30x_spi.c ****   * @param  SPIx: where x can be 1, 2 or 3 to select the SPI peripheral.
 748:../Libraries/STM32F30x_StdPeriph_Driver/src/stm32f30x_spi.c ****   * @param  NewState: new state of the SPIx SS output. 
 749:../Libraries/STM32F30x_StdPeriph_Driver/src/stm32f30x_spi.c ****   *         This parameter can be: ENABLE or DISABLE.
 750:../Libraries/STM32F30x_StdPeriph_Driver/src/stm32f30x_spi.c ****   * @retval None
 751:../Libraries/STM32F30x_StdPeriph_Driver/src/stm32f30x_spi.c ****   */
 752:../Libraries/STM32F30x_StdPeriph_Driver/src/stm32f30x_spi.c **** void SPI_SSOutputCmd(SPI_TypeDef* SPIx, FunctionalState NewState)
 753:../Libraries/STM32F30x_StdPeriph_Driver/src/stm32f30x_spi.c **** {
 1015              		.loc 1 753 0
 1016              		.cfi_startproc
 1017              		@ args = 0, pretend = 0, frame = 8
 1018              		@ frame_needed = 0, uses_anonymous_args = 0
 1019              		@ link register save eliminated.
 1020 0628 82B0     		sub	sp, sp, #8
 1021              	.LCFI15:
 1022              		.cfi_def_cfa_offset 8
 1023 062a 0190     		str	r0, [sp, #4]
 1024 062c 0B46     		mov	r3, r1
 1025 062e 8DF80330 		strb	r3, [sp, #3]
 754:../Libraries/STM32F30x_StdPeriph_Driver/src/stm32f30x_spi.c ****   /* Check the parameters */
 755:../Libraries/STM32F30x_StdPeriph_Driver/src/stm32f30x_spi.c ****   assert_param(IS_SPI_ALL_PERIPH(SPIx));
 756:../Libraries/STM32F30x_StdPeriph_Driver/src/stm32f30x_spi.c ****   assert_param(IS_FUNCTIONAL_STATE(NewState));
 757:../Libraries/STM32F30x_StdPeriph_Driver/src/stm32f30x_spi.c ****   if (NewState != DISABLE)
 1026              		.loc 1 757 0
 1027 0632 9DF80330 		ldrb	r3, [sp, #3]	@ zero_extendqisi2
 1028 0636 002B     		cmp	r3, #0
 1029 0638 08D0     		beq	.L42
 758:../Libraries/STM32F30x_StdPeriph_Driver/src/stm32f30x_spi.c ****   {
 759:../Libraries/STM32F30x_StdPeriph_Driver/src/stm32f30x_spi.c ****     /* Enable the selected SPI SS output */
 760:../Libraries/STM32F30x_StdPeriph_Driver/src/stm32f30x_spi.c ****     SPIx->CR2 |= (uint16_t)SPI_CR2_SSOE;
 1030              		.loc 1 760 0
 1031 063a 019B     		ldr	r3, [sp, #4]
 1032 063c 9B88     		ldrh	r3, [r3, #4]	@ movhi
 1033 063e 9BB2     		uxth	r3, r3
 1034 0640 43F00403 		orr	r3, r3, #4
 1035 0644 9AB2     		uxth	r2, r3
 1036 0646 019B     		ldr	r3, [sp, #4]
 1037 0648 9A80     		strh	r2, [r3, #4]	@ movhi
 1038 064a 07E0     		b	.L41
 1039              	.L42:
 761:../Libraries/STM32F30x_StdPeriph_Driver/src/stm32f30x_spi.c ****   }
 762:../Libraries/STM32F30x_StdPeriph_Driver/src/stm32f30x_spi.c ****   else
 763:../Libraries/STM32F30x_StdPeriph_Driver/src/stm32f30x_spi.c ****   {
 764:../Libraries/STM32F30x_StdPeriph_Driver/src/stm32f30x_spi.c ****     /* Disable the selected SPI SS output */
 765:../Libraries/STM32F30x_StdPeriph_Driver/src/stm32f30x_spi.c ****     SPIx->CR2 &= (uint16_t)~((uint16_t)SPI_CR2_SSOE);
 1040              		.loc 1 765 0
 1041 064c 019B     		ldr	r3, [sp, #4]
 1042 064e 9B88     		ldrh	r3, [r3, #4]	@ movhi
 1043 0650 9BB2     		uxth	r3, r3
 1044 0652 23F00403 		bic	r3, r3, #4
 1045 0656 9AB2     		uxth	r2, r3
 1046 0658 019B     		ldr	r3, [sp, #4]
 1047 065a 9A80     		strh	r2, [r3, #4]	@ movhi
 1048              	.L41:
 766:../Libraries/STM32F30x_StdPeriph_Driver/src/stm32f30x_spi.c ****   }
 767:../Libraries/STM32F30x_StdPeriph_Driver/src/stm32f30x_spi.c **** }
 1049              		.loc 1 767 0
 1050 065c 02B0     		add	sp, sp, #8
 1051 065e 7047     		bx	lr
 1052              		.cfi_endproc
 1053              	.LFE124:
 1055              		.align	2
 1056              		.global	SPI_NSSPulseModeCmd
 1057              		.thumb
 1058              		.thumb_func
 1060              	SPI_NSSPulseModeCmd:
 1061              	.LFB125:
 768:../Libraries/STM32F30x_StdPeriph_Driver/src/stm32f30x_spi.c **** 
 769:../Libraries/STM32F30x_StdPeriph_Driver/src/stm32f30x_spi.c **** /**
 770:../Libraries/STM32F30x_StdPeriph_Driver/src/stm32f30x_spi.c ****   * @brief  Enables or disables the NSS pulse management mode.
 771:../Libraries/STM32F30x_StdPeriph_Driver/src/stm32f30x_spi.c ****   * @note    This function can be called only after the SPI_Init() function has 
 772:../Libraries/STM32F30x_StdPeriph_Driver/src/stm32f30x_spi.c ****   *          been called. 
 773:../Libraries/STM32F30x_StdPeriph_Driver/src/stm32f30x_spi.c ****   * @note    When TI mode is selected, the control bits NSSP is not taken into 
 774:../Libraries/STM32F30x_StdPeriph_Driver/src/stm32f30x_spi.c ****   *          consideration and are configured by hardware respectively to the 
 775:../Libraries/STM32F30x_StdPeriph_Driver/src/stm32f30x_spi.c ****   *          TI mode requirements. 
 776:../Libraries/STM32F30x_StdPeriph_Driver/src/stm32f30x_spi.c ****   * @param  SPIx: where x can be 1, 2 or 3 to select the SPI peripheral. 
 777:../Libraries/STM32F30x_StdPeriph_Driver/src/stm32f30x_spi.c ****   * @param  NewState: new state of the NSS pulse management mode.
 778:../Libraries/STM32F30x_StdPeriph_Driver/src/stm32f30x_spi.c ****   *         This parameter can be: ENABLE or DISABLE.
 779:../Libraries/STM32F30x_StdPeriph_Driver/src/stm32f30x_spi.c ****   * @retval None
 780:../Libraries/STM32F30x_StdPeriph_Driver/src/stm32f30x_spi.c ****   */
 781:../Libraries/STM32F30x_StdPeriph_Driver/src/stm32f30x_spi.c **** void SPI_NSSPulseModeCmd(SPI_TypeDef* SPIx, FunctionalState NewState)
 782:../Libraries/STM32F30x_StdPeriph_Driver/src/stm32f30x_spi.c **** {
 1062              		.loc 1 782 0
 1063              		.cfi_startproc
 1064              		@ args = 0, pretend = 0, frame = 8
 1065              		@ frame_needed = 0, uses_anonymous_args = 0
 1066              		@ link register save eliminated.
 1067 0660 82B0     		sub	sp, sp, #8
 1068              	.LCFI16:
 1069              		.cfi_def_cfa_offset 8
 1070 0662 0190     		str	r0, [sp, #4]
 1071 0664 0B46     		mov	r3, r1
 1072 0666 8DF80330 		strb	r3, [sp, #3]
 783:../Libraries/STM32F30x_StdPeriph_Driver/src/stm32f30x_spi.c ****   /* Check the parameters */
 784:../Libraries/STM32F30x_StdPeriph_Driver/src/stm32f30x_spi.c ****   assert_param(IS_SPI_ALL_PERIPH(SPIx));
 785:../Libraries/STM32F30x_StdPeriph_Driver/src/stm32f30x_spi.c ****   assert_param(IS_FUNCTIONAL_STATE(NewState));
 786:../Libraries/STM32F30x_StdPeriph_Driver/src/stm32f30x_spi.c **** 
 787:../Libraries/STM32F30x_StdPeriph_Driver/src/stm32f30x_spi.c ****   if (NewState != DISABLE)
 1073              		.loc 1 787 0
 1074 066a 9DF80330 		ldrb	r3, [sp, #3]	@ zero_extendqisi2
 1075 066e 002B     		cmp	r3, #0
 1076 0670 08D0     		beq	.L45
 788:../Libraries/STM32F30x_StdPeriph_Driver/src/stm32f30x_spi.c ****   {
 789:../Libraries/STM32F30x_StdPeriph_Driver/src/stm32f30x_spi.c ****     /* Enable the NSS pulse management mode */
 790:../Libraries/STM32F30x_StdPeriph_Driver/src/stm32f30x_spi.c ****     SPIx->CR2 |= SPI_CR2_NSSP;
 1077              		.loc 1 790 0
 1078 0672 019B     		ldr	r3, [sp, #4]
 1079 0674 9B88     		ldrh	r3, [r3, #4]	@ movhi
 1080 0676 9BB2     		uxth	r3, r3
 1081 0678 43F00803 		orr	r3, r3, #8
 1082 067c 9AB2     		uxth	r2, r3
 1083 067e 019B     		ldr	r3, [sp, #4]
 1084 0680 9A80     		strh	r2, [r3, #4]	@ movhi
 1085 0682 07E0     		b	.L44
 1086              	.L45:
 791:../Libraries/STM32F30x_StdPeriph_Driver/src/stm32f30x_spi.c ****   }
 792:../Libraries/STM32F30x_StdPeriph_Driver/src/stm32f30x_spi.c ****   else
 793:../Libraries/STM32F30x_StdPeriph_Driver/src/stm32f30x_spi.c ****   {
 794:../Libraries/STM32F30x_StdPeriph_Driver/src/stm32f30x_spi.c ****     /* Disable the NSS pulse management mode */
 795:../Libraries/STM32F30x_StdPeriph_Driver/src/stm32f30x_spi.c ****     SPIx->CR2 &= (uint16_t)~((uint16_t)SPI_CR2_NSSP);    
 1087              		.loc 1 795 0
 1088 0684 019B     		ldr	r3, [sp, #4]
 1089 0686 9B88     		ldrh	r3, [r3, #4]	@ movhi
 1090 0688 9BB2     		uxth	r3, r3
 1091 068a 23F00803 		bic	r3, r3, #8
 1092 068e 9AB2     		uxth	r2, r3
 1093 0690 019B     		ldr	r3, [sp, #4]
 1094 0692 9A80     		strh	r2, [r3, #4]	@ movhi
 1095              	.L44:
 796:../Libraries/STM32F30x_StdPeriph_Driver/src/stm32f30x_spi.c ****   }
 797:../Libraries/STM32F30x_StdPeriph_Driver/src/stm32f30x_spi.c **** }
 1096              		.loc 1 797 0
 1097 0694 02B0     		add	sp, sp, #8
 1098 0696 7047     		bx	lr
 1099              		.cfi_endproc
 1100              	.LFE125:
 1102              		.align	2
 1103              		.global	SPI_SendData8
 1104              		.thumb
 1105              		.thumb_func
 1107              	SPI_SendData8:
 1108              	.LFB126:
 798:../Libraries/STM32F30x_StdPeriph_Driver/src/stm32f30x_spi.c **** 
 799:../Libraries/STM32F30x_StdPeriph_Driver/src/stm32f30x_spi.c **** /**
 800:../Libraries/STM32F30x_StdPeriph_Driver/src/stm32f30x_spi.c ****   * @}
 801:../Libraries/STM32F30x_StdPeriph_Driver/src/stm32f30x_spi.c ****   */
 802:../Libraries/STM32F30x_StdPeriph_Driver/src/stm32f30x_spi.c **** 
 803:../Libraries/STM32F30x_StdPeriph_Driver/src/stm32f30x_spi.c **** /** @defgroup SPI_Group2 Data transfers functions
 804:../Libraries/STM32F30x_StdPeriph_Driver/src/stm32f30x_spi.c ****  *  @brief   Data transfers functions
 805:../Libraries/STM32F30x_StdPeriph_Driver/src/stm32f30x_spi.c ****  *
 806:../Libraries/STM32F30x_StdPeriph_Driver/src/stm32f30x_spi.c **** @verbatim
 807:../Libraries/STM32F30x_StdPeriph_Driver/src/stm32f30x_spi.c ****  ===============================================================================
 808:../Libraries/STM32F30x_StdPeriph_Driver/src/stm32f30x_spi.c ****                     ##### Data transfers functions #####
 809:../Libraries/STM32F30x_StdPeriph_Driver/src/stm32f30x_spi.c ****  ===============================================================================  
 810:../Libraries/STM32F30x_StdPeriph_Driver/src/stm32f30x_spi.c ****     [..] This section provides a set of functions allowing to manage the SPI or I2S 
 811:../Libraries/STM32F30x_StdPeriph_Driver/src/stm32f30x_spi.c ****          data transfers.
 812:../Libraries/STM32F30x_StdPeriph_Driver/src/stm32f30x_spi.c ****     [..] In reception, data are received and then stored into an internal Rx buffer while 
 813:../Libraries/STM32F30x_StdPeriph_Driver/src/stm32f30x_spi.c ****          In transmission, data are first stored into an internal Tx buffer before being 
 814:../Libraries/STM32F30x_StdPeriph_Driver/src/stm32f30x_spi.c ****          transmitted.
 815:../Libraries/STM32F30x_StdPeriph_Driver/src/stm32f30x_spi.c ****     [..] The read access of the SPI_DR register can be done using the SPI_I2S_ReceiveData()
 816:../Libraries/STM32F30x_StdPeriph_Driver/src/stm32f30x_spi.c ****          function and returns the Rx buffered value. Whereas a write access to the SPI_DR 
 817:../Libraries/STM32F30x_StdPeriph_Driver/src/stm32f30x_spi.c ****          can be done using SPI_I2S_SendData() function and stores the written data into 
 818:../Libraries/STM32F30x_StdPeriph_Driver/src/stm32f30x_spi.c ****          Tx buffer.
 819:../Libraries/STM32F30x_StdPeriph_Driver/src/stm32f30x_spi.c **** 
 820:../Libraries/STM32F30x_StdPeriph_Driver/src/stm32f30x_spi.c **** @endverbatim
 821:../Libraries/STM32F30x_StdPeriph_Driver/src/stm32f30x_spi.c ****   * @{
 822:../Libraries/STM32F30x_StdPeriph_Driver/src/stm32f30x_spi.c ****   */
 823:../Libraries/STM32F30x_StdPeriph_Driver/src/stm32f30x_spi.c **** 
 824:../Libraries/STM32F30x_StdPeriph_Driver/src/stm32f30x_spi.c **** /**
 825:../Libraries/STM32F30x_StdPeriph_Driver/src/stm32f30x_spi.c ****   * @brief  Transmits a Data through the SPIx peripheral.
 826:../Libraries/STM32F30x_StdPeriph_Driver/src/stm32f30x_spi.c ****   * @param  SPIx: where x can be 1, 2 or 3 to select the SPI peripheral.
 827:../Libraries/STM32F30x_StdPeriph_Driver/src/stm32f30x_spi.c ****   * @param  Data: Data to be transmitted.
 828:../Libraries/STM32F30x_StdPeriph_Driver/src/stm32f30x_spi.c ****   * @retval None
 829:../Libraries/STM32F30x_StdPeriph_Driver/src/stm32f30x_spi.c ****   */
 830:../Libraries/STM32F30x_StdPeriph_Driver/src/stm32f30x_spi.c **** void SPI_SendData8(SPI_TypeDef* SPIx, uint8_t Data)
 831:../Libraries/STM32F30x_StdPeriph_Driver/src/stm32f30x_spi.c **** {
 1109              		.loc 1 831 0
 1110              		.cfi_startproc
 1111              		@ args = 0, pretend = 0, frame = 16
 1112              		@ frame_needed = 0, uses_anonymous_args = 0
 1113              		@ link register save eliminated.
 1114 0698 84B0     		sub	sp, sp, #16
 1115              	.LCFI17:
 1116              		.cfi_def_cfa_offset 16
 1117 069a 0190     		str	r0, [sp, #4]
 1118 069c 0B46     		mov	r3, r1
 1119 069e 8DF80330 		strb	r3, [sp, #3]
 832:../Libraries/STM32F30x_StdPeriph_Driver/src/stm32f30x_spi.c ****   uint32_t spixbase = 0x00;
 1120              		.loc 1 832 0
 1121 06a2 4FF00003 		mov	r3, #0
 1122 06a6 0393     		str	r3, [sp, #12]
 833:../Libraries/STM32F30x_StdPeriph_Driver/src/stm32f30x_spi.c **** 
 834:../Libraries/STM32F30x_StdPeriph_Driver/src/stm32f30x_spi.c ****   /* Check the parameters */
 835:../Libraries/STM32F30x_StdPeriph_Driver/src/stm32f30x_spi.c ****   assert_param(IS_SPI_ALL_PERIPH(SPIx));
 836:../Libraries/STM32F30x_StdPeriph_Driver/src/stm32f30x_spi.c **** 
 837:../Libraries/STM32F30x_StdPeriph_Driver/src/stm32f30x_spi.c ****   spixbase = (uint32_t)SPIx; 
 1123              		.loc 1 837 0
 1124 06a8 019B     		ldr	r3, [sp, #4]
 1125 06aa 0393     		str	r3, [sp, #12]
 838:../Libraries/STM32F30x_StdPeriph_Driver/src/stm32f30x_spi.c ****   spixbase += 0x0C;
 1126              		.loc 1 838 0
 1127 06ac 039B     		ldr	r3, [sp, #12]
 1128 06ae 03F10C03 		add	r3, r3, #12
 1129 06b2 0393     		str	r3, [sp, #12]
 839:../Libraries/STM32F30x_StdPeriph_Driver/src/stm32f30x_spi.c ****   
 840:../Libraries/STM32F30x_StdPeriph_Driver/src/stm32f30x_spi.c ****   *(__IO uint8_t *) spixbase = Data;
 1130              		.loc 1 840 0
 1131 06b4 039B     		ldr	r3, [sp, #12]
 1132 06b6 9DF80320 		ldrb	r2, [sp, #3]
 1133 06ba 1A70     		strb	r2, [r3, #0]
 841:../Libraries/STM32F30x_StdPeriph_Driver/src/stm32f30x_spi.c **** }
 1134              		.loc 1 841 0
 1135 06bc 04B0     		add	sp, sp, #16
 1136 06be 7047     		bx	lr
 1137              		.cfi_endproc
 1138              	.LFE126:
 1140              		.align	2
 1141              		.global	SPI_I2S_SendData16
 1142              		.thumb
 1143              		.thumb_func
 1145              	SPI_I2S_SendData16:
 1146              	.LFB127:
 842:../Libraries/STM32F30x_StdPeriph_Driver/src/stm32f30x_spi.c **** 
 843:../Libraries/STM32F30x_StdPeriph_Driver/src/stm32f30x_spi.c **** /**
 844:../Libraries/STM32F30x_StdPeriph_Driver/src/stm32f30x_spi.c ****   * @brief  Transmits a Data through the SPIx/I2Sx peripheral.
 845:../Libraries/STM32F30x_StdPeriph_Driver/src/stm32f30x_spi.c ****   * @param  SPIx: To select the SPIx/I2Sx peripheral, where x can be: 1, 2 or 3 
 846:../Libraries/STM32F30x_StdPeriph_Driver/src/stm32f30x_spi.c ****   *         in SPI mode or 2 or 3 in I2S mode or I2Sxext for I2S full duplex mode.  
 847:../Libraries/STM32F30x_StdPeriph_Driver/src/stm32f30x_spi.c ****   * @param  Data: Data to be transmitted.
 848:../Libraries/STM32F30x_StdPeriph_Driver/src/stm32f30x_spi.c ****   * @retval None
 849:../Libraries/STM32F30x_StdPeriph_Driver/src/stm32f30x_spi.c ****   */
 850:../Libraries/STM32F30x_StdPeriph_Driver/src/stm32f30x_spi.c **** void SPI_I2S_SendData16(SPI_TypeDef* SPIx, uint16_t Data)
 851:../Libraries/STM32F30x_StdPeriph_Driver/src/stm32f30x_spi.c **** {
 1147              		.loc 1 851 0
 1148              		.cfi_startproc
 1149              		@ args = 0, pretend = 0, frame = 8
 1150              		@ frame_needed = 0, uses_anonymous_args = 0
 1151              		@ link register save eliminated.
 1152 06c0 82B0     		sub	sp, sp, #8
 1153              	.LCFI18:
 1154              		.cfi_def_cfa_offset 8
 1155 06c2 0190     		str	r0, [sp, #4]
 1156 06c4 0B46     		mov	r3, r1
 1157 06c6 ADF80230 		strh	r3, [sp, #2]	@ movhi
 852:../Libraries/STM32F30x_StdPeriph_Driver/src/stm32f30x_spi.c ****   /* Check the parameters */
 853:../Libraries/STM32F30x_StdPeriph_Driver/src/stm32f30x_spi.c ****   assert_param(IS_SPI_ALL_PERIPH_EXT(SPIx));
 854:../Libraries/STM32F30x_StdPeriph_Driver/src/stm32f30x_spi.c ****   
 855:../Libraries/STM32F30x_StdPeriph_Driver/src/stm32f30x_spi.c ****   SPIx->DR = (uint16_t)Data;
 1158              		.loc 1 855 0
 1159 06ca 019B     		ldr	r3, [sp, #4]
 1160 06cc BDF80220 		ldrh	r2, [sp, #2]	@ movhi
 1161 06d0 9A81     		strh	r2, [r3, #12]	@ movhi
 856:../Libraries/STM32F30x_StdPeriph_Driver/src/stm32f30x_spi.c **** }
 1162              		.loc 1 856 0
 1163 06d2 02B0     		add	sp, sp, #8
 1164 06d4 7047     		bx	lr
 1165              		.cfi_endproc
 1166              	.LFE127:
 1168 06d6 00BF     		.align	2
 1169              		.global	SPI_ReceiveData8
 1170              		.thumb
 1171              		.thumb_func
 1173              	SPI_ReceiveData8:
 1174              	.LFB128:
 857:../Libraries/STM32F30x_StdPeriph_Driver/src/stm32f30x_spi.c **** 
 858:../Libraries/STM32F30x_StdPeriph_Driver/src/stm32f30x_spi.c **** /**
 859:../Libraries/STM32F30x_StdPeriph_Driver/src/stm32f30x_spi.c ****   * @brief  Returns the most recent received data by the SPIx peripheral. 
 860:../Libraries/STM32F30x_StdPeriph_Driver/src/stm32f30x_spi.c ****   * @param  SPIx: where x can be 1, 2 or 3 to select the SPI peripheral.
 861:../Libraries/STM32F30x_StdPeriph_Driver/src/stm32f30x_spi.c ****   * @retval The value of the received data.
 862:../Libraries/STM32F30x_StdPeriph_Driver/src/stm32f30x_spi.c ****   */
 863:../Libraries/STM32F30x_StdPeriph_Driver/src/stm32f30x_spi.c **** uint8_t SPI_ReceiveData8(SPI_TypeDef* SPIx)
 864:../Libraries/STM32F30x_StdPeriph_Driver/src/stm32f30x_spi.c **** {
 1175              		.loc 1 864 0
 1176              		.cfi_startproc
 1177              		@ args = 0, pretend = 0, frame = 16
 1178              		@ frame_needed = 0, uses_anonymous_args = 0
 1179              		@ link register save eliminated.
 1180 06d8 84B0     		sub	sp, sp, #16
 1181              	.LCFI19:
 1182              		.cfi_def_cfa_offset 16
 1183 06da 0190     		str	r0, [sp, #4]
 865:../Libraries/STM32F30x_StdPeriph_Driver/src/stm32f30x_spi.c ****   uint32_t spixbase = 0x00;
 1184              		.loc 1 865 0
 1185 06dc 4FF00003 		mov	r3, #0
 1186 06e0 0393     		str	r3, [sp, #12]
 866:../Libraries/STM32F30x_StdPeriph_Driver/src/stm32f30x_spi.c ****   
 867:../Libraries/STM32F30x_StdPeriph_Driver/src/stm32f30x_spi.c ****   /* Check the parameters */
 868:../Libraries/STM32F30x_StdPeriph_Driver/src/stm32f30x_spi.c ****   assert_param(IS_SPI_ALL_PERIPH_EXT(SPIx));
 869:../Libraries/STM32F30x_StdPeriph_Driver/src/stm32f30x_spi.c ****   
 870:../Libraries/STM32F30x_StdPeriph_Driver/src/stm32f30x_spi.c ****   spixbase = (uint32_t)SPIx; 
 1187              		.loc 1 870 0
 1188 06e2 019B     		ldr	r3, [sp, #4]
 1189 06e4 0393     		str	r3, [sp, #12]
 871:../Libraries/STM32F30x_StdPeriph_Driver/src/stm32f30x_spi.c ****   spixbase += 0x0C;
 1190              		.loc 1 871 0
 1191 06e6 039B     		ldr	r3, [sp, #12]
 1192 06e8 03F10C03 		add	r3, r3, #12
 1193 06ec 0393     		str	r3, [sp, #12]
 872:../Libraries/STM32F30x_StdPeriph_Driver/src/stm32f30x_spi.c ****   
 873:../Libraries/STM32F30x_StdPeriph_Driver/src/stm32f30x_spi.c ****   return *(__IO uint8_t *) spixbase;
 1194              		.loc 1 873 0
 1195 06ee 039B     		ldr	r3, [sp, #12]
 1196 06f0 1B78     		ldrb	r3, [r3, #0]
 1197 06f2 DBB2     		uxtb	r3, r3
 874:../Libraries/STM32F30x_StdPeriph_Driver/src/stm32f30x_spi.c **** }
 1198              		.loc 1 874 0
 1199 06f4 1846     		mov	r0, r3
 1200 06f6 04B0     		add	sp, sp, #16
 1201 06f8 7047     		bx	lr
 1202              		.cfi_endproc
 1203              	.LFE128:
 1205 06fa 00BF     		.align	2
 1206              		.global	SPI_I2S_ReceiveData16
 1207              		.thumb
 1208              		.thumb_func
 1210              	SPI_I2S_ReceiveData16:
 1211              	.LFB129:
 875:../Libraries/STM32F30x_StdPeriph_Driver/src/stm32f30x_spi.c **** 
 876:../Libraries/STM32F30x_StdPeriph_Driver/src/stm32f30x_spi.c **** /**
 877:../Libraries/STM32F30x_StdPeriph_Driver/src/stm32f30x_spi.c ****   * @brief  Returns the most recent received data by the SPIx peripheral. 
 878:../Libraries/STM32F30x_StdPeriph_Driver/src/stm32f30x_spi.c ****   * @param  SPIx: To select the SPIx/I2Sx peripheral, where x can be: 1, 2 or 3 
 879:../Libraries/STM32F30x_StdPeriph_Driver/src/stm32f30x_spi.c ****   *         in SPI mode or 2 or 3 in I2S mode or I2Sxext for I2S full duplex mode.
 880:../Libraries/STM32F30x_StdPeriph_Driver/src/stm32f30x_spi.c ****   * @retval The value of the received data.
 881:../Libraries/STM32F30x_StdPeriph_Driver/src/stm32f30x_spi.c ****   */
 882:../Libraries/STM32F30x_StdPeriph_Driver/src/stm32f30x_spi.c **** uint16_t SPI_I2S_ReceiveData16(SPI_TypeDef* SPIx)
 883:../Libraries/STM32F30x_StdPeriph_Driver/src/stm32f30x_spi.c **** {  
 1212              		.loc 1 883 0
 1213              		.cfi_startproc
 1214              		@ args = 0, pretend = 0, frame = 8
 1215              		@ frame_needed = 0, uses_anonymous_args = 0
 1216              		@ link register save eliminated.
 1217 06fc 82B0     		sub	sp, sp, #8
 1218              	.LCFI20:
 1219              		.cfi_def_cfa_offset 8
 1220 06fe 0190     		str	r0, [sp, #4]
 884:../Libraries/STM32F30x_StdPeriph_Driver/src/stm32f30x_spi.c ****   /* Check the parameters */
 885:../Libraries/STM32F30x_StdPeriph_Driver/src/stm32f30x_spi.c ****   assert_param(IS_SPI_ALL_PERIPH_EXT(SPIx));
 886:../Libraries/STM32F30x_StdPeriph_Driver/src/stm32f30x_spi.c ****   
 887:../Libraries/STM32F30x_StdPeriph_Driver/src/stm32f30x_spi.c ****   return SPIx->DR;
 1221              		.loc 1 887 0
 1222 0700 019B     		ldr	r3, [sp, #4]
 1223 0702 9B89     		ldrh	r3, [r3, #12]	@ movhi
 1224 0704 9BB2     		uxth	r3, r3
 888:../Libraries/STM32F30x_StdPeriph_Driver/src/stm32f30x_spi.c **** }
 1225              		.loc 1 888 0
 1226 0706 1846     		mov	r0, r3
 1227 0708 02B0     		add	sp, sp, #8
 1228 070a 7047     		bx	lr
 1229              		.cfi_endproc
 1230              	.LFE129:
 1232              		.align	2
 1233              		.global	SPI_CRCLengthConfig
 1234              		.thumb
 1235              		.thumb_func
 1237              	SPI_CRCLengthConfig:
 1238              	.LFB130:
 889:../Libraries/STM32F30x_StdPeriph_Driver/src/stm32f30x_spi.c **** /**
 890:../Libraries/STM32F30x_StdPeriph_Driver/src/stm32f30x_spi.c ****   * @}
 891:../Libraries/STM32F30x_StdPeriph_Driver/src/stm32f30x_spi.c ****   */
 892:../Libraries/STM32F30x_StdPeriph_Driver/src/stm32f30x_spi.c **** 
 893:../Libraries/STM32F30x_StdPeriph_Driver/src/stm32f30x_spi.c **** /** @defgroup SPI_Group3 Hardware CRC Calculation functions
 894:../Libraries/STM32F30x_StdPeriph_Driver/src/stm32f30x_spi.c ****  *  @brief   Hardware CRC Calculation functions
 895:../Libraries/STM32F30x_StdPeriph_Driver/src/stm32f30x_spi.c ****  *
 896:../Libraries/STM32F30x_StdPeriph_Driver/src/stm32f30x_spi.c **** @verbatim   
 897:../Libraries/STM32F30x_StdPeriph_Driver/src/stm32f30x_spi.c ****  ===============================================================================
 898:../Libraries/STM32F30x_StdPeriph_Driver/src/stm32f30x_spi.c ****                   ##### Hardware CRC Calculation functions #####
 899:../Libraries/STM32F30x_StdPeriph_Driver/src/stm32f30x_spi.c ****  ===============================================================================  
 900:../Libraries/STM32F30x_StdPeriph_Driver/src/stm32f30x_spi.c ****     [..] This section provides a set of functions allowing to manage the SPI CRC hardware 
 901:../Libraries/STM32F30x_StdPeriph_Driver/src/stm32f30x_spi.c ****          calculation.
 902:../Libraries/STM32F30x_StdPeriph_Driver/src/stm32f30x_spi.c ****     [..] SPI communication using CRC is possible through the following procedure:
 903:../Libraries/STM32F30x_StdPeriph_Driver/src/stm32f30x_spi.c ****          (#) Program the Data direction, Polarity, Phase, First Data, Baud Rate Prescaler, 
 904:../Libraries/STM32F30x_StdPeriph_Driver/src/stm32f30x_spi.c ****              Slave Management, Peripheral Mode and CRC Polynomial values using the SPI_Init()
 905:../Libraries/STM32F30x_StdPeriph_Driver/src/stm32f30x_spi.c ****              function.
 906:../Libraries/STM32F30x_StdPeriph_Driver/src/stm32f30x_spi.c ****          (#) Enable the CRC calculation using the SPI_CalculateCRC() function.
 907:../Libraries/STM32F30x_StdPeriph_Driver/src/stm32f30x_spi.c ****          (#) Enable the SPI using the SPI_Cmd() function
 908:../Libraries/STM32F30x_StdPeriph_Driver/src/stm32f30x_spi.c ****          (#) Before writing the last data to the TX buffer, set the CRCNext bit using the 
 909:../Libraries/STM32F30x_StdPeriph_Driver/src/stm32f30x_spi.c ****              SPI_TransmitCRC() function to indicate that after transmission of the last 
 910:../Libraries/STM32F30x_StdPeriph_Driver/src/stm32f30x_spi.c ****              data, the CRC should be transmitted.
 911:../Libraries/STM32F30x_StdPeriph_Driver/src/stm32f30x_spi.c ****          (#) After transmitting the last data, the SPI transmits the CRC. The SPI_CR1_CRCNEXT
 912:../Libraries/STM32F30x_StdPeriph_Driver/src/stm32f30x_spi.c ****              bit is reset. The CRC is also received and compared against the SPI_RXCRCR 
 913:../Libraries/STM32F30x_StdPeriph_Driver/src/stm32f30x_spi.c ****              value. 
 914:../Libraries/STM32F30x_StdPeriph_Driver/src/stm32f30x_spi.c ****              If the value does not match, the SPI_FLAG_CRCERR flag is set and an interrupt
 915:../Libraries/STM32F30x_StdPeriph_Driver/src/stm32f30x_spi.c ****              can be generated when the SPI_I2S_IT_ERR interrupt is enabled.
 916:../Libraries/STM32F30x_StdPeriph_Driver/src/stm32f30x_spi.c ****     [..]
 917:../Libraries/STM32F30x_StdPeriph_Driver/src/stm32f30x_spi.c ****     (@)
 918:../Libraries/STM32F30x_StdPeriph_Driver/src/stm32f30x_spi.c ****          (+@) It is advised to don't read the calculate CRC values during the communication.
 919:../Libraries/STM32F30x_StdPeriph_Driver/src/stm32f30x_spi.c ****          (+@) When the SPI is in slave mode, be careful to enable CRC calculation only 
 920:../Libraries/STM32F30x_StdPeriph_Driver/src/stm32f30x_spi.c ****               when the clock is stable, that is, when the clock is in the steady state. 
 921:../Libraries/STM32F30x_StdPeriph_Driver/src/stm32f30x_spi.c ****               If not, a wrong CRC calculation may be done. In fact, the CRC is sensitive 
 922:../Libraries/STM32F30x_StdPeriph_Driver/src/stm32f30x_spi.c ****               to the SCK slave input clock as soon as CRCEN is set, and this, whatever 
 923:../Libraries/STM32F30x_StdPeriph_Driver/src/stm32f30x_spi.c ****               the value of the SPE bit.
 924:../Libraries/STM32F30x_StdPeriph_Driver/src/stm32f30x_spi.c ****          (+@) With high bitrate frequencies, be careful when transmitting the CRC.
 925:../Libraries/STM32F30x_StdPeriph_Driver/src/stm32f30x_spi.c ****               As the number of used CPU cycles has to be as low as possible in the CRC 
 926:../Libraries/STM32F30x_StdPeriph_Driver/src/stm32f30x_spi.c ****               transfer phase, it is forbidden to call software functions in the CRC 
 927:../Libraries/STM32F30x_StdPeriph_Driver/src/stm32f30x_spi.c ****               transmission sequence to avoid errors in the last data and CRC reception. 
 928:../Libraries/STM32F30x_StdPeriph_Driver/src/stm32f30x_spi.c ****               In fact, CRCNEXT bit has to be written before the end of the transmission/reception 
 929:../Libraries/STM32F30x_StdPeriph_Driver/src/stm32f30x_spi.c ****               of the last data.
 930:../Libraries/STM32F30x_StdPeriph_Driver/src/stm32f30x_spi.c ****          (+@) For high bit rate frequencies, it is advised to use the DMA mode to avoid the
 931:../Libraries/STM32F30x_StdPeriph_Driver/src/stm32f30x_spi.c ****               degradation of the SPI speed performance due to CPU accesses impacting the 
 932:../Libraries/STM32F30x_StdPeriph_Driver/src/stm32f30x_spi.c ****               SPI bandwidth.
 933:../Libraries/STM32F30x_StdPeriph_Driver/src/stm32f30x_spi.c ****          (+@) When the STM32F30x are configured as slaves and the NSS hardware mode is 
 934:../Libraries/STM32F30x_StdPeriph_Driver/src/stm32f30x_spi.c ****               used, the NSS pin needs to be kept low between the data phase and the CRC 
 935:../Libraries/STM32F30x_StdPeriph_Driver/src/stm32f30x_spi.c ****               phase.
 936:../Libraries/STM32F30x_StdPeriph_Driver/src/stm32f30x_spi.c ****          (+@) When the SPI is configured in slave mode with the CRC feature enabled, CRC
 937:../Libraries/STM32F30x_StdPeriph_Driver/src/stm32f30x_spi.c ****               calculation takes place even if a high level is applied on the NSS pin. 
 938:../Libraries/STM32F30x_StdPeriph_Driver/src/stm32f30x_spi.c ****               This may happen for example in case of a multislave environment where the 
 939:../Libraries/STM32F30x_StdPeriph_Driver/src/stm32f30x_spi.c ****               communication master addresses slaves alternately.
 940:../Libraries/STM32F30x_StdPeriph_Driver/src/stm32f30x_spi.c ****          (+@) Between a slave deselection (high level on NSS) and a new slave selection 
 941:../Libraries/STM32F30x_StdPeriph_Driver/src/stm32f30x_spi.c ****               (low level on NSS), the CRC value should be cleared on both master and slave
 942:../Libraries/STM32F30x_StdPeriph_Driver/src/stm32f30x_spi.c ****               sides in order to resynchronize the master and slave for their respective 
 943:../Libraries/STM32F30x_StdPeriph_Driver/src/stm32f30x_spi.c ****               CRC calculation.
 944:../Libraries/STM32F30x_StdPeriph_Driver/src/stm32f30x_spi.c ****     [..]          
 945:../Libraries/STM32F30x_StdPeriph_Driver/src/stm32f30x_spi.c ****     (@) To clear the CRC, follow the procedure below:
 946:../Libraries/STM32F30x_StdPeriph_Driver/src/stm32f30x_spi.c ****          (#@) Disable SPI using the SPI_Cmd() function.
 947:../Libraries/STM32F30x_StdPeriph_Driver/src/stm32f30x_spi.c ****          (#@) Disable the CRC calculation using the SPI_CalculateCRC() function.
 948:../Libraries/STM32F30x_StdPeriph_Driver/src/stm32f30x_spi.c ****          (#@) Enable the CRC calculation using the SPI_CalculateCRC() function.
 949:../Libraries/STM32F30x_StdPeriph_Driver/src/stm32f30x_spi.c ****          (#@) Enable SPI using the SPI_Cmd() function.
 950:../Libraries/STM32F30x_StdPeriph_Driver/src/stm32f30x_spi.c **** 
 951:../Libraries/STM32F30x_StdPeriph_Driver/src/stm32f30x_spi.c **** @endverbatim
 952:../Libraries/STM32F30x_StdPeriph_Driver/src/stm32f30x_spi.c ****   * @{
 953:../Libraries/STM32F30x_StdPeriph_Driver/src/stm32f30x_spi.c ****   */
 954:../Libraries/STM32F30x_StdPeriph_Driver/src/stm32f30x_spi.c **** 
 955:../Libraries/STM32F30x_StdPeriph_Driver/src/stm32f30x_spi.c **** /**
 956:../Libraries/STM32F30x_StdPeriph_Driver/src/stm32f30x_spi.c ****   * @brief  Configures the CRC calculation length for the selected SPI.
 957:../Libraries/STM32F30x_StdPeriph_Driver/src/stm32f30x_spi.c ****   * @param  SPIx: where x can be 1, 2 or 3 to select the SPI peripheral.
 958:../Libraries/STM32F30x_StdPeriph_Driver/src/stm32f30x_spi.c ****   * @param  SPI_CRCLength: specifies the SPI CRC calculation length.
 959:../Libraries/STM32F30x_StdPeriph_Driver/src/stm32f30x_spi.c ****   *   This parameter can be one of the following values:
 960:../Libraries/STM32F30x_StdPeriph_Driver/src/stm32f30x_spi.c ****   *     @arg SPI_CRCLength_8b: Set CRC Calculation to 8 bits
 961:../Libraries/STM32F30x_StdPeriph_Driver/src/stm32f30x_spi.c ****   *     @arg SPI_CRCLength_16b: Set CRC Calculation to 16 bits
 962:../Libraries/STM32F30x_StdPeriph_Driver/src/stm32f30x_spi.c ****   * @retval None
 963:../Libraries/STM32F30x_StdPeriph_Driver/src/stm32f30x_spi.c ****   */
 964:../Libraries/STM32F30x_StdPeriph_Driver/src/stm32f30x_spi.c **** void SPI_CRCLengthConfig(SPI_TypeDef* SPIx, uint16_t SPI_CRCLength)
 965:../Libraries/STM32F30x_StdPeriph_Driver/src/stm32f30x_spi.c **** {
 1239              		.loc 1 965 0
 1240              		.cfi_startproc
 1241              		@ args = 0, pretend = 0, frame = 8
 1242              		@ frame_needed = 0, uses_anonymous_args = 0
 1243              		@ link register save eliminated.
 1244 070c 82B0     		sub	sp, sp, #8
 1245              	.LCFI21:
 1246              		.cfi_def_cfa_offset 8
 1247 070e 0190     		str	r0, [sp, #4]
 1248 0710 0B46     		mov	r3, r1
 1249 0712 ADF80230 		strh	r3, [sp, #2]	@ movhi
 966:../Libraries/STM32F30x_StdPeriph_Driver/src/stm32f30x_spi.c ****   /* Check the parameters */
 967:../Libraries/STM32F30x_StdPeriph_Driver/src/stm32f30x_spi.c ****   assert_param(IS_SPI_ALL_PERIPH(SPIx));
 968:../Libraries/STM32F30x_StdPeriph_Driver/src/stm32f30x_spi.c ****   assert_param(IS_SPI_CRC_LENGTH(SPI_CRCLength));
 969:../Libraries/STM32F30x_StdPeriph_Driver/src/stm32f30x_spi.c **** 
 970:../Libraries/STM32F30x_StdPeriph_Driver/src/stm32f30x_spi.c ****   /* Clear CRCL bit */
 971:../Libraries/STM32F30x_StdPeriph_Driver/src/stm32f30x_spi.c ****   SPIx->CR1 &= (uint16_t)~((uint16_t)SPI_CR1_CRCL);
 1250              		.loc 1 971 0
 1251 0716 019B     		ldr	r3, [sp, #4]
 1252 0718 1B88     		ldrh	r3, [r3, #0]	@ movhi
 1253 071a 9BB2     		uxth	r3, r3
 1254 071c 23F40063 		bic	r3, r3, #2048
 1255 0720 9AB2     		uxth	r2, r3
 1256 0722 019B     		ldr	r3, [sp, #4]
 1257 0724 1A80     		strh	r2, [r3, #0]	@ movhi
 972:../Libraries/STM32F30x_StdPeriph_Driver/src/stm32f30x_spi.c **** 
 973:../Libraries/STM32F30x_StdPeriph_Driver/src/stm32f30x_spi.c ****   /* Set new CRCL bit value */
 974:../Libraries/STM32F30x_StdPeriph_Driver/src/stm32f30x_spi.c ****   SPIx->CR1 |= SPI_CRCLength;
 1258              		.loc 1 974 0
 1259 0726 019B     		ldr	r3, [sp, #4]
 1260 0728 1B88     		ldrh	r3, [r3, #0]	@ movhi
 1261 072a 9AB2     		uxth	r2, r3
 1262 072c BDF80230 		ldrh	r3, [sp, #2]	@ movhi
 1263 0730 1343     		orrs	r3, r3, r2
 1264 0732 9AB2     		uxth	r2, r3
 1265 0734 019B     		ldr	r3, [sp, #4]
 1266 0736 1A80     		strh	r2, [r3, #0]	@ movhi
 975:../Libraries/STM32F30x_StdPeriph_Driver/src/stm32f30x_spi.c **** }
 1267              		.loc 1 975 0
 1268 0738 02B0     		add	sp, sp, #8
 1269 073a 7047     		bx	lr
 1270              		.cfi_endproc
 1271              	.LFE130:
 1273              		.align	2
 1274              		.global	SPI_CalculateCRC
 1275              		.thumb
 1276              		.thumb_func
 1278              	SPI_CalculateCRC:
 1279              	.LFB131:
 976:../Libraries/STM32F30x_StdPeriph_Driver/src/stm32f30x_spi.c **** 
 977:../Libraries/STM32F30x_StdPeriph_Driver/src/stm32f30x_spi.c **** /**
 978:../Libraries/STM32F30x_StdPeriph_Driver/src/stm32f30x_spi.c ****   * @brief  Enables or disables the CRC value calculation of the transferred bytes.
 979:../Libraries/STM32F30x_StdPeriph_Driver/src/stm32f30x_spi.c ****   * @param  SPIx: where x can be 1, 2 or 3 to select the SPI peripheral.
 980:../Libraries/STM32F30x_StdPeriph_Driver/src/stm32f30x_spi.c ****   * @param  NewState: new state of the SPIx CRC value calculation.
 981:../Libraries/STM32F30x_StdPeriph_Driver/src/stm32f30x_spi.c ****   *   This parameter can be: ENABLE or DISABLE.
 982:../Libraries/STM32F30x_StdPeriph_Driver/src/stm32f30x_spi.c ****   * @retval None
 983:../Libraries/STM32F30x_StdPeriph_Driver/src/stm32f30x_spi.c ****   */
 984:../Libraries/STM32F30x_StdPeriph_Driver/src/stm32f30x_spi.c **** void SPI_CalculateCRC(SPI_TypeDef* SPIx, FunctionalState NewState)
 985:../Libraries/STM32F30x_StdPeriph_Driver/src/stm32f30x_spi.c **** {
 1280              		.loc 1 985 0
 1281              		.cfi_startproc
 1282              		@ args = 0, pretend = 0, frame = 8
 1283              		@ frame_needed = 0, uses_anonymous_args = 0
 1284              		@ link register save eliminated.
 1285 073c 82B0     		sub	sp, sp, #8
 1286              	.LCFI22:
 1287              		.cfi_def_cfa_offset 8
 1288 073e 0190     		str	r0, [sp, #4]
 1289 0740 0B46     		mov	r3, r1
 1290 0742 8DF80330 		strb	r3, [sp, #3]
 986:../Libraries/STM32F30x_StdPeriph_Driver/src/stm32f30x_spi.c ****   /* Check the parameters */
 987:../Libraries/STM32F30x_StdPeriph_Driver/src/stm32f30x_spi.c ****   assert_param(IS_SPI_ALL_PERIPH(SPIx));
 988:../Libraries/STM32F30x_StdPeriph_Driver/src/stm32f30x_spi.c ****   assert_param(IS_FUNCTIONAL_STATE(NewState));
 989:../Libraries/STM32F30x_StdPeriph_Driver/src/stm32f30x_spi.c **** 
 990:../Libraries/STM32F30x_StdPeriph_Driver/src/stm32f30x_spi.c ****   if (NewState != DISABLE)
 1291              		.loc 1 990 0
 1292 0746 9DF80330 		ldrb	r3, [sp, #3]	@ zero_extendqisi2
 1293 074a 002B     		cmp	r3, #0
 1294 074c 08D0     		beq	.L53
 991:../Libraries/STM32F30x_StdPeriph_Driver/src/stm32f30x_spi.c ****   {
 992:../Libraries/STM32F30x_StdPeriph_Driver/src/stm32f30x_spi.c ****     /* Enable the selected SPI CRC calculation */
 993:../Libraries/STM32F30x_StdPeriph_Driver/src/stm32f30x_spi.c ****     SPIx->CR1 |= SPI_CR1_CRCEN;
 1295              		.loc 1 993 0
 1296 074e 019B     		ldr	r3, [sp, #4]
 1297 0750 1B88     		ldrh	r3, [r3, #0]	@ movhi
 1298 0752 9BB2     		uxth	r3, r3
 1299 0754 43F40053 		orr	r3, r3, #8192
 1300 0758 9AB2     		uxth	r2, r3
 1301 075a 019B     		ldr	r3, [sp, #4]
 1302 075c 1A80     		strh	r2, [r3, #0]	@ movhi
 1303 075e 07E0     		b	.L52
 1304              	.L53:
 994:../Libraries/STM32F30x_StdPeriph_Driver/src/stm32f30x_spi.c ****   }
 995:../Libraries/STM32F30x_StdPeriph_Driver/src/stm32f30x_spi.c ****   else
 996:../Libraries/STM32F30x_StdPeriph_Driver/src/stm32f30x_spi.c ****   {
 997:../Libraries/STM32F30x_StdPeriph_Driver/src/stm32f30x_spi.c ****     /* Disable the selected SPI CRC calculation */
 998:../Libraries/STM32F30x_StdPeriph_Driver/src/stm32f30x_spi.c ****     SPIx->CR1 &= (uint16_t)~((uint16_t)SPI_CR1_CRCEN);
 1305              		.loc 1 998 0
 1306 0760 019B     		ldr	r3, [sp, #4]
 1307 0762 1B88     		ldrh	r3, [r3, #0]	@ movhi
 1308 0764 9BB2     		uxth	r3, r3
 1309 0766 23F40053 		bic	r3, r3, #8192
 1310 076a 9AB2     		uxth	r2, r3
 1311 076c 019B     		ldr	r3, [sp, #4]
 1312 076e 1A80     		strh	r2, [r3, #0]	@ movhi
 1313              	.L52:
 999:../Libraries/STM32F30x_StdPeriph_Driver/src/stm32f30x_spi.c ****   }
1000:../Libraries/STM32F30x_StdPeriph_Driver/src/stm32f30x_spi.c **** }
 1314              		.loc 1 1000 0
 1315 0770 02B0     		add	sp, sp, #8
 1316 0772 7047     		bx	lr
 1317              		.cfi_endproc
 1318              	.LFE131:
 1320              		.align	2
 1321              		.global	SPI_TransmitCRC
 1322              		.thumb
 1323              		.thumb_func
 1325              	SPI_TransmitCRC:
 1326              	.LFB132:
1001:../Libraries/STM32F30x_StdPeriph_Driver/src/stm32f30x_spi.c **** 
1002:../Libraries/STM32F30x_StdPeriph_Driver/src/stm32f30x_spi.c **** /**
1003:../Libraries/STM32F30x_StdPeriph_Driver/src/stm32f30x_spi.c ****   * @brief  Transmits the SPIx CRC value.
1004:../Libraries/STM32F30x_StdPeriph_Driver/src/stm32f30x_spi.c ****   * @param  SPIx: where x can be 1, 2 or 3 to select the SPI peripheral.
1005:../Libraries/STM32F30x_StdPeriph_Driver/src/stm32f30x_spi.c ****   * @retval None
1006:../Libraries/STM32F30x_StdPeriph_Driver/src/stm32f30x_spi.c ****   */
1007:../Libraries/STM32F30x_StdPeriph_Driver/src/stm32f30x_spi.c **** void SPI_TransmitCRC(SPI_TypeDef* SPIx)
1008:../Libraries/STM32F30x_StdPeriph_Driver/src/stm32f30x_spi.c **** {
 1327              		.loc 1 1008 0
 1328              		.cfi_startproc
 1329              		@ args = 0, pretend = 0, frame = 8
 1330              		@ frame_needed = 0, uses_anonymous_args = 0
 1331              		@ link register save eliminated.
 1332 0774 82B0     		sub	sp, sp, #8
 1333              	.LCFI23:
 1334              		.cfi_def_cfa_offset 8
 1335 0776 0190     		str	r0, [sp, #4]
1009:../Libraries/STM32F30x_StdPeriph_Driver/src/stm32f30x_spi.c ****   /* Check the parameters */
1010:../Libraries/STM32F30x_StdPeriph_Driver/src/stm32f30x_spi.c ****   assert_param(IS_SPI_ALL_PERIPH(SPIx));
1011:../Libraries/STM32F30x_StdPeriph_Driver/src/stm32f30x_spi.c **** 
1012:../Libraries/STM32F30x_StdPeriph_Driver/src/stm32f30x_spi.c ****   /* Enable the selected SPI CRC transmission */
1013:../Libraries/STM32F30x_StdPeriph_Driver/src/stm32f30x_spi.c ****   SPIx->CR1 |= SPI_CR1_CRCNEXT;
 1336              		.loc 1 1013 0
 1337 0778 019B     		ldr	r3, [sp, #4]
 1338 077a 1B88     		ldrh	r3, [r3, #0]	@ movhi
 1339 077c 9BB2     		uxth	r3, r3
 1340 077e 43F48053 		orr	r3, r3, #4096
 1341 0782 9AB2     		uxth	r2, r3
 1342 0784 019B     		ldr	r3, [sp, #4]
 1343 0786 1A80     		strh	r2, [r3, #0]	@ movhi
1014:../Libraries/STM32F30x_StdPeriph_Driver/src/stm32f30x_spi.c **** }
 1344              		.loc 1 1014 0
 1345 0788 02B0     		add	sp, sp, #8
 1346 078a 7047     		bx	lr
 1347              		.cfi_endproc
 1348              	.LFE132:
 1350              		.align	2
 1351              		.global	SPI_GetCRC
 1352              		.thumb
 1353              		.thumb_func
 1355              	SPI_GetCRC:
 1356              	.LFB133:
1015:../Libraries/STM32F30x_StdPeriph_Driver/src/stm32f30x_spi.c **** 
1016:../Libraries/STM32F30x_StdPeriph_Driver/src/stm32f30x_spi.c **** /**
1017:../Libraries/STM32F30x_StdPeriph_Driver/src/stm32f30x_spi.c ****   * @brief  Returns the transmit or the receive CRC register value for the specified SPI.
1018:../Libraries/STM32F30x_StdPeriph_Driver/src/stm32f30x_spi.c ****   * @param  SPIx: where x can be 1, 2 or 3 to select the SPI peripheral.
1019:../Libraries/STM32F30x_StdPeriph_Driver/src/stm32f30x_spi.c ****   * @param  SPI_CRC: specifies the CRC register to be read.
1020:../Libraries/STM32F30x_StdPeriph_Driver/src/stm32f30x_spi.c ****   *   This parameter can be one of the following values:
1021:../Libraries/STM32F30x_StdPeriph_Driver/src/stm32f30x_spi.c ****   *     @arg SPI_CRC_Tx: Selects Tx CRC register
1022:../Libraries/STM32F30x_StdPeriph_Driver/src/stm32f30x_spi.c ****   *     @arg SPI_CRC_Rx: Selects Rx CRC register
1023:../Libraries/STM32F30x_StdPeriph_Driver/src/stm32f30x_spi.c ****   * @retval The selected CRC register value..
1024:../Libraries/STM32F30x_StdPeriph_Driver/src/stm32f30x_spi.c ****   */
1025:../Libraries/STM32F30x_StdPeriph_Driver/src/stm32f30x_spi.c **** uint16_t SPI_GetCRC(SPI_TypeDef* SPIx, uint8_t SPI_CRC)
1026:../Libraries/STM32F30x_StdPeriph_Driver/src/stm32f30x_spi.c **** {
 1357              		.loc 1 1026 0
 1358              		.cfi_startproc
 1359              		@ args = 0, pretend = 0, frame = 16
 1360              		@ frame_needed = 0, uses_anonymous_args = 0
 1361              		@ link register save eliminated.
 1362 078c 84B0     		sub	sp, sp, #16
 1363              	.LCFI24:
 1364              		.cfi_def_cfa_offset 16
 1365 078e 0190     		str	r0, [sp, #4]
 1366 0790 0B46     		mov	r3, r1
 1367 0792 8DF80330 		strb	r3, [sp, #3]
1027:../Libraries/STM32F30x_StdPeriph_Driver/src/stm32f30x_spi.c ****   uint16_t crcreg = 0;
 1368              		.loc 1 1027 0
 1369 0796 4FF00003 		mov	r3, #0
 1370 079a ADF80E30 		strh	r3, [sp, #14]	@ movhi
1028:../Libraries/STM32F30x_StdPeriph_Driver/src/stm32f30x_spi.c ****   /* Check the parameters */
1029:../Libraries/STM32F30x_StdPeriph_Driver/src/stm32f30x_spi.c ****   assert_param(IS_SPI_ALL_PERIPH(SPIx));
1030:../Libraries/STM32F30x_StdPeriph_Driver/src/stm32f30x_spi.c ****   assert_param(IS_SPI_CRC(SPI_CRC));
1031:../Libraries/STM32F30x_StdPeriph_Driver/src/stm32f30x_spi.c **** 
1032:../Libraries/STM32F30x_StdPeriph_Driver/src/stm32f30x_spi.c ****   if (SPI_CRC != SPI_CRC_Rx)
 1371              		.loc 1 1032 0
 1372 079e 9DF80330 		ldrb	r3, [sp, #3]	@ zero_extendqisi2
 1373 07a2 012B     		cmp	r3, #1
 1374 07a4 04D0     		beq	.L57
1033:../Libraries/STM32F30x_StdPeriph_Driver/src/stm32f30x_spi.c ****   {
1034:../Libraries/STM32F30x_StdPeriph_Driver/src/stm32f30x_spi.c ****     /* Get the Tx CRC register */
1035:../Libraries/STM32F30x_StdPeriph_Driver/src/stm32f30x_spi.c ****     crcreg = SPIx->TXCRCR;
 1375              		.loc 1 1035 0
 1376 07a6 019B     		ldr	r3, [sp, #4]
 1377 07a8 1B8B     		ldrh	r3, [r3, #24]	@ movhi
 1378 07aa ADF80E30 		strh	r3, [sp, #14]	@ movhi
 1379 07ae 03E0     		b	.L58
 1380              	.L57:
1036:../Libraries/STM32F30x_StdPeriph_Driver/src/stm32f30x_spi.c ****   }
1037:../Libraries/STM32F30x_StdPeriph_Driver/src/stm32f30x_spi.c ****   else
1038:../Libraries/STM32F30x_StdPeriph_Driver/src/stm32f30x_spi.c ****   {
1039:../Libraries/STM32F30x_StdPeriph_Driver/src/stm32f30x_spi.c ****     /* Get the Rx CRC register */
1040:../Libraries/STM32F30x_StdPeriph_Driver/src/stm32f30x_spi.c ****     crcreg = SPIx->RXCRCR;
 1381              		.loc 1 1040 0
 1382 07b0 019B     		ldr	r3, [sp, #4]
 1383 07b2 9B8A     		ldrh	r3, [r3, #20]	@ movhi
 1384 07b4 ADF80E30 		strh	r3, [sp, #14]	@ movhi
 1385              	.L58:
1041:../Libraries/STM32F30x_StdPeriph_Driver/src/stm32f30x_spi.c ****   }
1042:../Libraries/STM32F30x_StdPeriph_Driver/src/stm32f30x_spi.c ****   /* Return the selected CRC register */
1043:../Libraries/STM32F30x_StdPeriph_Driver/src/stm32f30x_spi.c ****   return crcreg;
 1386              		.loc 1 1043 0
 1387 07b8 BDF80E30 		ldrh	r3, [sp, #14]
1044:../Libraries/STM32F30x_StdPeriph_Driver/src/stm32f30x_spi.c **** }
 1388              		.loc 1 1044 0
 1389 07bc 1846     		mov	r0, r3
 1390 07be 04B0     		add	sp, sp, #16
 1391 07c0 7047     		bx	lr
 1392              		.cfi_endproc
 1393              	.LFE133:
 1395 07c2 00BF     		.align	2
 1396              		.global	SPI_GetCRCPolynomial
 1397              		.thumb
 1398              		.thumb_func
 1400              	SPI_GetCRCPolynomial:
 1401              	.LFB134:
1045:../Libraries/STM32F30x_StdPeriph_Driver/src/stm32f30x_spi.c **** 
1046:../Libraries/STM32F30x_StdPeriph_Driver/src/stm32f30x_spi.c **** /**
1047:../Libraries/STM32F30x_StdPeriph_Driver/src/stm32f30x_spi.c ****   * @brief  Returns the CRC Polynomial register value for the specified SPI.
1048:../Libraries/STM32F30x_StdPeriph_Driver/src/stm32f30x_spi.c ****   * @param  SPIx: where x can be 1, 2 or 3 to select the SPI peripheral.
1049:../Libraries/STM32F30x_StdPeriph_Driver/src/stm32f30x_spi.c ****   * @retval The CRC Polynomial register value.
1050:../Libraries/STM32F30x_StdPeriph_Driver/src/stm32f30x_spi.c ****   */
1051:../Libraries/STM32F30x_StdPeriph_Driver/src/stm32f30x_spi.c **** uint16_t SPI_GetCRCPolynomial(SPI_TypeDef* SPIx)
1052:../Libraries/STM32F30x_StdPeriph_Driver/src/stm32f30x_spi.c **** {
 1402              		.loc 1 1052 0
 1403              		.cfi_startproc
 1404              		@ args = 0, pretend = 0, frame = 8
 1405              		@ frame_needed = 0, uses_anonymous_args = 0
 1406              		@ link register save eliminated.
 1407 07c4 82B0     		sub	sp, sp, #8
 1408              	.LCFI25:
 1409              		.cfi_def_cfa_offset 8
 1410 07c6 0190     		str	r0, [sp, #4]
1053:../Libraries/STM32F30x_StdPeriph_Driver/src/stm32f30x_spi.c ****   /* Check the parameters */
1054:../Libraries/STM32F30x_StdPeriph_Driver/src/stm32f30x_spi.c ****   assert_param(IS_SPI_ALL_PERIPH(SPIx));
1055:../Libraries/STM32F30x_StdPeriph_Driver/src/stm32f30x_spi.c **** 
1056:../Libraries/STM32F30x_StdPeriph_Driver/src/stm32f30x_spi.c ****   /* Return the CRC polynomial register */
1057:../Libraries/STM32F30x_StdPeriph_Driver/src/stm32f30x_spi.c ****   return SPIx->CRCPR;
 1411              		.loc 1 1057 0
 1412 07c8 019B     		ldr	r3, [sp, #4]
 1413 07ca 1B8A     		ldrh	r3, [r3, #16]	@ movhi
 1414 07cc 9BB2     		uxth	r3, r3
1058:../Libraries/STM32F30x_StdPeriph_Driver/src/stm32f30x_spi.c **** }
 1415              		.loc 1 1058 0
 1416 07ce 1846     		mov	r0, r3
 1417 07d0 02B0     		add	sp, sp, #8
 1418 07d2 7047     		bx	lr
 1419              		.cfi_endproc
 1420              	.LFE134:
 1422              		.align	2
 1423              		.global	SPI_I2S_DMACmd
 1424              		.thumb
 1425              		.thumb_func
 1427              	SPI_I2S_DMACmd:
 1428              	.LFB135:
1059:../Libraries/STM32F30x_StdPeriph_Driver/src/stm32f30x_spi.c **** 
1060:../Libraries/STM32F30x_StdPeriph_Driver/src/stm32f30x_spi.c **** /**
1061:../Libraries/STM32F30x_StdPeriph_Driver/src/stm32f30x_spi.c ****   * @}
1062:../Libraries/STM32F30x_StdPeriph_Driver/src/stm32f30x_spi.c ****   */
1063:../Libraries/STM32F30x_StdPeriph_Driver/src/stm32f30x_spi.c **** 
1064:../Libraries/STM32F30x_StdPeriph_Driver/src/stm32f30x_spi.c **** /** @defgroup SPI_Group4 DMA transfers management functions
1065:../Libraries/STM32F30x_StdPeriph_Driver/src/stm32f30x_spi.c ****  *  @brief   DMA transfers management functions
1066:../Libraries/STM32F30x_StdPeriph_Driver/src/stm32f30x_spi.c ****   *
1067:../Libraries/STM32F30x_StdPeriph_Driver/src/stm32f30x_spi.c **** @verbatim   
1068:../Libraries/STM32F30x_StdPeriph_Driver/src/stm32f30x_spi.c ****  ===============================================================================
1069:../Libraries/STM32F30x_StdPeriph_Driver/src/stm32f30x_spi.c ****                   ##### DMA transfers management functions #####
1070:../Libraries/STM32F30x_StdPeriph_Driver/src/stm32f30x_spi.c ****  ===============================================================================
1071:../Libraries/STM32F30x_StdPeriph_Driver/src/stm32f30x_spi.c **** 
1072:../Libraries/STM32F30x_StdPeriph_Driver/src/stm32f30x_spi.c **** @endverbatim
1073:../Libraries/STM32F30x_StdPeriph_Driver/src/stm32f30x_spi.c ****   * @{
1074:../Libraries/STM32F30x_StdPeriph_Driver/src/stm32f30x_spi.c ****   */
1075:../Libraries/STM32F30x_StdPeriph_Driver/src/stm32f30x_spi.c **** 
1076:../Libraries/STM32F30x_StdPeriph_Driver/src/stm32f30x_spi.c **** /**
1077:../Libraries/STM32F30x_StdPeriph_Driver/src/stm32f30x_spi.c ****   * @brief  Enables or disables the SPIx/I2Sx DMA interface.
1078:../Libraries/STM32F30x_StdPeriph_Driver/src/stm32f30x_spi.c ****   * @param  SPIx:To select the SPIx/I2Sx peripheral, where x can be: 1, 2 or 3 
1079:../Libraries/STM32F30x_StdPeriph_Driver/src/stm32f30x_spi.c ****   *         in SPI mode or 2 or 3 in I2S mode or I2Sxext for I2S full duplex mode. 
1080:../Libraries/STM32F30x_StdPeriph_Driver/src/stm32f30x_spi.c ****   * @param  SPI_I2S_DMAReq: specifies the SPI DMA transfer request to be enabled or disabled. 
1081:../Libraries/STM32F30x_StdPeriph_Driver/src/stm32f30x_spi.c ****   *   This parameter can be any combination of the following values:
1082:../Libraries/STM32F30x_StdPeriph_Driver/src/stm32f30x_spi.c ****   *     @arg SPI_I2S_DMAReq_Tx: Tx buffer DMA transfer request
1083:../Libraries/STM32F30x_StdPeriph_Driver/src/stm32f30x_spi.c ****   *     @arg SPI_I2S_DMAReq_Rx: Rx buffer DMA transfer request
1084:../Libraries/STM32F30x_StdPeriph_Driver/src/stm32f30x_spi.c ****   * @param  NewState: new state of the selected SPI DMA transfer request.
1085:../Libraries/STM32F30x_StdPeriph_Driver/src/stm32f30x_spi.c ****   *         This parameter can be: ENABLE or DISABLE.
1086:../Libraries/STM32F30x_StdPeriph_Driver/src/stm32f30x_spi.c ****   * @retval None
1087:../Libraries/STM32F30x_StdPeriph_Driver/src/stm32f30x_spi.c ****   */
1088:../Libraries/STM32F30x_StdPeriph_Driver/src/stm32f30x_spi.c **** void SPI_I2S_DMACmd(SPI_TypeDef* SPIx, uint16_t SPI_I2S_DMAReq, FunctionalState NewState)
1089:../Libraries/STM32F30x_StdPeriph_Driver/src/stm32f30x_spi.c **** {
 1429              		.loc 1 1089 0
 1430              		.cfi_startproc
 1431              		@ args = 0, pretend = 0, frame = 8
 1432              		@ frame_needed = 0, uses_anonymous_args = 0
 1433              		@ link register save eliminated.
 1434 07d4 82B0     		sub	sp, sp, #8
 1435              	.LCFI26:
 1436              		.cfi_def_cfa_offset 8
 1437 07d6 0190     		str	r0, [sp, #4]
 1438 07d8 1346     		mov	r3, r2
 1439 07da 0A46     		mov	r2, r1	@ movhi
 1440 07dc ADF80220 		strh	r2, [sp, #2]	@ movhi
 1441 07e0 8DF80130 		strb	r3, [sp, #1]
1090:../Libraries/STM32F30x_StdPeriph_Driver/src/stm32f30x_spi.c ****   /* Check the parameters */
1091:../Libraries/STM32F30x_StdPeriph_Driver/src/stm32f30x_spi.c ****   assert_param(IS_SPI_ALL_PERIPH_EXT(SPIx));
1092:../Libraries/STM32F30x_StdPeriph_Driver/src/stm32f30x_spi.c ****   assert_param(IS_FUNCTIONAL_STATE(NewState));
1093:../Libraries/STM32F30x_StdPeriph_Driver/src/stm32f30x_spi.c ****   assert_param(IS_SPI_I2S_DMA_REQ(SPI_I2S_DMAReq));
1094:../Libraries/STM32F30x_StdPeriph_Driver/src/stm32f30x_spi.c **** 
1095:../Libraries/STM32F30x_StdPeriph_Driver/src/stm32f30x_spi.c ****   if (NewState != DISABLE)
 1442              		.loc 1 1095 0
 1443 07e4 9DF80130 		ldrb	r3, [sp, #1]	@ zero_extendqisi2
 1444 07e8 002B     		cmp	r3, #0
 1445 07ea 09D0     		beq	.L61
1096:../Libraries/STM32F30x_StdPeriph_Driver/src/stm32f30x_spi.c ****   {
1097:../Libraries/STM32F30x_StdPeriph_Driver/src/stm32f30x_spi.c ****     /* Enable the selected SPI DMA requests */
1098:../Libraries/STM32F30x_StdPeriph_Driver/src/stm32f30x_spi.c ****     SPIx->CR2 |= SPI_I2S_DMAReq;
 1446              		.loc 1 1098 0
 1447 07ec 019B     		ldr	r3, [sp, #4]
 1448 07ee 9B88     		ldrh	r3, [r3, #4]	@ movhi
 1449 07f0 9AB2     		uxth	r2, r3
 1450 07f2 BDF80230 		ldrh	r3, [sp, #2]	@ movhi
 1451 07f6 1343     		orrs	r3, r3, r2
 1452 07f8 9AB2     		uxth	r2, r3
 1453 07fa 019B     		ldr	r3, [sp, #4]
 1454 07fc 9A80     		strh	r2, [r3, #4]	@ movhi
 1455 07fe 0BE0     		b	.L60
 1456              	.L61:
1099:../Libraries/STM32F30x_StdPeriph_Driver/src/stm32f30x_spi.c ****   }
1100:../Libraries/STM32F30x_StdPeriph_Driver/src/stm32f30x_spi.c ****   else
1101:../Libraries/STM32F30x_StdPeriph_Driver/src/stm32f30x_spi.c ****   {
1102:../Libraries/STM32F30x_StdPeriph_Driver/src/stm32f30x_spi.c ****     /* Disable the selected SPI DMA requests */
1103:../Libraries/STM32F30x_StdPeriph_Driver/src/stm32f30x_spi.c ****     SPIx->CR2 &= (uint16_t)~SPI_I2S_DMAReq;
 1457              		.loc 1 1103 0
 1458 0800 019B     		ldr	r3, [sp, #4]
 1459 0802 9B88     		ldrh	r3, [r3, #4]	@ movhi
 1460 0804 9AB2     		uxth	r2, r3
 1461 0806 BDF80230 		ldrh	r3, [sp, #2]	@ movhi
 1462 080a 6FEA0303 		mvn	r3, r3
 1463 080e 9BB2     		uxth	r3, r3
 1464 0810 1340     		ands	r3, r3, r2
 1465 0812 9AB2     		uxth	r2, r3
 1466 0814 019B     		ldr	r3, [sp, #4]
 1467 0816 9A80     		strh	r2, [r3, #4]	@ movhi
 1468              	.L60:
1104:../Libraries/STM32F30x_StdPeriph_Driver/src/stm32f30x_spi.c ****   }
1105:../Libraries/STM32F30x_StdPeriph_Driver/src/stm32f30x_spi.c **** }
 1469              		.loc 1 1105 0
 1470 0818 02B0     		add	sp, sp, #8
 1471 081a 7047     		bx	lr
 1472              		.cfi_endproc
 1473              	.LFE135:
 1475              		.align	2
 1476              		.global	SPI_LastDMATransferCmd
 1477              		.thumb
 1478              		.thumb_func
 1480              	SPI_LastDMATransferCmd:
 1481              	.LFB136:
1106:../Libraries/STM32F30x_StdPeriph_Driver/src/stm32f30x_spi.c **** 
1107:../Libraries/STM32F30x_StdPeriph_Driver/src/stm32f30x_spi.c **** /**
1108:../Libraries/STM32F30x_StdPeriph_Driver/src/stm32f30x_spi.c ****   * @brief  Configures the number of data to transfer type(Even/Odd) for the DMA
1109:../Libraries/STM32F30x_StdPeriph_Driver/src/stm32f30x_spi.c ****   *         last transfers and for the selected SPI.
1110:../Libraries/STM32F30x_StdPeriph_Driver/src/stm32f30x_spi.c ****   * @note   This function have a meaning only if DMA mode is selected and if 
1111:../Libraries/STM32F30x_StdPeriph_Driver/src/stm32f30x_spi.c ****   *         the packing mode is used (data length <= 8 and DMA transfer size halfword)  
1112:../Libraries/STM32F30x_StdPeriph_Driver/src/stm32f30x_spi.c ****   * @param  SPIx: where x can be 1, 2 or 3 to select the SPI peripheral.
1113:../Libraries/STM32F30x_StdPeriph_Driver/src/stm32f30x_spi.c ****   * @param  SPI_LastDMATransfer: specifies the SPI last DMA transfers state.
1114:../Libraries/STM32F30x_StdPeriph_Driver/src/stm32f30x_spi.c ****   *   This parameter can be one of the following values:
1115:../Libraries/STM32F30x_StdPeriph_Driver/src/stm32f30x_spi.c ****   *     @arg SPI_LastDMATransfer_TxEvenRxEven: Number of data for transmission Even
1116:../Libraries/STM32F30x_StdPeriph_Driver/src/stm32f30x_spi.c ****   *          and number of data for reception Even.
1117:../Libraries/STM32F30x_StdPeriph_Driver/src/stm32f30x_spi.c ****   *     @arg SPI_LastDMATransfer_TxOddRxEven: Number of data for transmission Odd
1118:../Libraries/STM32F30x_StdPeriph_Driver/src/stm32f30x_spi.c ****   *          and number of data for reception Even.
1119:../Libraries/STM32F30x_StdPeriph_Driver/src/stm32f30x_spi.c ****   *     @arg SPI_LastDMATransfer_TxEvenRxOdd: Number of data for transmission Even
1120:../Libraries/STM32F30x_StdPeriph_Driver/src/stm32f30x_spi.c ****   *          and number of data for reception Odd.
1121:../Libraries/STM32F30x_StdPeriph_Driver/src/stm32f30x_spi.c ****   *     @arg SPI_LastDMATransfer_TxOddRxOdd: RNumber of data for transmission Odd
1122:../Libraries/STM32F30x_StdPeriph_Driver/src/stm32f30x_spi.c ****   *          and number of data for reception Odd.
1123:../Libraries/STM32F30x_StdPeriph_Driver/src/stm32f30x_spi.c ****   * @retval None
1124:../Libraries/STM32F30x_StdPeriph_Driver/src/stm32f30x_spi.c ****   */
1125:../Libraries/STM32F30x_StdPeriph_Driver/src/stm32f30x_spi.c **** void SPI_LastDMATransferCmd(SPI_TypeDef* SPIx, uint16_t SPI_LastDMATransfer)
1126:../Libraries/STM32F30x_StdPeriph_Driver/src/stm32f30x_spi.c **** {
 1482              		.loc 1 1126 0
 1483              		.cfi_startproc
 1484              		@ args = 0, pretend = 0, frame = 8
 1485              		@ frame_needed = 0, uses_anonymous_args = 0
 1486              		@ link register save eliminated.
 1487 081c 82B0     		sub	sp, sp, #8
 1488              	.LCFI27:
 1489              		.cfi_def_cfa_offset 8
 1490 081e 0190     		str	r0, [sp, #4]
 1491 0820 0B46     		mov	r3, r1
 1492 0822 ADF80230 		strh	r3, [sp, #2]	@ movhi
1127:../Libraries/STM32F30x_StdPeriph_Driver/src/stm32f30x_spi.c ****   /* Check the parameters */
1128:../Libraries/STM32F30x_StdPeriph_Driver/src/stm32f30x_spi.c ****   assert_param(IS_SPI_ALL_PERIPH(SPIx));
1129:../Libraries/STM32F30x_StdPeriph_Driver/src/stm32f30x_spi.c ****   assert_param(IS_SPI_LAST_DMA_TRANSFER(SPI_LastDMATransfer));
1130:../Libraries/STM32F30x_StdPeriph_Driver/src/stm32f30x_spi.c **** 
1131:../Libraries/STM32F30x_StdPeriph_Driver/src/stm32f30x_spi.c ****   /* Clear LDMA_TX and LDMA_RX bits */
1132:../Libraries/STM32F30x_StdPeriph_Driver/src/stm32f30x_spi.c ****   SPIx->CR2 &= CR2_LDMA_MASK;
 1493              		.loc 1 1132 0
 1494 0826 019B     		ldr	r3, [sp, #4]
 1495 0828 9B88     		ldrh	r3, [r3, #4]	@ movhi
 1496 082a 9BB2     		uxth	r3, r3
 1497 082c 23F4C043 		bic	r3, r3, #24576
 1498 0830 9AB2     		uxth	r2, r3
 1499 0832 019B     		ldr	r3, [sp, #4]
 1500 0834 9A80     		strh	r2, [r3, #4]	@ movhi
1133:../Libraries/STM32F30x_StdPeriph_Driver/src/stm32f30x_spi.c **** 
1134:../Libraries/STM32F30x_StdPeriph_Driver/src/stm32f30x_spi.c ****   /* Set new LDMA_TX and LDMA_RX bits value */
1135:../Libraries/STM32F30x_StdPeriph_Driver/src/stm32f30x_spi.c ****   SPIx->CR2 |= SPI_LastDMATransfer; 
 1501              		.loc 1 1135 0
 1502 0836 019B     		ldr	r3, [sp, #4]
 1503 0838 9B88     		ldrh	r3, [r3, #4]	@ movhi
 1504 083a 9AB2     		uxth	r2, r3
 1505 083c BDF80230 		ldrh	r3, [sp, #2]	@ movhi
 1506 0840 1343     		orrs	r3, r3, r2
 1507 0842 9AB2     		uxth	r2, r3
 1508 0844 019B     		ldr	r3, [sp, #4]
 1509 0846 9A80     		strh	r2, [r3, #4]	@ movhi
1136:../Libraries/STM32F30x_StdPeriph_Driver/src/stm32f30x_spi.c **** }
 1510              		.loc 1 1136 0
 1511 0848 02B0     		add	sp, sp, #8
 1512 084a 7047     		bx	lr
 1513              		.cfi_endproc
 1514              	.LFE136:
 1516              		.align	2
 1517              		.global	SPI_I2S_ITConfig
 1518              		.thumb
 1519              		.thumb_func
 1521              	SPI_I2S_ITConfig:
 1522              	.LFB137:
1137:../Libraries/STM32F30x_StdPeriph_Driver/src/stm32f30x_spi.c **** 
1138:../Libraries/STM32F30x_StdPeriph_Driver/src/stm32f30x_spi.c **** /**
1139:../Libraries/STM32F30x_StdPeriph_Driver/src/stm32f30x_spi.c ****   * @}
1140:../Libraries/STM32F30x_StdPeriph_Driver/src/stm32f30x_spi.c ****   */
1141:../Libraries/STM32F30x_StdPeriph_Driver/src/stm32f30x_spi.c **** 
1142:../Libraries/STM32F30x_StdPeriph_Driver/src/stm32f30x_spi.c **** /** @defgroup SPI_Group5 Interrupts and flags management functions
1143:../Libraries/STM32F30x_StdPeriph_Driver/src/stm32f30x_spi.c ****  *  @brief   Interrupts and flags management functions
1144:../Libraries/STM32F30x_StdPeriph_Driver/src/stm32f30x_spi.c ****   *
1145:../Libraries/STM32F30x_StdPeriph_Driver/src/stm32f30x_spi.c **** @verbatim   
1146:../Libraries/STM32F30x_StdPeriph_Driver/src/stm32f30x_spi.c ****  ===============================================================================
1147:../Libraries/STM32F30x_StdPeriph_Driver/src/stm32f30x_spi.c ****               ##### Interrupts and flags management functions #####
1148:../Libraries/STM32F30x_StdPeriph_Driver/src/stm32f30x_spi.c ****  ===============================================================================  
1149:../Libraries/STM32F30x_StdPeriph_Driver/src/stm32f30x_spi.c ****     [..] This section provides a set of functions allowing to configure the SPI/I2S 
1150:../Libraries/STM32F30x_StdPeriph_Driver/src/stm32f30x_spi.c ****          Interrupts sources and check or clear the flags or pending bits status.
1151:../Libraries/STM32F30x_StdPeriph_Driver/src/stm32f30x_spi.c ****          The user should identify which mode will be used in his application to manage 
1152:../Libraries/STM32F30x_StdPeriph_Driver/src/stm32f30x_spi.c ****          the communication: Polling mode, Interrupt mode or DMA mode. 
1153:../Libraries/STM32F30x_StdPeriph_Driver/src/stm32f30x_spi.c ****     
1154:../Libraries/STM32F30x_StdPeriph_Driver/src/stm32f30x_spi.c ****   *** Polling Mode ***
1155:../Libraries/STM32F30x_StdPeriph_Driver/src/stm32f30x_spi.c ****   ====================
1156:../Libraries/STM32F30x_StdPeriph_Driver/src/stm32f30x_spi.c ****     [..] In Polling Mode, the SPI/I2S communication can be managed by 9 flags:
1157:../Libraries/STM32F30x_StdPeriph_Driver/src/stm32f30x_spi.c ****          (#) SPI_I2S_FLAG_TXE : to indicate the status of the transmit buffer register.
1158:../Libraries/STM32F30x_StdPeriph_Driver/src/stm32f30x_spi.c ****          (#) SPI_I2S_FLAG_RXNE : to indicate the status of the receive buffer register.
1159:../Libraries/STM32F30x_StdPeriph_Driver/src/stm32f30x_spi.c ****          (#) SPI_I2S_FLAG_BSY : to indicate the state of the communication layer of the SPI.
1160:../Libraries/STM32F30x_StdPeriph_Driver/src/stm32f30x_spi.c ****          (#) SPI_FLAG_CRCERR : to indicate if a CRC Calculation error occur.              
1161:../Libraries/STM32F30x_StdPeriph_Driver/src/stm32f30x_spi.c ****          (#) SPI_FLAG_MODF : to indicate if a Mode Fault error occur.
1162:../Libraries/STM32F30x_StdPeriph_Driver/src/stm32f30x_spi.c ****          (#) SPI_I2S_FLAG_OVR : to indicate if an Overrun error occur.
1163:../Libraries/STM32F30x_StdPeriph_Driver/src/stm32f30x_spi.c ****          (#) SPI_I2S_FLAG_FRE: to indicate a Frame Format error occurs.
1164:../Libraries/STM32F30x_StdPeriph_Driver/src/stm32f30x_spi.c ****          (#) I2S_FLAG_UDR: to indicate an Underrun error occurs.
1165:../Libraries/STM32F30x_StdPeriph_Driver/src/stm32f30x_spi.c ****          (#) I2S_FLAG_CHSIDE: to indicate Channel Side.
1166:../Libraries/STM32F30x_StdPeriph_Driver/src/stm32f30x_spi.c ****     [..]
1167:../Libraries/STM32F30x_StdPeriph_Driver/src/stm32f30x_spi.c ****          (@) Do not use the BSY flag to handle each data transmission or reception.
1168:../Libraries/STM32F30x_StdPeriph_Driver/src/stm32f30x_spi.c ****              It is better to use the TXE and RXNE flags instead.
1169:../Libraries/STM32F30x_StdPeriph_Driver/src/stm32f30x_spi.c ****     [..] In this Mode it is advised to use the following functions:
1170:../Libraries/STM32F30x_StdPeriph_Driver/src/stm32f30x_spi.c ****          (+) FlagStatus SPI_I2S_GetFlagStatus(SPI_TypeDef* SPIx, uint16_t SPI_I2S_FLAG);
1171:../Libraries/STM32F30x_StdPeriph_Driver/src/stm32f30x_spi.c ****          (+) void SPI_I2S_ClearFlag(SPI_TypeDef* SPIx, uint16_t SPI_I2S_FLAG);
1172:../Libraries/STM32F30x_StdPeriph_Driver/src/stm32f30x_spi.c **** 
1173:../Libraries/STM32F30x_StdPeriph_Driver/src/stm32f30x_spi.c ****   *** Interrupt Mode ***
1174:../Libraries/STM32F30x_StdPeriph_Driver/src/stm32f30x_spi.c ****   ======================
1175:../Libraries/STM32F30x_StdPeriph_Driver/src/stm32f30x_spi.c ****     [..] In Interrupt Mode, the SPI/I2S communication can be managed by 3 interrupt sources
1176:../Libraries/STM32F30x_StdPeriph_Driver/src/stm32f30x_spi.c ****          and 5 pending bits: 
1177:../Libraries/STM32F30x_StdPeriph_Driver/src/stm32f30x_spi.c ****     [..] Pending Bits:
1178:../Libraries/STM32F30x_StdPeriph_Driver/src/stm32f30x_spi.c ****          (#) SPI_I2S_IT_TXE : to indicate the status of the transmit buffer register.
1179:../Libraries/STM32F30x_StdPeriph_Driver/src/stm32f30x_spi.c ****          (#) SPI_I2S_IT_RXNE : to indicate the status of the receive buffer register.
1180:../Libraries/STM32F30x_StdPeriph_Driver/src/stm32f30x_spi.c ****          (#) SPI_I2S_IT_OVR : to indicate if an Overrun error occur.
1181:../Libraries/STM32F30x_StdPeriph_Driver/src/stm32f30x_spi.c ****          (#) I2S_IT_UDR : to indicate an Underrun Error occurs.
1182:../Libraries/STM32F30x_StdPeriph_Driver/src/stm32f30x_spi.c ****          (#) SPI_I2S_FLAG_FRE : to indicate a Frame Format error occurs.
1183:../Libraries/STM32F30x_StdPeriph_Driver/src/stm32f30x_spi.c ****     [..] Interrupt Source:
1184:../Libraries/STM32F30x_StdPeriph_Driver/src/stm32f30x_spi.c ****          (#) SPI_I2S_IT_TXE: specifies the interrupt source for the Tx buffer empty 
1185:../Libraries/STM32F30x_StdPeriph_Driver/src/stm32f30x_spi.c ****              interrupt.  
1186:../Libraries/STM32F30x_StdPeriph_Driver/src/stm32f30x_spi.c ****          (#) SPI_I2S_IT_RXNE : specifies the interrupt source for the Rx buffer not 
1187:../Libraries/STM32F30x_StdPeriph_Driver/src/stm32f30x_spi.c ****              empty interrupt.
1188:../Libraries/STM32F30x_StdPeriph_Driver/src/stm32f30x_spi.c ****          (#) SPI_I2S_IT_ERR : specifies the interrupt source for the errors interrupt.
1189:../Libraries/STM32F30x_StdPeriph_Driver/src/stm32f30x_spi.c ****     [..] In this Mode it is advised to use the following functions:
1190:../Libraries/STM32F30x_StdPeriph_Driver/src/stm32f30x_spi.c ****          (+) void SPI_I2S_ITConfig(SPI_TypeDef* SPIx, uint8_t SPI_I2S_IT, FunctionalState NewState)
1191:../Libraries/STM32F30x_StdPeriph_Driver/src/stm32f30x_spi.c ****          (+) ITStatus SPI_I2S_GetITStatus(SPI_TypeDef* SPIx, uint8_t SPI_I2S_IT);
1192:../Libraries/STM32F30x_StdPeriph_Driver/src/stm32f30x_spi.c **** 
1193:../Libraries/STM32F30x_StdPeriph_Driver/src/stm32f30x_spi.c ****   *** FIFO Status ***
1194:../Libraries/STM32F30x_StdPeriph_Driver/src/stm32f30x_spi.c ****   ===================
1195:../Libraries/STM32F30x_StdPeriph_Driver/src/stm32f30x_spi.c ****     [..] It is possible to monitor the FIFO status when a transfer is ongoing using the
1196:../Libraries/STM32F30x_StdPeriph_Driver/src/stm32f30x_spi.c ****          following function:
1197:../Libraries/STM32F30x_StdPeriph_Driver/src/stm32f30x_spi.c ****          (+) uint32_t SPI_GetFIFOStatus(uint8_t SPI_FIFO_Direction); 
1198:../Libraries/STM32F30x_StdPeriph_Driver/src/stm32f30x_spi.c **** 
1199:../Libraries/STM32F30x_StdPeriph_Driver/src/stm32f30x_spi.c ****   *** DMA Mode ***
1200:../Libraries/STM32F30x_StdPeriph_Driver/src/stm32f30x_spi.c ****   ================
1201:../Libraries/STM32F30x_StdPeriph_Driver/src/stm32f30x_spi.c ****     [..] In DMA Mode, the SPI communication can be managed by 2 DMA Channel requests:
1202:../Libraries/STM32F30x_StdPeriph_Driver/src/stm32f30x_spi.c ****          (#) SPI_I2S_DMAReq_Tx: specifies the Tx buffer DMA transfer request.
1203:../Libraries/STM32F30x_StdPeriph_Driver/src/stm32f30x_spi.c ****          (#) SPI_I2S_DMAReq_Rx: specifies the Rx buffer DMA transfer request.
1204:../Libraries/STM32F30x_StdPeriph_Driver/src/stm32f30x_spi.c ****     [..] In this Mode it is advised to use the following function:
1205:../Libraries/STM32F30x_StdPeriph_Driver/src/stm32f30x_spi.c ****          (+) void SPI_I2S_DMACmd(SPI_TypeDef* SPIx, uint16_t SPI_I2S_DMAReq, FunctionalState NewSta
1206:../Libraries/STM32F30x_StdPeriph_Driver/src/stm32f30x_spi.c **** 
1207:../Libraries/STM32F30x_StdPeriph_Driver/src/stm32f30x_spi.c **** @endverbatim
1208:../Libraries/STM32F30x_StdPeriph_Driver/src/stm32f30x_spi.c ****   * @{
1209:../Libraries/STM32F30x_StdPeriph_Driver/src/stm32f30x_spi.c ****   */
1210:../Libraries/STM32F30x_StdPeriph_Driver/src/stm32f30x_spi.c **** 
1211:../Libraries/STM32F30x_StdPeriph_Driver/src/stm32f30x_spi.c **** /**
1212:../Libraries/STM32F30x_StdPeriph_Driver/src/stm32f30x_spi.c ****   * @brief  Enables or disables the specified SPI/I2S interrupts.
1213:../Libraries/STM32F30x_StdPeriph_Driver/src/stm32f30x_spi.c ****   * @param  SPIx: To select the SPIx/I2Sx peripheral, where x can be: 1, 2 or 3 
1214:../Libraries/STM32F30x_StdPeriph_Driver/src/stm32f30x_spi.c ****   *         in SPI mode or 2 or 3 in I2S mode or I2Sxext for I2S full duplex mode.  
1215:../Libraries/STM32F30x_StdPeriph_Driver/src/stm32f30x_spi.c ****   * @param  SPI_I2S_IT: specifies the SPI interrupt source to be enabled or disabled. 
1216:../Libraries/STM32F30x_StdPeriph_Driver/src/stm32f30x_spi.c ****   *   This parameter can be one of the following values:
1217:../Libraries/STM32F30x_StdPeriph_Driver/src/stm32f30x_spi.c ****   *     @arg SPI_I2S_IT_TXE: Tx buffer empty interrupt mask
1218:../Libraries/STM32F30x_StdPeriph_Driver/src/stm32f30x_spi.c ****   *     @arg SPI_I2S_IT_RXNE: Rx buffer not empty interrupt mask
1219:../Libraries/STM32F30x_StdPeriph_Driver/src/stm32f30x_spi.c ****   *     @arg SPI_I2S_IT_ERR: Error interrupt mask
1220:../Libraries/STM32F30x_StdPeriph_Driver/src/stm32f30x_spi.c ****   * @param  NewState: new state of the specified SPI interrupt.
1221:../Libraries/STM32F30x_StdPeriph_Driver/src/stm32f30x_spi.c ****   *         This parameter can be: ENABLE or DISABLE.
1222:../Libraries/STM32F30x_StdPeriph_Driver/src/stm32f30x_spi.c ****   * @retval None
1223:../Libraries/STM32F30x_StdPeriph_Driver/src/stm32f30x_spi.c ****   */
1224:../Libraries/STM32F30x_StdPeriph_Driver/src/stm32f30x_spi.c **** void SPI_I2S_ITConfig(SPI_TypeDef* SPIx, uint8_t SPI_I2S_IT, FunctionalState NewState)
1225:../Libraries/STM32F30x_StdPeriph_Driver/src/stm32f30x_spi.c **** {
 1523              		.loc 1 1225 0
 1524              		.cfi_startproc
 1525              		@ args = 0, pretend = 0, frame = 16
 1526              		@ frame_needed = 0, uses_anonymous_args = 0
 1527              		@ link register save eliminated.
 1528 084c 84B0     		sub	sp, sp, #16
 1529              	.LCFI28:
 1530              		.cfi_def_cfa_offset 16
 1531 084e 0190     		str	r0, [sp, #4]
 1532 0850 1346     		mov	r3, r2
 1533 0852 0A46     		mov	r2, r1
 1534 0854 8DF80320 		strb	r2, [sp, #3]
 1535 0858 8DF80230 		strb	r3, [sp, #2]
1226:../Libraries/STM32F30x_StdPeriph_Driver/src/stm32f30x_spi.c ****   uint16_t itpos = 0, itmask = 0 ;
 1536              		.loc 1 1226 0
 1537 085c 4FF00003 		mov	r3, #0
 1538 0860 ADF80E30 		strh	r3, [sp, #14]	@ movhi
 1539 0864 4FF00003 		mov	r3, #0
 1540 0868 ADF80C30 		strh	r3, [sp, #12]	@ movhi
1227:../Libraries/STM32F30x_StdPeriph_Driver/src/stm32f30x_spi.c **** 
1228:../Libraries/STM32F30x_StdPeriph_Driver/src/stm32f30x_spi.c ****   /* Check the parameters */
1229:../Libraries/STM32F30x_StdPeriph_Driver/src/stm32f30x_spi.c ****   assert_param(IS_SPI_ALL_PERIPH_EXT(SPIx));
1230:../Libraries/STM32F30x_StdPeriph_Driver/src/stm32f30x_spi.c ****   assert_param(IS_FUNCTIONAL_STATE(NewState));
1231:../Libraries/STM32F30x_StdPeriph_Driver/src/stm32f30x_spi.c ****   assert_param(IS_SPI_I2S_CONFIG_IT(SPI_I2S_IT));
1232:../Libraries/STM32F30x_StdPeriph_Driver/src/stm32f30x_spi.c **** 
1233:../Libraries/STM32F30x_StdPeriph_Driver/src/stm32f30x_spi.c ****   /* Get the SPI IT index */
1234:../Libraries/STM32F30x_StdPeriph_Driver/src/stm32f30x_spi.c ****   itpos = SPI_I2S_IT >> 4;
 1541              		.loc 1 1234 0
 1542 086c 9DF80330 		ldrb	r3, [sp, #3]	@ zero_extendqisi2
 1543 0870 4FEA1313 		lsr	r3, r3, #4
 1544 0874 DBB2     		uxtb	r3, r3
 1545 0876 ADF80E30 		strh	r3, [sp, #14]	@ movhi
1235:../Libraries/STM32F30x_StdPeriph_Driver/src/stm32f30x_spi.c **** 
1236:../Libraries/STM32F30x_StdPeriph_Driver/src/stm32f30x_spi.c ****   /* Set the IT mask */
1237:../Libraries/STM32F30x_StdPeriph_Driver/src/stm32f30x_spi.c ****   itmask = (uint16_t)1 << (uint16_t)itpos;
 1546              		.loc 1 1237 0
 1547 087a BDF80E30 		ldrh	r3, [sp, #14]
 1548 087e 4FF00102 		mov	r2, #1
 1549 0882 02FA03F3 		lsl	r3, r2, r3
 1550 0886 ADF80C30 		strh	r3, [sp, #12]	@ movhi
1238:../Libraries/STM32F30x_StdPeriph_Driver/src/stm32f30x_spi.c **** 
1239:../Libraries/STM32F30x_StdPeriph_Driver/src/stm32f30x_spi.c ****   if (NewState != DISABLE)
 1551              		.loc 1 1239 0
 1552 088a 9DF80230 		ldrb	r3, [sp, #2]	@ zero_extendqisi2
 1553 088e 002B     		cmp	r3, #0
 1554 0890 09D0     		beq	.L65
1240:../Libraries/STM32F30x_StdPeriph_Driver/src/stm32f30x_spi.c ****   {
1241:../Libraries/STM32F30x_StdPeriph_Driver/src/stm32f30x_spi.c ****     /* Enable the selected SPI interrupt */
1242:../Libraries/STM32F30x_StdPeriph_Driver/src/stm32f30x_spi.c ****     SPIx->CR2 |= itmask;
 1555              		.loc 1 1242 0
 1556 0892 019B     		ldr	r3, [sp, #4]
 1557 0894 9B88     		ldrh	r3, [r3, #4]	@ movhi
 1558 0896 9AB2     		uxth	r2, r3
 1559 0898 BDF80C30 		ldrh	r3, [sp, #12]	@ movhi
 1560 089c 1343     		orrs	r3, r3, r2
 1561 089e 9AB2     		uxth	r2, r3
 1562 08a0 019B     		ldr	r3, [sp, #4]
 1563 08a2 9A80     		strh	r2, [r3, #4]	@ movhi
 1564 08a4 0BE0     		b	.L64
 1565              	.L65:
1243:../Libraries/STM32F30x_StdPeriph_Driver/src/stm32f30x_spi.c ****   }
1244:../Libraries/STM32F30x_StdPeriph_Driver/src/stm32f30x_spi.c ****   else
1245:../Libraries/STM32F30x_StdPeriph_Driver/src/stm32f30x_spi.c ****   {
1246:../Libraries/STM32F30x_StdPeriph_Driver/src/stm32f30x_spi.c ****     /* Disable the selected SPI interrupt */
1247:../Libraries/STM32F30x_StdPeriph_Driver/src/stm32f30x_spi.c ****     SPIx->CR2 &= (uint16_t)~itmask;
 1566              		.loc 1 1247 0
 1567 08a6 019B     		ldr	r3, [sp, #4]
 1568 08a8 9B88     		ldrh	r3, [r3, #4]	@ movhi
 1569 08aa 9AB2     		uxth	r2, r3
 1570 08ac BDF80C30 		ldrh	r3, [sp, #12]	@ movhi
 1571 08b0 6FEA0303 		mvn	r3, r3
 1572 08b4 9BB2     		uxth	r3, r3
 1573 08b6 1340     		ands	r3, r3, r2
 1574 08b8 9AB2     		uxth	r2, r3
 1575 08ba 019B     		ldr	r3, [sp, #4]
 1576 08bc 9A80     		strh	r2, [r3, #4]	@ movhi
 1577              	.L64:
1248:../Libraries/STM32F30x_StdPeriph_Driver/src/stm32f30x_spi.c ****   }
1249:../Libraries/STM32F30x_StdPeriph_Driver/src/stm32f30x_spi.c **** }
 1578              		.loc 1 1249 0
 1579 08be 04B0     		add	sp, sp, #16
 1580 08c0 7047     		bx	lr
 1581              		.cfi_endproc
 1582              	.LFE137:
 1584 08c2 00BF     		.align	2
 1585              		.global	SPI_GetTransmissionFIFOStatus
 1586              		.thumb
 1587              		.thumb_func
 1589              	SPI_GetTransmissionFIFOStatus:
 1590              	.LFB138:
1250:../Libraries/STM32F30x_StdPeriph_Driver/src/stm32f30x_spi.c **** 
1251:../Libraries/STM32F30x_StdPeriph_Driver/src/stm32f30x_spi.c **** /**
1252:../Libraries/STM32F30x_StdPeriph_Driver/src/stm32f30x_spi.c ****   * @brief  Returns the current SPIx Transmission FIFO filled level.
1253:../Libraries/STM32F30x_StdPeriph_Driver/src/stm32f30x_spi.c ****   * @param  SPIx: where x can be 1, 2 or 3 to select the SPI peripheral.
1254:../Libraries/STM32F30x_StdPeriph_Driver/src/stm32f30x_spi.c ****   * @retval The Transmission FIFO filling state.
1255:../Libraries/STM32F30x_StdPeriph_Driver/src/stm32f30x_spi.c ****   *   - SPI_TransmissionFIFOStatus_Empty: when FIFO is empty
1256:../Libraries/STM32F30x_StdPeriph_Driver/src/stm32f30x_spi.c ****   *   - SPI_TransmissionFIFOStatus_1QuarterFull: if more than 1 quarter-full.
1257:../Libraries/STM32F30x_StdPeriph_Driver/src/stm32f30x_spi.c ****   *   - SPI_TransmissionFIFOStatus_HalfFull: if more than 1 half-full.
1258:../Libraries/STM32F30x_StdPeriph_Driver/src/stm32f30x_spi.c ****   *   - SPI_TransmissionFIFOStatus_Full: when FIFO is full.
1259:../Libraries/STM32F30x_StdPeriph_Driver/src/stm32f30x_spi.c ****   */
1260:../Libraries/STM32F30x_StdPeriph_Driver/src/stm32f30x_spi.c **** uint16_t SPI_GetTransmissionFIFOStatus(SPI_TypeDef* SPIx)
1261:../Libraries/STM32F30x_StdPeriph_Driver/src/stm32f30x_spi.c **** {
 1591              		.loc 1 1261 0
 1592              		.cfi_startproc
 1593              		@ args = 0, pretend = 0, frame = 8
 1594              		@ frame_needed = 0, uses_anonymous_args = 0
 1595              		@ link register save eliminated.
 1596 08c4 82B0     		sub	sp, sp, #8
 1597              	.LCFI29:
 1598              		.cfi_def_cfa_offset 8
 1599 08c6 0190     		str	r0, [sp, #4]
1262:../Libraries/STM32F30x_StdPeriph_Driver/src/stm32f30x_spi.c ****   /* Get the SPIx Transmission FIFO level bits */
1263:../Libraries/STM32F30x_StdPeriph_Driver/src/stm32f30x_spi.c ****   return (uint16_t)((SPIx->SR & SPI_SR_FTLVL));
 1600              		.loc 1 1263 0
 1601 08c8 019B     		ldr	r3, [sp, #4]
 1602 08ca 1B89     		ldrh	r3, [r3, #8]	@ movhi
 1603 08cc 9BB2     		uxth	r3, r3
 1604 08ce 03F4C053 		and	r3, r3, #6144
 1605 08d2 9BB2     		uxth	r3, r3
1264:../Libraries/STM32F30x_StdPeriph_Driver/src/stm32f30x_spi.c **** }
 1606              		.loc 1 1264 0
 1607 08d4 1846     		mov	r0, r3
 1608 08d6 02B0     		add	sp, sp, #8
 1609 08d8 7047     		bx	lr
 1610              		.cfi_endproc
 1611              	.LFE138:
 1613 08da 00BF     		.align	2
 1614              		.global	SPI_GetReceptionFIFOStatus
 1615              		.thumb
 1616              		.thumb_func
 1618              	SPI_GetReceptionFIFOStatus:
 1619              	.LFB139:
1265:../Libraries/STM32F30x_StdPeriph_Driver/src/stm32f30x_spi.c **** 
1266:../Libraries/STM32F30x_StdPeriph_Driver/src/stm32f30x_spi.c **** /**
1267:../Libraries/STM32F30x_StdPeriph_Driver/src/stm32f30x_spi.c ****   * @brief  Returns the current SPIx Reception FIFO filled level.
1268:../Libraries/STM32F30x_StdPeriph_Driver/src/stm32f30x_spi.c ****   * @param  SPIx: where x can be 1, 2 or 3 to select the SPI peripheral.
1269:../Libraries/STM32F30x_StdPeriph_Driver/src/stm32f30x_spi.c ****   * @retval The Reception FIFO filling state.
1270:../Libraries/STM32F30x_StdPeriph_Driver/src/stm32f30x_spi.c ****   *   - SPI_ReceptionFIFOStatus_Empty: when FIFO is empty
1271:../Libraries/STM32F30x_StdPeriph_Driver/src/stm32f30x_spi.c ****   *   - SPI_ReceptionFIFOStatus_1QuarterFull: if more than 1 quarter-full.
1272:../Libraries/STM32F30x_StdPeriph_Driver/src/stm32f30x_spi.c ****   *   - SPI_ReceptionFIFOStatus_HalfFull: if more than 1 half-full.
1273:../Libraries/STM32F30x_StdPeriph_Driver/src/stm32f30x_spi.c ****   *   - SPI_ReceptionFIFOStatus_Full: when FIFO is full.
1274:../Libraries/STM32F30x_StdPeriph_Driver/src/stm32f30x_spi.c ****   */
1275:../Libraries/STM32F30x_StdPeriph_Driver/src/stm32f30x_spi.c **** uint16_t SPI_GetReceptionFIFOStatus(SPI_TypeDef* SPIx)
1276:../Libraries/STM32F30x_StdPeriph_Driver/src/stm32f30x_spi.c **** {
 1620              		.loc 1 1276 0
 1621              		.cfi_startproc
 1622              		@ args = 0, pretend = 0, frame = 8
 1623              		@ frame_needed = 0, uses_anonymous_args = 0
 1624              		@ link register save eliminated.
 1625 08dc 82B0     		sub	sp, sp, #8
 1626              	.LCFI30:
 1627              		.cfi_def_cfa_offset 8
 1628 08de 0190     		str	r0, [sp, #4]
1277:../Libraries/STM32F30x_StdPeriph_Driver/src/stm32f30x_spi.c ****   /* Get the SPIx Reception FIFO level bits */
1278:../Libraries/STM32F30x_StdPeriph_Driver/src/stm32f30x_spi.c ****   return (uint16_t)((SPIx->SR & SPI_SR_FRLVL));
 1629              		.loc 1 1278 0
 1630 08e0 019B     		ldr	r3, [sp, #4]
 1631 08e2 1B89     		ldrh	r3, [r3, #8]	@ movhi
 1632 08e4 9BB2     		uxth	r3, r3
 1633 08e6 03F4C063 		and	r3, r3, #1536
 1634 08ea 9BB2     		uxth	r3, r3
1279:../Libraries/STM32F30x_StdPeriph_Driver/src/stm32f30x_spi.c **** }
 1635              		.loc 1 1279 0
 1636 08ec 1846     		mov	r0, r3
 1637 08ee 02B0     		add	sp, sp, #8
 1638 08f0 7047     		bx	lr
 1639              		.cfi_endproc
 1640              	.LFE139:
 1642 08f2 00BF     		.align	2
 1643              		.global	SPI_I2S_GetFlagStatus
 1644              		.thumb
 1645              		.thumb_func
 1647              	SPI_I2S_GetFlagStatus:
 1648              	.LFB140:
1280:../Libraries/STM32F30x_StdPeriph_Driver/src/stm32f30x_spi.c **** 
1281:../Libraries/STM32F30x_StdPeriph_Driver/src/stm32f30x_spi.c **** /**
1282:../Libraries/STM32F30x_StdPeriph_Driver/src/stm32f30x_spi.c ****   * @brief  Checks whether the specified SPI flag is set or not.
1283:../Libraries/STM32F30x_StdPeriph_Driver/src/stm32f30x_spi.c ****   * @param  SPIx: To select the SPIx/I2Sx peripheral, where x can be: 1, 2 or 3 
1284:../Libraries/STM32F30x_StdPeriph_Driver/src/stm32f30x_spi.c ****   *         in SPI mode or 2 or 3 in I2S mode or I2Sxext for I2S full duplex mode.  
1285:../Libraries/STM32F30x_StdPeriph_Driver/src/stm32f30x_spi.c ****   * @param  SPI_I2S_FLAG: specifies the SPI flag to check. 
1286:../Libraries/STM32F30x_StdPeriph_Driver/src/stm32f30x_spi.c ****   *   This parameter can be one of the following values:
1287:../Libraries/STM32F30x_StdPeriph_Driver/src/stm32f30x_spi.c ****   *     @arg SPI_I2S_FLAG_TXE: Transmit buffer empty flag.
1288:../Libraries/STM32F30x_StdPeriph_Driver/src/stm32f30x_spi.c ****   *     @arg SPI_I2S_FLAG_RXNE: Receive buffer not empty flag.
1289:../Libraries/STM32F30x_StdPeriph_Driver/src/stm32f30x_spi.c ****   *     @arg SPI_I2S_FLAG_BSY: Busy flag.
1290:../Libraries/STM32F30x_StdPeriph_Driver/src/stm32f30x_spi.c ****   *     @arg SPI_I2S_FLAG_OVR: Overrun flag.
1291:../Libraries/STM32F30x_StdPeriph_Driver/src/stm32f30x_spi.c ****   *     @arg SPI_I2S_FLAG_MODF: Mode Fault flag.
1292:../Libraries/STM32F30x_StdPeriph_Driver/src/stm32f30x_spi.c ****   *     @arg SPI_I2S_FLAG_CRCERR: CRC Error flag.
1293:../Libraries/STM32F30x_StdPeriph_Driver/src/stm32f30x_spi.c ****   *     @arg SPI_I2S_FLAG_FRE: TI frame format error flag.
1294:../Libraries/STM32F30x_StdPeriph_Driver/src/stm32f30x_spi.c ****   *     @arg I2S_FLAG_UDR: Underrun Error flag.
1295:../Libraries/STM32F30x_StdPeriph_Driver/src/stm32f30x_spi.c ****   *     @arg I2S_FLAG_CHSIDE: Channel Side flag.   
1296:../Libraries/STM32F30x_StdPeriph_Driver/src/stm32f30x_spi.c ****   * @retval The new state of SPI_I2S_FLAG (SET or RESET).
1297:../Libraries/STM32F30x_StdPeriph_Driver/src/stm32f30x_spi.c ****   */
1298:../Libraries/STM32F30x_StdPeriph_Driver/src/stm32f30x_spi.c **** FlagStatus SPI_I2S_GetFlagStatus(SPI_TypeDef* SPIx, uint16_t SPI_I2S_FLAG)
1299:../Libraries/STM32F30x_StdPeriph_Driver/src/stm32f30x_spi.c **** {
 1649              		.loc 1 1299 0
 1650              		.cfi_startproc
 1651              		@ args = 0, pretend = 0, frame = 16
 1652              		@ frame_needed = 0, uses_anonymous_args = 0
 1653              		@ link register save eliminated.
 1654 08f4 84B0     		sub	sp, sp, #16
 1655              	.LCFI31:
 1656              		.cfi_def_cfa_offset 16
 1657 08f6 0190     		str	r0, [sp, #4]
 1658 08f8 0B46     		mov	r3, r1
 1659 08fa ADF80230 		strh	r3, [sp, #2]	@ movhi
1300:../Libraries/STM32F30x_StdPeriph_Driver/src/stm32f30x_spi.c ****   FlagStatus bitstatus = RESET;
 1660              		.loc 1 1300 0
 1661 08fe 4FF00003 		mov	r3, #0
 1662 0902 8DF80F30 		strb	r3, [sp, #15]
1301:../Libraries/STM32F30x_StdPeriph_Driver/src/stm32f30x_spi.c ****   /* Check the parameters */
1302:../Libraries/STM32F30x_StdPeriph_Driver/src/stm32f30x_spi.c ****   assert_param(IS_SPI_ALL_PERIPH_EXT(SPIx));
1303:../Libraries/STM32F30x_StdPeriph_Driver/src/stm32f30x_spi.c ****   assert_param(IS_SPI_I2S_GET_FLAG(SPI_I2S_FLAG));
1304:../Libraries/STM32F30x_StdPeriph_Driver/src/stm32f30x_spi.c **** 
1305:../Libraries/STM32F30x_StdPeriph_Driver/src/stm32f30x_spi.c ****   /* Check the status of the specified SPI flag */
1306:../Libraries/STM32F30x_StdPeriph_Driver/src/stm32f30x_spi.c ****   if ((SPIx->SR & SPI_I2S_FLAG) != (uint16_t)RESET)
 1663              		.loc 1 1306 0
 1664 0906 019B     		ldr	r3, [sp, #4]
 1665 0908 1B89     		ldrh	r3, [r3, #8]	@ movhi
 1666 090a 9AB2     		uxth	r2, r3
 1667 090c BDF80230 		ldrh	r3, [sp, #2]	@ movhi
 1668 0910 1340     		ands	r3, r3, r2
 1669 0912 9BB2     		uxth	r3, r3
 1670 0914 002B     		cmp	r3, #0
 1671 0916 04D0     		beq	.L70
1307:../Libraries/STM32F30x_StdPeriph_Driver/src/stm32f30x_spi.c ****   {
1308:../Libraries/STM32F30x_StdPeriph_Driver/src/stm32f30x_spi.c ****     /* SPI_I2S_FLAG is set */
1309:../Libraries/STM32F30x_StdPeriph_Driver/src/stm32f30x_spi.c ****     bitstatus = SET;
 1672              		.loc 1 1309 0
 1673 0918 4FF00103 		mov	r3, #1
 1674 091c 8DF80F30 		strb	r3, [sp, #15]
 1675 0920 03E0     		b	.L71
 1676              	.L70:
1310:../Libraries/STM32F30x_StdPeriph_Driver/src/stm32f30x_spi.c ****   }
1311:../Libraries/STM32F30x_StdPeriph_Driver/src/stm32f30x_spi.c ****   else
1312:../Libraries/STM32F30x_StdPeriph_Driver/src/stm32f30x_spi.c ****   {
1313:../Libraries/STM32F30x_StdPeriph_Driver/src/stm32f30x_spi.c ****     /* SPI_I2S_FLAG is reset */
1314:../Libraries/STM32F30x_StdPeriph_Driver/src/stm32f30x_spi.c ****     bitstatus = RESET;
 1677              		.loc 1 1314 0
 1678 0922 4FF00003 		mov	r3, #0
 1679 0926 8DF80F30 		strb	r3, [sp, #15]
 1680              	.L71:
1315:../Libraries/STM32F30x_StdPeriph_Driver/src/stm32f30x_spi.c ****   }
1316:../Libraries/STM32F30x_StdPeriph_Driver/src/stm32f30x_spi.c ****   /* Return the SPI_I2S_FLAG status */
1317:../Libraries/STM32F30x_StdPeriph_Driver/src/stm32f30x_spi.c ****   return  bitstatus;
 1681              		.loc 1 1317 0
 1682 092a 9DF80F30 		ldrb	r3, [sp, #15]	@ zero_extendqisi2
1318:../Libraries/STM32F30x_StdPeriph_Driver/src/stm32f30x_spi.c **** }
 1683              		.loc 1 1318 0
 1684 092e 1846     		mov	r0, r3
 1685 0930 04B0     		add	sp, sp, #16
 1686 0932 7047     		bx	lr
 1687              		.cfi_endproc
 1688              	.LFE140:
 1690              		.align	2
 1691              		.global	SPI_I2S_ClearFlag
 1692              		.thumb
 1693              		.thumb_func
 1695              	SPI_I2S_ClearFlag:
 1696              	.LFB141:
1319:../Libraries/STM32F30x_StdPeriph_Driver/src/stm32f30x_spi.c **** 
1320:../Libraries/STM32F30x_StdPeriph_Driver/src/stm32f30x_spi.c **** /**
1321:../Libraries/STM32F30x_StdPeriph_Driver/src/stm32f30x_spi.c ****   * @brief  Clears the SPIx CRC Error (CRCERR) flag.
1322:../Libraries/STM32F30x_StdPeriph_Driver/src/stm32f30x_spi.c ****   * @param  SPIx: To select the SPIx/I2Sx peripheral, where x can be: 1, 2 or 3 
1323:../Libraries/STM32F30x_StdPeriph_Driver/src/stm32f30x_spi.c ****   *         in SPI mode or 2 or 3 in I2S mode or I2Sxext for I2S full duplex mode. 
1324:../Libraries/STM32F30x_StdPeriph_Driver/src/stm32f30x_spi.c ****   * @param  SPI_I2S_FLAG: specifies the SPI flag to clear. 
1325:../Libraries/STM32F30x_StdPeriph_Driver/src/stm32f30x_spi.c ****   *   This function clears only CRCERR flag.
1326:../Libraries/STM32F30x_StdPeriph_Driver/src/stm32f30x_spi.c ****   * @note OVR (OverRun error) flag is cleared by software sequence: a read 
1327:../Libraries/STM32F30x_StdPeriph_Driver/src/stm32f30x_spi.c ****   *       operation to SPI_DR register (SPI_I2S_ReceiveData()) followed by a read 
1328:../Libraries/STM32F30x_StdPeriph_Driver/src/stm32f30x_spi.c ****   *       operation to SPI_SR register (SPI_I2S_GetFlagStatus()).
1329:../Libraries/STM32F30x_StdPeriph_Driver/src/stm32f30x_spi.c ****   * @note MODF (Mode Fault) flag is cleared by software sequence: a read/write 
1330:../Libraries/STM32F30x_StdPeriph_Driver/src/stm32f30x_spi.c ****   *       operation to SPI_SR register (SPI_I2S_GetFlagStatus()) followed by a 
1331:../Libraries/STM32F30x_StdPeriph_Driver/src/stm32f30x_spi.c ****   *       write operation to SPI_CR1 register (SPI_Cmd() to enable the SPI).
1332:../Libraries/STM32F30x_StdPeriph_Driver/src/stm32f30x_spi.c ****   * @retval None
1333:../Libraries/STM32F30x_StdPeriph_Driver/src/stm32f30x_spi.c ****   */
1334:../Libraries/STM32F30x_StdPeriph_Driver/src/stm32f30x_spi.c **** void SPI_I2S_ClearFlag(SPI_TypeDef* SPIx, uint16_t SPI_I2S_FLAG)
1335:../Libraries/STM32F30x_StdPeriph_Driver/src/stm32f30x_spi.c **** {
 1697              		.loc 1 1335 0
 1698              		.cfi_startproc
 1699              		@ args = 0, pretend = 0, frame = 8
 1700              		@ frame_needed = 0, uses_anonymous_args = 0
 1701              		@ link register save eliminated.
 1702 0934 82B0     		sub	sp, sp, #8
 1703              	.LCFI32:
 1704              		.cfi_def_cfa_offset 8
 1705 0936 0190     		str	r0, [sp, #4]
 1706 0938 0B46     		mov	r3, r1
 1707 093a ADF80230 		strh	r3, [sp, #2]	@ movhi
1336:../Libraries/STM32F30x_StdPeriph_Driver/src/stm32f30x_spi.c ****   /* Check the parameters */
1337:../Libraries/STM32F30x_StdPeriph_Driver/src/stm32f30x_spi.c ****   assert_param(IS_SPI_ALL_PERIPH_EXT(SPIx));
1338:../Libraries/STM32F30x_StdPeriph_Driver/src/stm32f30x_spi.c ****   assert_param(IS_SPI_CLEAR_FLAG(SPI_I2S_FLAG));
1339:../Libraries/STM32F30x_StdPeriph_Driver/src/stm32f30x_spi.c **** 
1340:../Libraries/STM32F30x_StdPeriph_Driver/src/stm32f30x_spi.c ****   /* Clear the selected SPI CRC Error (CRCERR) flag */
1341:../Libraries/STM32F30x_StdPeriph_Driver/src/stm32f30x_spi.c ****   SPIx->SR = (uint16_t)~SPI_I2S_FLAG;
 1708              		.loc 1 1341 0
 1709 093e BDF80230 		ldrh	r3, [sp, #2]	@ movhi
 1710 0942 6FEA0303 		mvn	r3, r3
 1711 0946 9AB2     		uxth	r2, r3
 1712 0948 019B     		ldr	r3, [sp, #4]
 1713 094a 1A81     		strh	r2, [r3, #8]	@ movhi
1342:../Libraries/STM32F30x_StdPeriph_Driver/src/stm32f30x_spi.c **** }
 1714              		.loc 1 1342 0
 1715 094c 02B0     		add	sp, sp, #8
 1716 094e 7047     		bx	lr
 1717              		.cfi_endproc
 1718              	.LFE141:
 1720              		.align	2
 1721              		.global	SPI_I2S_GetITStatus
 1722              		.thumb
 1723              		.thumb_func
 1725              	SPI_I2S_GetITStatus:
 1726              	.LFB142:
1343:../Libraries/STM32F30x_StdPeriph_Driver/src/stm32f30x_spi.c **** 
1344:../Libraries/STM32F30x_StdPeriph_Driver/src/stm32f30x_spi.c **** /**
1345:../Libraries/STM32F30x_StdPeriph_Driver/src/stm32f30x_spi.c ****   * @brief  Checks whether the specified SPI/I2S interrupt has occurred or not.
1346:../Libraries/STM32F30x_StdPeriph_Driver/src/stm32f30x_spi.c ****   * @param  SPIx: To select the SPIx/I2Sx peripheral, where x can be: 1, 2 or 3 
1347:../Libraries/STM32F30x_StdPeriph_Driver/src/stm32f30x_spi.c ****   *         in SPI mode or 2 or 3 in I2S mode or I2Sxext for I2S full duplex mode.  
1348:../Libraries/STM32F30x_StdPeriph_Driver/src/stm32f30x_spi.c ****   * @param  SPI_I2S_IT: specifies the SPI interrupt source to check. 
1349:../Libraries/STM32F30x_StdPeriph_Driver/src/stm32f30x_spi.c ****   *   This parameter can be one of the following values:
1350:../Libraries/STM32F30x_StdPeriph_Driver/src/stm32f30x_spi.c ****   *     @arg SPI_I2S_IT_TXE: Transmit buffer empty interrupt.
1351:../Libraries/STM32F30x_StdPeriph_Driver/src/stm32f30x_spi.c ****   *     @arg SPI_I2S_IT_RXNE: Receive buffer not empty interrupt.
1352:../Libraries/STM32F30x_StdPeriph_Driver/src/stm32f30x_spi.c ****   *     @arg SPI_IT_MODF: Mode Fault interrupt.
1353:../Libraries/STM32F30x_StdPeriph_Driver/src/stm32f30x_spi.c ****   *     @arg SPI_I2S_IT_OVR: Overrun interrupt.
1354:../Libraries/STM32F30x_StdPeriph_Driver/src/stm32f30x_spi.c ****   *     @arg I2S_IT_UDR: Underrun interrupt.  
1355:../Libraries/STM32F30x_StdPeriph_Driver/src/stm32f30x_spi.c ****   *     @arg SPI_I2S_IT_FRE: Format Error interrupt.  
1356:../Libraries/STM32F30x_StdPeriph_Driver/src/stm32f30x_spi.c ****   * @retval The new state of SPI_I2S_IT (SET or RESET).
1357:../Libraries/STM32F30x_StdPeriph_Driver/src/stm32f30x_spi.c ****   */
1358:../Libraries/STM32F30x_StdPeriph_Driver/src/stm32f30x_spi.c **** ITStatus SPI_I2S_GetITStatus(SPI_TypeDef* SPIx, uint8_t SPI_I2S_IT)
1359:../Libraries/STM32F30x_StdPeriph_Driver/src/stm32f30x_spi.c **** {
 1727              		.loc 1 1359 0
 1728              		.cfi_startproc
 1729              		@ args = 0, pretend = 0, frame = 16
 1730              		@ frame_needed = 0, uses_anonymous_args = 0
 1731              		@ link register save eliminated.
 1732 0950 84B0     		sub	sp, sp, #16
 1733              	.LCFI33:
 1734              		.cfi_def_cfa_offset 16
 1735 0952 0190     		str	r0, [sp, #4]
 1736 0954 0B46     		mov	r3, r1
 1737 0956 8DF80330 		strb	r3, [sp, #3]
1360:../Libraries/STM32F30x_StdPeriph_Driver/src/stm32f30x_spi.c ****   ITStatus bitstatus = RESET;
 1738              		.loc 1 1360 0
 1739 095a 4FF00003 		mov	r3, #0
 1740 095e 8DF80F30 		strb	r3, [sp, #15]
1361:../Libraries/STM32F30x_StdPeriph_Driver/src/stm32f30x_spi.c ****   uint16_t itpos = 0, itmask = 0, enablestatus = 0;
 1741              		.loc 1 1361 0
 1742 0962 4FF00003 		mov	r3, #0
 1743 0966 ADF80C30 		strh	r3, [sp, #12]	@ movhi
 1744 096a 4FF00003 		mov	r3, #0
 1745 096e ADF80A30 		strh	r3, [sp, #10]	@ movhi
 1746 0972 4FF00003 		mov	r3, #0
 1747 0976 ADF80830 		strh	r3, [sp, #8]	@ movhi
1362:../Libraries/STM32F30x_StdPeriph_Driver/src/stm32f30x_spi.c **** 
1363:../Libraries/STM32F30x_StdPeriph_Driver/src/stm32f30x_spi.c ****   /* Check the parameters */
1364:../Libraries/STM32F30x_StdPeriph_Driver/src/stm32f30x_spi.c ****   assert_param(IS_SPI_ALL_PERIPH_EXT(SPIx));
1365:../Libraries/STM32F30x_StdPeriph_Driver/src/stm32f30x_spi.c ****   assert_param(IS_SPI_I2S_GET_IT(SPI_I2S_IT));
1366:../Libraries/STM32F30x_StdPeriph_Driver/src/stm32f30x_spi.c **** 
1367:../Libraries/STM32F30x_StdPeriph_Driver/src/stm32f30x_spi.c ****   /* Get the SPI_I2S_IT index */
1368:../Libraries/STM32F30x_StdPeriph_Driver/src/stm32f30x_spi.c ****   itpos = 0x01 << (SPI_I2S_IT & 0x0F);
 1748              		.loc 1 1368 0
 1749 097a 9DF80330 		ldrb	r3, [sp, #3]	@ zero_extendqisi2
 1750 097e 03F00F03 		and	r3, r3, #15
 1751 0982 4FF00102 		mov	r2, #1
 1752 0986 02FA03F3 		lsl	r3, r2, r3
 1753 098a ADF80C30 		strh	r3, [sp, #12]	@ movhi
1369:../Libraries/STM32F30x_StdPeriph_Driver/src/stm32f30x_spi.c **** 
1370:../Libraries/STM32F30x_StdPeriph_Driver/src/stm32f30x_spi.c ****   /* Get the SPI_I2S_IT IT mask */
1371:../Libraries/STM32F30x_StdPeriph_Driver/src/stm32f30x_spi.c ****   itmask = SPI_I2S_IT >> 4;
 1754              		.loc 1 1371 0
 1755 098e 9DF80330 		ldrb	r3, [sp, #3]	@ zero_extendqisi2
 1756 0992 4FEA1313 		lsr	r3, r3, #4
 1757 0996 DBB2     		uxtb	r3, r3
 1758 0998 ADF80A30 		strh	r3, [sp, #10]	@ movhi
1372:../Libraries/STM32F30x_StdPeriph_Driver/src/stm32f30x_spi.c **** 
1373:../Libraries/STM32F30x_StdPeriph_Driver/src/stm32f30x_spi.c ****   /* Set the IT mask */
1374:../Libraries/STM32F30x_StdPeriph_Driver/src/stm32f30x_spi.c ****   itmask = 0x01 << itmask;
 1759              		.loc 1 1374 0
 1760 099c BDF80A30 		ldrh	r3, [sp, #10]
 1761 09a0 4FF00102 		mov	r2, #1
 1762 09a4 02FA03F3 		lsl	r3, r2, r3
 1763 09a8 ADF80A30 		strh	r3, [sp, #10]	@ movhi
1375:../Libraries/STM32F30x_StdPeriph_Driver/src/stm32f30x_spi.c **** 
1376:../Libraries/STM32F30x_StdPeriph_Driver/src/stm32f30x_spi.c ****   /* Get the SPI_I2S_IT enable bit status */
1377:../Libraries/STM32F30x_StdPeriph_Driver/src/stm32f30x_spi.c ****   enablestatus = (SPIx->CR2 & itmask) ;
 1764              		.loc 1 1377 0
 1765 09ac 019B     		ldr	r3, [sp, #4]
 1766 09ae 9B88     		ldrh	r3, [r3, #4]	@ movhi
 1767 09b0 9AB2     		uxth	r2, r3
 1768 09b2 BDF80A30 		ldrh	r3, [sp, #10]	@ movhi
 1769 09b6 1340     		ands	r3, r3, r2
 1770 09b8 ADF80830 		strh	r3, [sp, #8]	@ movhi
1378:../Libraries/STM32F30x_StdPeriph_Driver/src/stm32f30x_spi.c **** 
1379:../Libraries/STM32F30x_StdPeriph_Driver/src/stm32f30x_spi.c ****   /* Check the status of the specified SPI interrupt */
1380:../Libraries/STM32F30x_StdPeriph_Driver/src/stm32f30x_spi.c ****   if (((SPIx->SR & itpos) != (uint16_t)RESET) && enablestatus)
 1771              		.loc 1 1380 0
 1772 09bc 019B     		ldr	r3, [sp, #4]
 1773 09be 1B89     		ldrh	r3, [r3, #8]	@ movhi
 1774 09c0 9AB2     		uxth	r2, r3
 1775 09c2 BDF80C30 		ldrh	r3, [sp, #12]	@ movhi
 1776 09c6 1340     		ands	r3, r3, r2
 1777 09c8 9BB2     		uxth	r3, r3
 1778 09ca 002B     		cmp	r3, #0
 1779 09cc 08D0     		beq	.L74
 1780              		.loc 1 1380 0 is_stmt 0 discriminator 1
 1781 09ce BDF80830 		ldrh	r3, [sp, #8]
 1782 09d2 002B     		cmp	r3, #0
 1783 09d4 04D0     		beq	.L74
1381:../Libraries/STM32F30x_StdPeriph_Driver/src/stm32f30x_spi.c ****   {
1382:../Libraries/STM32F30x_StdPeriph_Driver/src/stm32f30x_spi.c ****     /* SPI_I2S_IT is set */
1383:../Libraries/STM32F30x_StdPeriph_Driver/src/stm32f30x_spi.c ****     bitstatus = SET;
 1784              		.loc 1 1383 0 is_stmt 1
 1785 09d6 4FF00103 		mov	r3, #1
 1786 09da 8DF80F30 		strb	r3, [sp, #15]
 1787 09de 03E0     		b	.L75
 1788              	.L74:
1384:../Libraries/STM32F30x_StdPeriph_Driver/src/stm32f30x_spi.c ****   }
1385:../Libraries/STM32F30x_StdPeriph_Driver/src/stm32f30x_spi.c ****   else
1386:../Libraries/STM32F30x_StdPeriph_Driver/src/stm32f30x_spi.c ****   {
1387:../Libraries/STM32F30x_StdPeriph_Driver/src/stm32f30x_spi.c ****     /* SPI_I2S_IT is reset */
1388:../Libraries/STM32F30x_StdPeriph_Driver/src/stm32f30x_spi.c ****     bitstatus = RESET;
 1789              		.loc 1 1388 0
 1790 09e0 4FF00003 		mov	r3, #0
 1791 09e4 8DF80F30 		strb	r3, [sp, #15]
 1792              	.L75:
1389:../Libraries/STM32F30x_StdPeriph_Driver/src/stm32f30x_spi.c ****   }
1390:../Libraries/STM32F30x_StdPeriph_Driver/src/stm32f30x_spi.c ****   /* Return the SPI_I2S_IT status */
1391:../Libraries/STM32F30x_StdPeriph_Driver/src/stm32f30x_spi.c ****   return bitstatus;
 1793              		.loc 1 1391 0
 1794 09e8 9DF80F30 		ldrb	r3, [sp, #15]	@ zero_extendqisi2
1392:../Libraries/STM32F30x_StdPeriph_Driver/src/stm32f30x_spi.c **** }
 1795              		.loc 1 1392 0
 1796 09ec 1846     		mov	r0, r3
 1797 09ee 04B0     		add	sp, sp, #16
 1798 09f0 7047     		bx	lr
 1799              		.cfi_endproc
 1800              	.LFE142:
 1802              	.Letext0:
 1803              		.file 2 "c:\\program files\\codesourcery\\sourcery_codebench_lite_for_arm_eabi\\bin\\../lib/gcc/ar
 1804              		.file 3 "D:\\Documents and Settings\\e722209\\Desktop\\workspace\\aq32Plus_F3\\Libraries\\Device\\
 1805              		.file 4 "D:\\Documents and Settings\\e722209\\Desktop\\workspace\\aq32Plus_F3\\Libraries\\STM32F30
 1806              		.file 5 "D:\\Documents and Settings\\e722209\\Desktop\\workspace\\aq32Plus_F3\\Libraries\\STM32F30
 1807              		.file 6 "D:\\Documents and Settings\\e722209\\Desktop\\workspace\\aq32Plus_F3\\Libraries\\CMSIS\\I